ARM GAS  C:\Users\CALEBC~1\AppData\Local\Temp\ccUZyw0h.s 			page 1


   1              		.syntax unified
   2              		.cpu cortex-m3
   3              		.fpu softvfp
   4              		.eabi_attribute 20, 1
   5              		.eabi_attribute 21, 1
   6              		.eabi_attribute 23, 3
   7              		.eabi_attribute 24, 1
   8              		.eabi_attribute 25, 1
   9              		.eabi_attribute 26, 1
  10              		.eabi_attribute 30, 6
  11              		.eabi_attribute 34, 1
  12              		.eabi_attribute 18, 4
  13              		.thumb
  14              		.syntax unified
  15              		.file	"USBFS.c"
  16              		.text
  17              	.Ltext0:
  18              		.cfi_sections	.debug_frame
  19              		.global	USBFS_initVar
  20              		.bss
  21              		.type	USBFS_initVar, %object
  22              		.size	USBFS_initVar, 1
  23              	USBFS_initVar:
  24 0000 00       		.space	1
  25              		.comm	USBFS_DmaChan,9,4
  26              		.comm	USBFS_DmaTd,9,4
  27              		.section	.text.USBFS_Start,"ax",%progbits
  28              		.align	2
  29              		.global	USBFS_Start
  30              		.thumb
  31              		.thumb_func
  32              		.type	USBFS_Start, %function
  33              	USBFS_Start:
  34              	.LFB0:
  35              		.file 1 "Generated_Source\\PSoC5\\USBFS.c"
   1:Generated_Source\PSoC5/USBFS.c **** /***************************************************************************//**
   2:Generated_Source\PSoC5/USBFS.c **** * \file USBFS.c
   3:Generated_Source\PSoC5/USBFS.c **** * \version 3.10
   4:Generated_Source\PSoC5/USBFS.c **** *
   5:Generated_Source\PSoC5/USBFS.c **** * \brief
   6:Generated_Source\PSoC5/USBFS.c **** *  This file contains the global USBFS API functions.
   7:Generated_Source\PSoC5/USBFS.c **** *
   8:Generated_Source\PSoC5/USBFS.c **** * Note:
   9:Generated_Source\PSoC5/USBFS.c **** *  Many of the functions use an endpoint number. SRAM arrays are sized with 9
  10:Generated_Source\PSoC5/USBFS.c **** *  elements, so they are indexed directly by epNumber.  The SIE and ARB
  11:Generated_Source\PSoC5/USBFS.c **** *  registers are indexed by variations of epNumber - 1.
  12:Generated_Source\PSoC5/USBFS.c **** *
  13:Generated_Source\PSoC5/USBFS.c **** ********************************************************************************
  14:Generated_Source\PSoC5/USBFS.c **** * \copyright
  15:Generated_Source\PSoC5/USBFS.c **** * Copyright 2008-2016, Cypress Semiconductor Corporation.  All rights reserved.
  16:Generated_Source\PSoC5/USBFS.c **** * You may use this file only in accordance with the license, terms, conditions,
  17:Generated_Source\PSoC5/USBFS.c **** * disclaimers, and limitations in the end user license agreement accompanying
  18:Generated_Source\PSoC5/USBFS.c **** * the software package with which this file was provided.
  19:Generated_Source\PSoC5/USBFS.c **** *******************************************************************************/
  20:Generated_Source\PSoC5/USBFS.c **** 
  21:Generated_Source\PSoC5/USBFS.c **** #include "USBFS_pvt.h"
  22:Generated_Source\PSoC5/USBFS.c **** #include "USBFS_cydmac.h"
ARM GAS  C:\Users\CALEBC~1\AppData\Local\Temp\ccUZyw0h.s 			page 2


  23:Generated_Source\PSoC5/USBFS.c **** #include "USBFS_hid.h"
  24:Generated_Source\PSoC5/USBFS.c **** #include "USBFS_Dp.h"
  25:Generated_Source\PSoC5/USBFS.c **** 
  26:Generated_Source\PSoC5/USBFS.c **** 
  27:Generated_Source\PSoC5/USBFS.c **** /***************************************
  28:Generated_Source\PSoC5/USBFS.c **** * Global data allocation
  29:Generated_Source\PSoC5/USBFS.c **** ***************************************/
  30:Generated_Source\PSoC5/USBFS.c **** 
  31:Generated_Source\PSoC5/USBFS.c **** /** Indicates whether the USBFS has been initialized. The variable is
  32:Generated_Source\PSoC5/USBFS.c **** * initialized to 0 after device reset and set to 1 the first time USBFS_Start()
  33:Generated_Source\PSoC5/USBFS.c **** * is called. This allows the Component to restart without reinitialization after
  34:Generated_Source\PSoC5/USBFS.c **** * the first call to the USBFS_Start() routine.
  35:Generated_Source\PSoC5/USBFS.c **** * If re-initialization of the Component is required, the variable should be set
  36:Generated_Source\PSoC5/USBFS.c **** * to 0 before the USBFS_Start() routine is called. Alternatively, the USBFS can
  37:Generated_Source\PSoC5/USBFS.c **** * be reinitialized by calling both USBFS_Init() and USBFS_InitComponent()
  38:Generated_Source\PSoC5/USBFS.c **** * functions.
  39:Generated_Source\PSoC5/USBFS.c **** */
  40:Generated_Source\PSoC5/USBFS.c **** uint8 USBFS_initVar = 0u;
  41:Generated_Source\PSoC5/USBFS.c **** 
  42:Generated_Source\PSoC5/USBFS.c **** #if (USBFS_EP_MANAGEMENT_DMA)
  43:Generated_Source\PSoC5/USBFS.c ****     #if (CY_PSOC4)
  44:Generated_Source\PSoC5/USBFS.c ****         static void USBFS_InitEpDma(void);
  45:Generated_Source\PSoC5/USBFS.c **** 
  46:Generated_Source\PSoC5/USBFS.c ****         /* DMA chanels assigend for endpoints. */
  47:Generated_Source\PSoC5/USBFS.c ****         const uint8 USBFS_DmaChan[USBFS_MAX_EP] =
  48:Generated_Source\PSoC5/USBFS.c ****         {
  49:Generated_Source\PSoC5/USBFS.c ****             0u,
  50:Generated_Source\PSoC5/USBFS.c ****             (uint8) USBFS_ep1_dma_CHANNEL,
  51:Generated_Source\PSoC5/USBFS.c ****             (uint8) USBFS_ep2_dma_CHANNEL,
  52:Generated_Source\PSoC5/USBFS.c ****             0u,
  53:Generated_Source\PSoC5/USBFS.c ****             0u,
  54:Generated_Source\PSoC5/USBFS.c ****             0u,
  55:Generated_Source\PSoC5/USBFS.c ****             0u,
  56:Generated_Source\PSoC5/USBFS.c ****             0u,
  57:Generated_Source\PSoC5/USBFS.c ****             0u,
  58:Generated_Source\PSoC5/USBFS.c ****         };        
  59:Generated_Source\PSoC5/USBFS.c ****     #else
  60:Generated_Source\PSoC5/USBFS.c ****         /* DMA chanels assigend for endpoints. */
  61:Generated_Source\PSoC5/USBFS.c ****         uint8 USBFS_DmaChan[USBFS_MAX_EP];
  62:Generated_Source\PSoC5/USBFS.c ****         
  63:Generated_Source\PSoC5/USBFS.c ****         /* DMA TDs require for PSoC 3/5LP operation. */
  64:Generated_Source\PSoC5/USBFS.c ****         uint8 USBFS_DmaTd[USBFS_MAX_EP];
  65:Generated_Source\PSoC5/USBFS.c ****     #endif /* (CY_PSOC4) */
  66:Generated_Source\PSoC5/USBFS.c **** #endif /* (USBFS_EP_MANAGEMENT_DMA) */
  67:Generated_Source\PSoC5/USBFS.c **** 
  68:Generated_Source\PSoC5/USBFS.c **** #if (USBFS_EP_MANAGEMENT_DMA_AUTO)
  69:Generated_Source\PSoC5/USBFS.c **** #if (CY_PSOC4)
  70:Generated_Source\PSoC5/USBFS.c ****     /* Number of DMA bursts. */
  71:Generated_Source\PSoC5/USBFS.c ****     uint8  USBFS_DmaEpBurstCnt   [USBFS_MAX_EP];
  72:Generated_Source\PSoC5/USBFS.c ****     
  73:Generated_Source\PSoC5/USBFS.c ****     /* Number of bytes to transfer in last DMA burst. */
  74:Generated_Source\PSoC5/USBFS.c ****     uint8  USBFS_DmaEpLastBurstEl[USBFS_MAX_EP];
  75:Generated_Source\PSoC5/USBFS.c **** 
  76:Generated_Source\PSoC5/USBFS.c ****     /* Storage for arrays above. */
  77:Generated_Source\PSoC5/USBFS.c ****     uint8  USBFS_DmaEpBurstCntBackup  [USBFS_MAX_EP];
  78:Generated_Source\PSoC5/USBFS.c ****     uint32 USBFS_DmaEpBufferAddrBackup[USBFS_MAX_EP];
  79:Generated_Source\PSoC5/USBFS.c ****      
ARM GAS  C:\Users\CALEBC~1\AppData\Local\Temp\ccUZyw0h.s 			page 3


  80:Generated_Source\PSoC5/USBFS.c ****     /* DMA trigger mux output for usb.dma_req[0-7]. */
  81:Generated_Source\PSoC5/USBFS.c ****     const uint8 USBFS_DmaReqOut[USBFS_MAX_EP] =
  82:Generated_Source\PSoC5/USBFS.c ****     {
  83:Generated_Source\PSoC5/USBFS.c ****         0u,
  84:Generated_Source\PSoC5/USBFS.c ****         USBFS_ep1_dma__TR_OUTPUT,
  85:Generated_Source\PSoC5/USBFS.c ****         USBFS_ep2_dma__TR_OUTPUT,
  86:Generated_Source\PSoC5/USBFS.c ****         0u,
  87:Generated_Source\PSoC5/USBFS.c ****         0u,
  88:Generated_Source\PSoC5/USBFS.c ****         0u,
  89:Generated_Source\PSoC5/USBFS.c ****         0u,
  90:Generated_Source\PSoC5/USBFS.c ****         0u,
  91:Generated_Source\PSoC5/USBFS.c ****         0u,
  92:Generated_Source\PSoC5/USBFS.c ****     };
  93:Generated_Source\PSoC5/USBFS.c **** 
  94:Generated_Source\PSoC5/USBFS.c ****     /* DMA trigger mux output for usb.dma_burstend[0-7]. */
  95:Generated_Source\PSoC5/USBFS.c ****     const uint8 USBFS_DmaBurstEndOut[USBFS_MAX_EP] =
  96:Generated_Source\PSoC5/USBFS.c ****     {
  97:Generated_Source\PSoC5/USBFS.c ****         0u,
  98:Generated_Source\PSoC5/USBFS.c ****         USBFS_BURSTEND_0_TR_OUTPUT,
  99:Generated_Source\PSoC5/USBFS.c ****         USBFS_BURSTEND_1_TR_OUTPUT,
 100:Generated_Source\PSoC5/USBFS.c ****         USBFS_BURSTEND_2_TR_OUTPUT,
 101:Generated_Source\PSoC5/USBFS.c ****         USBFS_BURSTEND_3_TR_OUTPUT,
 102:Generated_Source\PSoC5/USBFS.c ****         USBFS_BURSTEND_4_TR_OUTPUT,
 103:Generated_Source\PSoC5/USBFS.c ****         USBFS_BURSTEND_5_TR_OUTPUT,
 104:Generated_Source\PSoC5/USBFS.c ****         USBFS_BURSTEND_6_TR_OUTPUT,
 105:Generated_Source\PSoC5/USBFS.c ****         USBFS_BURSTEND_7_TR_OUTPUT
 106:Generated_Source\PSoC5/USBFS.c ****     };
 107:Generated_Source\PSoC5/USBFS.c ****     
 108:Generated_Source\PSoC5/USBFS.c **** #else
 109:Generated_Source\PSoC5/USBFS.c ****     #if (USBFS_EP_DMA_AUTO_OPT == 0u)
 110:Generated_Source\PSoC5/USBFS.c ****         static uint8 clearInDataRdyStatus = USBFS_ARB_EPX_CFG_DEFAULT;
 111:Generated_Source\PSoC5/USBFS.c ****         uint8 USBFS_DmaNextTd[USBFS_MAX_EP];
 112:Generated_Source\PSoC5/USBFS.c ****         const uint8 USBFS_epX_TD_TERMOUT_EN[USBFS_MAX_EP] =
 113:Generated_Source\PSoC5/USBFS.c ****         {
 114:Generated_Source\PSoC5/USBFS.c ****             0u,
 115:Generated_Source\PSoC5/USBFS.c ****             USBFS_ep1__TD_TERMOUT_EN,
 116:Generated_Source\PSoC5/USBFS.c ****             USBFS_ep2__TD_TERMOUT_EN,
 117:Generated_Source\PSoC5/USBFS.c ****             0u,
 118:Generated_Source\PSoC5/USBFS.c ****             0u,
 119:Generated_Source\PSoC5/USBFS.c ****             0u,
 120:Generated_Source\PSoC5/USBFS.c ****             0u,
 121:Generated_Source\PSoC5/USBFS.c ****             0u,
 122:Generated_Source\PSoC5/USBFS.c ****             0u,
 123:Generated_Source\PSoC5/USBFS.c ****         };
 124:Generated_Source\PSoC5/USBFS.c **** 
 125:Generated_Source\PSoC5/USBFS.c ****         volatile uint16 USBFS_inLength[USBFS_MAX_EP];
 126:Generated_Source\PSoC5/USBFS.c ****         const uint8 *USBFS_inDataPointer[USBFS_MAX_EP];
 127:Generated_Source\PSoC5/USBFS.c ****         volatile uint8 USBFS_inBufFull[USBFS_MAX_EP];
 128:Generated_Source\PSoC5/USBFS.c ****     #endif /* (USBFS_EP_DMA_AUTO_OPT == 0u) */
 129:Generated_Source\PSoC5/USBFS.c **** #endif /* (CY_PSOC4) */
 130:Generated_Source\PSoC5/USBFS.c **** #endif /* (USBFS_EP_MANAGEMENT_DMA_AUTO) */
 131:Generated_Source\PSoC5/USBFS.c **** 
 132:Generated_Source\PSoC5/USBFS.c **** 
 133:Generated_Source\PSoC5/USBFS.c **** /*******************************************************************************
 134:Generated_Source\PSoC5/USBFS.c **** * Function Name: USBFS_Start
 135:Generated_Source\PSoC5/USBFS.c **** ****************************************************************************//**
 136:Generated_Source\PSoC5/USBFS.c **** *
ARM GAS  C:\Users\CALEBC~1\AppData\Local\Temp\ccUZyw0h.s 			page 4


 137:Generated_Source\PSoC5/USBFS.c **** *   This function performs all required initialization for the USBFS component.
 138:Generated_Source\PSoC5/USBFS.c **** *   After this function call, the USB device initiates communication with the
 139:Generated_Source\PSoC5/USBFS.c **** *   host by pull-up D+ line. This is the preferred method to begin component
 140:Generated_Source\PSoC5/USBFS.c **** *   operation.
 141:Generated_Source\PSoC5/USBFS.c **** *
 142:Generated_Source\PSoC5/USBFS.c **** *   Note that global interrupts have to be enabled because interrupts are
 143:Generated_Source\PSoC5/USBFS.c **** *   required for USBFS component operation.
 144:Generated_Source\PSoC5/USBFS.c **** *
 145:Generated_Source\PSoC5/USBFS.c **** *   PSoC 4200L devices: when USBFS component configured to DMA with Automatic
 146:Generated_Source\PSoC5/USBFS.c **** *   Buffer Management, the DMA interrupt priority is changed to the highest
 147:Generated_Source\PSoC5/USBFS.c **** *   (priority 0) inside this function.
 148:Generated_Source\PSoC5/USBFS.c **** *
 149:Generated_Source\PSoC5/USBFS.c **** *   PSoC 3/PSoC 5LP devices: when USBFS component configured to DMA with
 150:Generated_Source\PSoC5/USBFS.c **** *   Automatic Buffer Management, the Arbiter interrupt priority is changed to
 151:Generated_Source\PSoC5/USBFS.c **** *   the highest (priority 0) inside this function.
 152:Generated_Source\PSoC5/USBFS.c **** *
 153:Generated_Source\PSoC5/USBFS.c **** *  \param device
 154:Generated_Source\PSoC5/USBFS.c **** *          Contains the device number of the desired device descriptor.
 155:Generated_Source\PSoC5/USBFS.c **** *          The device number can be found in the Device Descriptor Tab of
 156:Generated_Source\PSoC5/USBFS.c **** *          "Configure" dialog, under the settings of desired Device Descriptor,
 157:Generated_Source\PSoC5/USBFS.c **** *          in the "Device Number" field.
 158:Generated_Source\PSoC5/USBFS.c **** *  \param mode:
 159:Generated_Source\PSoC5/USBFS.c **** *   The operating voltage. This determines whether the voltage regulator
 160:Generated_Source\PSoC5/USBFS.c **** *   is enabled for 5V operation or if pass through mode is used for 3.3V
 161:Generated_Source\PSoC5/USBFS.c **** *   operation. Symbolic names and their associated values are given in the
 162:Generated_Source\PSoC5/USBFS.c **** *   following list.
 163:Generated_Source\PSoC5/USBFS.c **** *
 164:Generated_Source\PSoC5/USBFS.c **** *       *USBFS_3V_OPERATION* - Disable voltage regulator and pass-
 165:Generated_Source\PSoC5/USBFS.c **** *                                      through Vcc for pull-up
 166:Generated_Source\PSoC5/USBFS.c **** *
 167:Generated_Source\PSoC5/USBFS.c **** *       *USBFS_5V_OPERATION* - Enable voltage regulator and use
 168:Generated_Source\PSoC5/USBFS.c **** *                                      regulator for pull-up
 169:Generated_Source\PSoC5/USBFS.c **** *
 170:Generated_Source\PSoC5/USBFS.c **** *       *USBFS_DWR_POWER_OPERATION* - Enable or disable the voltage
 171:Generated_Source\PSoC5/USBFS.c **** *                                      regulator depending on the power supply
 172:Generated_Source\PSoC5/USBFS.c **** *                                      voltage configuration in the DWR tab.
 173:Generated_Source\PSoC5/USBFS.c **** *                                      For PSoC 3/5LP devices, the VDDD supply
 174:Generated_Source\PSoC5/USBFS.c **** *                                      voltage is considered and for PSoC 4A-L,
 175:Generated_Source\PSoC5/USBFS.c **** *                                      the VBUS supply voltage is considered.*
 176:Generated_Source\PSoC5/USBFS.c **** * \globalvars
 177:Generated_Source\PSoC5/USBFS.c **** *  \ref USBFS_initVar
 178:Generated_Source\PSoC5/USBFS.c **** *
 179:Generated_Source\PSoC5/USBFS.c **** * \sideeffect
 180:Generated_Source\PSoC5/USBFS.c **** *   This function will reset all communication states to default.
 181:Generated_Source\PSoC5/USBFS.c **** *
 182:Generated_Source\PSoC5/USBFS.c **** * \reentrant
 183:Generated_Source\PSoC5/USBFS.c **** *  No.
 184:Generated_Source\PSoC5/USBFS.c **** *
 185:Generated_Source\PSoC5/USBFS.c **** *******************************************************************************/
 186:Generated_Source\PSoC5/USBFS.c **** void USBFS_Start(uint8 device, uint8 mode) 
 187:Generated_Source\PSoC5/USBFS.c **** {
  36              		.loc 1 187 0
  37              		.cfi_startproc
  38              		@ args = 0, pretend = 0, frame = 8
  39              		@ frame_needed = 1, uses_anonymous_args = 0
  40 0000 80B5     		push	{r7, lr}
  41              		.cfi_def_cfa_offset 8
ARM GAS  C:\Users\CALEBC~1\AppData\Local\Temp\ccUZyw0h.s 			page 5


  42              		.cfi_offset 7, -8
  43              		.cfi_offset 14, -4
  44 0002 82B0     		sub	sp, sp, #8
  45              		.cfi_def_cfa_offset 16
  46 0004 00AF     		add	r7, sp, #0
  47              		.cfi_def_cfa_register 7
  48 0006 0346     		mov	r3, r0
  49 0008 0A46     		mov	r2, r1
  50 000a FB71     		strb	r3, [r7, #7]
  51 000c 1346     		mov	r3, r2
  52 000e BB71     		strb	r3, [r7, #6]
 188:Generated_Source\PSoC5/USBFS.c ****     if (0u == USBFS_initVar)
  53              		.loc 1 188 0
  54 0010 094B     		ldr	r3, .L3
  55 0012 1B78     		ldrb	r3, [r3]	@ zero_extendqisi2
  56 0014 002B     		cmp	r3, #0
  57 0016 04D1     		bne	.L2
 189:Generated_Source\PSoC5/USBFS.c ****     {
 190:Generated_Source\PSoC5/USBFS.c ****         USBFS_Init();
  58              		.loc 1 190 0
  59 0018 FFF7FEFF 		bl	USBFS_Init
 191:Generated_Source\PSoC5/USBFS.c ****         USBFS_initVar = 1u;
  60              		.loc 1 191 0
  61 001c 064B     		ldr	r3, .L3
  62 001e 0122     		movs	r2, #1
  63 0020 1A70     		strb	r2, [r3]
  64              	.L2:
 192:Generated_Source\PSoC5/USBFS.c ****     }
 193:Generated_Source\PSoC5/USBFS.c **** 
 194:Generated_Source\PSoC5/USBFS.c ****     USBFS_InitComponent(device, mode);
  65              		.loc 1 194 0
  66 0022 BA79     		ldrb	r2, [r7, #6]	@ zero_extendqisi2
  67 0024 FB79     		ldrb	r3, [r7, #7]	@ zero_extendqisi2
  68 0026 1146     		mov	r1, r2
  69 0028 1846     		mov	r0, r3
  70 002a FFF7FEFF 		bl	USBFS_InitComponent
 195:Generated_Source\PSoC5/USBFS.c **** }
  71              		.loc 1 195 0
  72 002e 00BF     		nop
  73 0030 0837     		adds	r7, r7, #8
  74              		.cfi_def_cfa_offset 8
  75 0032 BD46     		mov	sp, r7
  76              		.cfi_def_cfa_register 13
  77              		@ sp needed
  78 0034 80BD     		pop	{r7, pc}
  79              	.L4:
  80 0036 00BF     		.align	2
  81              	.L3:
  82 0038 00000000 		.word	USBFS_initVar
  83              		.cfi_endproc
  84              	.LFE0:
  85              		.size	USBFS_Start, .-USBFS_Start
  86              		.section	.text.USBFS_Init,"ax",%progbits
  87              		.align	2
  88              		.global	USBFS_Init
  89              		.thumb
  90              		.thumb_func
ARM GAS  C:\Users\CALEBC~1\AppData\Local\Temp\ccUZyw0h.s 			page 6


  91              		.type	USBFS_Init, %function
  92              	USBFS_Init:
  93              	.LFB1:
 196:Generated_Source\PSoC5/USBFS.c **** 
 197:Generated_Source\PSoC5/USBFS.c **** 
 198:Generated_Source\PSoC5/USBFS.c **** /*******************************************************************************
 199:Generated_Source\PSoC5/USBFS.c **** * Function Name: USBFS_Init
 200:Generated_Source\PSoC5/USBFS.c **** ****************************************************************************//**
 201:Generated_Source\PSoC5/USBFS.c **** *
 202:Generated_Source\PSoC5/USBFS.c **** * This function initializes or restores the component according to the
 203:Generated_Source\PSoC5/USBFS.c **** * customizer Configure dialog settings. It is not necessary to call
 204:Generated_Source\PSoC5/USBFS.c **** * USBFS_Init() because the USBFS_Start() routine calls
 205:Generated_Source\PSoC5/USBFS.c **** * this function and is the preferred method to begin component operation.
 206:Generated_Source\PSoC5/USBFS.c **** *
 207:Generated_Source\PSoC5/USBFS.c **** * \reentrant
 208:Generated_Source\PSoC5/USBFS.c **** *  No.
 209:Generated_Source\PSoC5/USBFS.c **** *
 210:Generated_Source\PSoC5/USBFS.c **** *******************************************************************************/
 211:Generated_Source\PSoC5/USBFS.c **** void USBFS_Init(void) 
 212:Generated_Source\PSoC5/USBFS.c **** {
  94              		.loc 1 212 0
  95              		.cfi_startproc
  96              		@ args = 0, pretend = 0, frame = 8
  97              		@ frame_needed = 1, uses_anonymous_args = 0
  98 0000 80B5     		push	{r7, lr}
  99              		.cfi_def_cfa_offset 8
 100              		.cfi_offset 7, -8
 101              		.cfi_offset 14, -4
 102 0002 82B0     		sub	sp, sp, #8
 103              		.cfi_def_cfa_offset 16
 104 0004 00AF     		add	r7, sp, #0
 105              		.cfi_def_cfa_register 7
 213:Generated_Source\PSoC5/USBFS.c **** #if (CY_PSOC4)
 214:Generated_Source\PSoC5/USBFS.c ****     /* Enable clock to USB IP. */
 215:Generated_Source\PSoC5/USBFS.c ****     USBFS_USB_CLK_EN_REG = USBFS_USB_CLK_CSR_CLK_EN;
 216:Generated_Source\PSoC5/USBFS.c **** 
 217:Generated_Source\PSoC5/USBFS.c ****     /* The internal regulator (CR1.REG_ENABLE) is enabled in
 218:Generated_Source\PSoC5/USBFS.c ****     * USBFS_InitComponent() if it is required.
 219:Generated_Source\PSoC5/USBFS.c ****     */
 220:Generated_Source\PSoC5/USBFS.c **** 
 221:Generated_Source\PSoC5/USBFS.c ****     /* Enable USBIO control on drive mode of D+ and D- pins. */
 222:Generated_Source\PSoC5/USBFS.c ****     USBFS_USBIO_CR1_REG &= ~ (uint32) USBFS_USBIO_CR1_IOMODE;
 223:Generated_Source\PSoC5/USBFS.c **** 
 224:Generated_Source\PSoC5/USBFS.c ****     /* Set number of LF CLK to detect UBS bus reset. */
 225:Generated_Source\PSoC5/USBFS.c ****     USBFS_BUS_RST_CNT_REG = USBFS_DEFUALT_BUS_RST_CNT;
 226:Generated_Source\PSoC5/USBFS.c **** 
 227:Generated_Source\PSoC5/USBFS.c ****     /* Select VBUS detection source and clear PHY isolate. The application level
 228:Generated_Source\PSoC5/USBFS.c ****     * must ensure that VBUS is valid. There is no need to wait 2us before VBUS is valid.
 229:Generated_Source\PSoC5/USBFS.c ****     */
 230:Generated_Source\PSoC5/USBFS.c ****     USBFS_POWER_CTRL_REG = USBFS_DEFAULT_POWER_CTRL_VBUS;
 231:Generated_Source\PSoC5/USBFS.c **** 
 232:Generated_Source\PSoC5/USBFS.c ****     /* Enable PHY detector and single-ended and differential receivers. */
 233:Generated_Source\PSoC5/USBFS.c ****     USBFS_POWER_CTRL_REG |= USBFS_DEFAULT_POWER_CTRL_PHY;
 234:Generated_Source\PSoC5/USBFS.c **** 
 235:Generated_Source\PSoC5/USBFS.c ****     /* Suspend clear sequence. */
 236:Generated_Source\PSoC5/USBFS.c ****     USBFS_POWER_CTRL_REG &= (uint32) ~USBFS_POWER_CTRL_SUSPEND;
 237:Generated_Source\PSoC5/USBFS.c ****     CyDelayUs(USBFS_WAIT_SUSPEND_DEL_DISABLE);
ARM GAS  C:\Users\CALEBC~1\AppData\Local\Temp\ccUZyw0h.s 			page 7


 238:Generated_Source\PSoC5/USBFS.c ****     USBFS_POWER_CTRL_REG &= (uint32) ~USBFS_POWER_CTRL_SUSPEND_DEL;
 239:Generated_Source\PSoC5/USBFS.c **** 
 240:Generated_Source\PSoC5/USBFS.c ****     /* Sets IMO lock options and clear all other bits. */
 241:Generated_Source\PSoC5/USBFS.c ****     USBFS_CR1_REG = USBFS_DEFUALT_CR1;
 242:Generated_Source\PSoC5/USBFS.c **** 
 243:Generated_Source\PSoC5/USBFS.c ****     /* Configure level (hi, lo, med) for each interrupt source. */
 244:Generated_Source\PSoC5/USBFS.c ****     USBFS_INTR_LVL_SEL_REG = USBFS_DEFAULT_INTR_LVL_SEL;
 245:Generated_Source\PSoC5/USBFS.c **** 
 246:Generated_Source\PSoC5/USBFS.c ****     /* Configure interrupt sources from: SOF, Bus Reset and EP0. */
 247:Generated_Source\PSoC5/USBFS.c ****     USBFS_INTR_SIE_MASK_REG = USBFS_DEFAULT_INTR_SIE_MASK;
 248:Generated_Source\PSoC5/USBFS.c **** 
 249:Generated_Source\PSoC5/USBFS.c **** #else
 250:Generated_Source\PSoC5/USBFS.c ****     uint8 enableInterrupts = CyEnterCriticalSection();
 106              		.loc 1 250 0
 107 0006 FFF7FEFF 		bl	CyEnterCriticalSection
 108 000a 0346     		mov	r3, r0
 109 000c 7B71     		strb	r3, [r7, #5]
 251:Generated_Source\PSoC5/USBFS.c **** 
 252:Generated_Source\PSoC5/USBFS.c **** #if (USBFS_EP_MANAGEMENT_DMA)
 253:Generated_Source\PSoC5/USBFS.c ****     uint16 i;
 254:Generated_Source\PSoC5/USBFS.c **** #endif /* (USBFS_EP_MANAGEMENT_DMA) */
 255:Generated_Source\PSoC5/USBFS.c **** 
 256:Generated_Source\PSoC5/USBFS.c ****     /* Enable USB block. */
 257:Generated_Source\PSoC5/USBFS.c ****     USBFS_PM_ACT_CFG_REG |= USBFS_PM_ACT_EN_FSUSB;
 110              		.loc 1 257 0
 111 000e 564A     		ldr	r2, .L8
 112 0010 554B     		ldr	r3, .L8
 113 0012 1B78     		ldrb	r3, [r3]
 114 0014 DBB2     		uxtb	r3, r3
 115 0016 43F00103 		orr	r3, r3, #1
 116 001a DBB2     		uxtb	r3, r3
 117 001c 1370     		strb	r3, [r2]
 258:Generated_Source\PSoC5/USBFS.c ****     /* Enable USB block for Standby Power Mode. */
 259:Generated_Source\PSoC5/USBFS.c ****     USBFS_PM_STBY_CFG_REG |= USBFS_PM_STBY_EN_FSUSB;
 118              		.loc 1 259 0
 119 001e 534A     		ldr	r2, .L8+4
 120 0020 524B     		ldr	r3, .L8+4
 121 0022 1B78     		ldrb	r3, [r3]
 122 0024 DBB2     		uxtb	r3, r3
 123 0026 43F00103 		orr	r3, r3, #1
 124 002a DBB2     		uxtb	r3, r3
 125 002c 1370     		strb	r3, [r2]
 260:Generated_Source\PSoC5/USBFS.c **** 
 261:Generated_Source\PSoC5/USBFS.c ****     /* Enable core clock. */
 262:Generated_Source\PSoC5/USBFS.c ****     USBFS_USB_CLK_EN_REG = USBFS_USB_CLK_ENABLE;
 126              		.loc 1 262 0
 127 002e 504B     		ldr	r3, .L8+8
 128 0030 0122     		movs	r2, #1
 129 0032 1A70     		strb	r2, [r3]
 263:Generated_Source\PSoC5/USBFS.c **** 
 264:Generated_Source\PSoC5/USBFS.c ****     USBFS_CR1_REG = USBFS_CR1_ENABLE_LOCK;
 130              		.loc 1 264 0
 131 0034 4F4B     		ldr	r3, .L8+12
 132 0036 0222     		movs	r2, #2
 133 0038 1A70     		strb	r2, [r3]
 265:Generated_Source\PSoC5/USBFS.c **** 
 266:Generated_Source\PSoC5/USBFS.c ****     /* ENABLING USBIO PADS IN USB MODE FROM I/O MODE. */
ARM GAS  C:\Users\CALEBC~1\AppData\Local\Temp\ccUZyw0h.s 			page 8


 267:Generated_Source\PSoC5/USBFS.c ****     /* Ensure USB transmit enable is low (USB_USBIO_CR0.ten). - Manual Transmission - Disabled. */
 268:Generated_Source\PSoC5/USBFS.c ****     USBFS_USBIO_CR0_REG &= (uint8) ~USBFS_USBIO_CR0_TEN;
 134              		.loc 1 268 0
 135 003a 4F4A     		ldr	r2, .L8+16
 136 003c 4E4B     		ldr	r3, .L8+16
 137 003e 1B78     		ldrb	r3, [r3]
 138 0040 DBB2     		uxtb	r3, r3
 139 0042 03F07F03 		and	r3, r3, #127
 140 0046 DBB2     		uxtb	r3, r3
 141 0048 1370     		strb	r3, [r2]
 269:Generated_Source\PSoC5/USBFS.c ****     CyDelayUs(USBFS_WAIT_REG_STABILITY_50NS);  /* ~50ns delay. */
 142              		.loc 1 269 0
 143 004a 0020     		movs	r0, #0
 144 004c FFF7FEFF 		bl	CyDelayUs
 270:Generated_Source\PSoC5/USBFS.c ****     /* Disable USBIO by asserting PM.USB_CR0.fsusbio_pd_n(Inverted.
 271:Generated_Source\PSoC5/USBFS.c ****     *  high. These bits will be set low by the power manager out-of-reset.
 272:Generated_Source\PSoC5/USBFS.c ****     *  Also confirm USBIO pull-up is disabled.
 273:Generated_Source\PSoC5/USBFS.c ****     */
 274:Generated_Source\PSoC5/USBFS.c ****     USBFS_PM_USB_CR0_REG &= (uint8) ~(USBFS_PM_USB_CR0_PD_N |
 145              		.loc 1 274 0
 146 0050 4A4A     		ldr	r2, .L8+20
 147 0052 4A4B     		ldr	r3, .L8+20
 148 0054 1B78     		ldrb	r3, [r3]
 149 0056 DBB2     		uxtb	r3, r3
 150 0058 23F00603 		bic	r3, r3, #6
 151 005c DBB2     		uxtb	r3, r3
 152 005e 1370     		strb	r3, [r2]
 275:Generated_Source\PSoC5/USBFS.c ****                                                  USBFS_PM_USB_CR0_PD_PULLUP_N);
 276:Generated_Source\PSoC5/USBFS.c **** 
 277:Generated_Source\PSoC5/USBFS.c ****     /* Select IOMODE to USB mode. */
 278:Generated_Source\PSoC5/USBFS.c ****     USBFS_USBIO_CR1_REG &= (uint8) ~USBFS_USBIO_CR1_IOMODE;
 153              		.loc 1 278 0
 154 0060 474A     		ldr	r2, .L8+24
 155 0062 474B     		ldr	r3, .L8+24
 156 0064 1B78     		ldrb	r3, [r3]
 157 0066 DBB2     		uxtb	r3, r3
 158 0068 23F02003 		bic	r3, r3, #32
 159 006c DBB2     		uxtb	r3, r3
 160 006e 1370     		strb	r3, [r2]
 279:Generated_Source\PSoC5/USBFS.c **** 
 280:Generated_Source\PSoC5/USBFS.c ****     /* Enable USBIO reference by setting PM.USB_CR0.fsusbio_ref_en. */
 281:Generated_Source\PSoC5/USBFS.c ****     USBFS_PM_USB_CR0_REG |= USBFS_PM_USB_CR0_REF_EN;
 161              		.loc 1 281 0
 162 0070 424A     		ldr	r2, .L8+20
 163 0072 424B     		ldr	r3, .L8+20
 164 0074 1B78     		ldrb	r3, [r3]
 165 0076 DBB2     		uxtb	r3, r3
 166 0078 43F00103 		orr	r3, r3, #1
 167 007c DBB2     		uxtb	r3, r3
 168 007e 1370     		strb	r3, [r2]
 282:Generated_Source\PSoC5/USBFS.c ****     /* Reference is available for 1us after regulator is enabled. */
 283:Generated_Source\PSoC5/USBFS.c ****     CyDelayUs(USBFS_WAIT_REG_STABILITY_1US);
 169              		.loc 1 283 0
 170 0080 0120     		movs	r0, #1
 171 0082 FFF7FEFF 		bl	CyDelayUs
 284:Generated_Source\PSoC5/USBFS.c ****     /* OR 40us after power is restored. */
 285:Generated_Source\PSoC5/USBFS.c ****     CyDelayUs(USBFS_WAIT_VREF_RESTORE);
ARM GAS  C:\Users\CALEBC~1\AppData\Local\Temp\ccUZyw0h.s 			page 9


 172              		.loc 1 285 0
 173 0086 2820     		movs	r0, #40
 174 0088 FFF7FEFF 		bl	CyDelayUs
 286:Generated_Source\PSoC5/USBFS.c ****     /* Ensure single-ended disable bits are low (PRT15.INP_DIS[7:6])(input receiver enabled). */
 287:Generated_Source\PSoC5/USBFS.c ****     USBFS_DM_INP_DIS_REG &= (uint8) ~USBFS_DM_MASK;
 175              		.loc 1 287 0
 176 008c 3D4A     		ldr	r2, .L8+28
 177 008e 3D4B     		ldr	r3, .L8+28
 178 0090 1B78     		ldrb	r3, [r3]
 179 0092 DBB2     		uxtb	r3, r3
 180 0094 03F07F03 		and	r3, r3, #127
 181 0098 DBB2     		uxtb	r3, r3
 182 009a 1370     		strb	r3, [r2]
 288:Generated_Source\PSoC5/USBFS.c ****     USBFS_DP_INP_DIS_REG &= (uint8) ~USBFS_DP_MASK;
 183              		.loc 1 288 0
 184 009c 394A     		ldr	r2, .L8+28
 185 009e 394B     		ldr	r3, .L8+28
 186 00a0 1B78     		ldrb	r3, [r3]
 187 00a2 DBB2     		uxtb	r3, r3
 188 00a4 23F04003 		bic	r3, r3, #64
 189 00a8 DBB2     		uxtb	r3, r3
 190 00aa 1370     		strb	r3, [r2]
 289:Generated_Source\PSoC5/USBFS.c **** 
 290:Generated_Source\PSoC5/USBFS.c ****     /* Enable USBIO. */
 291:Generated_Source\PSoC5/USBFS.c ****     USBFS_PM_USB_CR0_REG |= USBFS_PM_USB_CR0_PD_N;
 191              		.loc 1 291 0
 192 00ac 334A     		ldr	r2, .L8+20
 193 00ae 334B     		ldr	r3, .L8+20
 194 00b0 1B78     		ldrb	r3, [r3]
 195 00b2 DBB2     		uxtb	r3, r3
 196 00b4 43F00203 		orr	r3, r3, #2
 197 00b8 DBB2     		uxtb	r3, r3
 198 00ba 1370     		strb	r3, [r2]
 292:Generated_Source\PSoC5/USBFS.c ****     CyDelayUs(USBFS_WAIT_PD_PULLUP_N_ENABLE);
 199              		.loc 1 292 0
 200 00bc 0220     		movs	r0, #2
 201 00be FFF7FEFF 		bl	CyDelayUs
 293:Generated_Source\PSoC5/USBFS.c ****     /* Set USBIO pull-up enable. */
 294:Generated_Source\PSoC5/USBFS.c ****     USBFS_PM_USB_CR0_REG |= USBFS_PM_USB_CR0_PD_PULLUP_N;
 202              		.loc 1 294 0
 203 00c2 2E4A     		ldr	r2, .L8+20
 204 00c4 2D4B     		ldr	r3, .L8+20
 205 00c6 1B78     		ldrb	r3, [r3]
 206 00c8 DBB2     		uxtb	r3, r3
 207 00ca 43F00403 		orr	r3, r3, #4
 208 00ce DBB2     		uxtb	r3, r3
 209 00d0 1370     		strb	r3, [r2]
 295:Generated_Source\PSoC5/USBFS.c **** 
 296:Generated_Source\PSoC5/USBFS.c ****     /* Reset Arbiter Write Address register for endpoint 1. */
 297:Generated_Source\PSoC5/USBFS.c ****     CY_SET_REG8(USBFS_ARB_RW1_WA_PTR,     0u);
 210              		.loc 1 297 0
 211 00d2 2D4B     		ldr	r3, .L8+32
 212 00d4 0022     		movs	r2, #0
 213 00d6 1A70     		strb	r2, [r3]
 298:Generated_Source\PSoC5/USBFS.c ****     CY_SET_REG8(USBFS_ARB_RW1_WA_MSB_PTR, 0u);
 214              		.loc 1 298 0
 215 00d8 2C4B     		ldr	r3, .L8+36
ARM GAS  C:\Users\CALEBC~1\AppData\Local\Temp\ccUZyw0h.s 			page 10


 216 00da 0022     		movs	r2, #0
 217 00dc 1A70     		strb	r2, [r3]
 299:Generated_Source\PSoC5/USBFS.c **** 
 300:Generated_Source\PSoC5/USBFS.c **** #if (USBFS_EP_MANAGEMENT_DMA)
 301:Generated_Source\PSoC5/USBFS.c ****     /* Initialize transfer descriptor. This will be used to detect DMA state - initialized or not. 
 302:Generated_Source\PSoC5/USBFS.c ****     for (i = 0u; i < USBFS_MAX_EP; ++i)
 218              		.loc 1 302 0
 219 00de 0023     		movs	r3, #0
 220 00e0 FB80     		strh	r3, [r7, #6]	@ movhi
 221 00e2 06E0     		b	.L6
 222              	.L7:
 303:Generated_Source\PSoC5/USBFS.c ****     {
 304:Generated_Source\PSoC5/USBFS.c ****         USBFS_DmaTd[i] = DMA_INVALID_TD;
 223              		.loc 1 304 0 discriminator 3
 224 00e4 FB88     		ldrh	r3, [r7, #6]
 225 00e6 2A4A     		ldr	r2, .L8+40
 226 00e8 FF21     		movs	r1, #255
 227 00ea D154     		strb	r1, [r2, r3]
 302:Generated_Source\PSoC5/USBFS.c ****     {
 228              		.loc 1 302 0 discriminator 3
 229 00ec FB88     		ldrh	r3, [r7, #6]	@ movhi
 230 00ee 0133     		adds	r3, r3, #1
 231 00f0 FB80     		strh	r3, [r7, #6]	@ movhi
 232              	.L6:
 302:Generated_Source\PSoC5/USBFS.c ****     {
 233              		.loc 1 302 0 is_stmt 0 discriminator 1
 234 00f2 FB88     		ldrh	r3, [r7, #6]
 235 00f4 082B     		cmp	r3, #8
 236 00f6 F5D9     		bls	.L7
 305:Generated_Source\PSoC5/USBFS.c **** 
 306:Generated_Source\PSoC5/USBFS.c ****     #if (USBFS_EP_MANAGEMENT_DMA_AUTO && (USBFS_EP_DMA_AUTO_OPT == 0u))
 307:Generated_Source\PSoC5/USBFS.c ****         USBFS_DmaNextTd[i] = DMA_INVALID_TD;
 308:Generated_Source\PSoC5/USBFS.c ****     #endif /* (USBFS_EP_MANAGEMENT_DMA_AUTO && (USBFS_EP_DMA_AUTO_OPT == 0u)) */
 309:Generated_Source\PSoC5/USBFS.c ****     }
 310:Generated_Source\PSoC5/USBFS.c **** #endif /* (USBFS_EP_MANAGEMENT_DMA) */
 311:Generated_Source\PSoC5/USBFS.c **** 
 312:Generated_Source\PSoC5/USBFS.c ****     CyExitCriticalSection(enableInterrupts);
 237              		.loc 1 312 0 is_stmt 1
 238 00f8 7B79     		ldrb	r3, [r7, #5]	@ zero_extendqisi2
 239 00fa 1846     		mov	r0, r3
 240 00fc FFF7FEFF 		bl	CyExitCriticalSection
 313:Generated_Source\PSoC5/USBFS.c **** #endif /* (CY_PSOC4) */
 314:Generated_Source\PSoC5/USBFS.c **** 
 315:Generated_Source\PSoC5/USBFS.c ****     /* Configure interrupts from USB block. */
 316:Generated_Source\PSoC5/USBFS.c **** #if (CY_PSOC4)
 317:Generated_Source\PSoC5/USBFS.c ****     /* Configure hi_int: set handler and priority. */
 318:Generated_Source\PSoC5/USBFS.c ****     CyIntSetPriority     (USBFS_INTR_HI_VECT_NUM,  USBFS_INTR_HI_PRIORITY);
 319:Generated_Source\PSoC5/USBFS.c ****     (void) CyIntSetVector(USBFS_INTR_HI_VECT_NUM, &USBFS_INTR_HI_ISR);
 320:Generated_Source\PSoC5/USBFS.c **** 
 321:Generated_Source\PSoC5/USBFS.c ****     /* Configure lo_int: set handler and priority. */
 322:Generated_Source\PSoC5/USBFS.c ****     CyIntSetPriority     (USBFS_INTR_LO_VECT_NUM,  USBFS_INTR_LO_PRIORITY);
 323:Generated_Source\PSoC5/USBFS.c ****     (void) CyIntSetVector(USBFS_INTR_LO_VECT_NUM, &USBFS_INTR_LO_ISR);
 324:Generated_Source\PSoC5/USBFS.c **** 
 325:Generated_Source\PSoC5/USBFS.c ****     /* Configure med_int: set handler and priority (routed through DSI). */
 326:Generated_Source\PSoC5/USBFS.c ****     CyIntSetPriority     (USBFS_INTR_MED_VECT_NUM,  USBFS_INTR_MED_PRIORITY);
 327:Generated_Source\PSoC5/USBFS.c ****     (void) CyIntSetVector(USBFS_INTR_MED_VECT_NUM, &USBFS_INTR_MED_ISR);
 328:Generated_Source\PSoC5/USBFS.c **** 
ARM GAS  C:\Users\CALEBC~1\AppData\Local\Temp\ccUZyw0h.s 			page 11


 329:Generated_Source\PSoC5/USBFS.c **** #else
 330:Generated_Source\PSoC5/USBFS.c ****     /* Set bus reset interrupt. */
 331:Generated_Source\PSoC5/USBFS.c ****     CyIntSetPriority(USBFS_BUS_RESET_VECT_NUM, USBFS_BUS_RESET_PRIOR);
 241              		.loc 1 331 0
 242 0100 0721     		movs	r1, #7
 243 0102 1720     		movs	r0, #23
 244 0104 FFF7FEFF 		bl	CyIntSetPriority
 332:Generated_Source\PSoC5/USBFS.c ****     (void) CyIntSetVector(USBFS_BUS_RESET_VECT_NUM,   &USBFS_BUS_RESET_ISR);
 245              		.loc 1 332 0
 246 0108 2249     		ldr	r1, .L8+44
 247 010a 1720     		movs	r0, #23
 248 010c FFF7FEFF 		bl	CyIntSetVector
 333:Generated_Source\PSoC5/USBFS.c **** 
 334:Generated_Source\PSoC5/USBFS.c ****     /* Set Control Endpoint Interrupt. */
 335:Generated_Source\PSoC5/USBFS.c ****     CyIntSetPriority(USBFS_EP_0_VECT_NUM, USBFS_EP_0_PRIOR);
 249              		.loc 1 335 0
 250 0110 0721     		movs	r1, #7
 251 0112 1820     		movs	r0, #24
 252 0114 FFF7FEFF 		bl	CyIntSetPriority
 336:Generated_Source\PSoC5/USBFS.c ****     (void) CyIntSetVector(USBFS_EP_0_VECT_NUM,   &USBFS_EP_0_ISR);
 253              		.loc 1 336 0
 254 0118 1F49     		ldr	r1, .L8+48
 255 011a 1820     		movs	r0, #24
 256 011c FFF7FEFF 		bl	CyIntSetVector
 337:Generated_Source\PSoC5/USBFS.c **** 
 338:Generated_Source\PSoC5/USBFS.c ****     /* Set SOF interrupt. */
 339:Generated_Source\PSoC5/USBFS.c ****     #if (USBFS_SOF_ISR_ACTIVE)
 340:Generated_Source\PSoC5/USBFS.c ****         CyIntSetPriority     (USBFS_SOF_VECT_NUM,  USBFS_SOF_PRIOR);
 341:Generated_Source\PSoC5/USBFS.c ****         (void) CyIntSetVector(USBFS_SOF_VECT_NUM, &USBFS_SOF_ISR);
 342:Generated_Source\PSoC5/USBFS.c ****     #endif /* (USBFS_SOF_ISR_ACTIVE) */
 343:Generated_Source\PSoC5/USBFS.c **** 
 344:Generated_Source\PSoC5/USBFS.c ****     /* Set Data Endpoint 1 Interrupt. */
 345:Generated_Source\PSoC5/USBFS.c ****     #if (USBFS_EP1_ISR_ACTIVE)
 346:Generated_Source\PSoC5/USBFS.c ****         CyIntSetPriority     (USBFS_EP_1_VECT_NUM,  USBFS_EP_1_PRIOR);
 257              		.loc 1 346 0
 258 0120 0721     		movs	r1, #7
 259 0122 0020     		movs	r0, #0
 260 0124 FFF7FEFF 		bl	CyIntSetPriority
 347:Generated_Source\PSoC5/USBFS.c ****         (void) CyIntSetVector(USBFS_EP_1_VECT_NUM,  &USBFS_EP_1_ISR);
 261              		.loc 1 347 0
 262 0128 1C49     		ldr	r1, .L8+52
 263 012a 0020     		movs	r0, #0
 264 012c FFF7FEFF 		bl	CyIntSetVector
 348:Generated_Source\PSoC5/USBFS.c ****     #endif /* (USBFS_EP1_ISR_ACTIVE) */
 349:Generated_Source\PSoC5/USBFS.c **** 
 350:Generated_Source\PSoC5/USBFS.c ****     /* Set Data Endpoint 2 Interrupt. */
 351:Generated_Source\PSoC5/USBFS.c ****     #if (USBFS_EP2_ISR_ACTIVE)
 352:Generated_Source\PSoC5/USBFS.c ****         CyIntSetPriority     (USBFS_EP_2_VECT_NUM,  USBFS_EP_2_PRIOR);
 265              		.loc 1 352 0
 266 0130 0721     		movs	r1, #7
 267 0132 0120     		movs	r0, #1
 268 0134 FFF7FEFF 		bl	CyIntSetPriority
 353:Generated_Source\PSoC5/USBFS.c ****         (void) CyIntSetVector(USBFS_EP_2_VECT_NUM, &USBFS_EP_2_ISR);
 269              		.loc 1 353 0
 270 0138 1949     		ldr	r1, .L8+56
 271 013a 0120     		movs	r0, #1
 272 013c FFF7FEFF 		bl	CyIntSetVector
ARM GAS  C:\Users\CALEBC~1\AppData\Local\Temp\ccUZyw0h.s 			page 12


 354:Generated_Source\PSoC5/USBFS.c ****     #endif /* (USBFS_EP2_ISR_ACTIVE) */
 355:Generated_Source\PSoC5/USBFS.c **** 
 356:Generated_Source\PSoC5/USBFS.c ****     /* Set Data Endpoint 3 Interrupt. */
 357:Generated_Source\PSoC5/USBFS.c ****     #if (USBFS_EP3_ISR_ACTIVE)
 358:Generated_Source\PSoC5/USBFS.c ****         CyIntSetPriority     (USBFS_EP_3_VECT_NUM,  USBFS_EP_3_PRIOR);
 359:Generated_Source\PSoC5/USBFS.c ****         (void) CyIntSetVector(USBFS_EP_3_VECT_NUM, &USBFS_EP_3_ISR);
 360:Generated_Source\PSoC5/USBFS.c ****     #endif /* (USBFS_EP3_ISR_ACTIVE) */
 361:Generated_Source\PSoC5/USBFS.c **** 
 362:Generated_Source\PSoC5/USBFS.c ****     /* Set Data Endpoint 4 Interrupt. */
 363:Generated_Source\PSoC5/USBFS.c ****     #if (USBFS_EP4_ISR_ACTIVE)
 364:Generated_Source\PSoC5/USBFS.c ****         CyIntSetPriority     (USBFS_EP_4_VECT_NUM,  USBFS_EP_4_PRIOR);
 365:Generated_Source\PSoC5/USBFS.c ****         (void) CyIntSetVector(USBFS_EP_4_VECT_NUM, &USBFS_EP_4_ISR);
 366:Generated_Source\PSoC5/USBFS.c ****     #endif /* (USBFS_EP4_ISR_ACTIVE) */
 367:Generated_Source\PSoC5/USBFS.c **** 
 368:Generated_Source\PSoC5/USBFS.c ****     /* Set Data Endpoint 5 Interrupt. */
 369:Generated_Source\PSoC5/USBFS.c ****     #if (USBFS_EP5_ISR_ACTIVE)
 370:Generated_Source\PSoC5/USBFS.c ****         CyIntSetPriority     (USBFS_EP_5_VECT_NUM,  USBFS_EP_5_PRIOR);
 371:Generated_Source\PSoC5/USBFS.c ****         (void) CyIntSetVector(USBFS_EP_5_VECT_NUM, &USBFS_EP_5_ISR);
 372:Generated_Source\PSoC5/USBFS.c ****     #endif /* (USBFS_EP5_ISR_ACTIVE) */
 373:Generated_Source\PSoC5/USBFS.c **** 
 374:Generated_Source\PSoC5/USBFS.c ****     /* Set Data Endpoint 6 Interrupt. */
 375:Generated_Source\PSoC5/USBFS.c ****     #if (USBFS_EP6_ISR_ACTIVE)
 376:Generated_Source\PSoC5/USBFS.c ****         CyIntSetPriority     (USBFS_EP_6_VECT_NUM,  USBFS_EP_6_PRIOR);
 377:Generated_Source\PSoC5/USBFS.c ****         (void) CyIntSetVector(USBFS_EP_6_VECT_NUM, &USBFS_EP_6_ISR);
 378:Generated_Source\PSoC5/USBFS.c ****     #endif /* (USBFS_EP6_ISR_ACTIVE) */
 379:Generated_Source\PSoC5/USBFS.c **** 
 380:Generated_Source\PSoC5/USBFS.c ****      /* Set Data Endpoint 7 Interrupt. */
 381:Generated_Source\PSoC5/USBFS.c ****     #if (USBFS_EP7_ISR_ACTIVE)
 382:Generated_Source\PSoC5/USBFS.c ****         CyIntSetPriority     (USBFS_EP_7_VECT_NUM,  USBFS_EP_7_PRIOR);
 383:Generated_Source\PSoC5/USBFS.c ****         (void) CyIntSetVector(USBFS_EP_7_VECT_NUM, &USBFS_EP_7_ISR);
 384:Generated_Source\PSoC5/USBFS.c ****     #endif /* (USBFS_EP7_ISR_ACTIVE) */
 385:Generated_Source\PSoC5/USBFS.c **** 
 386:Generated_Source\PSoC5/USBFS.c ****     /* Set Data Endpoint 8 Interrupt. */
 387:Generated_Source\PSoC5/USBFS.c ****     #if (USBFS_EP8_ISR_ACTIVE)
 388:Generated_Source\PSoC5/USBFS.c ****         CyIntSetPriority     (USBFS_EP_8_VECT_NUM,  USBFS_EP_8_PRIOR);
 389:Generated_Source\PSoC5/USBFS.c ****         (void) CyIntSetVector(USBFS_EP_8_VECT_NUM, &USBFS_EP_8_ISR);
 390:Generated_Source\PSoC5/USBFS.c ****     #endif /* (USBFS_EP8_ISR_ACTIVE) */
 391:Generated_Source\PSoC5/USBFS.c **** 
 392:Generated_Source\PSoC5/USBFS.c ****     /* Set ARB Interrupt. */
 393:Generated_Source\PSoC5/USBFS.c ****     #if (USBFS_EP_MANAGEMENT_DMA && USBFS_ARB_ISR_ACTIVE)
 394:Generated_Source\PSoC5/USBFS.c ****         CyIntSetPriority     (USBFS_ARB_VECT_NUM,  USBFS_ARB_PRIOR);
 273              		.loc 1 394 0
 274 0140 0021     		movs	r1, #0
 275 0142 1620     		movs	r0, #22
 276 0144 FFF7FEFF 		bl	CyIntSetPriority
 395:Generated_Source\PSoC5/USBFS.c ****         (void) CyIntSetVector(USBFS_ARB_VECT_NUM, &USBFS_ARB_ISR);
 277              		.loc 1 395 0
 278 0148 1649     		ldr	r1, .L8+60
 279 014a 1620     		movs	r0, #22
 280 014c FFF7FEFF 		bl	CyIntSetVector
 396:Generated_Source\PSoC5/USBFS.c ****     #endif /* (USBFS_EP_MANAGEMENT_DMA && USBFS_ARB_ISR_ACTIVE) */
 397:Generated_Source\PSoC5/USBFS.c **** #endif /* (CY_PSOC4) */
 398:Generated_Source\PSoC5/USBFS.c **** 
 399:Generated_Source\PSoC5/USBFS.c ****     /* Common: Configure GPIO interrupt for wakeup. */
 400:Generated_Source\PSoC5/USBFS.c **** #if (USBFS_DP_ISR_ACTIVE)
 401:Generated_Source\PSoC5/USBFS.c ****     CyIntSetPriority     (USBFS_DP_INTC_VECT_NUM,  USBFS_DP_INTC_PRIORITY);
 281              		.loc 1 401 0
ARM GAS  C:\Users\CALEBC~1\AppData\Local\Temp\ccUZyw0h.s 			page 13


 282 0150 0721     		movs	r1, #7
 283 0152 0C20     		movs	r0, #12
 284 0154 FFF7FEFF 		bl	CyIntSetPriority
 402:Generated_Source\PSoC5/USBFS.c ****     (void) CyIntSetVector(USBFS_DP_INTC_VECT_NUM, &USBFS_DP_ISR);
 285              		.loc 1 402 0
 286 0158 1349     		ldr	r1, .L8+64
 287 015a 0C20     		movs	r0, #12
 288 015c FFF7FEFF 		bl	CyIntSetVector
 403:Generated_Source\PSoC5/USBFS.c **** #endif /* (USBFS_DP_ISR_ACTIVE) */
 404:Generated_Source\PSoC5/USBFS.c **** 
 405:Generated_Source\PSoC5/USBFS.c **** #if (USBFS_EP_MANAGEMENT_DMA && CY_PSOC4)
 406:Generated_Source\PSoC5/USBFS.c ****     /* Initialize DMA channels. */
 407:Generated_Source\PSoC5/USBFS.c ****     USBFS_InitEpDma();
 408:Generated_Source\PSoC5/USBFS.c **** #endif /* (USBFS_EP_MANAGEMENT_DMA && CY_PSOC4) */
 409:Generated_Source\PSoC5/USBFS.c **** }
 289              		.loc 1 409 0
 290 0160 00BF     		nop
 291 0162 0837     		adds	r7, r7, #8
 292              		.cfi_def_cfa_offset 8
 293 0164 BD46     		mov	sp, r7
 294              		.cfi_def_cfa_register 13
 295              		@ sp needed
 296 0166 80BD     		pop	{r7, pc}
 297              	.L9:
 298              		.align	2
 299              	.L8:
 300 0168 A5430040 		.word	1073759141
 301 016c B5430040 		.word	1073759157
 302 0170 9D600040 		.word	1073766557
 303 0174 09600040 		.word	1073766409
 304 0178 10600040 		.word	1073766416
 305 017c 94430040 		.word	1073759124
 306 0180 12600040 		.word	1073766418
 307 0184 F8510040 		.word	1073762808
 308 0188 84600040 		.word	1073766532
 309 018c 85600040 		.word	1073766533
 310 0190 00000000 		.word	USBFS_DmaTd
 311 0194 00000000 		.word	USBFS_BUS_RESET_ISR
 312 0198 00000000 		.word	USBFS_EP_0_ISR
 313 019c 00000000 		.word	USBFS_EP_1_ISR
 314 01a0 00000000 		.word	USBFS_EP_2_ISR
 315 01a4 00000000 		.word	USBFS_ARB_ISR
 316 01a8 00000000 		.word	USBFS_DP_ISR
 317              		.cfi_endproc
 318              	.LFE1:
 319              		.size	USBFS_Init, .-USBFS_Init
 320              		.section	.text.USBFS_InitComponent,"ax",%progbits
 321              		.align	2
 322              		.global	USBFS_InitComponent
 323              		.thumb
 324              		.thumb_func
 325              		.type	USBFS_InitComponent, %function
 326              	USBFS_InitComponent:
 327              	.LFB2:
 410:Generated_Source\PSoC5/USBFS.c **** 
 411:Generated_Source\PSoC5/USBFS.c **** 
 412:Generated_Source\PSoC5/USBFS.c **** /*******************************************************************************
ARM GAS  C:\Users\CALEBC~1\AppData\Local\Temp\ccUZyw0h.s 			page 14


 413:Generated_Source\PSoC5/USBFS.c **** * Function Name: USBFS_InitComponent
 414:Generated_Source\PSoC5/USBFS.c **** ****************************************************************************//**
 415:Generated_Source\PSoC5/USBFS.c **** *
 416:Generated_Source\PSoC5/USBFS.c **** *   This function initializes the component’s global variables and initiates
 417:Generated_Source\PSoC5/USBFS.c **** *   communication with the host by pull-up D+ line.
 418:Generated_Source\PSoC5/USBFS.c **** *
 419:Generated_Source\PSoC5/USBFS.c **** * \param device:
 420:Generated_Source\PSoC5/USBFS.c **** *   Contains the device number of the desired device descriptor. The device
 421:Generated_Source\PSoC5/USBFS.c **** *   number can be found in the Device Descriptor Tab of "Configure" dialog,
 422:Generated_Source\PSoC5/USBFS.c **** *   under the settings of desired Device Descriptor, in the *Device Number*
 423:Generated_Source\PSoC5/USBFS.c **** *   field.
 424:Generated_Source\PSoC5/USBFS.c **** *  \param mode:
 425:Generated_Source\PSoC5/USBFS.c **** *   The operating voltage. This determines whether the voltage regulator
 426:Generated_Source\PSoC5/USBFS.c **** *   is enabled for 5V operation or if pass through mode is used for 3.3V
 427:Generated_Source\PSoC5/USBFS.c **** *   operation. Symbolic names and their associated values are given in the
 428:Generated_Source\PSoC5/USBFS.c **** *   following list.
 429:Generated_Source\PSoC5/USBFS.c **** *
 430:Generated_Source\PSoC5/USBFS.c **** *       *USBFS_3V_OPERATION* - Disable voltage regulator and pass-
 431:Generated_Source\PSoC5/USBFS.c **** *                                      through Vcc for pull-up
 432:Generated_Source\PSoC5/USBFS.c **** *
 433:Generated_Source\PSoC5/USBFS.c **** *       *USBFS_5V_OPERATION* - Enable voltage regulator and use
 434:Generated_Source\PSoC5/USBFS.c **** *                                      regulator for pull-up
 435:Generated_Source\PSoC5/USBFS.c **** *
 436:Generated_Source\PSoC5/USBFS.c **** *       *USBFS_DWR_POWER_OPERATION* - Enable or disable the voltage
 437:Generated_Source\PSoC5/USBFS.c **** *                                      regulator depending on the power supply
 438:Generated_Source\PSoC5/USBFS.c **** *                                      voltage configuration in the DWR tab.
 439:Generated_Source\PSoC5/USBFS.c **** *                                      For PSoC 3/5LP devices, the VDDD supply
 440:Generated_Source\PSoC5/USBFS.c **** *                                      voltage is considered and for PSoC 4A-L,
 441:Generated_Source\PSoC5/USBFS.c **** *                                      the VBUS supply voltage is considered.
 442:Generated_Source\PSoC5/USBFS.c **** *
 443:Generated_Source\PSoC5/USBFS.c **** * \globalvars
 444:Generated_Source\PSoC5/USBFS.c **** *   \ref USBFS_device
 445:Generated_Source\PSoC5/USBFS.c **** *   \ref USBFS_transferState
 446:Generated_Source\PSoC5/USBFS.c **** *   \ref USBFS_configuration
 447:Generated_Source\PSoC5/USBFS.c **** *   \ref USBFS_deviceStatus
 448:Generated_Source\PSoC5/USBFS.c **** *
 449:Generated_Source\PSoC5/USBFS.c **** *   \ref USBFS_deviceAddress - Contains the current device address. This
 450:Generated_Source\PSoC5/USBFS.c **** *       variable is initialized to zero in this API. The Host starts to communicate
 451:Generated_Source\PSoC5/USBFS.c **** *      to the device with address 0 and then sets it to a whatever value using a
 452:Generated_Source\PSoC5/USBFS.c **** *      SET_ADDRESS request.
 453:Generated_Source\PSoC5/USBFS.c **** *
 454:Generated_Source\PSoC5/USBFS.c **** *   \ref USBFS_lastPacketSize - Initialized to 0;
 455:Generated_Source\PSoC5/USBFS.c **** *
 456:Generated_Source\PSoC5/USBFS.c **** * \reentrant
 457:Generated_Source\PSoC5/USBFS.c **** *  No.
 458:Generated_Source\PSoC5/USBFS.c **** *
 459:Generated_Source\PSoC5/USBFS.c **** *******************************************************************************/
 460:Generated_Source\PSoC5/USBFS.c **** void USBFS_InitComponent(uint8 device, uint8 mode) 
 461:Generated_Source\PSoC5/USBFS.c **** {
 328              		.loc 1 461 0
 329              		.cfi_startproc
 330              		@ args = 0, pretend = 0, frame = 8
 331              		@ frame_needed = 1, uses_anonymous_args = 0
 332 0000 80B5     		push	{r7, lr}
 333              		.cfi_def_cfa_offset 8
 334              		.cfi_offset 7, -8
 335              		.cfi_offset 14, -4
ARM GAS  C:\Users\CALEBC~1\AppData\Local\Temp\ccUZyw0h.s 			page 15


 336 0002 82B0     		sub	sp, sp, #8
 337              		.cfi_def_cfa_offset 16
 338 0004 00AF     		add	r7, sp, #0
 339              		.cfi_def_cfa_register 7
 340 0006 0346     		mov	r3, r0
 341 0008 0A46     		mov	r2, r1
 342 000a FB71     		strb	r3, [r7, #7]
 343 000c 1346     		mov	r3, r2
 344 000e BB71     		strb	r3, [r7, #6]
 462:Generated_Source\PSoC5/USBFS.c ****     /* Initialize _hidProtocol variable to comply with
 463:Generated_Source\PSoC5/USBFS.c ****     *  HID 7.2.6 Set_Protocol Request:
 464:Generated_Source\PSoC5/USBFS.c ****     *  "When initialized, all devices default to report protocol."
 465:Generated_Source\PSoC5/USBFS.c ****     */
 466:Generated_Source\PSoC5/USBFS.c **** #if defined(USBFS_ENABLE_HID_CLASS)
 467:Generated_Source\PSoC5/USBFS.c ****     uint8 i;
 468:Generated_Source\PSoC5/USBFS.c **** 
 469:Generated_Source\PSoC5/USBFS.c ****     for (i = 0u; i < USBFS_MAX_INTERFACES_NUMBER; i++)
 470:Generated_Source\PSoC5/USBFS.c ****     {
 471:Generated_Source\PSoC5/USBFS.c ****         USBFS_hidProtocol[i] = USBFS_PROTOCOL_REPORT;
 472:Generated_Source\PSoC5/USBFS.c ****     }
 473:Generated_Source\PSoC5/USBFS.c **** #endif /* USBFS_ENABLE_HID_CLASS */
 474:Generated_Source\PSoC5/USBFS.c **** 
 475:Generated_Source\PSoC5/USBFS.c ****     /* Store device number to access descriptor. */
 476:Generated_Source\PSoC5/USBFS.c ****     USBFS_device = device;
 345              		.loc 1 476 0
 346 0010 304A     		ldr	r2, .L16
 347 0012 FB79     		ldrb	r3, [r7, #7]
 348 0014 1370     		strb	r3, [r2]
 477:Generated_Source\PSoC5/USBFS.c **** 
 478:Generated_Source\PSoC5/USBFS.c ****     /* Reset component internal variables. */
 479:Generated_Source\PSoC5/USBFS.c ****     USBFS_transferState   = USBFS_TRANS_STATE_IDLE;
 349              		.loc 1 479 0
 350 0016 304B     		ldr	r3, .L16+4
 351 0018 0022     		movs	r2, #0
 352 001a 1A70     		strb	r2, [r3]
 480:Generated_Source\PSoC5/USBFS.c ****     USBFS_configurationChanged = 0u;
 353              		.loc 1 480 0
 354 001c 2F4B     		ldr	r3, .L16+8
 355 001e 0022     		movs	r2, #0
 356 0020 1A70     		strb	r2, [r3]
 481:Generated_Source\PSoC5/USBFS.c ****     USBFS_configuration   = 0u;
 357              		.loc 1 481 0
 358 0022 2F4B     		ldr	r3, .L16+12
 359 0024 0022     		movs	r2, #0
 360 0026 1A70     		strb	r2, [r3]
 482:Generated_Source\PSoC5/USBFS.c ****     USBFS_interfaceNumber = 0u;
 361              		.loc 1 482 0
 362 0028 2E4B     		ldr	r3, .L16+16
 363 002a 0022     		movs	r2, #0
 364 002c 1A70     		strb	r2, [r3]
 483:Generated_Source\PSoC5/USBFS.c ****     USBFS_deviceAddress   = 0u;
 365              		.loc 1 483 0
 366 002e 2E4B     		ldr	r3, .L16+20
 367 0030 0022     		movs	r2, #0
 368 0032 1A70     		strb	r2, [r3]
 484:Generated_Source\PSoC5/USBFS.c ****     USBFS_deviceStatus    = 0u;
 369              		.loc 1 484 0
ARM GAS  C:\Users\CALEBC~1\AppData\Local\Temp\ccUZyw0h.s 			page 16


 370 0034 2D4B     		ldr	r3, .L16+24
 371 0036 0022     		movs	r2, #0
 372 0038 1A70     		strb	r2, [r3]
 485:Generated_Source\PSoC5/USBFS.c ****     USBFS_lastPacketSize  = 0u;
 373              		.loc 1 485 0
 374 003a 2D4B     		ldr	r3, .L16+28
 375 003c 0022     		movs	r2, #0
 376 003e 1A70     		strb	r2, [r3]
 486:Generated_Source\PSoC5/USBFS.c **** 
 487:Generated_Source\PSoC5/USBFS.c ****     /* Enable component interrupts. */
 488:Generated_Source\PSoC5/USBFS.c **** #if (CY_PSOC4)
 489:Generated_Source\PSoC5/USBFS.c ****     CyIntEnable(USBFS_INTR_HI_VECT_NUM);
 490:Generated_Source\PSoC5/USBFS.c ****     CyIntEnable(USBFS_INTR_MED_VECT_NUM);
 491:Generated_Source\PSoC5/USBFS.c ****     CyIntEnable(USBFS_INTR_LO_VECT_NUM);
 492:Generated_Source\PSoC5/USBFS.c **** #else
 493:Generated_Source\PSoC5/USBFS.c ****     CyIntEnable(USBFS_BUS_RESET_VECT_NUM);
 377              		.loc 1 493 0
 378 0040 2C4B     		ldr	r3, .L16+32
 379 0042 4FF40002 		mov	r2, #8388608
 380 0046 1A60     		str	r2, [r3]
 494:Generated_Source\PSoC5/USBFS.c ****     CyIntEnable(USBFS_EP_0_VECT_NUM);
 381              		.loc 1 494 0
 382 0048 2A4B     		ldr	r3, .L16+32
 383 004a 4FF08072 		mov	r2, #16777216
 384 004e 1A60     		str	r2, [r3]
 495:Generated_Source\PSoC5/USBFS.c **** 
 496:Generated_Source\PSoC5/USBFS.c ****     #if (USBFS_SOF_ISR_ACTIVE)
 497:Generated_Source\PSoC5/USBFS.c ****         CyIntEnable(USBFS_SOF_VECT_NUM);
 498:Generated_Source\PSoC5/USBFS.c ****     #endif /* (USBFS_SOF_ISR_ACTIVE) */
 499:Generated_Source\PSoC5/USBFS.c **** 
 500:Generated_Source\PSoC5/USBFS.c ****     #if (USBFS_EP1_ISR_ACTIVE)
 501:Generated_Source\PSoC5/USBFS.c ****         CyIntEnable(USBFS_EP_1_VECT_NUM);
 385              		.loc 1 501 0
 386 0050 284B     		ldr	r3, .L16+32
 387 0052 0122     		movs	r2, #1
 388 0054 1A60     		str	r2, [r3]
 502:Generated_Source\PSoC5/USBFS.c ****     #endif /* (USBFS_EP1_ISR_ACTIVE) */
 503:Generated_Source\PSoC5/USBFS.c **** 
 504:Generated_Source\PSoC5/USBFS.c ****     #if (USBFS_EP2_ISR_ACTIVE)
 505:Generated_Source\PSoC5/USBFS.c ****         CyIntEnable(USBFS_EP_2_VECT_NUM);
 389              		.loc 1 505 0
 390 0056 274B     		ldr	r3, .L16+32
 391 0058 0222     		movs	r2, #2
 392 005a 1A60     		str	r2, [r3]
 506:Generated_Source\PSoC5/USBFS.c ****     #endif /* (USBFS_EP5_ISR_ACTIVE) */
 507:Generated_Source\PSoC5/USBFS.c **** 
 508:Generated_Source\PSoC5/USBFS.c ****     #if (USBFS_EP3_ISR_ACTIVE)
 509:Generated_Source\PSoC5/USBFS.c ****         CyIntEnable(USBFS_EP_3_VECT_NUM);
 510:Generated_Source\PSoC5/USBFS.c ****     #endif /* (USBFS_EP5_ISR_ACTIVE) */
 511:Generated_Source\PSoC5/USBFS.c **** 
 512:Generated_Source\PSoC5/USBFS.c ****     #if (USBFS_EP4_ISR_ACTIVE)
 513:Generated_Source\PSoC5/USBFS.c ****         CyIntEnable(USBFS_EP_4_VECT_NUM);
 514:Generated_Source\PSoC5/USBFS.c ****     #endif /* (USBFS_EP5_ISR_ACTIVE) */
 515:Generated_Source\PSoC5/USBFS.c **** 
 516:Generated_Source\PSoC5/USBFS.c ****     #if (USBFS_EP5_ISR_ACTIVE)
 517:Generated_Source\PSoC5/USBFS.c ****         CyIntEnable(USBFS_EP_5_VECT_NUM);
 518:Generated_Source\PSoC5/USBFS.c ****     #endif /* (USBFS_EP5_ISR_ACTIVE) */
ARM GAS  C:\Users\CALEBC~1\AppData\Local\Temp\ccUZyw0h.s 			page 17


 519:Generated_Source\PSoC5/USBFS.c **** 
 520:Generated_Source\PSoC5/USBFS.c ****     #if (USBFS_EP6_ISR_ACTIVE)
 521:Generated_Source\PSoC5/USBFS.c ****         CyIntEnable(USBFS_EP_6_VECT_NUM);
 522:Generated_Source\PSoC5/USBFS.c ****     #endif /* USBFS_EP6_ISR_REMOVE */
 523:Generated_Source\PSoC5/USBFS.c **** 
 524:Generated_Source\PSoC5/USBFS.c ****     #if (USBFS_EP7_ISR_ACTIVE)
 525:Generated_Source\PSoC5/USBFS.c ****         CyIntEnable(USBFS_EP_7_VECT_NUM);
 526:Generated_Source\PSoC5/USBFS.c ****     #endif /* (USBFS_EP7_ISR_ACTIVE) */
 527:Generated_Source\PSoC5/USBFS.c **** 
 528:Generated_Source\PSoC5/USBFS.c ****     #if (USBFS_EP8_ISR_ACTIVE)
 529:Generated_Source\PSoC5/USBFS.c ****         CyIntEnable(USBFS_EP_8_VECT_NUM);
 530:Generated_Source\PSoC5/USBFS.c ****     #endif /* (USBFS_EP8_ISR_ACTIVE) */
 531:Generated_Source\PSoC5/USBFS.c **** #endif /* (CY_PSOC4) */
 532:Generated_Source\PSoC5/USBFS.c **** 
 533:Generated_Source\PSoC5/USBFS.c **** #if (USBFS_EP_MANAGEMENT_DMA && USBFS_ARB_ISR_ACTIVE)
 534:Generated_Source\PSoC5/USBFS.c ****     /* Enable ARB EP interrupt sources. */
 535:Generated_Source\PSoC5/USBFS.c ****     USBFS_ARB_INT_EN_REG = USBFS_DEFAULT_ARB_INT_EN;
 393              		.loc 1 535 0
 394 005c 264B     		ldr	r3, .L16+36
 395 005e 0322     		movs	r2, #3
 396 0060 1A70     		strb	r2, [r3]
 536:Generated_Source\PSoC5/USBFS.c **** 
 537:Generated_Source\PSoC5/USBFS.c ****     #if (CY_PSOC3 || CY_PSOC5)
 538:Generated_Source\PSoC5/USBFS.c ****         CyIntEnable(USBFS_ARB_VECT_NUM);
 397              		.loc 1 538 0
 398 0062 244B     		ldr	r3, .L16+32
 399 0064 4FF48002 		mov	r2, #4194304
 400 0068 1A60     		str	r2, [r3]
 539:Generated_Source\PSoC5/USBFS.c ****     #endif /* (CY_PSOC3 || CY_PSOC5) */
 540:Generated_Source\PSoC5/USBFS.c **** #endif   /* (USBFS_EP_MANAGEMENT_DMA && USBFS_ARB_ISR_ACTIVE) */
 541:Generated_Source\PSoC5/USBFS.c **** 
 542:Generated_Source\PSoC5/USBFS.c **** /* Arbiter configuration for DMA transfers. */
 543:Generated_Source\PSoC5/USBFS.c **** #if (USBFS_EP_MANAGEMENT_DMA)
 544:Generated_Source\PSoC5/USBFS.c ****     /* Configure Arbiter for Manual or Auto DMA operation and clear configuration completion. */
 545:Generated_Source\PSoC5/USBFS.c ****     USBFS_ARB_CFG_REG = USBFS_DEFAULT_ARB_CFG;
 401              		.loc 1 545 0
 402 006a 244B     		ldr	r3, .L16+40
 403 006c 2022     		movs	r2, #32
 404 006e 1A70     		strb	r2, [r3]
 546:Generated_Source\PSoC5/USBFS.c **** 
 547:Generated_Source\PSoC5/USBFS.c ****     #if (CY_PSOC4)
 548:Generated_Source\PSoC5/USBFS.c ****         /* Enable DMA operation. */
 549:Generated_Source\PSoC5/USBFS.c ****         CyDmaEnable();
 550:Generated_Source\PSoC5/USBFS.c **** 
 551:Generated_Source\PSoC5/USBFS.c ****         #if (USBFS_EP_MANAGEMENT_DMA_AUTO)
 552:Generated_Source\PSoC5/USBFS.c ****             /* Change DMA priority to be highest. */
 553:Generated_Source\PSoC5/USBFS.c ****              CyIntSetPriority(CYDMA_INTR_NUMBER, USBFS_DMA_AUTO_INTR_PRIO);
 554:Generated_Source\PSoC5/USBFS.c ****         #endif /* (USBFS_EP_MANAGEMENT_DMA_AUTO) */
 555:Generated_Source\PSoC5/USBFS.c ****     #endif /* (CY_PSOC4) */
 556:Generated_Source\PSoC5/USBFS.c **** 
 557:Generated_Source\PSoC5/USBFS.c ****     #if (USBFS_EP_MANAGEMENT_DMA_AUTO)
 558:Generated_Source\PSoC5/USBFS.c ****         #if (CY_PSOC4)
 559:Generated_Source\PSoC5/USBFS.c ****             /* Enable DMA interrupt to handle DMA management. */
 560:Generated_Source\PSoC5/USBFS.c ****             CyIntEnable(CYDMA_INTR_NUMBER);
 561:Generated_Source\PSoC5/USBFS.c ****         #else
 562:Generated_Source\PSoC5/USBFS.c ****             #if (USBFS_EP_DMA_AUTO_OPT == 0u)
 563:Generated_Source\PSoC5/USBFS.c ****                 /* Initialize interrupts which handle verification of successful DMA transaction. *
ARM GAS  C:\Users\CALEBC~1\AppData\Local\Temp\ccUZyw0h.s 			page 18


 564:Generated_Source\PSoC5/USBFS.c ****                 USBFS_EP_DMA_Done_isr_StartEx(&USBFS_EP_DMA_DONE_ISR);
 565:Generated_Source\PSoC5/USBFS.c ****                 USBFS_EP17_DMA_Done_SR_InterruptEnable();
 566:Generated_Source\PSoC5/USBFS.c ****                 USBFS_EP8_DMA_Done_SR_InterruptEnable();
 567:Generated_Source\PSoC5/USBFS.c ****             #endif /* (USBFS_EP_DMA_AUTO_OPT == 0u) */
 568:Generated_Source\PSoC5/USBFS.c ****         #endif /* (CY_PSOC4) */
 569:Generated_Source\PSoC5/USBFS.c ****     #endif /* (USBFS_EP_MANAGEMENT_DMA_AUTO) */
 570:Generated_Source\PSoC5/USBFS.c **** #endif /* (USBFS_EP_MANAGEMENT_DMA) */
 571:Generated_Source\PSoC5/USBFS.c **** 
 572:Generated_Source\PSoC5/USBFS.c ****     /* Enable USB regulator depends on operation voltage. IMO Locking is enabled in Init(). */
 573:Generated_Source\PSoC5/USBFS.c ****     switch(mode)
 405              		.loc 1 573 0
 406 0070 BB79     		ldrb	r3, [r7, #6]	@ zero_extendqisi2
 407 0072 002B     		cmp	r3, #0
 408 0074 02D0     		beq	.L12
 409 0076 012B     		cmp	r3, #1
 410 0078 09D0     		beq	.L13
 411 007a 11E0     		b	.L15
 412              	.L12:
 574:Generated_Source\PSoC5/USBFS.c ****     {
 575:Generated_Source\PSoC5/USBFS.c ****     case USBFS_3V_OPERATION:
 576:Generated_Source\PSoC5/USBFS.c ****         /* Disable regulator for 3V operation. */
 577:Generated_Source\PSoC5/USBFS.c ****         USBFS_CR1_REG &= (uint8) ~USBFS_CR1_REG_ENABLE;
 413              		.loc 1 577 0
 414 007c 204A     		ldr	r2, .L16+44
 415 007e 204B     		ldr	r3, .L16+44
 416 0080 1B78     		ldrb	r3, [r3]
 417 0082 DBB2     		uxtb	r3, r3
 418 0084 23F00103 		bic	r3, r3, #1
 419 0088 DBB2     		uxtb	r3, r3
 420 008a 1370     		strb	r3, [r2]
 578:Generated_Source\PSoC5/USBFS.c ****         break;
 421              		.loc 1 578 0
 422 008c 11E0     		b	.L14
 423              	.L13:
 579:Generated_Source\PSoC5/USBFS.c **** 
 580:Generated_Source\PSoC5/USBFS.c ****     case USBFS_5V_OPERATION:
 581:Generated_Source\PSoC5/USBFS.c ****         /* Enable regulator for 5V operation. */
 582:Generated_Source\PSoC5/USBFS.c ****         USBFS_CR1_REG |= (uint8)  USBFS_CR1_REG_ENABLE;
 424              		.loc 1 582 0
 425 008e 1C4A     		ldr	r2, .L16+44
 426 0090 1B4B     		ldr	r3, .L16+44
 427 0092 1B78     		ldrb	r3, [r3]
 428 0094 DBB2     		uxtb	r3, r3
 429 0096 43F00103 		orr	r3, r3, #1
 430 009a DBB2     		uxtb	r3, r3
 431 009c 1370     		strb	r3, [r2]
 583:Generated_Source\PSoC5/USBFS.c ****         break;
 432              		.loc 1 583 0
 433 009e 08E0     		b	.L14
 434              	.L15:
 584:Generated_Source\PSoC5/USBFS.c **** 
 585:Generated_Source\PSoC5/USBFS.c ****     default: /* Check DWR settings of USB power supply. */
 586:Generated_Source\PSoC5/USBFS.c ****     #if (USBFS_VDDD_MV < USBFS_3500MV)
 587:Generated_Source\PSoC5/USBFS.c ****         /* Disable regulator for 3V operation. */
 588:Generated_Source\PSoC5/USBFS.c ****         USBFS_CR1_REG &= (uint8) ~USBFS_CR1_REG_ENABLE;
 589:Generated_Source\PSoC5/USBFS.c ****     #else
 590:Generated_Source\PSoC5/USBFS.c ****         /* Enable regulator for 5V operation. */
ARM GAS  C:\Users\CALEBC~1\AppData\Local\Temp\ccUZyw0h.s 			page 19


 591:Generated_Source\PSoC5/USBFS.c ****         USBFS_CR1_REG |= (uint8)  USBFS_CR1_REG_ENABLE;
 435              		.loc 1 591 0
 436 00a0 174A     		ldr	r2, .L16+44
 437 00a2 174B     		ldr	r3, .L16+44
 438 00a4 1B78     		ldrb	r3, [r3]
 439 00a6 DBB2     		uxtb	r3, r3
 440 00a8 43F00103 		orr	r3, r3, #1
 441 00ac DBB2     		uxtb	r3, r3
 442 00ae 1370     		strb	r3, [r2]
 592:Generated_Source\PSoC5/USBFS.c ****     #endif /* (USBFS_VDDD_MV < USBFS_3500MV) */
 593:Generated_Source\PSoC5/USBFS.c ****         break;
 443              		.loc 1 593 0
 444 00b0 00BF     		nop
 445              	.L14:
 594:Generated_Source\PSoC5/USBFS.c ****     }
 595:Generated_Source\PSoC5/USBFS.c **** 
 596:Generated_Source\PSoC5/USBFS.c **** #if (CY_PSOC4)
 597:Generated_Source\PSoC5/USBFS.c ****     /* Clear bus activity. */
 598:Generated_Source\PSoC5/USBFS.c ****     USBFS_CR1_REG &= (uint32) ~USBFS_CR1_BUS_ACTIVITY;
 599:Generated_Source\PSoC5/USBFS.c **** 
 600:Generated_Source\PSoC5/USBFS.c ****     /* Clear EP0 count register. */
 601:Generated_Source\PSoC5/USBFS.c ****     USBFS_EP0_CNT_REG = USBFS_CLEAR_REG;
 602:Generated_Source\PSoC5/USBFS.c **** 
 603:Generated_Source\PSoC5/USBFS.c ****     /* Set EP0.CR: ACK Setup, NAK IN/OUT. */
 604:Generated_Source\PSoC5/USBFS.c ****     USBFS_EP0_CR_REG = USBFS_MODE_NAK_IN_OUT;
 605:Generated_Source\PSoC5/USBFS.c **** 
 606:Generated_Source\PSoC5/USBFS.c ****     #if (USBFS_LPM_ACTIVE)
 607:Generated_Source\PSoC5/USBFS.c ****         if (NULL != USBFS_GetBOSPtr())
 608:Generated_Source\PSoC5/USBFS.c ****         {
 609:Generated_Source\PSoC5/USBFS.c ****             /* Enable LPM and acknowledge LPM packets for active device.
 610:Generated_Source\PSoC5/USBFS.c ****             * Reset NYET_EN and SUB_RESP bits in the LPM_CTRL register.
 611:Generated_Source\PSoC5/USBFS.c ****             */
 612:Generated_Source\PSoC5/USBFS.c ****             USBFS_LPM_CTRL_REG = (USBFS_LPM_CTRL_LPM_EN | \
 613:Generated_Source\PSoC5/USBFS.c ****                                              USBFS_LPM_CTRL_LPM_ACK_RESP);
 614:Generated_Source\PSoC5/USBFS.c ****         }
 615:Generated_Source\PSoC5/USBFS.c ****         else
 616:Generated_Source\PSoC5/USBFS.c ****         {
 617:Generated_Source\PSoC5/USBFS.c ****             /* Disable LPM for active device. */
 618:Generated_Source\PSoC5/USBFS.c ****             USBFS_LPM_CTRL_REG &= (uint32) ~USBFS_LPM_CTRL_LPM_EN;
 619:Generated_Source\PSoC5/USBFS.c ****         }
 620:Generated_Source\PSoC5/USBFS.c ****     #endif /* (USBFS_LPM_ACTIVE) */
 621:Generated_Source\PSoC5/USBFS.c **** 
 622:Generated_Source\PSoC5/USBFS.c ****     /* Enable device to responds to USB traffic with address 0. */
 623:Generated_Source\PSoC5/USBFS.c ****     USBFS_CR0_REG = USBFS_DEFUALT_CR0;
 624:Generated_Source\PSoC5/USBFS.c **** 
 625:Generated_Source\PSoC5/USBFS.c **** #else
 626:Generated_Source\PSoC5/USBFS.c ****     /* Set EP0.CR: ACK Setup, STALL IN/OUT. */
 627:Generated_Source\PSoC5/USBFS.c ****     USBFS_EP0_CR_REG = USBFS_MODE_STALL_IN_OUT;
 446              		.loc 1 627 0
 447 00b2 144B     		ldr	r3, .L16+48
 448 00b4 0322     		movs	r2, #3
 449 00b6 1A70     		strb	r2, [r3]
 628:Generated_Source\PSoC5/USBFS.c **** 
 629:Generated_Source\PSoC5/USBFS.c ****     /* Enable device to respond to USB traffic with address 0. */
 630:Generated_Source\PSoC5/USBFS.c ****     USBFS_CR0_REG = USBFS_DEFUALT_CR0;
 450              		.loc 1 630 0
 451 00b8 134B     		ldr	r3, .L16+52
ARM GAS  C:\Users\CALEBC~1\AppData\Local\Temp\ccUZyw0h.s 			page 20


 452 00ba 8022     		movs	r2, #128
 453 00bc 1A70     		strb	r2, [r3]
 631:Generated_Source\PSoC5/USBFS.c ****     CyDelayCycles(USBFS_WAIT_CR0_REG_STABILITY);
 454              		.loc 1 631 0
 455 00be 0120     		movs	r0, #1
 456 00c0 FFF7FEFF 		bl	CyDelayCycles
 632:Generated_Source\PSoC5/USBFS.c **** #endif /* (CY_PSOC4) */
 633:Generated_Source\PSoC5/USBFS.c **** 
 634:Generated_Source\PSoC5/USBFS.c ****     /* Enable D+ pull-up and keep USB control on IO. */
 635:Generated_Source\PSoC5/USBFS.c ****     USBFS_USBIO_CR1_REG = USBFS_USBIO_CR1_USBPUEN;
 457              		.loc 1 635 0
 458 00c4 114B     		ldr	r3, .L16+56
 459 00c6 0422     		movs	r2, #4
 460 00c8 1A70     		strb	r2, [r3]
 636:Generated_Source\PSoC5/USBFS.c **** }
 461              		.loc 1 636 0
 462 00ca 00BF     		nop
 463 00cc 0837     		adds	r7, r7, #8
 464              		.cfi_def_cfa_offset 8
 465 00ce BD46     		mov	sp, r7
 466              		.cfi_def_cfa_register 13
 467              		@ sp needed
 468 00d0 80BD     		pop	{r7, pc}
 469              	.L17:
 470 00d2 00BF     		.align	2
 471              	.L16:
 472 00d4 00000000 		.word	USBFS_device
 473 00d8 00000000 		.word	USBFS_transferState
 474 00dc 00000000 		.word	USBFS_configurationChanged
 475 00e0 00000000 		.word	USBFS_configuration
 476 00e4 00000000 		.word	USBFS_interfaceNumber
 477 00e8 00000000 		.word	USBFS_deviceAddress
 478 00ec 00000000 		.word	USBFS_deviceStatus
 479 00f0 00000000 		.word	USBFS_lastPacketSize
 480 00f4 00E100E0 		.word	-536813312
 481 00f8 9E600040 		.word	1073766558
 482 00fc 9C600040 		.word	1073766556
 483 0100 09600040 		.word	1073766409
 484 0104 28600040 		.word	1073766440
 485 0108 08600040 		.word	1073766408
 486 010c 12600040 		.word	1073766418
 487              		.cfi_endproc
 488              	.LFE2:
 489              		.size	USBFS_InitComponent, .-USBFS_InitComponent
 490              		.section	.text.USBFS_ReInitComponent,"ax",%progbits
 491              		.align	2
 492              		.global	USBFS_ReInitComponent
 493              		.thumb
 494              		.thumb_func
 495              		.type	USBFS_ReInitComponent, %function
 496              	USBFS_ReInitComponent:
 497              	.LFB3:
 637:Generated_Source\PSoC5/USBFS.c **** 
 638:Generated_Source\PSoC5/USBFS.c **** 
 639:Generated_Source\PSoC5/USBFS.c **** /*******************************************************************************
 640:Generated_Source\PSoC5/USBFS.c **** * Function Name: USBFS_ReInitComponent
 641:Generated_Source\PSoC5/USBFS.c **** ****************************************************************************//**
ARM GAS  C:\Users\CALEBC~1\AppData\Local\Temp\ccUZyw0h.s 			page 21


 642:Generated_Source\PSoC5/USBFS.c **** *
 643:Generated_Source\PSoC5/USBFS.c **** *  This function reinitialize the component configuration and is
 644:Generated_Source\PSoC5/USBFS.c **** *  intend to be called from the Reset interrupt.
 645:Generated_Source\PSoC5/USBFS.c **** *
 646:Generated_Source\PSoC5/USBFS.c **** * \globalvars
 647:Generated_Source\PSoC5/USBFS.c **** *   USBFS_device - Contains the device number of the desired Device
 648:Generated_Source\PSoC5/USBFS.c **** *        Descriptor. The device number can be found in the Device Descriptor tab
 649:Generated_Source\PSoC5/USBFS.c **** *       of the Configure dialog, under the settings of the desired Device Descriptor,
 650:Generated_Source\PSoC5/USBFS.c **** *       in the Device Number field.
 651:Generated_Source\PSoC5/USBFS.c **** *   USBFS_transferState - This variable is used by the communication
 652:Generated_Source\PSoC5/USBFS.c **** *       functions to handle the current transfer state. Initialized to
 653:Generated_Source\PSoC5/USBFS.c **** *       TRANS_STATE_IDLE in this API.
 654:Generated_Source\PSoC5/USBFS.c **** *   USBFS_configuration - Contains the current configuration number
 655:Generated_Source\PSoC5/USBFS.c **** *       set by the Host using a SET_CONFIGURATION request.
 656:Generated_Source\PSoC5/USBFS.c **** *       Initialized to zero in this API.
 657:Generated_Source\PSoC5/USBFS.c **** *   USBFS_deviceAddress - Contains the current device address. This
 658:Generated_Source\PSoC5/USBFS.c **** *       variable is initialized to zero in this API. The Host starts to communicate
 659:Generated_Source\PSoC5/USBFS.c **** *      to the device with address 0 and then sets it to a whatever value using
 660:Generated_Source\PSoC5/USBFS.c **** *      a SET_ADDRESS request.
 661:Generated_Source\PSoC5/USBFS.c **** *   USBFS_deviceStatus - Initialized to 0.
 662:Generated_Source\PSoC5/USBFS.c **** *       This is a two-bit variable which contains the power status in the first bit
 663:Generated_Source\PSoC5/USBFS.c **** *       (DEVICE_STATUS_BUS_POWERED or DEVICE_STATUS_SELF_POWERED) and the remote
 664:Generated_Source\PSoC5/USBFS.c **** *       wakeup status (DEVICE_STATUS_REMOTE_WAKEUP) in the second bit.
 665:Generated_Source\PSoC5/USBFS.c **** *   USBFS_lastPacketSize - Initialized to 0;
 666:Generated_Source\PSoC5/USBFS.c **** *
 667:Generated_Source\PSoC5/USBFS.c **** * \reentrant
 668:Generated_Source\PSoC5/USBFS.c **** *  No.
 669:Generated_Source\PSoC5/USBFS.c **** *
 670:Generated_Source\PSoC5/USBFS.c **** *******************************************************************************/
 671:Generated_Source\PSoC5/USBFS.c **** void USBFS_ReInitComponent(void) 
 672:Generated_Source\PSoC5/USBFS.c **** {
 498              		.loc 1 672 0
 499              		.cfi_startproc
 500              		@ args = 0, pretend = 0, frame = 0
 501              		@ frame_needed = 1, uses_anonymous_args = 0
 502              		@ link register save eliminated.
 503 0000 80B4     		push	{r7}
 504              		.cfi_def_cfa_offset 4
 505              		.cfi_offset 7, -4
 506 0002 00AF     		add	r7, sp, #0
 507              		.cfi_def_cfa_register 7
 673:Generated_Source\PSoC5/USBFS.c ****     /* Initialize _hidProtocol variable to comply with HID 7.2.6 Set_Protocol
 674:Generated_Source\PSoC5/USBFS.c ****     *  Request: "When initialized, all devices default to report protocol."
 675:Generated_Source\PSoC5/USBFS.c ****     */
 676:Generated_Source\PSoC5/USBFS.c **** #if defined(USBFS_ENABLE_HID_CLASS)
 677:Generated_Source\PSoC5/USBFS.c ****     uint8 i;
 678:Generated_Source\PSoC5/USBFS.c **** 
 679:Generated_Source\PSoC5/USBFS.c ****     for (i = 0u; i < USBFS_MAX_INTERFACES_NUMBER; i++)
 680:Generated_Source\PSoC5/USBFS.c ****     {
 681:Generated_Source\PSoC5/USBFS.c ****         USBFS_hidProtocol[i] = USBFS_PROTOCOL_REPORT;
 682:Generated_Source\PSoC5/USBFS.c ****     }
 683:Generated_Source\PSoC5/USBFS.c **** #endif /* USBFS_ENABLE_HID_CLASS */
 684:Generated_Source\PSoC5/USBFS.c **** 
 685:Generated_Source\PSoC5/USBFS.c ****     /* Reset component internal variables. */
 686:Generated_Source\PSoC5/USBFS.c ****     USBFS_transferState   = USBFS_TRANS_STATE_IDLE;
 508              		.loc 1 686 0
 509 0004 0F4B     		ldr	r3, .L19
ARM GAS  C:\Users\CALEBC~1\AppData\Local\Temp\ccUZyw0h.s 			page 22


 510 0006 0022     		movs	r2, #0
 511 0008 1A70     		strb	r2, [r3]
 687:Generated_Source\PSoC5/USBFS.c ****     USBFS_configurationChanged = 0u;
 512              		.loc 1 687 0
 513 000a 0F4B     		ldr	r3, .L19+4
 514 000c 0022     		movs	r2, #0
 515 000e 1A70     		strb	r2, [r3]
 688:Generated_Source\PSoC5/USBFS.c ****     USBFS_configuration   = 0u;
 516              		.loc 1 688 0
 517 0010 0E4B     		ldr	r3, .L19+8
 518 0012 0022     		movs	r2, #0
 519 0014 1A70     		strb	r2, [r3]
 689:Generated_Source\PSoC5/USBFS.c ****     USBFS_interfaceNumber = 0u;
 520              		.loc 1 689 0
 521 0016 0E4B     		ldr	r3, .L19+12
 522 0018 0022     		movs	r2, #0
 523 001a 1A70     		strb	r2, [r3]
 690:Generated_Source\PSoC5/USBFS.c ****     USBFS_deviceAddress   = 0u;
 524              		.loc 1 690 0
 525 001c 0D4B     		ldr	r3, .L19+16
 526 001e 0022     		movs	r2, #0
 527 0020 1A70     		strb	r2, [r3]
 691:Generated_Source\PSoC5/USBFS.c ****     USBFS_deviceStatus    = 0u;
 528              		.loc 1 691 0
 529 0022 0D4B     		ldr	r3, .L19+20
 530 0024 0022     		movs	r2, #0
 531 0026 1A70     		strb	r2, [r3]
 692:Generated_Source\PSoC5/USBFS.c ****     USBFS_lastPacketSize  = 0u;
 532              		.loc 1 692 0
 533 0028 0C4B     		ldr	r3, .L19+24
 534 002a 0022     		movs	r2, #0
 535 002c 1A70     		strb	r2, [r3]
 693:Generated_Source\PSoC5/USBFS.c **** 
 694:Generated_Source\PSoC5/USBFS.c **** #if (CY_PSOC4)
 695:Generated_Source\PSoC5/USBFS.c ****     /* Set EP0.CR: ACK Setup, NAK IN/OUT. */
 696:Generated_Source\PSoC5/USBFS.c ****     USBFS_EP0_CR_REG = USBFS_MODE_NAK_IN_OUT;
 697:Generated_Source\PSoC5/USBFS.c **** #else
 698:Generated_Source\PSoC5/USBFS.c ****     /* Set EP0.CR: ACK Setup, STALL IN/OUT. */
 699:Generated_Source\PSoC5/USBFS.c ****     USBFS_EP0_CR_REG = USBFS_MODE_STALL_IN_OUT;
 536              		.loc 1 699 0
 537 002e 0C4B     		ldr	r3, .L19+28
 538 0030 0322     		movs	r2, #3
 539 0032 1A70     		strb	r2, [r3]
 700:Generated_Source\PSoC5/USBFS.c **** #endif /* (CY_PSOC4) */
 701:Generated_Source\PSoC5/USBFS.c **** 
 702:Generated_Source\PSoC5/USBFS.c ****     /* Enable device to respond to USB traffic with address 0. */
 703:Generated_Source\PSoC5/USBFS.c ****     USBFS_CR0_REG = USBFS_DEFUALT_CR0;
 540              		.loc 1 703 0
 541 0034 0B4B     		ldr	r3, .L19+32
 542 0036 8022     		movs	r2, #128
 543 0038 1A70     		strb	r2, [r3]
 704:Generated_Source\PSoC5/USBFS.c **** }
 544              		.loc 1 704 0
 545 003a 00BF     		nop
 546 003c BD46     		mov	sp, r7
 547              		.cfi_def_cfa_register 13
 548              		@ sp needed
ARM GAS  C:\Users\CALEBC~1\AppData\Local\Temp\ccUZyw0h.s 			page 23


 549 003e 80BC     		pop	{r7}
 550              		.cfi_restore 7
 551              		.cfi_def_cfa_offset 0
 552 0040 7047     		bx	lr
 553              	.L20:
 554 0042 00BF     		.align	2
 555              	.L19:
 556 0044 00000000 		.word	USBFS_transferState
 557 0048 00000000 		.word	USBFS_configurationChanged
 558 004c 00000000 		.word	USBFS_configuration
 559 0050 00000000 		.word	USBFS_interfaceNumber
 560 0054 00000000 		.word	USBFS_deviceAddress
 561 0058 00000000 		.word	USBFS_deviceStatus
 562 005c 00000000 		.word	USBFS_lastPacketSize
 563 0060 28600040 		.word	1073766440
 564 0064 08600040 		.word	1073766408
 565              		.cfi_endproc
 566              	.LFE3:
 567              		.size	USBFS_ReInitComponent, .-USBFS_ReInitComponent
 568              		.section	.text.USBFS_Stop,"ax",%progbits
 569              		.align	2
 570              		.global	USBFS_Stop
 571              		.thumb
 572              		.thumb_func
 573              		.type	USBFS_Stop, %function
 574              	USBFS_Stop:
 575              	.LFB4:
 705:Generated_Source\PSoC5/USBFS.c **** 
 706:Generated_Source\PSoC5/USBFS.c **** 
 707:Generated_Source\PSoC5/USBFS.c **** /*******************************************************************************
 708:Generated_Source\PSoC5/USBFS.c **** * Function Name: USBFS_Stop
 709:Generated_Source\PSoC5/USBFS.c **** ****************************************************************************//**
 710:Generated_Source\PSoC5/USBFS.c **** *
 711:Generated_Source\PSoC5/USBFS.c **** *  This function shuts down the USB function including to release
 712:Generated_Source\PSoC5/USBFS.c **** *  the D+ pull-up and disabling the SIE.
 713:Generated_Source\PSoC5/USBFS.c **** *
 714:Generated_Source\PSoC5/USBFS.c **** * \globalvars
 715:Generated_Source\PSoC5/USBFS.c **** *   \ref USBFS_configuration
 716:Generated_Source\PSoC5/USBFS.c **** *
 717:Generated_Source\PSoC5/USBFS.c **** *   USBFS_deviceAddress - Contains the current device address. This
 718:Generated_Source\PSoC5/USBFS.c **** *       variable is initialized to zero in this API. The Host starts to communicate
 719:Generated_Source\PSoC5/USBFS.c **** *      to the device with address 0 and then sets it to a whatever value using
 720:Generated_Source\PSoC5/USBFS.c **** *      a SET_ADDRESS request.
 721:Generated_Source\PSoC5/USBFS.c **** *
 722:Generated_Source\PSoC5/USBFS.c **** *   \ref USBFS_deviceStatus
 723:Generated_Source\PSoC5/USBFS.c **** *
 724:Generated_Source\PSoC5/USBFS.c **** *   \ref USBFS_configurationChanged
 725:Generated_Source\PSoC5/USBFS.c **** *
 726:Generated_Source\PSoC5/USBFS.c **** *   USBFS_intiVar -  This variable is set to zero
 727:Generated_Source\PSoC5/USBFS.c **** *
 728:Generated_Source\PSoC5/USBFS.c **** *******************************************************************************/
 729:Generated_Source\PSoC5/USBFS.c **** void USBFS_Stop(void) 
 730:Generated_Source\PSoC5/USBFS.c **** {
 576              		.loc 1 730 0
 577              		.cfi_startproc
 578              		@ args = 0, pretend = 0, frame = 8
 579              		@ frame_needed = 1, uses_anonymous_args = 0
ARM GAS  C:\Users\CALEBC~1\AppData\Local\Temp\ccUZyw0h.s 			page 24


 580 0000 80B5     		push	{r7, lr}
 581              		.cfi_def_cfa_offset 8
 582              		.cfi_offset 7, -8
 583              		.cfi_offset 14, -4
 584 0002 82B0     		sub	sp, sp, #8
 585              		.cfi_def_cfa_offset 16
 586 0004 00AF     		add	r7, sp, #0
 587              		.cfi_def_cfa_register 7
 731:Generated_Source\PSoC5/USBFS.c ****     uint8 enableInterrupts;
 732:Generated_Source\PSoC5/USBFS.c **** 
 733:Generated_Source\PSoC5/USBFS.c **** #if (USBFS_EP_MANAGEMENT_DMA)
 734:Generated_Source\PSoC5/USBFS.c ****     /* Stop all DMA channels. */
 735:Generated_Source\PSoC5/USBFS.c ****     USBFS_Stop_DMA(USBFS_MAX_EP);
 588              		.loc 1 735 0
 589 0006 0920     		movs	r0, #9
 590 0008 FFF7FEFF 		bl	USBFS_Stop_DMA
 736:Generated_Source\PSoC5/USBFS.c **** #endif /* (USBFS_EP_MANAGEMENT_DMA) */
 737:Generated_Source\PSoC5/USBFS.c **** 
 738:Generated_Source\PSoC5/USBFS.c ****     enableInterrupts = CyEnterCriticalSection();
 591              		.loc 1 738 0
 592 000c FFF7FEFF 		bl	CyEnterCriticalSection
 593 0010 0346     		mov	r3, r0
 594 0012 FB71     		strb	r3, [r7, #7]
 739:Generated_Source\PSoC5/USBFS.c **** 
 740:Generated_Source\PSoC5/USBFS.c ****     /* Disable USB IP to respond to USB traffic. */
 741:Generated_Source\PSoC5/USBFS.c ****     USBFS_CR0_REG &= (uint8) ~USBFS_CR0_ENABLE;
 595              		.loc 1 741 0
 596 0014 2E4A     		ldr	r2, .L22
 597 0016 2E4B     		ldr	r3, .L22
 598 0018 1B78     		ldrb	r3, [r3]
 599 001a DBB2     		uxtb	r3, r3
 600 001c 03F07F03 		and	r3, r3, #127
 601 0020 DBB2     		uxtb	r3, r3
 602 0022 1370     		strb	r3, [r2]
 742:Generated_Source\PSoC5/USBFS.c **** 
 743:Generated_Source\PSoC5/USBFS.c ****     /* Disable D+ pull-up. */
 744:Generated_Source\PSoC5/USBFS.c ****     USBFS_USBIO_CR1_REG &= (uint8) ~ USBFS_USBIO_CR1_USBPUEN;
 603              		.loc 1 744 0
 604 0024 2B4A     		ldr	r2, .L22+4
 605 0026 2B4B     		ldr	r3, .L22+4
 606 0028 1B78     		ldrb	r3, [r3]
 607 002a DBB2     		uxtb	r3, r3
 608 002c 23F00403 		bic	r3, r3, #4
 609 0030 DBB2     		uxtb	r3, r3
 610 0032 1370     		strb	r3, [r2]
 745:Generated_Source\PSoC5/USBFS.c **** 
 746:Generated_Source\PSoC5/USBFS.c **** #if (CY_PSOC4)
 747:Generated_Source\PSoC5/USBFS.c ****     /* Disable USBFS block. */
 748:Generated_Source\PSoC5/USBFS.c ****     USBFS_POWER_CTRL_REG &= (uint32) ~USBFS_POWER_CTRL_ENABLE;
 749:Generated_Source\PSoC5/USBFS.c **** #else
 750:Generated_Source\PSoC5/USBFS.c ****     /* Clear power active and standby mode templates. */
 751:Generated_Source\PSoC5/USBFS.c ****     USBFS_PM_ACT_CFG_REG  &= (uint8) ~USBFS_PM_ACT_EN_FSUSB;
 611              		.loc 1 751 0
 612 0034 284A     		ldr	r2, .L22+8
 613 0036 284B     		ldr	r3, .L22+8
 614 0038 1B78     		ldrb	r3, [r3]
 615 003a DBB2     		uxtb	r3, r3
ARM GAS  C:\Users\CALEBC~1\AppData\Local\Temp\ccUZyw0h.s 			page 25


 616 003c 23F00103 		bic	r3, r3, #1
 617 0040 DBB2     		uxtb	r3, r3
 618 0042 1370     		strb	r3, [r2]
 752:Generated_Source\PSoC5/USBFS.c ****     USBFS_PM_STBY_CFG_REG &= (uint8) ~USBFS_PM_STBY_EN_FSUSB;
 619              		.loc 1 752 0
 620 0044 254A     		ldr	r2, .L22+12
 621 0046 254B     		ldr	r3, .L22+12
 622 0048 1B78     		ldrb	r3, [r3]
 623 004a DBB2     		uxtb	r3, r3
 624 004c 23F00103 		bic	r3, r3, #1
 625 0050 DBB2     		uxtb	r3, r3
 626 0052 1370     		strb	r3, [r2]
 753:Generated_Source\PSoC5/USBFS.c **** 
 754:Generated_Source\PSoC5/USBFS.c ****     /* Ensure single-ended disable bits are high (PRT15.INP_DIS[7:6])
 755:Generated_Source\PSoC5/USBFS.c ****      * (input receiver disabled). */
 756:Generated_Source\PSoC5/USBFS.c ****     USBFS_DM_INP_DIS_REG |= (uint8) USBFS_DM_MASK;
 627              		.loc 1 756 0
 628 0054 224A     		ldr	r2, .L22+16
 629 0056 224B     		ldr	r3, .L22+16
 630 0058 1B78     		ldrb	r3, [r3]
 631 005a DBB2     		uxtb	r3, r3
 632 005c 63F07F03 		orn	r3, r3, #127
 633 0060 DBB2     		uxtb	r3, r3
 634 0062 1370     		strb	r3, [r2]
 757:Generated_Source\PSoC5/USBFS.c ****     USBFS_DP_INP_DIS_REG |= (uint8) USBFS_DP_MASK;
 635              		.loc 1 757 0
 636 0064 1E4A     		ldr	r2, .L22+16
 637 0066 1E4B     		ldr	r3, .L22+16
 638 0068 1B78     		ldrb	r3, [r3]
 639 006a DBB2     		uxtb	r3, r3
 640 006c 43F04003 		orr	r3, r3, #64
 641 0070 DBB2     		uxtb	r3, r3
 642 0072 1370     		strb	r3, [r2]
 758:Generated_Source\PSoC5/USBFS.c **** 
 759:Generated_Source\PSoC5/USBFS.c **** #endif /* (CY_PSOC4) */
 760:Generated_Source\PSoC5/USBFS.c **** 
 761:Generated_Source\PSoC5/USBFS.c ****     CyExitCriticalSection(enableInterrupts);
 643              		.loc 1 761 0
 644 0074 FB79     		ldrb	r3, [r7, #7]	@ zero_extendqisi2
 645 0076 1846     		mov	r0, r3
 646 0078 FFF7FEFF 		bl	CyExitCriticalSection
 762:Generated_Source\PSoC5/USBFS.c **** 
 763:Generated_Source\PSoC5/USBFS.c ****     /* Disable component interrupts. */
 764:Generated_Source\PSoC5/USBFS.c **** #if (CY_PSOC4)
 765:Generated_Source\PSoC5/USBFS.c ****     CyIntDisable(USBFS_INTR_HI_VECT_NUM);
 766:Generated_Source\PSoC5/USBFS.c ****     CyIntDisable(USBFS_INTR_LO_VECT_NUM);
 767:Generated_Source\PSoC5/USBFS.c ****     CyIntDisable(USBFS_INTR_MED_VECT_NUM);
 768:Generated_Source\PSoC5/USBFS.c **** #else
 769:Generated_Source\PSoC5/USBFS.c **** 
 770:Generated_Source\PSoC5/USBFS.c ****     CyIntDisable(USBFS_BUS_RESET_VECT_NUM);
 647              		.loc 1 770 0
 648 007c 194B     		ldr	r3, .L22+20
 649 007e 4FF40002 		mov	r2, #8388608
 650 0082 1A60     		str	r2, [r3]
 771:Generated_Source\PSoC5/USBFS.c ****     CyIntDisable(USBFS_EP_0_VECT_NUM);
 651              		.loc 1 771 0
 652 0084 174B     		ldr	r3, .L22+20
ARM GAS  C:\Users\CALEBC~1\AppData\Local\Temp\ccUZyw0h.s 			page 26


 653 0086 4FF08072 		mov	r2, #16777216
 654 008a 1A60     		str	r2, [r3]
 772:Generated_Source\PSoC5/USBFS.c **** 
 773:Generated_Source\PSoC5/USBFS.c ****     #if (USBFS_SOF_ISR_ACTIVE)
 774:Generated_Source\PSoC5/USBFS.c ****         CyIntDisable(USBFS_SOF_VECT_NUM);
 775:Generated_Source\PSoC5/USBFS.c ****     #endif /* (USBFS_SOF_ISR_ACTIVE) */
 776:Generated_Source\PSoC5/USBFS.c **** 
 777:Generated_Source\PSoC5/USBFS.c ****     #if (USBFS_EP1_ISR_ACTIVE)
 778:Generated_Source\PSoC5/USBFS.c ****         CyIntDisable(USBFS_EP_1_VECT_NUM);
 655              		.loc 1 778 0
 656 008c 154B     		ldr	r3, .L22+20
 657 008e 0122     		movs	r2, #1
 658 0090 1A60     		str	r2, [r3]
 779:Generated_Source\PSoC5/USBFS.c ****     #endif /* (USBFS_EP1_ISR_ACTIVE) */
 780:Generated_Source\PSoC5/USBFS.c **** 
 781:Generated_Source\PSoC5/USBFS.c ****     #if (USBFS_EP2_ISR_ACTIVE)
 782:Generated_Source\PSoC5/USBFS.c ****         CyIntDisable(USBFS_EP_2_VECT_NUM);
 659              		.loc 1 782 0
 660 0092 144B     		ldr	r3, .L22+20
 661 0094 0222     		movs	r2, #2
 662 0096 1A60     		str	r2, [r3]
 783:Generated_Source\PSoC5/USBFS.c ****     #endif /* (USBFS_EP2_ISR_ACTIVE) */
 784:Generated_Source\PSoC5/USBFS.c **** 
 785:Generated_Source\PSoC5/USBFS.c ****     #if (USBFS_EP3_ISR_ACTIVE)
 786:Generated_Source\PSoC5/USBFS.c ****         CyIntDisable(USBFS_EP_3_VECT_NUM);
 787:Generated_Source\PSoC5/USBFS.c ****     #endif /* (USBFS_EP3_ISR_ACTIVE) */
 788:Generated_Source\PSoC5/USBFS.c **** 
 789:Generated_Source\PSoC5/USBFS.c ****     #if (USBFS_EP4_ISR_ACTIVE)
 790:Generated_Source\PSoC5/USBFS.c ****         CyIntDisable(USBFS_EP_4_VECT_NUM);
 791:Generated_Source\PSoC5/USBFS.c ****     #endif /* (USBFS_EP4_ISR_ACTIVE) */
 792:Generated_Source\PSoC5/USBFS.c **** 
 793:Generated_Source\PSoC5/USBFS.c ****     #if (USBFS_EP5_ISR_ACTIVE)
 794:Generated_Source\PSoC5/USBFS.c ****         CyIntDisable(USBFS_EP_5_VECT_NUM);
 795:Generated_Source\PSoC5/USBFS.c ****     #endif /* (USBFS_EP5_ISR_ACTIVE) */
 796:Generated_Source\PSoC5/USBFS.c **** 
 797:Generated_Source\PSoC5/USBFS.c ****     #if (USBFS_EP6_ISR_ACTIVE)
 798:Generated_Source\PSoC5/USBFS.c ****         CyIntDisable(USBFS_EP_6_VECT_NUM);
 799:Generated_Source\PSoC5/USBFS.c ****     #endif /* USBFS_EP6_ISR_REMOVE */
 800:Generated_Source\PSoC5/USBFS.c **** 
 801:Generated_Source\PSoC5/USBFS.c ****     #if (USBFS_EP7_ISR_ACTIVE)
 802:Generated_Source\PSoC5/USBFS.c ****         CyIntDisable(USBFS_EP_7_VECT_NUM);
 803:Generated_Source\PSoC5/USBFS.c ****     #endif /* (USBFS_EP7_ISR_ACTIVE) */
 804:Generated_Source\PSoC5/USBFS.c **** 
 805:Generated_Source\PSoC5/USBFS.c ****     #if (USBFS_EP8_ISR_ACTIVE)
 806:Generated_Source\PSoC5/USBFS.c ****         CyIntDisable(USBFS_EP_8_VECT_NUM);
 807:Generated_Source\PSoC5/USBFS.c ****     #endif /* (USBFS_EP8_ISR_ACTIVE) */
 808:Generated_Source\PSoC5/USBFS.c **** 
 809:Generated_Source\PSoC5/USBFS.c ****     #if (USBFS_DP_ISR_ACTIVE)
 810:Generated_Source\PSoC5/USBFS.c ****         /* Clear active mode Dp interrupt source history. */
 811:Generated_Source\PSoC5/USBFS.c ****         (void) USBFS_Dp_ClearInterrupt();
 663              		.loc 1 811 0
 664 0098 FFF7FEFF 		bl	USBFS_Dp_ClearInterrupt
 812:Generated_Source\PSoC5/USBFS.c ****         CyIntClearPending(USBFS_DP_INTC_VECT_NUM);
 665              		.loc 1 812 0
 666 009c 124B     		ldr	r3, .L22+24
 667 009e 4FF48052 		mov	r2, #4096
 668 00a2 1A60     		str	r2, [r3]
ARM GAS  C:\Users\CALEBC~1\AppData\Local\Temp\ccUZyw0h.s 			page 27


 813:Generated_Source\PSoC5/USBFS.c ****     #endif /* (USBFS_DP_ISR_ACTIVE). */
 814:Generated_Source\PSoC5/USBFS.c **** 
 815:Generated_Source\PSoC5/USBFS.c **** #endif /* (CY_PSOC4) */
 816:Generated_Source\PSoC5/USBFS.c **** 
 817:Generated_Source\PSoC5/USBFS.c ****     /* Reset component internal variables. */
 818:Generated_Source\PSoC5/USBFS.c ****     USBFS_configurationChanged = 0u;
 669              		.loc 1 818 0
 670 00a4 114B     		ldr	r3, .L22+28
 671 00a6 0022     		movs	r2, #0
 672 00a8 1A70     		strb	r2, [r3]
 819:Generated_Source\PSoC5/USBFS.c ****     USBFS_configuration   = 0u;
 673              		.loc 1 819 0
 674 00aa 114B     		ldr	r3, .L22+32
 675 00ac 0022     		movs	r2, #0
 676 00ae 1A70     		strb	r2, [r3]
 820:Generated_Source\PSoC5/USBFS.c ****     USBFS_interfaceNumber = 0u;
 677              		.loc 1 820 0
 678 00b0 104B     		ldr	r3, .L22+36
 679 00b2 0022     		movs	r2, #0
 680 00b4 1A70     		strb	r2, [r3]
 821:Generated_Source\PSoC5/USBFS.c ****     USBFS_deviceAddress   = 0u;
 681              		.loc 1 821 0
 682 00b6 104B     		ldr	r3, .L22+40
 683 00b8 0022     		movs	r2, #0
 684 00ba 1A70     		strb	r2, [r3]
 822:Generated_Source\PSoC5/USBFS.c ****     USBFS_deviceStatus    = 0u;
 685              		.loc 1 822 0
 686 00bc 0F4B     		ldr	r3, .L22+44
 687 00be 0022     		movs	r2, #0
 688 00c0 1A70     		strb	r2, [r3]
 823:Generated_Source\PSoC5/USBFS.c **** 
 824:Generated_Source\PSoC5/USBFS.c ****     /* It is mandatory for correct device startup. */
 825:Generated_Source\PSoC5/USBFS.c ****     USBFS_initVar = 0u;
 689              		.loc 1 825 0
 690 00c2 0F4B     		ldr	r3, .L22+48
 691 00c4 0022     		movs	r2, #0
 692 00c6 1A70     		strb	r2, [r3]
 826:Generated_Source\PSoC5/USBFS.c **** }
 693              		.loc 1 826 0
 694 00c8 00BF     		nop
 695 00ca 0837     		adds	r7, r7, #8
 696              		.cfi_def_cfa_offset 8
 697 00cc BD46     		mov	sp, r7
 698              		.cfi_def_cfa_register 13
 699              		@ sp needed
 700 00ce 80BD     		pop	{r7, pc}
 701              	.L23:
 702              		.align	2
 703              	.L22:
 704 00d0 08600040 		.word	1073766408
 705 00d4 12600040 		.word	1073766418
 706 00d8 A5430040 		.word	1073759141
 707 00dc B5430040 		.word	1073759157
 708 00e0 F8510040 		.word	1073762808
 709 00e4 80E100E0 		.word	-536813184
 710 00e8 80E200E0 		.word	-536812928
 711 00ec 00000000 		.word	USBFS_configurationChanged
ARM GAS  C:\Users\CALEBC~1\AppData\Local\Temp\ccUZyw0h.s 			page 28


 712 00f0 00000000 		.word	USBFS_configuration
 713 00f4 00000000 		.word	USBFS_interfaceNumber
 714 00f8 00000000 		.word	USBFS_deviceAddress
 715 00fc 00000000 		.word	USBFS_deviceStatus
 716 0100 00000000 		.word	USBFS_initVar
 717              		.cfi_endproc
 718              	.LFE4:
 719              		.size	USBFS_Stop, .-USBFS_Stop
 720              		.section	.text.USBFS_CheckActivity,"ax",%progbits
 721              		.align	2
 722              		.global	USBFS_CheckActivity
 723              		.thumb
 724              		.thumb_func
 725              		.type	USBFS_CheckActivity, %function
 726              	USBFS_CheckActivity:
 727              	.LFB5:
 827:Generated_Source\PSoC5/USBFS.c **** 
 828:Generated_Source\PSoC5/USBFS.c **** 
 829:Generated_Source\PSoC5/USBFS.c **** /*******************************************************************************
 830:Generated_Source\PSoC5/USBFS.c **** * Function Name: USBFS_CheckActivity
 831:Generated_Source\PSoC5/USBFS.c **** ****************************************************************************//**
 832:Generated_Source\PSoC5/USBFS.c **** *
 833:Generated_Source\PSoC5/USBFS.c **** *  This function returns the activity status of the bus. It clears the hardware
 834:Generated_Source\PSoC5/USBFS.c **** *  status to provide updated status on the next call of this function. It
 835:Generated_Source\PSoC5/USBFS.c **** *  provides a way to determine whether any USB bus activity occurred. The
 836:Generated_Source\PSoC5/USBFS.c **** *  application should use this function to determine if the USB suspend
 837:Generated_Source\PSoC5/USBFS.c **** *  conditions are met.
 838:Generated_Source\PSoC5/USBFS.c **** *
 839:Generated_Source\PSoC5/USBFS.c **** *
 840:Generated_Source\PSoC5/USBFS.c **** * \return
 841:Generated_Source\PSoC5/USBFS.c **** *  cystatus: Status of the bus since the last call of the function.
 842:Generated_Source\PSoC5/USBFS.c **** *  Return Value |   Description
 843:Generated_Source\PSoC5/USBFS.c **** *  -------------|---------------------------------------------------------------
 844:Generated_Source\PSoC5/USBFS.c **** *  1            |Bus activity was detected since the last call to this function
 845:Generated_Source\PSoC5/USBFS.c **** *  0            |Bus activity was not detected since the last call to this function
 846:Generated_Source\PSoC5/USBFS.c **** *
 847:Generated_Source\PSoC5/USBFS.c **** *
 848:Generated_Source\PSoC5/USBFS.c **** *******************************************************************************/
 849:Generated_Source\PSoC5/USBFS.c **** uint8 USBFS_CheckActivity(void) 
 850:Generated_Source\PSoC5/USBFS.c **** {
 728              		.loc 1 850 0
 729              		.cfi_startproc
 730              		@ args = 0, pretend = 0, frame = 8
 731              		@ frame_needed = 1, uses_anonymous_args = 0
 732              		@ link register save eliminated.
 733 0000 80B4     		push	{r7}
 734              		.cfi_def_cfa_offset 4
 735              		.cfi_offset 7, -4
 736 0002 83B0     		sub	sp, sp, #12
 737              		.cfi_def_cfa_offset 16
 738 0004 00AF     		add	r7, sp, #0
 739              		.cfi_def_cfa_register 7
 851:Generated_Source\PSoC5/USBFS.c ****     uint8 cr1Reg = USBFS_CR1_REG;
 740              		.loc 1 851 0
 741 0006 0B4B     		ldr	r3, .L28
 742 0008 1B78     		ldrb	r3, [r3]
 743 000a FB71     		strb	r3, [r7, #7]
ARM GAS  C:\Users\CALEBC~1\AppData\Local\Temp\ccUZyw0h.s 			page 29


 852:Generated_Source\PSoC5/USBFS.c **** 
 853:Generated_Source\PSoC5/USBFS.c ****     /* Clear bus activity. */
 854:Generated_Source\PSoC5/USBFS.c ****     USBFS_CR1_REG = (cr1Reg & (uint8) ~USBFS_CR1_BUS_ACTIVITY);
 744              		.loc 1 854 0
 745 000c 094A     		ldr	r2, .L28
 746 000e FB79     		ldrb	r3, [r7, #7]
 747 0010 23F00403 		bic	r3, r3, #4
 748 0014 DBB2     		uxtb	r3, r3
 749 0016 1370     		strb	r3, [r2]
 855:Generated_Source\PSoC5/USBFS.c **** 
 856:Generated_Source\PSoC5/USBFS.c ****     /* Get bus activity. */
 857:Generated_Source\PSoC5/USBFS.c ****     return ((0u != (cr1Reg & USBFS_CR1_BUS_ACTIVITY)) ? (1u) : (0u));
 750              		.loc 1 857 0
 751 0018 FB79     		ldrb	r3, [r7, #7]	@ zero_extendqisi2
 752 001a 03F00403 		and	r3, r3, #4
 753 001e 002B     		cmp	r3, #0
 754 0020 01D0     		beq	.L25
 755              		.loc 1 857 0 is_stmt 0 discriminator 1
 756 0022 0123     		movs	r3, #1
 757 0024 00E0     		b	.L26
 758              	.L25:
 759              		.loc 1 857 0 discriminator 2
 760 0026 0023     		movs	r3, #0
 761              	.L26:
 858:Generated_Source\PSoC5/USBFS.c **** }
 762              		.loc 1 858 0 is_stmt 1 discriminator 4
 763 0028 1846     		mov	r0, r3
 764 002a 0C37     		adds	r7, r7, #12
 765              		.cfi_def_cfa_offset 4
 766 002c BD46     		mov	sp, r7
 767              		.cfi_def_cfa_register 13
 768              		@ sp needed
 769 002e 80BC     		pop	{r7}
 770              		.cfi_restore 7
 771              		.cfi_def_cfa_offset 0
 772 0030 7047     		bx	lr
 773              	.L29:
 774 0032 00BF     		.align	2
 775              	.L28:
 776 0034 09600040 		.word	1073766409
 777              		.cfi_endproc
 778              	.LFE5:
 779              		.size	USBFS_CheckActivity, .-USBFS_CheckActivity
 780              		.section	.text.USBFS_GetConfiguration,"ax",%progbits
 781              		.align	2
 782              		.global	USBFS_GetConfiguration
 783              		.thumb
 784              		.thumb_func
 785              		.type	USBFS_GetConfiguration, %function
 786              	USBFS_GetConfiguration:
 787              	.LFB6:
 859:Generated_Source\PSoC5/USBFS.c **** 
 860:Generated_Source\PSoC5/USBFS.c **** 
 861:Generated_Source\PSoC5/USBFS.c **** /*******************************************************************************
 862:Generated_Source\PSoC5/USBFS.c **** * Function Name: USBFS_GetConfiguration
 863:Generated_Source\PSoC5/USBFS.c **** ****************************************************************************//**
 864:Generated_Source\PSoC5/USBFS.c **** *
ARM GAS  C:\Users\CALEBC~1\AppData\Local\Temp\ccUZyw0h.s 			page 30


 865:Generated_Source\PSoC5/USBFS.c **** *  This function gets the current configuration of the USB device.
 866:Generated_Source\PSoC5/USBFS.c **** *
 867:Generated_Source\PSoC5/USBFS.c **** * \return
 868:Generated_Source\PSoC5/USBFS.c **** *  Returns the currently assigned configuration. Returns 0 if the device
 869:Generated_Source\PSoC5/USBFS.c **** *  is not configured
 870:Generated_Source\PSoC5/USBFS.c **** *
 871:Generated_Source\PSoC5/USBFS.c **** *******************************************************************************/
 872:Generated_Source\PSoC5/USBFS.c **** uint8 USBFS_GetConfiguration(void) 
 873:Generated_Source\PSoC5/USBFS.c **** {
 788              		.loc 1 873 0
 789              		.cfi_startproc
 790              		@ args = 0, pretend = 0, frame = 0
 791              		@ frame_needed = 1, uses_anonymous_args = 0
 792              		@ link register save eliminated.
 793 0000 80B4     		push	{r7}
 794              		.cfi_def_cfa_offset 4
 795              		.cfi_offset 7, -4
 796 0002 00AF     		add	r7, sp, #0
 797              		.cfi_def_cfa_register 7
 874:Generated_Source\PSoC5/USBFS.c ****     return (USBFS_configuration);
 798              		.loc 1 874 0
 799 0004 034B     		ldr	r3, .L32
 800 0006 1B78     		ldrb	r3, [r3]
 801 0008 DBB2     		uxtb	r3, r3
 875:Generated_Source\PSoC5/USBFS.c **** }
 802              		.loc 1 875 0
 803 000a 1846     		mov	r0, r3
 804 000c BD46     		mov	sp, r7
 805              		.cfi_def_cfa_register 13
 806              		@ sp needed
 807 000e 80BC     		pop	{r7}
 808              		.cfi_restore 7
 809              		.cfi_def_cfa_offset 0
 810 0010 7047     		bx	lr
 811              	.L33:
 812 0012 00BF     		.align	2
 813              	.L32:
 814 0014 00000000 		.word	USBFS_configuration
 815              		.cfi_endproc
 816              	.LFE6:
 817              		.size	USBFS_GetConfiguration, .-USBFS_GetConfiguration
 818              		.section	.text.USBFS_IsConfigurationChanged,"ax",%progbits
 819              		.align	2
 820              		.global	USBFS_IsConfigurationChanged
 821              		.thumb
 822              		.thumb_func
 823              		.type	USBFS_IsConfigurationChanged, %function
 824              	USBFS_IsConfigurationChanged:
 825              	.LFB7:
 876:Generated_Source\PSoC5/USBFS.c **** 
 877:Generated_Source\PSoC5/USBFS.c **** 
 878:Generated_Source\PSoC5/USBFS.c **** /*******************************************************************************
 879:Generated_Source\PSoC5/USBFS.c **** * Function Name: USBFS_IsConfigurationChanged
 880:Generated_Source\PSoC5/USBFS.c **** ****************************************************************************//**
 881:Generated_Source\PSoC5/USBFS.c **** *
 882:Generated_Source\PSoC5/USBFS.c **** *  This function returns the clear-on-read configuration state.  It is useful
 883:Generated_Source\PSoC5/USBFS.c **** *  when the host sends double SET_CONFIGURATION request with the same 
ARM GAS  C:\Users\CALEBC~1\AppData\Local\Temp\ccUZyw0h.s 			page 31


 884:Generated_Source\PSoC5/USBFS.c **** *  configuration number or changes alternate settings of the interface. 
 885:Generated_Source\PSoC5/USBFS.c **** *  After configuration has been changed the OUT endpoints must be enabled and IN 
 886:Generated_Source\PSoC5/USBFS.c **** *  endpoint must be loaded with data to start communication with the host.
 887:Generated_Source\PSoC5/USBFS.c **** *
 888:Generated_Source\PSoC5/USBFS.c **** * \return
 889:Generated_Source\PSoC5/USBFS.c **** *  None-zero value when new configuration has been changed, otherwise zero is
 890:Generated_Source\PSoC5/USBFS.c **** *  returned.
 891:Generated_Source\PSoC5/USBFS.c **** *
 892:Generated_Source\PSoC5/USBFS.c **** * \globalvars
 893:Generated_Source\PSoC5/USBFS.c **** *
 894:Generated_Source\PSoC5/USBFS.c **** *  \ref USBFS_configurationChanged - This variable is set to 1 after
 895:Generated_Source\PSoC5/USBFS.c **** *   a SET_CONFIGURATION request and cleared in this function.
 896:Generated_Source\PSoC5/USBFS.c **** *
 897:Generated_Source\PSoC5/USBFS.c **** *******************************************************************************/
 898:Generated_Source\PSoC5/USBFS.c **** uint8 USBFS_IsConfigurationChanged(void) 
 899:Generated_Source\PSoC5/USBFS.c **** {
 826              		.loc 1 899 0
 827              		.cfi_startproc
 828              		@ args = 0, pretend = 0, frame = 8
 829              		@ frame_needed = 1, uses_anonymous_args = 0
 830              		@ link register save eliminated.
 831 0000 80B4     		push	{r7}
 832              		.cfi_def_cfa_offset 4
 833              		.cfi_offset 7, -4
 834 0002 83B0     		sub	sp, sp, #12
 835              		.cfi_def_cfa_offset 16
 836 0004 00AF     		add	r7, sp, #0
 837              		.cfi_def_cfa_register 7
 900:Generated_Source\PSoC5/USBFS.c ****     uint8 res = 0u;
 838              		.loc 1 900 0
 839 0006 0023     		movs	r3, #0
 840 0008 FB71     		strb	r3, [r7, #7]
 901:Generated_Source\PSoC5/USBFS.c **** 
 902:Generated_Source\PSoC5/USBFS.c ****     if (USBFS_configurationChanged != 0u)
 841              		.loc 1 902 0
 842 000a 084B     		ldr	r3, .L37
 843 000c 1B78     		ldrb	r3, [r3]
 844 000e DBB2     		uxtb	r3, r3
 845 0010 002B     		cmp	r3, #0
 846 0012 05D0     		beq	.L35
 903:Generated_Source\PSoC5/USBFS.c ****     {
 904:Generated_Source\PSoC5/USBFS.c ****         res = USBFS_configurationChanged;
 847              		.loc 1 904 0
 848 0014 054B     		ldr	r3, .L37
 849 0016 1B78     		ldrb	r3, [r3]
 850 0018 FB71     		strb	r3, [r7, #7]
 905:Generated_Source\PSoC5/USBFS.c ****         USBFS_configurationChanged = 0u;
 851              		.loc 1 905 0
 852 001a 044B     		ldr	r3, .L37
 853 001c 0022     		movs	r2, #0
 854 001e 1A70     		strb	r2, [r3]
 855              	.L35:
 906:Generated_Source\PSoC5/USBFS.c ****     }
 907:Generated_Source\PSoC5/USBFS.c **** 
 908:Generated_Source\PSoC5/USBFS.c ****     return (res);
 856              		.loc 1 908 0
 857 0020 FB79     		ldrb	r3, [r7, #7]	@ zero_extendqisi2
ARM GAS  C:\Users\CALEBC~1\AppData\Local\Temp\ccUZyw0h.s 			page 32


 909:Generated_Source\PSoC5/USBFS.c **** }
 858              		.loc 1 909 0
 859 0022 1846     		mov	r0, r3
 860 0024 0C37     		adds	r7, r7, #12
 861              		.cfi_def_cfa_offset 4
 862 0026 BD46     		mov	sp, r7
 863              		.cfi_def_cfa_register 13
 864              		@ sp needed
 865 0028 80BC     		pop	{r7}
 866              		.cfi_restore 7
 867              		.cfi_def_cfa_offset 0
 868 002a 7047     		bx	lr
 869              	.L38:
 870              		.align	2
 871              	.L37:
 872 002c 00000000 		.word	USBFS_configurationChanged
 873              		.cfi_endproc
 874              	.LFE7:
 875              		.size	USBFS_IsConfigurationChanged, .-USBFS_IsConfigurationChanged
 876              		.section	.text.USBFS_GetInterfaceSetting,"ax",%progbits
 877              		.align	2
 878              		.global	USBFS_GetInterfaceSetting
 879              		.thumb
 880              		.thumb_func
 881              		.type	USBFS_GetInterfaceSetting, %function
 882              	USBFS_GetInterfaceSetting:
 883              	.LFB8:
 910:Generated_Source\PSoC5/USBFS.c **** 
 911:Generated_Source\PSoC5/USBFS.c **** 
 912:Generated_Source\PSoC5/USBFS.c **** /*******************************************************************************
 913:Generated_Source\PSoC5/USBFS.c **** * Function Name: USBFS_GetInterfaceSetting
 914:Generated_Source\PSoC5/USBFS.c **** ****************************************************************************//**
 915:Generated_Source\PSoC5/USBFS.c **** *
 916:Generated_Source\PSoC5/USBFS.c **** *  This function gets the current alternate setting for the specified interface.
 917:Generated_Source\PSoC5/USBFS.c **** *  It is useful to identify which alternate settings are active in the specified 
 918:Generated_Source\PSoC5/USBFS.c **** *  interface.
 919:Generated_Source\PSoC5/USBFS.c **** *
 920:Generated_Source\PSoC5/USBFS.c **** *  \param
 921:Generated_Source\PSoC5/USBFS.c **** *  interfaceNumber interface number
 922:Generated_Source\PSoC5/USBFS.c **** *
 923:Generated_Source\PSoC5/USBFS.c **** * \return
 924:Generated_Source\PSoC5/USBFS.c **** *  Returns the current alternate setting for the specified interface.
 925:Generated_Source\PSoC5/USBFS.c **** *
 926:Generated_Source\PSoC5/USBFS.c **** *******************************************************************************/
 927:Generated_Source\PSoC5/USBFS.c **** uint8  USBFS_GetInterfaceSetting(uint8 interfaceNumber)
 928:Generated_Source\PSoC5/USBFS.c ****                                                     
 929:Generated_Source\PSoC5/USBFS.c **** {
 884              		.loc 1 929 0
 885              		.cfi_startproc
 886              		@ args = 0, pretend = 0, frame = 8
 887              		@ frame_needed = 1, uses_anonymous_args = 0
 888              		@ link register save eliminated.
 889 0000 80B4     		push	{r7}
 890              		.cfi_def_cfa_offset 4
 891              		.cfi_offset 7, -4
 892 0002 83B0     		sub	sp, sp, #12
 893              		.cfi_def_cfa_offset 16
ARM GAS  C:\Users\CALEBC~1\AppData\Local\Temp\ccUZyw0h.s 			page 33


 894 0004 00AF     		add	r7, sp, #0
 895              		.cfi_def_cfa_register 7
 896 0006 0346     		mov	r3, r0
 897 0008 FB71     		strb	r3, [r7, #7]
 930:Generated_Source\PSoC5/USBFS.c ****     return (USBFS_interfaceSetting[interfaceNumber]);
 898              		.loc 1 930 0
 899 000a FB79     		ldrb	r3, [r7, #7]	@ zero_extendqisi2
 900 000c 034A     		ldr	r2, .L41
 901 000e D35C     		ldrb	r3, [r2, r3]
 902 0010 DBB2     		uxtb	r3, r3
 931:Generated_Source\PSoC5/USBFS.c **** }
 903              		.loc 1 931 0
 904 0012 1846     		mov	r0, r3
 905 0014 0C37     		adds	r7, r7, #12
 906              		.cfi_def_cfa_offset 4
 907 0016 BD46     		mov	sp, r7
 908              		.cfi_def_cfa_register 13
 909              		@ sp needed
 910 0018 80BC     		pop	{r7}
 911              		.cfi_restore 7
 912              		.cfi_def_cfa_offset 0
 913 001a 7047     		bx	lr
 914              	.L42:
 915              		.align	2
 916              	.L41:
 917 001c 00000000 		.word	USBFS_interfaceSetting
 918              		.cfi_endproc
 919              	.LFE8:
 920              		.size	USBFS_GetInterfaceSetting, .-USBFS_GetInterfaceSetting
 921              		.section	.text.USBFS_GetEPState,"ax",%progbits
 922              		.align	2
 923              		.global	USBFS_GetEPState
 924              		.thumb
 925              		.thumb_func
 926              		.type	USBFS_GetEPState, %function
 927              	USBFS_GetEPState:
 928              	.LFB9:
 932:Generated_Source\PSoC5/USBFS.c **** 
 933:Generated_Source\PSoC5/USBFS.c **** 
 934:Generated_Source\PSoC5/USBFS.c **** /*******************************************************************************
 935:Generated_Source\PSoC5/USBFS.c **** * Function Name: USBFS_GetEPState
 936:Generated_Source\PSoC5/USBFS.c **** ****************************************************************************//**
 937:Generated_Source\PSoC5/USBFS.c **** *
 938:Generated_Source\PSoC5/USBFS.c **** *  This function returns the state of the requested endpoint.
 939:Generated_Source\PSoC5/USBFS.c **** *
 940:Generated_Source\PSoC5/USBFS.c **** * \param epNumber Data endpoint number
 941:Generated_Source\PSoC5/USBFS.c **** *
 942:Generated_Source\PSoC5/USBFS.c **** * \return
 943:Generated_Source\PSoC5/USBFS.c **** *  Returns the current state of the specified USBFS endpoint. Symbolic names and
 944:Generated_Source\PSoC5/USBFS.c **** *  their associated values are given in the following table. Use these constants
 945:Generated_Source\PSoC5/USBFS.c **** *  whenever you write code to change the state of the endpoints, such as ISR
 946:Generated_Source\PSoC5/USBFS.c **** *  code, to handle data sent or received.
 947:Generated_Source\PSoC5/USBFS.c **** *
 948:Generated_Source\PSoC5/USBFS.c **** *  Return Value           | Description
 949:Generated_Source\PSoC5/USBFS.c **** *  -----------------------|-----------------------------------------------------
 950:Generated_Source\PSoC5/USBFS.c **** *  USBFS_NO_EVENT_PENDING |The endpoint is awaiting SIE action
 951:Generated_Source\PSoC5/USBFS.c **** *  USBFS_EVENT_PENDING    |The endpoint is awaiting CPU action
ARM GAS  C:\Users\CALEBC~1\AppData\Local\Temp\ccUZyw0h.s 			page 34


 952:Generated_Source\PSoC5/USBFS.c **** *  USBFS_NO_EVENT_ALLOWED |The endpoint is locked from access
 953:Generated_Source\PSoC5/USBFS.c **** *  USBFS_IN_BUFFER_FULL   |The IN endpoint is loaded and the mode is set to ACK IN
 954:Generated_Source\PSoC5/USBFS.c **** *  USBFS_IN_BUFFER_EMPTY  |An IN transaction occurred and more data can be loaded
 955:Generated_Source\PSoC5/USBFS.c **** *  USBFS_OUT_BUFFER_EMPTY |The OUT endpoint is set to ACK OUT and is waiting for data
 956:Generated_Source\PSoC5/USBFS.c **** *  USBFS_OUT_BUFFER_FULL  |An OUT transaction has occurred and data can be read
 957:Generated_Source\PSoC5/USBFS.c **** *
 958:Generated_Source\PSoC5/USBFS.c **** *******************************************************************************/
 959:Generated_Source\PSoC5/USBFS.c **** uint8 USBFS_GetEPState(uint8 epNumber) 
 960:Generated_Source\PSoC5/USBFS.c **** {
 929              		.loc 1 960 0
 930              		.cfi_startproc
 931              		@ args = 0, pretend = 0, frame = 8
 932              		@ frame_needed = 1, uses_anonymous_args = 0
 933              		@ link register save eliminated.
 934 0000 80B4     		push	{r7}
 935              		.cfi_def_cfa_offset 4
 936              		.cfi_offset 7, -4
 937 0002 83B0     		sub	sp, sp, #12
 938              		.cfi_def_cfa_offset 16
 939 0004 00AF     		add	r7, sp, #0
 940              		.cfi_def_cfa_register 7
 941 0006 0346     		mov	r3, r0
 942 0008 FB71     		strb	r3, [r7, #7]
 961:Generated_Source\PSoC5/USBFS.c ****     return (USBFS_EP[epNumber].apiEpState);
 943              		.loc 1 961 0
 944 000a FA79     		ldrb	r2, [r7, #7]	@ zero_extendqisi2
 945 000c 0649     		ldr	r1, .L45
 946 000e 1346     		mov	r3, r2
 947 0010 5B00     		lsls	r3, r3, #1
 948 0012 1344     		add	r3, r3, r2
 949 0014 9B00     		lsls	r3, r3, #2
 950 0016 0B44     		add	r3, r3, r1
 951 0018 0133     		adds	r3, r3, #1
 952 001a 1B78     		ldrb	r3, [r3]
 953 001c DBB2     		uxtb	r3, r3
 962:Generated_Source\PSoC5/USBFS.c **** }
 954              		.loc 1 962 0
 955 001e 1846     		mov	r0, r3
 956 0020 0C37     		adds	r7, r7, #12
 957              		.cfi_def_cfa_offset 4
 958 0022 BD46     		mov	sp, r7
 959              		.cfi_def_cfa_register 13
 960              		@ sp needed
 961 0024 80BC     		pop	{r7}
 962              		.cfi_restore 7
 963              		.cfi_def_cfa_offset 0
 964 0026 7047     		bx	lr
 965              	.L46:
 966              		.align	2
 967              	.L45:
 968 0028 00000000 		.word	USBFS_EP
 969              		.cfi_endproc
 970              	.LFE9:
 971              		.size	USBFS_GetEPState, .-USBFS_GetEPState
 972              		.section	.text.USBFS_GetEPCount,"ax",%progbits
 973              		.align	2
 974              		.global	USBFS_GetEPCount
ARM GAS  C:\Users\CALEBC~1\AppData\Local\Temp\ccUZyw0h.s 			page 35


 975              		.thumb
 976              		.thumb_func
 977              		.type	USBFS_GetEPCount, %function
 978              	USBFS_GetEPCount:
 979              	.LFB10:
 963:Generated_Source\PSoC5/USBFS.c **** 
 964:Generated_Source\PSoC5/USBFS.c **** 
 965:Generated_Source\PSoC5/USBFS.c **** /*******************************************************************************
 966:Generated_Source\PSoC5/USBFS.c **** * Function Name: USBFS_GetEPCount
 967:Generated_Source\PSoC5/USBFS.c **** ****************************************************************************//**
 968:Generated_Source\PSoC5/USBFS.c **** *
 969:Generated_Source\PSoC5/USBFS.c **** *  This function supports Data Endpoints only(EP1-EP8).
 970:Generated_Source\PSoC5/USBFS.c **** *  Returns the transfer count for the requested endpoint.  The value from
 971:Generated_Source\PSoC5/USBFS.c **** *  the count registers includes 2 counts for the two byte checksum of the
 972:Generated_Source\PSoC5/USBFS.c **** *  packet.  This function subtracts the two counts.
 973:Generated_Source\PSoC5/USBFS.c **** *
 974:Generated_Source\PSoC5/USBFS.c **** *  \param epNumber Data Endpoint Number.
 975:Generated_Source\PSoC5/USBFS.c **** *                   Valid values are between 1 and 8.
 976:Generated_Source\PSoC5/USBFS.c **** *
 977:Generated_Source\PSoC5/USBFS.c **** * \return
 978:Generated_Source\PSoC5/USBFS.c **** *  Returns the current byte count from the specified endpoint or 0 for an
 979:Generated_Source\PSoC5/USBFS.c **** *  invalid endpoint.
 980:Generated_Source\PSoC5/USBFS.c **** *
 981:Generated_Source\PSoC5/USBFS.c **** *******************************************************************************/
 982:Generated_Source\PSoC5/USBFS.c **** uint16 USBFS_GetEPCount(uint8 epNumber) 
 983:Generated_Source\PSoC5/USBFS.c **** {
 980              		.loc 1 983 0
 981              		.cfi_startproc
 982              		@ args = 0, pretend = 0, frame = 16
 983              		@ frame_needed = 1, uses_anonymous_args = 0
 984              		@ link register save eliminated.
 985 0000 80B4     		push	{r7}
 986              		.cfi_def_cfa_offset 4
 987              		.cfi_offset 7, -4
 988 0002 85B0     		sub	sp, sp, #20
 989              		.cfi_def_cfa_offset 24
 990 0004 00AF     		add	r7, sp, #0
 991              		.cfi_def_cfa_register 7
 992 0006 0346     		mov	r3, r0
 993 0008 FB71     		strb	r3, [r7, #7]
 984:Generated_Source\PSoC5/USBFS.c ****     uint16 cntr = 0u;
 994              		.loc 1 984 0
 995 000a 0023     		movs	r3, #0
 996 000c FB81     		strh	r3, [r7, #14]	@ movhi
 985:Generated_Source\PSoC5/USBFS.c **** 
 986:Generated_Source\PSoC5/USBFS.c ****     if ((epNumber > USBFS_EP0) && (epNumber < USBFS_MAX_EP))
 997              		.loc 1 986 0
 998 000e FB79     		ldrb	r3, [r7, #7]	@ zero_extendqisi2
 999 0010 002B     		cmp	r3, #0
 1000 0012 1CD0     		beq	.L48
 1001              		.loc 1 986 0 is_stmt 0 discriminator 1
 1002 0014 FB79     		ldrb	r3, [r7, #7]	@ zero_extendqisi2
 1003 0016 082B     		cmp	r3, #8
 1004 0018 19D8     		bhi	.L48
 987:Generated_Source\PSoC5/USBFS.c ****     {
 988:Generated_Source\PSoC5/USBFS.c ****         /* Get 11-bits EP counter where epCnt0 - 3 bits MSB and epCnt1 - 8 bits LSB. */
 989:Generated_Source\PSoC5/USBFS.c ****         cntr  = ((uint16) USBFS_SIE_EP_BASE.sieEp[epNumber].epCnt0) & USBFS_EPX_CNT0_MASK;
ARM GAS  C:\Users\CALEBC~1\AppData\Local\Temp\ccUZyw0h.s 			page 36


 1005              		.loc 1 989 0 is_stmt 1
 1006 001a 104A     		ldr	r2, .L50
 1007 001c FB79     		ldrb	r3, [r7, #7]	@ zero_extendqisi2
 1008 001e 1B01     		lsls	r3, r3, #4
 1009 0020 1344     		add	r3, r3, r2
 1010 0022 1B78     		ldrb	r3, [r3]
 1011 0024 DBB2     		uxtb	r3, r3
 1012 0026 9BB2     		uxth	r3, r3
 1013 0028 03F00F03 		and	r3, r3, #15
 1014 002c FB81     		strh	r3, [r7, #14]	@ movhi
 990:Generated_Source\PSoC5/USBFS.c ****         cntr  = ((uint16) (cntr << 8u)) | ((uint16) USBFS_SIE_EP_BASE.sieEp[epNumber].epCnt1);
 1015              		.loc 1 990 0
 1016 002e FB89     		ldrh	r3, [r7, #14]	@ movhi
 1017 0030 1B02     		lsls	r3, r3, #8
 1018 0032 9AB2     		uxth	r2, r3
 1019 0034 0949     		ldr	r1, .L50
 1020 0036 FB79     		ldrb	r3, [r7, #7]	@ zero_extendqisi2
 1021 0038 1B01     		lsls	r3, r3, #4
 1022 003a 0B44     		add	r3, r3, r1
 1023 003c 0133     		adds	r3, r3, #1
 1024 003e 1B78     		ldrb	r3, [r3]
 1025 0040 DBB2     		uxtb	r3, r3
 1026 0042 9BB2     		uxth	r3, r3
 1027 0044 1343     		orrs	r3, r3, r2
 1028 0046 FB81     		strh	r3, [r7, #14]	@ movhi
 991:Generated_Source\PSoC5/USBFS.c ****         cntr -= USBFS_EPX_CNTX_CRC_COUNT;
 1029              		.loc 1 991 0
 1030 0048 FB89     		ldrh	r3, [r7, #14]	@ movhi
 1031 004a 023B     		subs	r3, r3, #2
 1032 004c FB81     		strh	r3, [r7, #14]	@ movhi
 1033              	.L48:
 992:Generated_Source\PSoC5/USBFS.c ****     }
 993:Generated_Source\PSoC5/USBFS.c **** 
 994:Generated_Source\PSoC5/USBFS.c ****     return (cntr);
 1034              		.loc 1 994 0
 1035 004e FB89     		ldrh	r3, [r7, #14]
 995:Generated_Source\PSoC5/USBFS.c **** }
 1036              		.loc 1 995 0
 1037 0050 1846     		mov	r0, r3
 1038 0052 1437     		adds	r7, r7, #20
 1039              		.cfi_def_cfa_offset 4
 1040 0054 BD46     		mov	sp, r7
 1041              		.cfi_def_cfa_register 13
 1042              		@ sp needed
 1043 0056 80BC     		pop	{r7}
 1044              		.cfi_restore 7
 1045              		.cfi_def_cfa_offset 0
 1046 0058 7047     		bx	lr
 1047              	.L51:
 1048 005a 00BF     		.align	2
 1049              	.L50:
 1050 005c FC5F0040 		.word	1073766396
 1051              		.cfi_endproc
 1052              	.LFE10:
 1053              		.size	USBFS_GetEPCount, .-USBFS_GetEPCount
 1054              		.section	.text.USBFS_InitEP_DMA,"ax",%progbits
 1055              		.align	2
ARM GAS  C:\Users\CALEBC~1\AppData\Local\Temp\ccUZyw0h.s 			page 37


 1056              		.global	USBFS_InitEP_DMA
 1057              		.thumb
 1058              		.thumb_func
 1059              		.type	USBFS_InitEP_DMA, %function
 1060              	USBFS_InitEP_DMA:
 1061              	.LFB11:
 996:Generated_Source\PSoC5/USBFS.c **** 
 997:Generated_Source\PSoC5/USBFS.c **** 
 998:Generated_Source\PSoC5/USBFS.c **** #if (USBFS_EP_MANAGEMENT_DMA)
 999:Generated_Source\PSoC5/USBFS.c **** #if (CY_PSOC4)
1000:Generated_Source\PSoC5/USBFS.c ****     /*******************************************************************************
1001:Generated_Source\PSoC5/USBFS.c ****     * Function Name: USBFS_InitEpDma
1002:Generated_Source\PSoC5/USBFS.c ****     ****************************************************************************//**
1003:Generated_Source\PSoC5/USBFS.c ****     *
1004:Generated_Source\PSoC5/USBFS.c ****     *  This function configures priority for all DMA channels utilized by the
1005:Generated_Source\PSoC5/USBFS.c ****     *  component. Also sets callbacks for DMA auto mode.
1006:Generated_Source\PSoC5/USBFS.c ****     *
1007:Generated_Source\PSoC5/USBFS.c ****     *******************************************************************************/
1008:Generated_Source\PSoC5/USBFS.c ****     static void USBFS_InitEpDma(void)
1009:Generated_Source\PSoC5/USBFS.c ****     {
1010:Generated_Source\PSoC5/USBFS.c ****     #if (USBFS_DMA1_ACTIVE)
1011:Generated_Source\PSoC5/USBFS.c ****         CYDMA_CH_CTL_BASE.ctl[USBFS_ep1_dma_CHANNEL] = USBFS_ep1_dma_CHANNEL_CFG;
1012:Generated_Source\PSoC5/USBFS.c ****     #endif /* (USBFS_DMA1_ACTIVE) */
1013:Generated_Source\PSoC5/USBFS.c **** 
1014:Generated_Source\PSoC5/USBFS.c ****     #if (USBFS_DMA2_ACTIVE)
1015:Generated_Source\PSoC5/USBFS.c ****         CYDMA_CH_CTL_BASE.ctl[USBFS_ep2_dma_CHANNEL] = USBFS_ep2_dma_CHANNEL_CFG;
1016:Generated_Source\PSoC5/USBFS.c ****     #endif /* (USBFS_DMA2_ACTIVE) */
1017:Generated_Source\PSoC5/USBFS.c **** 
1018:Generated_Source\PSoC5/USBFS.c ****     #if (USBFS_DMA3_ACTIVE)
1019:Generated_Source\PSoC5/USBFS.c ****         CYDMA_CH_CTL_BASE.ctl[USBFS_ep3_dma_CHANNEL] = USBFS_ep3_dma_CHANNEL_CFG;
1020:Generated_Source\PSoC5/USBFS.c ****     #endif /* (USBFS_DMA3_ACTIVE) */
1021:Generated_Source\PSoC5/USBFS.c **** 
1022:Generated_Source\PSoC5/USBFS.c ****     #if (USBFS_DMA4_ACTIVE)
1023:Generated_Source\PSoC5/USBFS.c ****         CYDMA_CH_CTL_BASE.ctl[USBFS_ep4_dma_CHANNEL] = USBFS_ep4_dma_CHANNEL_CFG;
1024:Generated_Source\PSoC5/USBFS.c ****     #endif /* (USBFS_DMA4_ACTIVE) */
1025:Generated_Source\PSoC5/USBFS.c **** 
1026:Generated_Source\PSoC5/USBFS.c ****     #if (USBFS_DMA5_ACTIVE)
1027:Generated_Source\PSoC5/USBFS.c ****         CYDMA_CH_CTL_BASE.ctl[USBFS_ep5_dma_CHANNEL] = USBFS_ep5_dma_CHANNEL_CFG;
1028:Generated_Source\PSoC5/USBFS.c ****     #endif /* (USBFS_DMA5_ACTIVE) */
1029:Generated_Source\PSoC5/USBFS.c **** 
1030:Generated_Source\PSoC5/USBFS.c ****     #if (USBFS_DMA6_ACTIVE)
1031:Generated_Source\PSoC5/USBFS.c ****         CYDMA_CH_CTL_BASE.ctl[USBFS_ep6_dma_CHANNEL] = USBFS_ep6_dma_CHANNEL_CFG;
1032:Generated_Source\PSoC5/USBFS.c ****     #endif /* (USBFS_DMA6_ACTIVE) */
1033:Generated_Source\PSoC5/USBFS.c **** 
1034:Generated_Source\PSoC5/USBFS.c ****     #if (USBFS_DMA7_ACTIVE)
1035:Generated_Source\PSoC5/USBFS.c ****         CYDMA_CH_CTL_BASE.ctl[USBFS_ep7_dma_CHANNEL] = USBFS_ep7_dma_CHANNEL_CFG;
1036:Generated_Source\PSoC5/USBFS.c ****     #endif /* (USBFS_DMA7_ACTIVE) */
1037:Generated_Source\PSoC5/USBFS.c **** 
1038:Generated_Source\PSoC5/USBFS.c ****     #if (USBFS_DMA8_ACTIVE)
1039:Generated_Source\PSoC5/USBFS.c ****         CYDMA_CH_CTL_BASE.ctl[USBFS_ep8_dma_CHANNEL] = USBFS_ep8_dma_CHANNEL_CFG;
1040:Generated_Source\PSoC5/USBFS.c ****     #endif /* (USBFS_DMA8_ACTIVE) */
1041:Generated_Source\PSoC5/USBFS.c **** 
1042:Generated_Source\PSoC5/USBFS.c ****     #if (USBFS_EP_MANAGEMENT_DMA_AUTO)
1043:Generated_Source\PSoC5/USBFS.c ****         /* Initialize DMA channel callbacks. */
1044:Generated_Source\PSoC5/USBFS.c ****         #if (USBFS_DMA1_ACTIVE)
1045:Generated_Source\PSoC5/USBFS.c ****             (void) USBFS_ep1_dma_SetInterruptCallback(&USBFS_EP1_DMA_DONE_ISR);
1046:Generated_Source\PSoC5/USBFS.c ****         #endif /* (USBFS_DMA1_ACTIVE) */
ARM GAS  C:\Users\CALEBC~1\AppData\Local\Temp\ccUZyw0h.s 			page 38


1047:Generated_Source\PSoC5/USBFS.c **** 
1048:Generated_Source\PSoC5/USBFS.c ****         #if (USBFS_DMA2_ACTIVE)
1049:Generated_Source\PSoC5/USBFS.c ****             (void) USBFS_ep2_dma_SetInterruptCallback(&USBFS_EP2_DMA_DONE_ISR);
1050:Generated_Source\PSoC5/USBFS.c ****         #endif /* (USBFS_DMA2_ACTIVE) */
1051:Generated_Source\PSoC5/USBFS.c **** 
1052:Generated_Source\PSoC5/USBFS.c ****         #if (USBFS_DMA3_ACTIVE)
1053:Generated_Source\PSoC5/USBFS.c ****             (void) USBFS_ep3_dma_SetInterruptCallback(&USBFS_EP3_DMA_DONE_ISR);
1054:Generated_Source\PSoC5/USBFS.c ****         #endif /* (USBFS_DMA3_ACTIVE) */
1055:Generated_Source\PSoC5/USBFS.c **** 
1056:Generated_Source\PSoC5/USBFS.c ****         #if (USBFS_DMA4_ACTIVE)
1057:Generated_Source\PSoC5/USBFS.c ****             (void) USBFS_ep4_dma_SetInterruptCallback(&USBFS_EP4_DMA_DONE_ISR);
1058:Generated_Source\PSoC5/USBFS.c ****         #endif /* (USBFS_DMA4_ACTIVE) */
1059:Generated_Source\PSoC5/USBFS.c **** 
1060:Generated_Source\PSoC5/USBFS.c ****         #if (USBFS_DMA5_ACTIVE)
1061:Generated_Source\PSoC5/USBFS.c ****             (void) USBFS_ep5_dma_SetInterruptCallback(&USBFS_EP5_DMA_DONE_ISR);
1062:Generated_Source\PSoC5/USBFS.c ****         #endif /* (USBFS_DMA5_ACTIVE) */
1063:Generated_Source\PSoC5/USBFS.c **** 
1064:Generated_Source\PSoC5/USBFS.c ****         #if (USBFS_DMA6_ACTIVE)
1065:Generated_Source\PSoC5/USBFS.c ****             (void) USBFS_ep6_dma_SetInterruptCallback(&USBFS_EP6_DMA_DONE_ISR);
1066:Generated_Source\PSoC5/USBFS.c ****         #endif /* (USBFS_DMA6_ACTIVE) */
1067:Generated_Source\PSoC5/USBFS.c **** 
1068:Generated_Source\PSoC5/USBFS.c ****         #if (USBFS_DMA7_ACTIVE)
1069:Generated_Source\PSoC5/USBFS.c ****             (void) USBFS_ep7_dma_SetInterruptCallback(&USBFS_EP7_DMA_DONE_ISR);
1070:Generated_Source\PSoC5/USBFS.c ****         #endif /* (USBFS_DMA7_ACTIVE) */
1071:Generated_Source\PSoC5/USBFS.c **** 
1072:Generated_Source\PSoC5/USBFS.c ****         #if (USBFS_DMA8_ACTIVE)
1073:Generated_Source\PSoC5/USBFS.c ****             (void) USBFS_ep8_dma_SetInterruptCallback(&USBFS_EP8_DMA_DONE_ISR);
1074:Generated_Source\PSoC5/USBFS.c ****         #endif /* (USBFS_DMA8_ACTIVE) */
1075:Generated_Source\PSoC5/USBFS.c ****     #endif /* (USBFS_EP_MANAGEMENT_DMA_AUTO) */
1076:Generated_Source\PSoC5/USBFS.c ****     }
1077:Generated_Source\PSoC5/USBFS.c **** #else
1078:Generated_Source\PSoC5/USBFS.c **** 
1079:Generated_Source\PSoC5/USBFS.c **** 
1080:Generated_Source\PSoC5/USBFS.c ****     /***************************************************************************
1081:Generated_Source\PSoC5/USBFS.c ****     * Function Name: USBFS_InitEP_DMA
1082:Generated_Source\PSoC5/USBFS.c ****     ************************************************************************//**
1083:Generated_Source\PSoC5/USBFS.c ****     *
1084:Generated_Source\PSoC5/USBFS.c ****     *  This function allocates and initializes a DMA channel to be used by the
1085:Generated_Source\PSoC5/USBFS.c ****     *  USBFS_LoadInEP() or USBFS_ReadOutEP() APIs for data
1086:Generated_Source\PSoC5/USBFS.c ****     *  transfer. It is available when the Endpoint Memory Management parameter
1087:Generated_Source\PSoC5/USBFS.c ****     *  is set to DMA.
1088:Generated_Source\PSoC5/USBFS.c ****     *
1089:Generated_Source\PSoC5/USBFS.c ****     *  This function is automatically called from the USBFS_LoadInEP() and USBFS_ReadOutEP() APIs.
1090:Generated_Source\PSoC5/USBFS.c ****     *
1091:Generated_Source\PSoC5/USBFS.c ****     *  \param epNumber Contains the data endpoint number.
1092:Generated_Source\PSoC5/USBFS.c ****     *            Valid values are between 1 and 8.
1093:Generated_Source\PSoC5/USBFS.c ****     *  \param *pData Pointer to a data array that is related to the EP transfers.
1094:Generated_Source\PSoC5/USBFS.c ****     *
1095:Generated_Source\PSoC5/USBFS.c ****     * \reentrant No.
1096:Generated_Source\PSoC5/USBFS.c ****     *
1097:Generated_Source\PSoC5/USBFS.c ****     ***************************************************************************/
1098:Generated_Source\PSoC5/USBFS.c ****     void USBFS_InitEP_DMA(uint8 epNumber, const uint8 *pData)
1099:Generated_Source\PSoC5/USBFS.c ****                                                                     
1100:Generated_Source\PSoC5/USBFS.c ****     {
 1062              		.loc 1 1100 0
 1063              		.cfi_startproc
 1064              		@ args = 0, pretend = 0, frame = 16
ARM GAS  C:\Users\CALEBC~1\AppData\Local\Temp\ccUZyw0h.s 			page 39


 1065              		@ frame_needed = 1, uses_anonymous_args = 0
 1066 0000 90B5     		push	{r4, r7, lr}
 1067              		.cfi_def_cfa_offset 12
 1068              		.cfi_offset 4, -12
 1069              		.cfi_offset 7, -8
 1070              		.cfi_offset 14, -4
 1071 0002 85B0     		sub	sp, sp, #20
 1072              		.cfi_def_cfa_offset 32
 1073 0004 00AF     		add	r7, sp, #0
 1074              		.cfi_def_cfa_register 7
 1075 0006 0346     		mov	r3, r0
 1076 0008 3960     		str	r1, [r7]
 1077 000a FB71     		strb	r3, [r7, #7]
1101:Generated_Source\PSoC5/USBFS.c ****         uint16 src;
1102:Generated_Source\PSoC5/USBFS.c ****         uint16 dst;
1103:Generated_Source\PSoC5/USBFS.c **** 
1104:Generated_Source\PSoC5/USBFS.c ****     #if (CY_PSOC3)
1105:Generated_Source\PSoC5/USBFS.c ****         src = HI16(CYDEV_SRAM_BASE);
1106:Generated_Source\PSoC5/USBFS.c ****         dst = HI16(CYDEV_PERIPH_BASE);
1107:Generated_Source\PSoC5/USBFS.c ****         pData = pData;
1108:Generated_Source\PSoC5/USBFS.c ****     #else
1109:Generated_Source\PSoC5/USBFS.c ****         if ((USBFS_EP[epNumber].addr & USBFS_DIR_IN) != 0u)
 1078              		.loc 1 1109 0
 1079 000c FA79     		ldrb	r2, [r7, #7]	@ zero_extendqisi2
 1080 000e 2449     		ldr	r1, .L61
 1081 0010 1346     		mov	r3, r2
 1082 0012 5B00     		lsls	r3, r3, #1
 1083 0014 1344     		add	r3, r3, r2
 1084 0016 9B00     		lsls	r3, r3, #2
 1085 0018 0B44     		add	r3, r3, r1
 1086 001a 0433     		adds	r3, r3, #4
 1087 001c 1B78     		ldrb	r3, [r3]
 1088 001e DBB2     		uxtb	r3, r3
 1089 0020 5BB2     		sxtb	r3, r3
 1090 0022 002B     		cmp	r3, #0
 1091 0024 06DA     		bge	.L53
1110:Generated_Source\PSoC5/USBFS.c ****         {
1111:Generated_Source\PSoC5/USBFS.c ****             /* IN endpoint: source is memory buffer. */
1112:Generated_Source\PSoC5/USBFS.c ****             src = HI16(pData);
 1092              		.loc 1 1112 0
 1093 0026 3B68     		ldr	r3, [r7]
 1094 0028 1B0C     		lsrs	r3, r3, #16
 1095 002a FB81     		strh	r3, [r7, #14]	@ movhi
1113:Generated_Source\PSoC5/USBFS.c ****             dst = HI16(CYDEV_PERIPH_BASE);
 1096              		.loc 1 1113 0
 1097 002c 4FF48043 		mov	r3, #16384
 1098 0030 BB81     		strh	r3, [r7, #12]	@ movhi
 1099 0032 05E0     		b	.L54
 1100              	.L53:
1114:Generated_Source\PSoC5/USBFS.c ****         }
1115:Generated_Source\PSoC5/USBFS.c ****         else
1116:Generated_Source\PSoC5/USBFS.c ****         {
1117:Generated_Source\PSoC5/USBFS.c ****             /* OUT endpoint: source is USB IP memory buffer. */
1118:Generated_Source\PSoC5/USBFS.c ****             src = HI16(CYDEV_PERIPH_BASE);
 1101              		.loc 1 1118 0
 1102 0034 4FF48043 		mov	r3, #16384
 1103 0038 FB81     		strh	r3, [r7, #14]	@ movhi
ARM GAS  C:\Users\CALEBC~1\AppData\Local\Temp\ccUZyw0h.s 			page 40


1119:Generated_Source\PSoC5/USBFS.c ****             dst = HI16(pData);
 1104              		.loc 1 1119 0
 1105 003a 3B68     		ldr	r3, [r7]
 1106 003c 1B0C     		lsrs	r3, r3, #16
 1107 003e BB81     		strh	r3, [r7, #12]	@ movhi
 1108              	.L54:
1120:Generated_Source\PSoC5/USBFS.c ****         }
1121:Generated_Source\PSoC5/USBFS.c ****     #endif  /* (CY_PSOC3) */
1122:Generated_Source\PSoC5/USBFS.c **** 
1123:Generated_Source\PSoC5/USBFS.c ****         switch(epNumber)
 1109              		.loc 1 1123 0
 1110 0040 FB79     		ldrb	r3, [r7, #7]	@ zero_extendqisi2
 1111 0042 012B     		cmp	r3, #1
 1112 0044 02D0     		beq	.L56
 1113 0046 022B     		cmp	r3, #2
 1114 0048 0CD0     		beq	.L57
1124:Generated_Source\PSoC5/USBFS.c ****         {
1125:Generated_Source\PSoC5/USBFS.c ****     #if (USBFS_DMA1_ACTIVE)
1126:Generated_Source\PSoC5/USBFS.c ****         case USBFS_EP1:
1127:Generated_Source\PSoC5/USBFS.c ****             USBFS_DmaChan[epNumber] = USBFS_ep1_DmaInitialize(USBFS_DMA_BYTES_PER_BURST,
1128:Generated_Source\PSoC5/USBFS.c ****                                                                                     USBFS_DMA_REQUE
1129:Generated_Source\PSoC5/USBFS.c ****             break;
1130:Generated_Source\PSoC5/USBFS.c ****     #endif /* (USBFS_DMA1_ACTIVE) */
1131:Generated_Source\PSoC5/USBFS.c **** 
1132:Generated_Source\PSoC5/USBFS.c ****     #if (USBFS_DMA2_ACTIVE)
1133:Generated_Source\PSoC5/USBFS.c ****         case USBFS_EP2:
1134:Generated_Source\PSoC5/USBFS.c ****             USBFS_DmaChan[epNumber] = USBFS_ep2_DmaInitialize(USBFS_DMA_BYTES_PER_BURST,
1135:Generated_Source\PSoC5/USBFS.c ****                                                                                     USBFS_DMA_REQUE
1136:Generated_Source\PSoC5/USBFS.c ****             break;
1137:Generated_Source\PSoC5/USBFS.c ****     #endif /* (USBFS_DMA2_ACTIVE) */
1138:Generated_Source\PSoC5/USBFS.c **** 
1139:Generated_Source\PSoC5/USBFS.c ****     #if (USBFS_DMA3_ACTIVE)
1140:Generated_Source\PSoC5/USBFS.c ****             case USBFS_EP3:
1141:Generated_Source\PSoC5/USBFS.c ****                 USBFS_DmaChan[epNumber] = USBFS_ep3_DmaInitialize(USBFS_DMA_BYTES_PER_BURST,
1142:Generated_Source\PSoC5/USBFS.c ****                                                                                         USBFS_DMA_R
1143:Generated_Source\PSoC5/USBFS.c ****             break;
1144:Generated_Source\PSoC5/USBFS.c ****     #endif /* (USBFS_DMA3_ACTIVE) */
1145:Generated_Source\PSoC5/USBFS.c **** 
1146:Generated_Source\PSoC5/USBFS.c ****     #if (USBFS_DMA4_ACTIVE)
1147:Generated_Source\PSoC5/USBFS.c ****             case USBFS_EP4:
1148:Generated_Source\PSoC5/USBFS.c ****                 USBFS_DmaChan[epNumber] = USBFS_ep4_DmaInitialize(USBFS_DMA_BYTES_PER_BURST,
1149:Generated_Source\PSoC5/USBFS.c ****                                                                                         USBFS_DMA_R
1150:Generated_Source\PSoC5/USBFS.c ****             break;
1151:Generated_Source\PSoC5/USBFS.c ****     #endif /* (USBFS_DMA4_ACTIVE) */
1152:Generated_Source\PSoC5/USBFS.c **** 
1153:Generated_Source\PSoC5/USBFS.c ****     #if (USBFS_DMA5_ACTIVE)
1154:Generated_Source\PSoC5/USBFS.c ****             case USBFS_EP5:
1155:Generated_Source\PSoC5/USBFS.c ****                 USBFS_DmaChan[epNumber] = USBFS_ep5_DmaInitialize(USBFS_DMA_BYTES_PER_BURST,
1156:Generated_Source\PSoC5/USBFS.c ****                                                                                         USBFS_DMA_R
1157:Generated_Source\PSoC5/USBFS.c ****             break;
1158:Generated_Source\PSoC5/USBFS.c ****     #endif /* (USBFS_DMA5_ACTIVE) */
1159:Generated_Source\PSoC5/USBFS.c **** 
1160:Generated_Source\PSoC5/USBFS.c ****     #if (USBFS_DMA6_ACTIVE)
1161:Generated_Source\PSoC5/USBFS.c ****         case USBFS_EP6:
1162:Generated_Source\PSoC5/USBFS.c ****             USBFS_DmaChan[epNumber] = USBFS_ep6_DmaInitialize(USBFS_DMA_BYTES_PER_BURST,
1163:Generated_Source\PSoC5/USBFS.c ****                                                                                     USBFS_DMA_REQUE
1164:Generated_Source\PSoC5/USBFS.c ****             break;
ARM GAS  C:\Users\CALEBC~1\AppData\Local\Temp\ccUZyw0h.s 			page 41


1165:Generated_Source\PSoC5/USBFS.c ****     #endif /* (USBFS_DMA6_ACTIVE) */
1166:Generated_Source\PSoC5/USBFS.c **** 
1167:Generated_Source\PSoC5/USBFS.c ****     #if (USBFS_DMA7_ACTIVE)
1168:Generated_Source\PSoC5/USBFS.c ****         case USBFS_EP7:
1169:Generated_Source\PSoC5/USBFS.c ****                 USBFS_DmaChan[epNumber] = USBFS_ep7_DmaInitialize(USBFS_DMA_BYTES_PER_BURST,
1170:Generated_Source\PSoC5/USBFS.c ****                                                                                         USBFS_DMA_R
1171:Generated_Source\PSoC5/USBFS.c ****             break;
1172:Generated_Source\PSoC5/USBFS.c ****     #endif /* (USBFS_DMA7_ACTIVE) */
1173:Generated_Source\PSoC5/USBFS.c **** 
1174:Generated_Source\PSoC5/USBFS.c ****     #if (USBFS_DMA8_ACTIVE)
1175:Generated_Source\PSoC5/USBFS.c ****         case USBFS_EP8:
1176:Generated_Source\PSoC5/USBFS.c ****                 USBFS_DmaChan[epNumber] = USBFS_ep8_DmaInitialize(USBFS_DMA_BYTES_PER_BURST,
1177:Generated_Source\PSoC5/USBFS.c ****                                                                                         USBFS_DMA_R
1178:Generated_Source\PSoC5/USBFS.c ****             break;
1179:Generated_Source\PSoC5/USBFS.c ****     #endif /* (USBFS_DMA8_ACTIVE) */
1180:Generated_Source\PSoC5/USBFS.c **** 
1181:Generated_Source\PSoC5/USBFS.c ****         default:
1182:Generated_Source\PSoC5/USBFS.c ****             /* Do nothing for endpoints other than 1-8. */
1183:Generated_Source\PSoC5/USBFS.c ****             break;
 1115              		.loc 1 1183 0
 1116 004a 17E0     		b	.L58
 1117              	.L56:
1127:Generated_Source\PSoC5/USBFS.c ****                                                                                     USBFS_DMA_REQUE
 1118              		.loc 1 1127 0
 1119 004c FC79     		ldrb	r4, [r7, #7]	@ zero_extendqisi2
 1120 004e BB89     		ldrh	r3, [r7, #12]
 1121 0050 FA89     		ldrh	r2, [r7, #14]
 1122 0052 0021     		movs	r1, #0
 1123 0054 0020     		movs	r0, #0
 1124 0056 FFF7FEFF 		bl	USBFS_ep1_DmaInitialize
 1125 005a 0346     		mov	r3, r0
 1126 005c 1A46     		mov	r2, r3
 1127 005e 114B     		ldr	r3, .L61+4
 1128 0060 1A55     		strb	r2, [r3, r4]
1129:Generated_Source\PSoC5/USBFS.c ****     #endif /* (USBFS_DMA1_ACTIVE) */
 1129              		.loc 1 1129 0
 1130 0062 0BE0     		b	.L58
 1131              	.L57:
1134:Generated_Source\PSoC5/USBFS.c ****                                                                                     USBFS_DMA_REQUE
 1132              		.loc 1 1134 0
 1133 0064 FC79     		ldrb	r4, [r7, #7]	@ zero_extendqisi2
 1134 0066 BB89     		ldrh	r3, [r7, #12]
 1135 0068 FA89     		ldrh	r2, [r7, #14]
 1136 006a 0021     		movs	r1, #0
 1137 006c 0020     		movs	r0, #0
 1138 006e FFF7FEFF 		bl	USBFS_ep2_DmaInitialize
 1139 0072 0346     		mov	r3, r0
 1140 0074 1A46     		mov	r2, r3
 1141 0076 0B4B     		ldr	r3, .L61+4
 1142 0078 1A55     		strb	r2, [r3, r4]
1136:Generated_Source\PSoC5/USBFS.c ****     #endif /* (USBFS_DMA2_ACTIVE) */
 1143              		.loc 1 1136 0
 1144 007a 00BF     		nop
 1145              	.L58:
1184:Generated_Source\PSoC5/USBFS.c ****         }
1185:Generated_Source\PSoC5/USBFS.c **** 
1186:Generated_Source\PSoC5/USBFS.c ****         if ((epNumber > USBFS_EP0) && (epNumber < USBFS_MAX_EP))
ARM GAS  C:\Users\CALEBC~1\AppData\Local\Temp\ccUZyw0h.s 			page 42


 1146              		.loc 1 1186 0
 1147 007c FB79     		ldrb	r3, [r7, #7]	@ zero_extendqisi2
 1148 007e 002B     		cmp	r3, #0
 1149 0080 09D0     		beq	.L60
 1150              		.loc 1 1186 0 is_stmt 0 discriminator 1
 1151 0082 FB79     		ldrb	r3, [r7, #7]	@ zero_extendqisi2
 1152 0084 082B     		cmp	r3, #8
 1153 0086 06D8     		bhi	.L60
1187:Generated_Source\PSoC5/USBFS.c ****         {
1188:Generated_Source\PSoC5/USBFS.c ****             USBFS_DmaTd[epNumber] = CyDmaTdAllocate();
 1154              		.loc 1 1188 0 is_stmt 1
 1155 0088 FC79     		ldrb	r4, [r7, #7]	@ zero_extendqisi2
 1156 008a FFF7FEFF 		bl	CyDmaTdAllocate
 1157 008e 0346     		mov	r3, r0
 1158 0090 1A46     		mov	r2, r3
 1159 0092 054B     		ldr	r3, .L61+8
 1160 0094 1A55     		strb	r2, [r3, r4]
 1161              	.L60:
1189:Generated_Source\PSoC5/USBFS.c **** 
1190:Generated_Source\PSoC5/USBFS.c ****         #if (USBFS_EP_MANAGEMENT_DMA_AUTO && (USBFS_EP_DMA_AUTO_OPT == 0u))
1191:Generated_Source\PSoC5/USBFS.c ****             USBFS_DmaNextTd[epNumber] = CyDmaTdAllocate();
1192:Generated_Source\PSoC5/USBFS.c ****         #endif /* (USBFS_EP_MANAGEMENT_DMA_AUTO && (USBFS_EP_DMA_AUTO_OPT == 0u)) */
1193:Generated_Source\PSoC5/USBFS.c ****         }
1194:Generated_Source\PSoC5/USBFS.c ****     }
 1162              		.loc 1 1194 0
 1163 0096 00BF     		nop
 1164 0098 1437     		adds	r7, r7, #20
 1165              		.cfi_def_cfa_offset 12
 1166 009a BD46     		mov	sp, r7
 1167              		.cfi_def_cfa_register 13
 1168              		@ sp needed
 1169 009c 90BD     		pop	{r4, r7, pc}
 1170              	.L62:
 1171 009e 00BF     		.align	2
 1172              	.L61:
 1173 00a0 00000000 		.word	USBFS_EP
 1174 00a4 00000000 		.word	USBFS_DmaChan
 1175 00a8 00000000 		.word	USBFS_DmaTd
 1176              		.cfi_endproc
 1177              	.LFE11:
 1178              		.size	USBFS_InitEP_DMA, .-USBFS_InitEP_DMA
 1179              		.section	.text.USBFS_Stop_DMA,"ax",%progbits
 1180              		.align	2
 1181              		.global	USBFS_Stop_DMA
 1182              		.thumb
 1183              		.thumb_func
 1184              		.type	USBFS_Stop_DMA, %function
 1185              	USBFS_Stop_DMA:
 1186              	.LFB12:
1195:Generated_Source\PSoC5/USBFS.c **** #endif /* (CY_PSOC4) */
1196:Generated_Source\PSoC5/USBFS.c **** 
1197:Generated_Source\PSoC5/USBFS.c ****     /***************************************************************************
1198:Generated_Source\PSoC5/USBFS.c ****     * Function Name: USBFS_Stop_DMA
1199:Generated_Source\PSoC5/USBFS.c ****     ************************************************************************//**
1200:Generated_Source\PSoC5/USBFS.c ****     *  
1201:Generated_Source\PSoC5/USBFS.c ****     *  This function stops DMA channel associated with endpoint. It is available 
1202:Generated_Source\PSoC5/USBFS.c ****     *  when the Endpoint Buffer Management parameter is set to DMA. Call this 
ARM GAS  C:\Users\CALEBC~1\AppData\Local\Temp\ccUZyw0h.s 			page 43


1203:Generated_Source\PSoC5/USBFS.c ****     *  function when endpoint direction is changed from IN to OUT or vice versa 
1204:Generated_Source\PSoC5/USBFS.c ****     *  to trigger DMA re-configuration when USBFS_LoadInEP() or 
1205:Generated_Source\PSoC5/USBFS.c ****     *  USBFS_ReadOutEP() functions are called the first time. 
1206:Generated_Source\PSoC5/USBFS.c ****     *  
1207:Generated_Source\PSoC5/USBFS.c ****     *  \param epNumber: The data endpoint number for which associated DMA 
1208:Generated_Source\PSoC5/USBFS.c ****     *  channel is stopped. The range of valid values is between 1 and 8. To stop 
1209:Generated_Source\PSoC5/USBFS.c ****     *  all DMAs associated with endpoints call this function with 
1210:Generated_Source\PSoC5/USBFS.c ****     *  USBFS_MAX_EP argument.
1211:Generated_Source\PSoC5/USBFS.c ****     *
1212:Generated_Source\PSoC5/USBFS.c ****     * \reentrant
1213:Generated_Source\PSoC5/USBFS.c ****     *  No.
1214:Generated_Source\PSoC5/USBFS.c ****     *
1215:Generated_Source\PSoC5/USBFS.c ****     ***************************************************************************/
1216:Generated_Source\PSoC5/USBFS.c ****     void USBFS_Stop_DMA(uint8 epNumber) 
1217:Generated_Source\PSoC5/USBFS.c ****     {
 1187              		.loc 1 1217 0
 1188              		.cfi_startproc
 1189              		@ args = 0, pretend = 0, frame = 16
 1190              		@ frame_needed = 1, uses_anonymous_args = 0
 1191 0000 80B5     		push	{r7, lr}
 1192              		.cfi_def_cfa_offset 8
 1193              		.cfi_offset 7, -8
 1194              		.cfi_offset 14, -4
 1195 0002 84B0     		sub	sp, sp, #16
 1196              		.cfi_def_cfa_offset 24
 1197 0004 00AF     		add	r7, sp, #0
 1198              		.cfi_def_cfa_register 7
 1199 0006 0346     		mov	r3, r0
 1200 0008 FB71     		strb	r3, [r7, #7]
1218:Generated_Source\PSoC5/USBFS.c ****         uint8 i;
1219:Generated_Source\PSoC5/USBFS.c **** 
1220:Generated_Source\PSoC5/USBFS.c ****         i = (epNumber < USBFS_MAX_EP) ? epNumber : USBFS_EP1;
 1201              		.loc 1 1220 0
 1202 000a FB79     		ldrb	r3, [r7, #7]	@ zero_extendqisi2
 1203 000c 082B     		cmp	r3, #8
 1204 000e 01D8     		bhi	.L64
 1205              		.loc 1 1220 0 is_stmt 0 discriminator 1
 1206 0010 FB79     		ldrb	r3, [r7, #7]	@ zero_extendqisi2
 1207 0012 00E0     		b	.L65
 1208              	.L64:
 1209              		.loc 1 1220 0 discriminator 2
 1210 0014 0123     		movs	r3, #1
 1211              	.L65:
 1212              		.loc 1 1220 0 discriminator 4
 1213 0016 FB73     		strb	r3, [r7, #15]
 1214              	.L68:
1221:Generated_Source\PSoC5/USBFS.c **** 
1222:Generated_Source\PSoC5/USBFS.c ****         do
1223:Generated_Source\PSoC5/USBFS.c ****         {
1224:Generated_Source\PSoC5/USBFS.c ****         #if (CY_PSOC4)
1225:Generated_Source\PSoC5/USBFS.c ****             if (0u != USBFS_DmaChan[i])
1226:Generated_Source\PSoC5/USBFS.c ****             {
1227:Generated_Source\PSoC5/USBFS.c ****                 USBFS_CyDmaChDisable(USBFS_DmaChan[i]);
1228:Generated_Source\PSoC5/USBFS.c ****             }
1229:Generated_Source\PSoC5/USBFS.c ****         #else
1230:Generated_Source\PSoC5/USBFS.c ****             if(USBFS_DmaTd[i] != DMA_INVALID_TD)
 1215              		.loc 1 1230 0 is_stmt 1
ARM GAS  C:\Users\CALEBC~1\AppData\Local\Temp\ccUZyw0h.s 			page 44


 1216 0018 FB7B     		ldrb	r3, [r7, #15]	@ zero_extendqisi2
 1217 001a 104A     		ldr	r2, .L70
 1218 001c D35C     		ldrb	r3, [r2, r3]	@ zero_extendqisi2
 1219 001e FF2B     		cmp	r3, #255
 1220 0020 0FD0     		beq	.L66
1231:Generated_Source\PSoC5/USBFS.c ****             {
1232:Generated_Source\PSoC5/USBFS.c ****                 (void) CyDmaChDisable(USBFS_DmaChan[i]);
 1221              		.loc 1 1232 0
 1222 0022 FB7B     		ldrb	r3, [r7, #15]	@ zero_extendqisi2
 1223 0024 0E4A     		ldr	r2, .L70+4
 1224 0026 D35C     		ldrb	r3, [r2, r3]	@ zero_extendqisi2
 1225 0028 1846     		mov	r0, r3
 1226 002a FFF7FEFF 		bl	CyDmaChDisable
1233:Generated_Source\PSoC5/USBFS.c ****                 CyDmaTdFree(USBFS_DmaTd[i]);
 1227              		.loc 1 1233 0
 1228 002e FB7B     		ldrb	r3, [r7, #15]	@ zero_extendqisi2
 1229 0030 0A4A     		ldr	r2, .L70
 1230 0032 D35C     		ldrb	r3, [r2, r3]	@ zero_extendqisi2
 1231 0034 1846     		mov	r0, r3
 1232 0036 FFF7FEFF 		bl	CyDmaTdFree
1234:Generated_Source\PSoC5/USBFS.c ****                 USBFS_DmaTd[i] = DMA_INVALID_TD;
 1233              		.loc 1 1234 0
 1234 003a FB7B     		ldrb	r3, [r7, #15]	@ zero_extendqisi2
 1235 003c 074A     		ldr	r2, .L70
 1236 003e FF21     		movs	r1, #255
 1237 0040 D154     		strb	r1, [r2, r3]
 1238              	.L66:
1235:Generated_Source\PSoC5/USBFS.c ****             }
1236:Generated_Source\PSoC5/USBFS.c **** 
1237:Generated_Source\PSoC5/USBFS.c ****             #if (USBFS_EP_MANAGEMENT_DMA_AUTO && (USBFS_EP_DMA_AUTO_OPT == 0u))
1238:Generated_Source\PSoC5/USBFS.c ****                 if(USBFS_DmaNextTd[i] != DMA_INVALID_TD)
1239:Generated_Source\PSoC5/USBFS.c ****                 {
1240:Generated_Source\PSoC5/USBFS.c ****                     CyDmaTdFree(USBFS_DmaNextTd[i]);
1241:Generated_Source\PSoC5/USBFS.c ****                     USBFS_DmaNextTd[i] = DMA_INVALID_TD;
1242:Generated_Source\PSoC5/USBFS.c ****                 }
1243:Generated_Source\PSoC5/USBFS.c ****             #endif /* (USBFS_EP_MANAGEMENT_DMA_AUTO && (USBFS_EP_DMA_AUTO_OPT == 0u)) */
1244:Generated_Source\PSoC5/USBFS.c **** 
1245:Generated_Source\PSoC5/USBFS.c ****         #endif /* (CY_PSOC4) */
1246:Generated_Source\PSoC5/USBFS.c ****             i++;
 1239              		.loc 1 1246 0
 1240 0042 FB7B     		ldrb	r3, [r7, #15]	@ zero_extendqisi2
 1241 0044 0133     		adds	r3, r3, #1
 1242 0046 FB73     		strb	r3, [r7, #15]
1247:Generated_Source\PSoC5/USBFS.c ****         }
1248:Generated_Source\PSoC5/USBFS.c ****         while ((i < USBFS_MAX_EP) && (epNumber == USBFS_MAX_EP));
 1243              		.loc 1 1248 0
 1244 0048 FB7B     		ldrb	r3, [r7, #15]	@ zero_extendqisi2
 1245 004a 082B     		cmp	r3, #8
 1246 004c 02D8     		bhi	.L69
 1247              		.loc 1 1248 0 is_stmt 0 discriminator 1
 1248 004e FB79     		ldrb	r3, [r7, #7]	@ zero_extendqisi2
 1249 0050 092B     		cmp	r3, #9
 1250 0052 E1D0     		beq	.L68
 1251              	.L69:
1249:Generated_Source\PSoC5/USBFS.c ****     }
 1252              		.loc 1 1249 0 is_stmt 1
 1253 0054 00BF     		nop
ARM GAS  C:\Users\CALEBC~1\AppData\Local\Temp\ccUZyw0h.s 			page 45


 1254 0056 1037     		adds	r7, r7, #16
 1255              		.cfi_def_cfa_offset 8
 1256 0058 BD46     		mov	sp, r7
 1257              		.cfi_def_cfa_register 13
 1258              		@ sp needed
 1259 005a 80BD     		pop	{r7, pc}
 1260              	.L71:
 1261              		.align	2
 1262              	.L70:
 1263 005c 00000000 		.word	USBFS_DmaTd
 1264 0060 00000000 		.word	USBFS_DmaChan
 1265              		.cfi_endproc
 1266              	.LFE12:
 1267              		.size	USBFS_Stop_DMA, .-USBFS_Stop_DMA
 1268              		.section	.text.USBFS_LoadInEP,"ax",%progbits
 1269              		.align	2
 1270              		.global	USBFS_LoadInEP
 1271              		.thumb
 1272              		.thumb_func
 1273              		.type	USBFS_LoadInEP, %function
 1274              	USBFS_LoadInEP:
 1275              	.LFB13:
1250:Generated_Source\PSoC5/USBFS.c **** #endif /* (USBFS_EP_MANAGEMENT_DMA) */
1251:Generated_Source\PSoC5/USBFS.c **** 
1252:Generated_Source\PSoC5/USBFS.c **** 
1253:Generated_Source\PSoC5/USBFS.c **** #if (CY_PSOC3 || CY_PSOC5)
1254:Generated_Source\PSoC5/USBFS.c **** #if (USBFS_EP_MANAGEMENT_DMA_AUTO && (USBFS_EP_DMA_AUTO_OPT == 0u))
1255:Generated_Source\PSoC5/USBFS.c ****     /***************************************************************************
1256:Generated_Source\PSoC5/USBFS.c ****     * Function Name: USBFS_LoadNextInEP
1257:Generated_Source\PSoC5/USBFS.c ****     ************************************************************************//**
1258:Generated_Source\PSoC5/USBFS.c ****     *
1259:Generated_Source\PSoC5/USBFS.c ****     * Summary:
1260:Generated_Source\PSoC5/USBFS.c ****     *  This internal function is used for IN endpoint DMA reconfiguration in
1261:Generated_Source\PSoC5/USBFS.c ****     *  Auto DMA mode.
1262:Generated_Source\PSoC5/USBFS.c ****     *
1263:Generated_Source\PSoC5/USBFS.c ****     * Parameters:
1264:Generated_Source\PSoC5/USBFS.c ****     *  epNumber: Contains the data endpoint number.
1265:Generated_Source\PSoC5/USBFS.c ****     *  mode:   0 - Configure DMA to send the the rest of data.
1266:Generated_Source\PSoC5/USBFS.c ****     *          1 - Configure DMA to repeat 2 last bytes of the first burst.
1267:Generated_Source\PSoC5/USBFS.c ****     *
1268:Generated_Source\PSoC5/USBFS.c ****     ***************************************************************************/
1269:Generated_Source\PSoC5/USBFS.c ****     void USBFS_LoadNextInEP(uint8 epNumber, uint8 mode) 
1270:Generated_Source\PSoC5/USBFS.c ****     {
1271:Generated_Source\PSoC5/USBFS.c ****         reg16 *convert;
1272:Generated_Source\PSoC5/USBFS.c **** 
1273:Generated_Source\PSoC5/USBFS.c ****         if (mode == 0u)
1274:Generated_Source\PSoC5/USBFS.c ****         {
1275:Generated_Source\PSoC5/USBFS.c ****             /* Configure DMA to send rest of data. */
1276:Generated_Source\PSoC5/USBFS.c ****             /* CyDmaTdSetConfiguration API is optimized to change transfer length only and configur
1277:Generated_Source\PSoC5/USBFS.c ****             convert = (reg16 *) &CY_DMA_TDMEM_STRUCT_PTR[USBFS_DmaTd[epNumber]].TD0[0u];
1278:Generated_Source\PSoC5/USBFS.c ****             /* Set transfer length. */
1279:Generated_Source\PSoC5/USBFS.c ****             CY_SET_REG16(convert, USBFS_inLength[epNumber] - USBFS_DMA_BYTES_PER_BURST);
1280:Generated_Source\PSoC5/USBFS.c ****             /* CyDmaTdSetAddress API is optimized to change source address only. */
1281:Generated_Source\PSoC5/USBFS.c ****             convert = (reg16 *) &CY_DMA_TDMEM_STRUCT_PTR[USBFS_DmaTd[epNumber]].TD1[0u];
1282:Generated_Source\PSoC5/USBFS.c ****             CY_SET_REG16(convert, LO16((uint32)USBFS_inDataPointer[epNumber] +
1283:Generated_Source\PSoC5/USBFS.c ****                                             USBFS_DMA_BYTES_PER_BURST));
1284:Generated_Source\PSoC5/USBFS.c ****             USBFS_inBufFull[epNumber] = 1u;
ARM GAS  C:\Users\CALEBC~1\AppData\Local\Temp\ccUZyw0h.s 			page 46


1285:Generated_Source\PSoC5/USBFS.c ****         }
1286:Generated_Source\PSoC5/USBFS.c ****         else
1287:Generated_Source\PSoC5/USBFS.c ****         {
1288:Generated_Source\PSoC5/USBFS.c ****             /* Configure DMA to repeat 2 last bytes of the first burst. */
1289:Generated_Source\PSoC5/USBFS.c ****             /* CyDmaTdSetConfiguration API is optimized to change transfer length only and configur
1290:Generated_Source\PSoC5/USBFS.c ****             convert = (reg16 *) &CY_DMA_TDMEM_STRUCT_PTR[USBFS_DmaTd[epNumber]].TD0[0u];
1291:Generated_Source\PSoC5/USBFS.c ****             /* Set transfer length. */
1292:Generated_Source\PSoC5/USBFS.c ****             CY_SET_REG16(convert, USBFS_DMA_BYTES_REPEAT);
1293:Generated_Source\PSoC5/USBFS.c ****             /* CyDmaTdSetAddress API is optimized to change source address only. */
1294:Generated_Source\PSoC5/USBFS.c ****             convert = (reg16 *) &CY_DMA_TDMEM_STRUCT_PTR[USBFS_DmaTd[epNumber]].TD1[0u];
1295:Generated_Source\PSoC5/USBFS.c ****             CY_SET_REG16(convert,  LO16((uint32)USBFS_inDataPointer[epNumber] +
1296:Generated_Source\PSoC5/USBFS.c ****                                    (USBFS_DMA_BYTES_PER_BURST - USBFS_DMA_BYTES_REPEAT)));
1297:Generated_Source\PSoC5/USBFS.c ****         }
1298:Generated_Source\PSoC5/USBFS.c **** 
1299:Generated_Source\PSoC5/USBFS.c ****         /* CyDmaChSetInitialTd API is optimized to initialize TD. */
1300:Generated_Source\PSoC5/USBFS.c ****         CY_DMA_CH_STRUCT_PTR[USBFS_DmaChan[epNumber]].basic_status[1u] = USBFS_DmaTd[epNumber];
1301:Generated_Source\PSoC5/USBFS.c ****     }
1302:Generated_Source\PSoC5/USBFS.c **** #endif /* (USBFS_EP_MANAGEMENT_DMA_AUTO && (USBFS_EP_DMA_AUTO_OPT == 0u)) */
1303:Generated_Source\PSoC5/USBFS.c **** #endif /* (CY_PSOC3 || CY_PSOC5) */
1304:Generated_Source\PSoC5/USBFS.c **** 
1305:Generated_Source\PSoC5/USBFS.c **** 
1306:Generated_Source\PSoC5/USBFS.c **** /*******************************************************************************
1307:Generated_Source\PSoC5/USBFS.c **** * Function Name: USBFS_LoadInEP
1308:Generated_Source\PSoC5/USBFS.c **** ****************************************************************************//**
1309:Generated_Source\PSoC5/USBFS.c **** *
1310:Generated_Source\PSoC5/USBFS.c **** *  This function performs different functionality depending on the Component’s
1311:Generated_Source\PSoC5/USBFS.c **** *  configured Endpoint Buffer Management. This parameter is defined in
1312:Generated_Source\PSoC5/USBFS.c **** *  the Descriptor Root in Component Configure window.
1313:Generated_Source\PSoC5/USBFS.c **** *
1314:Generated_Source\PSoC5/USBFS.c **** *  *Manual (Static/Dynamic Allocation):*
1315:Generated_Source\PSoC5/USBFS.c **** *  This function loads and enables the specified USB data endpoint for an IN
1316:Generated_Source\PSoC5/USBFS.c **** *  data transfer.
1317:Generated_Source\PSoC5/USBFS.c **** *
1318:Generated_Source\PSoC5/USBFS.c **** *  *DMA with Manual Buffer Management:*
1319:Generated_Source\PSoC5/USBFS.c **** *  Configures DMA for a data transfer from system RAM to endpoint buffer.
1320:Generated_Source\PSoC5/USBFS.c **** *  Generates request for a transfer.
1321:Generated_Source\PSoC5/USBFS.c **** *
1322:Generated_Source\PSoC5/USBFS.c **** *  *DMA with Automatic Buffer Management:*
1323:Generated_Source\PSoC5/USBFS.c **** *  Configures DMA. This is required only once, so it is done only when parameter
1324:Generated_Source\PSoC5/USBFS.c **** *  pData is not NULL. When the pData pointer is NULL, the function skips this
1325:Generated_Source\PSoC5/USBFS.c **** *  task. Sets Data ready status: This generates the first DMA transfer and
1326:Generated_Source\PSoC5/USBFS.c **** *  prepares data in endpoint buffer.
1327:Generated_Source\PSoC5/USBFS.c **** *
1328:Generated_Source\PSoC5/USBFS.c **** *  \param epNumber Contains the data endpoint number.
1329:Generated_Source\PSoC5/USBFS.c **** *            Valid values are between 1 and 8.
1330:Generated_Source\PSoC5/USBFS.c **** *  \param *pData A pointer to a data array from which the data for the endpoint space
1331:Generated_Source\PSoC5/USBFS.c **** *          is loaded.
1332:Generated_Source\PSoC5/USBFS.c **** *  \param length The number of bytes to transfer from the array and then send as
1333:Generated_Source\PSoC5/USBFS.c **** *          a result of an IN request. Valid values are between 0 and 512
1334:Generated_Source\PSoC5/USBFS.c **** *          (1023 for DMA with Automatic Buffer Management mode). The value 512
1335:Generated_Source\PSoC5/USBFS.c **** *          is applicable if only one endpoint is used.
1336:Generated_Source\PSoC5/USBFS.c **** *
1337:Generated_Source\PSoC5/USBFS.c **** *
1338:Generated_Source\PSoC5/USBFS.c **** * \reentrant
1339:Generated_Source\PSoC5/USBFS.c **** *  No.
1340:Generated_Source\PSoC5/USBFS.c **** *
1341:Generated_Source\PSoC5/USBFS.c **** *******************************************************************************/
ARM GAS  C:\Users\CALEBC~1\AppData\Local\Temp\ccUZyw0h.s 			page 47


1342:Generated_Source\PSoC5/USBFS.c **** void USBFS_LoadInEP(uint8 epNumber, const uint8 pData[], uint16 length)
1343:Generated_Source\PSoC5/USBFS.c ****                                                                         
1344:Generated_Source\PSoC5/USBFS.c **** {
 1276              		.loc 1 1344 0
 1277              		.cfi_startproc
 1278              		@ args = 0, pretend = 0, frame = 8
 1279              		@ frame_needed = 1, uses_anonymous_args = 0
 1280 0000 B0B5     		push	{r4, r5, r7, lr}
 1281              		.cfi_def_cfa_offset 16
 1282              		.cfi_offset 4, -16
 1283              		.cfi_offset 5, -12
 1284              		.cfi_offset 7, -8
 1285              		.cfi_offset 14, -4
 1286 0002 82B0     		sub	sp, sp, #8
 1287              		.cfi_def_cfa_offset 24
 1288 0004 00AF     		add	r7, sp, #0
 1289              		.cfi_def_cfa_register 7
 1290 0006 0346     		mov	r3, r0
 1291 0008 3960     		str	r1, [r7]
 1292 000a FB71     		strb	r3, [r7, #7]
 1293 000c 1346     		mov	r3, r2	@ movhi
 1294 000e BB80     		strh	r3, [r7, #4]	@ movhi
1345:Generated_Source\PSoC5/USBFS.c ****     if ((epNumber > USBFS_EP0) && (epNumber < USBFS_MAX_EP))
 1295              		.loc 1 1345 0
 1296 0010 FB79     		ldrb	r3, [r7, #7]	@ zero_extendqisi2
 1297 0012 002B     		cmp	r3, #0
 1298 0014 00F0B280 		beq	.L77
 1299              		.loc 1 1345 0 is_stmt 0 discriminator 1
 1300 0018 FB79     		ldrb	r3, [r7, #7]	@ zero_extendqisi2
 1301 001a 082B     		cmp	r3, #8
 1302 001c 00F2AE80 		bhi	.L77
1346:Generated_Source\PSoC5/USBFS.c ****     {
1347:Generated_Source\PSoC5/USBFS.c ****     #if (!USBFS_EP_MANAGEMENT_DMA_AUTO)
1348:Generated_Source\PSoC5/USBFS.c ****         /* Limit length to available buffer USB IP buffer size.*/
1349:Generated_Source\PSoC5/USBFS.c ****         if (length > (USBFS_EPX_DATA_BUF_MAX - USBFS_EP[epNumber].buffOffset))
 1303              		.loc 1 1349 0 is_stmt 1
 1304 0020 B988     		ldrh	r1, [r7, #4]
 1305 0022 FA79     		ldrb	r2, [r7, #7]	@ zero_extendqisi2
 1306 0024 5748     		ldr	r0, .L78
 1307 0026 1346     		mov	r3, r2
 1308 0028 5B00     		lsls	r3, r3, #1
 1309 002a 1344     		add	r3, r3, r2
 1310 002c 9B00     		lsls	r3, r3, #2
 1311 002e 0344     		add	r3, r3, r0
 1312 0030 0633     		adds	r3, r3, #6
 1313 0032 1B88     		ldrh	r3, [r3]	@ movhi
 1314 0034 9BB2     		uxth	r3, r3
 1315 0036 C3F50073 		rsb	r3, r3, #512
 1316 003a 9942     		cmp	r1, r3
 1317 003c 0CD9     		bls	.L74
1350:Generated_Source\PSoC5/USBFS.c ****         {
1351:Generated_Source\PSoC5/USBFS.c ****             length = USBFS_EPX_DATA_BUF_MAX - USBFS_EP[epNumber].buffOffset;
 1318              		.loc 1 1351 0
 1319 003e FA79     		ldrb	r2, [r7, #7]	@ zero_extendqisi2
 1320 0040 5049     		ldr	r1, .L78
 1321 0042 1346     		mov	r3, r2
 1322 0044 5B00     		lsls	r3, r3, #1
ARM GAS  C:\Users\CALEBC~1\AppData\Local\Temp\ccUZyw0h.s 			page 48


 1323 0046 1344     		add	r3, r3, r2
 1324 0048 9B00     		lsls	r3, r3, #2
 1325 004a 0B44     		add	r3, r3, r1
 1326 004c 0633     		adds	r3, r3, #6
 1327 004e 1B88     		ldrh	r3, [r3]	@ movhi
 1328 0050 9BB2     		uxth	r3, r3
 1329 0052 C3F50073 		rsb	r3, r3, #512
 1330 0056 BB80     		strh	r3, [r7, #4]	@ movhi
 1331              	.L74:
1352:Generated_Source\PSoC5/USBFS.c ****         }
1353:Generated_Source\PSoC5/USBFS.c ****     #endif /* (!USBFS_EP_MANAGEMENT_DMA_AUTO) */
1354:Generated_Source\PSoC5/USBFS.c **** 
1355:Generated_Source\PSoC5/USBFS.c ****         /* Set count and data toggle. */
1356:Generated_Source\PSoC5/USBFS.c ****         USBFS_SIE_EP_BASE.sieEp[epNumber].epCnt0 = (uint8) HI8(length) | USBFS_EP[epNumber].epToggl
 1332              		.loc 1 1356 0
 1333 0058 4B4C     		ldr	r4, .L78+4
 1334 005a F979     		ldrb	r1, [r7, #7]	@ zero_extendqisi2
 1335 005c BB88     		ldrh	r3, [r7, #4]
 1336 005e 1B0A     		lsrs	r3, r3, #8
 1337 0060 9BB2     		uxth	r3, r3
 1338 0062 D8B2     		uxtb	r0, r3
 1339 0064 FA79     		ldrb	r2, [r7, #7]	@ zero_extendqisi2
 1340 0066 474D     		ldr	r5, .L78
 1341 0068 1346     		mov	r3, r2
 1342 006a 5B00     		lsls	r3, r3, #1
 1343 006c 1344     		add	r3, r3, r2
 1344 006e 9B00     		lsls	r3, r3, #2
 1345 0070 2B44     		add	r3, r3, r5
 1346 0072 0333     		adds	r3, r3, #3
 1347 0074 1B78     		ldrb	r3, [r3]
 1348 0076 DBB2     		uxtb	r3, r3
 1349 0078 0343     		orrs	r3, r3, r0
 1350 007a DAB2     		uxtb	r2, r3
 1351 007c 0B01     		lsls	r3, r1, #4
 1352 007e 2344     		add	r3, r3, r4
 1353 0080 1A70     		strb	r2, [r3]
1357:Generated_Source\PSoC5/USBFS.c ****         USBFS_SIE_EP_BASE.sieEp[epNumber].epCnt1 = (uint8) LO8(length);
 1354              		.loc 1 1357 0
 1355 0082 414A     		ldr	r2, .L78+4
 1356 0084 FB79     		ldrb	r3, [r7, #7]	@ zero_extendqisi2
 1357 0086 B988     		ldrh	r1, [r7, #4]	@ movhi
 1358 0088 C9B2     		uxtb	r1, r1
 1359 008a 1B01     		lsls	r3, r3, #4
 1360 008c 1344     		add	r3, r3, r2
 1361 008e 0133     		adds	r3, r3, #1
 1362 0090 0A46     		mov	r2, r1
 1363 0092 1A70     		strb	r2, [r3]
1358:Generated_Source\PSoC5/USBFS.c **** 
1359:Generated_Source\PSoC5/USBFS.c ****     #if (USBFS_EP_MANAGEMENT_MANUAL)
1360:Generated_Source\PSoC5/USBFS.c ****         if (NULL != pData)
1361:Generated_Source\PSoC5/USBFS.c ****         {
1362:Generated_Source\PSoC5/USBFS.c **** 			/* Copy data using arbiter data register. */
1363:Generated_Source\PSoC5/USBFS.c ****             uint16 i;
1364:Generated_Source\PSoC5/USBFS.c ****             for (i = 0u; i < length; ++i)
1365:Generated_Source\PSoC5/USBFS.c ****             {
1366:Generated_Source\PSoC5/USBFS.c ****                 USBFS_ARB_EP_BASE.arbEp[epNumber].rwDr = pData[i];
1367:Generated_Source\PSoC5/USBFS.c ****             }
ARM GAS  C:\Users\CALEBC~1\AppData\Local\Temp\ccUZyw0h.s 			page 49


1368:Generated_Source\PSoC5/USBFS.c ****         }
1369:Generated_Source\PSoC5/USBFS.c **** 
1370:Generated_Source\PSoC5/USBFS.c ****         /* IN endpoint buffer is full - read to be read. */
1371:Generated_Source\PSoC5/USBFS.c ****         USBFS_EP[epNumber].apiEpState = USBFS_NO_EVENT_PENDING;
1372:Generated_Source\PSoC5/USBFS.c **** 
1373:Generated_Source\PSoC5/USBFS.c ****         /* Arm IN endpoint. */
1374:Generated_Source\PSoC5/USBFS.c ****         USBFS_SIE_EP_BASE.sieEp[epNumber].epCr0 = USBFS_EP[epNumber].epMode;
1375:Generated_Source\PSoC5/USBFS.c **** 
1376:Generated_Source\PSoC5/USBFS.c ****     #else
1377:Generated_Source\PSoC5/USBFS.c **** 
1378:Generated_Source\PSoC5/USBFS.c ****         #if (CY_PSOC3 || CY_PSOC5LP)
1379:Generated_Source\PSoC5/USBFS.c ****             /* Initialize DMA if it was not initialized. */
1380:Generated_Source\PSoC5/USBFS.c ****             if (DMA_INVALID_TD == USBFS_DmaTd[epNumber])
 1364              		.loc 1 1380 0
 1365 0094 FB79     		ldrb	r3, [r7, #7]	@ zero_extendqisi2
 1366 0096 3D4A     		ldr	r2, .L78+8
 1367 0098 D35C     		ldrb	r3, [r2, r3]	@ zero_extendqisi2
 1368 009a FF2B     		cmp	r3, #255
 1369 009c 04D1     		bne	.L75
1381:Generated_Source\PSoC5/USBFS.c ****             {
1382:Generated_Source\PSoC5/USBFS.c ****                 USBFS_InitEP_DMA(epNumber, pData);
 1370              		.loc 1 1382 0
 1371 009e FB79     		ldrb	r3, [r7, #7]	@ zero_extendqisi2
 1372 00a0 3968     		ldr	r1, [r7]
 1373 00a2 1846     		mov	r0, r3
 1374 00a4 FFF7FEFF 		bl	USBFS_InitEP_DMA
 1375              	.L75:
1383:Generated_Source\PSoC5/USBFS.c ****             }
1384:Generated_Source\PSoC5/USBFS.c ****         #endif /* (CY_PSOC3 || CY_PSOC5LP) */
1385:Generated_Source\PSoC5/USBFS.c **** 
1386:Generated_Source\PSoC5/USBFS.c ****         #if (USBFS_EP_MANAGEMENT_DMA_MANUAL)
1387:Generated_Source\PSoC5/USBFS.c ****             /* IN endpoint buffer will be fully loaded by DMA shortly. */
1388:Generated_Source\PSoC5/USBFS.c ****             USBFS_EP[epNumber].apiEpState = USBFS_NO_EVENT_PENDING;
 1376              		.loc 1 1388 0
 1377 00a8 FA79     		ldrb	r2, [r7, #7]	@ zero_extendqisi2
 1378 00aa 3649     		ldr	r1, .L78
 1379 00ac 1346     		mov	r3, r2
 1380 00ae 5B00     		lsls	r3, r3, #1
 1381 00b0 1344     		add	r3, r3, r2
 1382 00b2 9B00     		lsls	r3, r3, #2
 1383 00b4 0B44     		add	r3, r3, r1
 1384 00b6 0133     		adds	r3, r3, #1
 1385 00b8 0022     		movs	r2, #0
 1386 00ba 1A70     		strb	r2, [r3]
1389:Generated_Source\PSoC5/USBFS.c **** 
1390:Generated_Source\PSoC5/USBFS.c ****             if ((pData != NULL) && (length > 0u))
 1387              		.loc 1 1390 0
 1388 00bc 3B68     		ldr	r3, [r7]
 1389 00be 002B     		cmp	r3, #0
 1390 00c0 4CD0     		beq	.L76
 1391              		.loc 1 1390 0 is_stmt 0 discriminator 1
 1392 00c2 BB88     		ldrh	r3, [r7, #4]
 1393 00c4 002B     		cmp	r3, #0
 1394 00c6 49D0     		beq	.L76
1391:Generated_Source\PSoC5/USBFS.c ****             {
1392:Generated_Source\PSoC5/USBFS.c ****             #if (CY_PSOC4)
1393:Generated_Source\PSoC5/USBFS.c ****                 uint32 channelNum = (uint32) USBFS_DmaChan[epNumber];
ARM GAS  C:\Users\CALEBC~1\AppData\Local\Temp\ccUZyw0h.s 			page 50


1394:Generated_Source\PSoC5/USBFS.c **** 
1395:Generated_Source\PSoC5/USBFS.c ****                 /* Disable DMA channel: start configuration. */
1396:Generated_Source\PSoC5/USBFS.c ****                 USBFS_CyDmaChDisable(channelNum);
1397:Generated_Source\PSoC5/USBFS.c **** 
1398:Generated_Source\PSoC5/USBFS.c ****                 /* Configure source and destination. */
1399:Generated_Source\PSoC5/USBFS.c ****                 USBFS_CyDmaSetSrcAddress(channelNum, USBFS_DMA_DESCR0, (void*) pData);
1400:Generated_Source\PSoC5/USBFS.c ****                 USBFS_CyDmaSetDstAddress(channelNum, USBFS_DMA_DESCR0, (void*) &USBFS_ARB_EP_BASE.a
1401:Generated_Source\PSoC5/USBFS.c **** 
1402:Generated_Source\PSoC5/USBFS.c ****                 /* Configure DMA descriptor. */
1403:Generated_Source\PSoC5/USBFS.c ****                 --length;
1404:Generated_Source\PSoC5/USBFS.c ****                 USBFS_CyDmaSetConfiguration(channelNum, USBFS_DMA_DESCR0, USBFS_DMA_COMMON_CFG | le
1405:Generated_Source\PSoC5/USBFS.c ****                                                         CYDMA_BYTE | CYDMA_ELEMENT_WORD | CYDMA_INC
1406:Generated_Source\PSoC5/USBFS.c **** 
1407:Generated_Source\PSoC5/USBFS.c ****                 /* Validate descriptor to execute on following DMA request. */
1408:Generated_Source\PSoC5/USBFS.c ****                 USBFS_CyDmaValidateDescriptor(channelNum, USBFS_DMA_DESCR0);
1409:Generated_Source\PSoC5/USBFS.c **** 
1410:Generated_Source\PSoC5/USBFS.c ****                 /* Enable DMA channel: configuration complete. */
1411:Generated_Source\PSoC5/USBFS.c ****                 USBFS_CyDmaChEnable(channelNum);
1412:Generated_Source\PSoC5/USBFS.c ****             #else
1413:Generated_Source\PSoC5/USBFS.c ****                 /* Configure DMA to transfer data. */
1414:Generated_Source\PSoC5/USBFS.c ****                 (void) CyDmaChDisable(USBFS_DmaChan[epNumber]);
 1395              		.loc 1 1414 0 is_stmt 1
 1396 00c8 FB79     		ldrb	r3, [r7, #7]	@ zero_extendqisi2
 1397 00ca 314A     		ldr	r2, .L78+12
 1398 00cc D35C     		ldrb	r3, [r2, r3]	@ zero_extendqisi2
 1399 00ce 1846     		mov	r0, r3
 1400 00d0 FFF7FEFF 		bl	CyDmaChDisable
1415:Generated_Source\PSoC5/USBFS.c ****                 (void) CyDmaTdSetConfiguration(USBFS_DmaTd[epNumber], length, CY_DMA_DISABLE_TD, TD
 1401              		.loc 1 1415 0
 1402 00d4 FB79     		ldrb	r3, [r7, #7]	@ zero_extendqisi2
 1403 00d6 2D4A     		ldr	r2, .L78+8
 1404 00d8 D05C     		ldrb	r0, [r2, r3]	@ zero_extendqisi2
 1405 00da B988     		ldrh	r1, [r7, #4]
 1406 00dc 1123     		movs	r3, #17
 1407 00de FE22     		movs	r2, #254
 1408 00e0 FFF7FEFF 		bl	CyDmaTdSetConfiguration
1416:Generated_Source\PSoC5/USBFS.c ****                 (void) CyDmaTdSetAddress(USBFS_DmaTd[epNumber], LO16((uint32) pData), LO16((uint32)
 1409              		.loc 1 1416 0
 1410 00e4 FB79     		ldrb	r3, [r7, #7]	@ zero_extendqisi2
 1411 00e6 294A     		ldr	r2, .L78+8
 1412 00e8 D05C     		ldrb	r0, [r2, r3]	@ zero_extendqisi2
 1413 00ea 3B68     		ldr	r3, [r7]
 1414 00ec 99B2     		uxth	r1, r3
 1415 00ee FB79     		ldrb	r3, [r7, #7]	@ zero_extendqisi2
 1416 00f0 1B01     		lsls	r3, r3, #4
 1417 00f2 03F10802 		add	r2, r3, #8
 1418 00f6 274B     		ldr	r3, .L78+16
 1419 00f8 1344     		add	r3, r3, r2
 1420 00fa 9BB2     		uxth	r3, r3
 1421 00fc 1A46     		mov	r2, r3
 1422 00fe FFF7FEFF 		bl	CyDmaTdSetAddress
1417:Generated_Source\PSoC5/USBFS.c **** 
1418:Generated_Source\PSoC5/USBFS.c ****                 /* Enable DMA channel. */
1419:Generated_Source\PSoC5/USBFS.c ****                 (void) CyDmaChSetInitialTd(USBFS_DmaChan[epNumber], USBFS_DmaTd[epNumber]);
 1423              		.loc 1 1419 0
 1424 0102 FB79     		ldrb	r3, [r7, #7]	@ zero_extendqisi2
 1425 0104 224A     		ldr	r2, .L78+12
ARM GAS  C:\Users\CALEBC~1\AppData\Local\Temp\ccUZyw0h.s 			page 51


 1426 0106 D05C     		ldrb	r0, [r2, r3]	@ zero_extendqisi2
 1427 0108 FB79     		ldrb	r3, [r7, #7]	@ zero_extendqisi2
 1428 010a 204A     		ldr	r2, .L78+8
 1429 010c D35C     		ldrb	r3, [r2, r3]	@ zero_extendqisi2
 1430 010e 1946     		mov	r1, r3
 1431 0110 FFF7FEFF 		bl	CyDmaChSetInitialTd
1420:Generated_Source\PSoC5/USBFS.c ****                 (void) CyDmaChEnable(USBFS_DmaChan[epNumber], 1u);
 1432              		.loc 1 1420 0
 1433 0114 FB79     		ldrb	r3, [r7, #7]	@ zero_extendqisi2
 1434 0116 1E4A     		ldr	r2, .L78+12
 1435 0118 D35C     		ldrb	r3, [r2, r3]	@ zero_extendqisi2
 1436 011a 0121     		movs	r1, #1
 1437 011c 1846     		mov	r0, r3
 1438 011e FFF7FEFF 		bl	CyDmaChEnable
1421:Generated_Source\PSoC5/USBFS.c ****             #endif /* (CY_PSOC4) */
1422:Generated_Source\PSoC5/USBFS.c **** 
1423:Generated_Source\PSoC5/USBFS.c ****                 /* Generate DMA request. */
1424:Generated_Source\PSoC5/USBFS.c ****                 USBFS_ARB_EP_BASE.arbEp[epNumber].epCfg |=  (uint8)  USBFS_ARB_EPX_CFG_DMA_REQ;
 1439              		.loc 1 1424 0
 1440 0122 1C49     		ldr	r1, .L78+16
 1441 0124 FB79     		ldrb	r3, [r7, #7]	@ zero_extendqisi2
 1442 0126 1B48     		ldr	r0, .L78+16
 1443 0128 FA79     		ldrb	r2, [r7, #7]	@ zero_extendqisi2
 1444 012a 1201     		lsls	r2, r2, #4
 1445 012c 0244     		add	r2, r2, r0
 1446 012e 1278     		ldrb	r2, [r2]
 1447 0130 D2B2     		uxtb	r2, r2
 1448 0132 42F00202 		orr	r2, r2, #2
 1449 0136 D2B2     		uxtb	r2, r2
 1450 0138 1B01     		lsls	r3, r3, #4
 1451 013a 0B44     		add	r3, r3, r1
 1452 013c 1A70     		strb	r2, [r3]
1425:Generated_Source\PSoC5/USBFS.c ****                 USBFS_ARB_EP_BASE.arbEp[epNumber].epCfg &=  (uint8) ~USBFS_ARB_EPX_CFG_DMA_REQ;
 1453              		.loc 1 1425 0
 1454 013e 1549     		ldr	r1, .L78+16
 1455 0140 FB79     		ldrb	r3, [r7, #7]	@ zero_extendqisi2
 1456 0142 1448     		ldr	r0, .L78+16
 1457 0144 FA79     		ldrb	r2, [r7, #7]	@ zero_extendqisi2
 1458 0146 1201     		lsls	r2, r2, #4
 1459 0148 0244     		add	r2, r2, r0
 1460 014a 1278     		ldrb	r2, [r2]
 1461 014c D2B2     		uxtb	r2, r2
 1462 014e 22F00202 		bic	r2, r2, #2
 1463 0152 D2B2     		uxtb	r2, r2
 1464 0154 1B01     		lsls	r3, r3, #4
 1465 0156 0B44     		add	r3, r3, r1
 1466 0158 1A70     		strb	r2, [r3]
1426:Generated_Source\PSoC5/USBFS.c **** 
1427:Generated_Source\PSoC5/USBFS.c ****                 /* IN endpoint will be armed in ARB_ISR(source: IN_BUF_FULL) after first DMA transf
1428:Generated_Source\PSoC5/USBFS.c ****             }
1429:Generated_Source\PSoC5/USBFS.c ****             else
1430:Generated_Source\PSoC5/USBFS.c ****             {
1431:Generated_Source\PSoC5/USBFS.c ****                 /* When zero-length packet: arm IN endpoint directly. */
1432:Generated_Source\PSoC5/USBFS.c ****                 USBFS_SIE_EP_BASE.sieEp[epNumber].epCr0 = USBFS_EP[epNumber].epMode;
1433:Generated_Source\PSoC5/USBFS.c ****             }
1434:Generated_Source\PSoC5/USBFS.c ****         #endif /* (USBFS_EP_MANAGEMENT_DMA_MANUAL) */
1435:Generated_Source\PSoC5/USBFS.c **** 
ARM GAS  C:\Users\CALEBC~1\AppData\Local\Temp\ccUZyw0h.s 			page 52


1436:Generated_Source\PSoC5/USBFS.c ****         #if (USBFS_EP_MANAGEMENT_DMA_AUTO)
1437:Generated_Source\PSoC5/USBFS.c ****             if (pData != NULL)
1438:Generated_Source\PSoC5/USBFS.c ****             {
1439:Generated_Source\PSoC5/USBFS.c ****             #if (CY_PSOC4)
1440:Generated_Source\PSoC5/USBFS.c ****                 uint32 channelNum = (uint32) USBFS_DmaChan[epNumber];
1441:Generated_Source\PSoC5/USBFS.c **** 
1442:Generated_Source\PSoC5/USBFS.c ****                 /* Store address of buffer. */
1443:Generated_Source\PSoC5/USBFS.c ****                 USBFS_DmaEpBufferAddrBackup[epNumber] = (uint32) pData;
1444:Generated_Source\PSoC5/USBFS.c **** 
1445:Generated_Source\PSoC5/USBFS.c ****                 /* Disable DMA channel: start configuration. */
1446:Generated_Source\PSoC5/USBFS.c ****                 USBFS_CyDmaChDisable(channelNum);
1447:Generated_Source\PSoC5/USBFS.c **** 
1448:Generated_Source\PSoC5/USBFS.c ****                 /* Set destination address. */
1449:Generated_Source\PSoC5/USBFS.c ****                 USBFS_CyDmaSetDstAddress(channelNum, USBFS_DMA_DESCR0, (void*) &USBFS_ARB_EP_BASE.a
1450:Generated_Source\PSoC5/USBFS.c ****                 USBFS_CyDmaSetDstAddress(channelNum, USBFS_DMA_DESCR1, (void*) &USBFS_ARB_EP_BASE.a
1451:Generated_Source\PSoC5/USBFS.c **** 
1452:Generated_Source\PSoC5/USBFS.c ****                 /* Configure DMA descriptor. */
1453:Generated_Source\PSoC5/USBFS.c ****                 USBFS_CyDmaSetConfiguration(channelNum, USBFS_DMA_DESCR0, USBFS_DMA_COMMON_CFG  |
1454:Generated_Source\PSoC5/USBFS.c ****                                                         CYDMA_BYTE | CYDMA_ELEMENT_WORD | CYDMA_INC
1455:Generated_Source\PSoC5/USBFS.c **** 
1456:Generated_Source\PSoC5/USBFS.c ****                 /* Configure DMA descriptor. */
1457:Generated_Source\PSoC5/USBFS.c ****                 USBFS_CyDmaSetConfiguration(channelNum, USBFS_DMA_DESCR1, USBFS_DMA_COMMON_CFG  |
1458:Generated_Source\PSoC5/USBFS.c ****                                                         CYDMA_BYTE | CYDMA_ELEMENT_WORD | CYDMA_INC
1459:Generated_Source\PSoC5/USBFS.c **** 
1460:Generated_Source\PSoC5/USBFS.c ****                 /* Enable interrupt from DMA channel. */
1461:Generated_Source\PSoC5/USBFS.c ****                 USBFS_CyDmaSetInterruptMask(channelNum);
1462:Generated_Source\PSoC5/USBFS.c **** 
1463:Generated_Source\PSoC5/USBFS.c **** 
1464:Generated_Source\PSoC5/USBFS.c ****                 /* Enable DMA channel: configuration complete. */
1465:Generated_Source\PSoC5/USBFS.c ****                 USBFS_CyDmaChEnable(channelNum);
1466:Generated_Source\PSoC5/USBFS.c **** 
1467:Generated_Source\PSoC5/USBFS.c ****             #else
1468:Generated_Source\PSoC5/USBFS.c ****                 (void) CyDmaChDisable(USBFS_DmaChan[epNumber]);
1469:Generated_Source\PSoC5/USBFS.c **** 
1470:Generated_Source\PSoC5/USBFS.c ****                 #if (USBFS_EP_DMA_AUTO_OPT == 0u)
1471:Generated_Source\PSoC5/USBFS.c ****                     USBFS_inLength[epNumber] = length;
1472:Generated_Source\PSoC5/USBFS.c ****                     USBFS_inDataPointer[epNumber] = pData;
1473:Generated_Source\PSoC5/USBFS.c **** 
1474:Generated_Source\PSoC5/USBFS.c ****                     /* Configure DMA to send data only for first burst */
1475:Generated_Source\PSoC5/USBFS.c ****                     (void) CyDmaTdSetConfiguration(USBFS_DmaTd[epNumber],
1476:Generated_Source\PSoC5/USBFS.c ****                         (length > USBFS_DMA_BYTES_PER_BURST) ? USBFS_DMA_BYTES_PER_BURST : length,
1477:Generated_Source\PSoC5/USBFS.c ****                         USBFS_DmaNextTd[epNumber], TD_TERMIN_EN | TD_INC_SRC_ADR);
1478:Generated_Source\PSoC5/USBFS.c ****                     (void) CyDmaTdSetAddress(USBFS_DmaTd[epNumber], LO16((uint32) pData),
1479:Generated_Source\PSoC5/USBFS.c ****                                                                                LO16((uint32) &USBFS
1480:Generated_Source\PSoC5/USBFS.c **** 
1481:Generated_Source\PSoC5/USBFS.c ****                     /* The second TD will be executed only when the first one fails.
1482:Generated_Source\PSoC5/USBFS.c ****                     *  The intention of this TD is to generate NRQ interrupt
1483:Generated_Source\PSoC5/USBFS.c ****                     *  and repeat 2 last bytes of the first burst.
1484:Generated_Source\PSoC5/USBFS.c ****                     */
1485:Generated_Source\PSoC5/USBFS.c ****                     (void) CyDmaTdSetConfiguration(USBFS_DmaNextTd[epNumber], 1u,
1486:Generated_Source\PSoC5/USBFS.c ****                                                    USBFS_DmaNextTd[epNumber],
1487:Generated_Source\PSoC5/USBFS.c ****                                                    USBFS_epX_TD_TERMOUT_EN[epNumber]);
1488:Generated_Source\PSoC5/USBFS.c **** 
1489:Generated_Source\PSoC5/USBFS.c ****                     /* Configure DmaNextTd to clear Data Ready status. */
1490:Generated_Source\PSoC5/USBFS.c ****                     (void) CyDmaTdSetAddress(USBFS_DmaNextTd[epNumber], LO16((uint32) &clearInDataR
1491:Generated_Source\PSoC5/USBFS.c ****                                                                                    LO16((uint32) &U
1492:Generated_Source\PSoC5/USBFS.c ****                 #else
ARM GAS  C:\Users\CALEBC~1\AppData\Local\Temp\ccUZyw0h.s 			page 53


1493:Generated_Source\PSoC5/USBFS.c ****                     /* Configure DMA to send all data. */
1494:Generated_Source\PSoC5/USBFS.c ****                     (void) CyDmaTdSetConfiguration(USBFS_DmaTd[epNumber], length,
1495:Generated_Source\PSoC5/USBFS.c ****                                                    USBFS_DmaTd[epNumber], TD_TERMIN_EN | TD_INC_SRC
1496:Generated_Source\PSoC5/USBFS.c ****                     (void) CyDmaTdSetAddress(USBFS_DmaTd[epNumber], LO16((uint32) pData),
1497:Generated_Source\PSoC5/USBFS.c ****                                                                                LO16((uint32) &USBFS
1498:Generated_Source\PSoC5/USBFS.c ****                 #endif /* (USBFS_EP_DMA_AUTO_OPT == 0u) */
1499:Generated_Source\PSoC5/USBFS.c **** 
1500:Generated_Source\PSoC5/USBFS.c ****                 /* Clear any potential pending DMA requests before starting DMA channel to transfer
1501:Generated_Source\PSoC5/USBFS.c ****                 (void) CyDmaClearPendingDrq(USBFS_DmaChan[epNumber]);
1502:Generated_Source\PSoC5/USBFS.c ****                 /* Enable DMA. */
1503:Generated_Source\PSoC5/USBFS.c ****                 (void) CyDmaChSetInitialTd(USBFS_DmaChan[epNumber], USBFS_DmaTd[epNumber]);
1504:Generated_Source\PSoC5/USBFS.c ****                 (void) CyDmaChEnable(USBFS_DmaChan[epNumber], 1u);
1505:Generated_Source\PSoC5/USBFS.c ****             #endif /* (CY_PSOC4) */
1506:Generated_Source\PSoC5/USBFS.c ****             }
1507:Generated_Source\PSoC5/USBFS.c ****             else
1508:Generated_Source\PSoC5/USBFS.c ****             {
1509:Generated_Source\PSoC5/USBFS.c ****                 /* IN endpoint buffer (32 bytes) will shortly be preloaded by DMA. */
1510:Generated_Source\PSoC5/USBFS.c ****                 USBFS_EP[epNumber].apiEpState = USBFS_NO_EVENT_PENDING;
1511:Generated_Source\PSoC5/USBFS.c **** 
1512:Generated_Source\PSoC5/USBFS.c ****                 if (length > 0u)
1513:Generated_Source\PSoC5/USBFS.c ****                 {
1514:Generated_Source\PSoC5/USBFS.c ****                 #if (CY_PSOC4)
1515:Generated_Source\PSoC5/USBFS.c ****                     uint32 lengthDescr0, lengthDescr1;
1516:Generated_Source\PSoC5/USBFS.c ****                     uint32 channelNum = (uint32) USBFS_DmaChan[epNumber];
1517:Generated_Source\PSoC5/USBFS.c **** 
1518:Generated_Source\PSoC5/USBFS.c ****                     /* Get number of full bursts. */
1519:Generated_Source\PSoC5/USBFS.c ****                     USBFS_DmaEpBurstCnt[epNumber] = (uint8) (length / USBFS_DMA_BYTES_PER_BURST);
1520:Generated_Source\PSoC5/USBFS.c **** 
1521:Generated_Source\PSoC5/USBFS.c ****                     /* Get number of elements in the last burst. */
1522:Generated_Source\PSoC5/USBFS.c ****                     USBFS_DmaEpLastBurstEl[epNumber] = (uint8) (length % USBFS_DMA_BYTES_PER_BURST)
1523:Generated_Source\PSoC5/USBFS.c **** 
1524:Generated_Source\PSoC5/USBFS.c ****                     /* Get total number of bursts. */
1525:Generated_Source\PSoC5/USBFS.c ****                     USBFS_DmaEpBurstCnt[epNumber] += (0u != USBFS_DmaEpLastBurstEl[epNumber]) ? 1u 
1526:Generated_Source\PSoC5/USBFS.c **** 
1527:Generated_Source\PSoC5/USBFS.c ****                     /* Adjust number of data elements transferred in last burst. */
1528:Generated_Source\PSoC5/USBFS.c ****                     USBFS_DmaEpLastBurstEl[epNumber] = (0u != USBFS_DmaEpLastBurstEl[epNumber]) ?
1529:Generated_Source\PSoC5/USBFS.c ****                                                                           (USBFS_DmaEpLastBurstEl[e
1530:Generated_Source\PSoC5/USBFS.c ****                                                                           (USBFS_DMA_BYTES_PER_BURS
1531:Generated_Source\PSoC5/USBFS.c **** 
1532:Generated_Source\PSoC5/USBFS.c ****                     /* Get number of data elements to transfer for descriptor 0 and 1. */
1533:Generated_Source\PSoC5/USBFS.c ****                     lengthDescr0 = (1u == USBFS_DmaEpBurstCnt[epNumber]) ? USBFS_DmaEpLastBurstEl[e
1534:Generated_Source\PSoC5/USBFS.c ****                     lengthDescr1 = (2u == USBFS_DmaEpBurstCnt[epNumber]) ? USBFS_DmaEpLastBurstEl[e
1535:Generated_Source\PSoC5/USBFS.c **** 
1536:Generated_Source\PSoC5/USBFS.c **** 
1537:Generated_Source\PSoC5/USBFS.c ****                     /* Mark which descriptor is last one to execute. */
1538:Generated_Source\PSoC5/USBFS.c ****                     USBFS_DmaEpLastBurstEl[epNumber] |= (0u != (USBFS_DmaEpBurstCnt[epNumber] & 0x1
1539:Generated_Source\PSoC5/USBFS.c ****                                                                             USBFS_DMA_DESCR0_MASK :
1540:Generated_Source\PSoC5/USBFS.c **** 
1541:Generated_Source\PSoC5/USBFS.c ****                     /* Restore DMA settings for current transfer. */
1542:Generated_Source\PSoC5/USBFS.c ****                     USBFS_CyDmaChDisable(channelNum);
1543:Generated_Source\PSoC5/USBFS.c **** 
1544:Generated_Source\PSoC5/USBFS.c ****                     /* Restore destination address for input endpoint. */
1545:Generated_Source\PSoC5/USBFS.c ****                     USBFS_CyDmaSetSrcAddress(channelNum, USBFS_DMA_DESCR0, (void*) ((uint32) USBFS_
1546:Generated_Source\PSoC5/USBFS.c ****                     USBFS_CyDmaSetSrcAddress(channelNum, USBFS_DMA_DESCR1, (void*) ((uint32) USBFS_
1547:Generated_Source\PSoC5/USBFS.c ****                                                                                                    
1548:Generated_Source\PSoC5/USBFS.c **** 
1549:Generated_Source\PSoC5/USBFS.c ****                     /* Set number of elements to transfer. */
ARM GAS  C:\Users\CALEBC~1\AppData\Local\Temp\ccUZyw0h.s 			page 54


1550:Generated_Source\PSoC5/USBFS.c ****                     USBFS_CyDmaSetNumDataElements(channelNum, USBFS_DMA_DESCR0, lengthDescr0);
1551:Generated_Source\PSoC5/USBFS.c ****                     USBFS_CyDmaSetNumDataElements(channelNum, USBFS_DMA_DESCR1, lengthDescr1);
1552:Generated_Source\PSoC5/USBFS.c **** 
1553:Generated_Source\PSoC5/USBFS.c ****                     /* Validate descriptor 0 and command to start with it. */
1554:Generated_Source\PSoC5/USBFS.c ****                     USBFS_CyDmaValidateDescriptor(channelNum, USBFS_DMA_DESCR0);
1555:Generated_Source\PSoC5/USBFS.c ****                     USBFS_CyDmaSetDescriptor0Next(channelNum);
1556:Generated_Source\PSoC5/USBFS.c **** 
1557:Generated_Source\PSoC5/USBFS.c ****                     /* Validate descriptor 1. */
1558:Generated_Source\PSoC5/USBFS.c ****                     if (USBFS_DmaEpBurstCnt[epNumber] > 1u)
1559:Generated_Source\PSoC5/USBFS.c ****                     {
1560:Generated_Source\PSoC5/USBFS.c ****                         USBFS_CyDmaValidateDescriptor(channelNum, USBFS_DMA_DESCR1); 
1561:Generated_Source\PSoC5/USBFS.c ****                     }                   
1562:Generated_Source\PSoC5/USBFS.c **** 
1563:Generated_Source\PSoC5/USBFS.c ****                     /* Adjust burst counter taking to account: 2 valid descriptors and interrupt tr
1564:Generated_Source\PSoC5/USBFS.c ****                     USBFS_DmaEpBurstCnt[epNumber] = USBFS_DMA_GET_BURST_CNT(USBFS_DmaEpBurstCnt[epN
1565:Generated_Source\PSoC5/USBFS.c **** 
1566:Generated_Source\PSoC5/USBFS.c ****                     /* Enable DMA channel: configuration complete. */
1567:Generated_Source\PSoC5/USBFS.c ****                     USBFS_CyDmaChEnable(channelNum);
1568:Generated_Source\PSoC5/USBFS.c **** 
1569:Generated_Source\PSoC5/USBFS.c ****                 #elif (USBFS_EP_DMA_AUTO_OPT == 0u)
1570:Generated_Source\PSoC5/USBFS.c ****                     USBFS_inLength[epNumber]  = length;
1571:Generated_Source\PSoC5/USBFS.c ****                     USBFS_inBufFull[epNumber] = 0u;
1572:Generated_Source\PSoC5/USBFS.c **** 
1573:Generated_Source\PSoC5/USBFS.c ****                     (void) CyDmaChDisable(USBFS_DmaChan[epNumber]);
1574:Generated_Source\PSoC5/USBFS.c ****                     /* Configure DMA to send data only for first burst. */
1575:Generated_Source\PSoC5/USBFS.c ****                     (void) CyDmaTdSetConfiguration(
1576:Generated_Source\PSoC5/USBFS.c ****                         USBFS_DmaTd[epNumber], (length > USBFS_DMA_BYTES_PER_BURST) ?
1577:Generated_Source\PSoC5/USBFS.c ****                         USBFS_DMA_BYTES_PER_BURST : length,
1578:Generated_Source\PSoC5/USBFS.c ****                         USBFS_DmaNextTd[epNumber], TD_TERMIN_EN | TD_INC_SRC_ADR );
1579:Generated_Source\PSoC5/USBFS.c ****                     (void) CyDmaTdSetAddress(USBFS_DmaTd[epNumber], LO16((uint32)  USBFS_inDataPoin
1580:Generated_Source\PSoC5/USBFS.c ****                                                                                LO16((uint32) &USBFS
1581:Generated_Source\PSoC5/USBFS.c ****                     /* Clear Any potential pending DMA requests before starting DMA channel to tran
1582:Generated_Source\PSoC5/USBFS.c ****                     (void) CyDmaClearPendingDrq(USBFS_DmaChan[epNumber]);
1583:Generated_Source\PSoC5/USBFS.c ****                     /* Enable DMA. */
1584:Generated_Source\PSoC5/USBFS.c ****                     (void) CyDmaChSetInitialTd(USBFS_DmaChan[epNumber], USBFS_DmaTd[epNumber]);
1585:Generated_Source\PSoC5/USBFS.c ****                     (void) CyDmaChEnable(USBFS_DmaChan[epNumber], 1u);
1586:Generated_Source\PSoC5/USBFS.c ****                 #endif /* (CY_PSOC4) */
1587:Generated_Source\PSoC5/USBFS.c **** 
1588:Generated_Source\PSoC5/USBFS.c ****                 #if !defined (USBFS_MANUAL_IN_EP_ARM)
1589:Generated_Source\PSoC5/USBFS.c ****                     /* Set IN data ready to generate DMA request to load data into endpoint buffer.
1590:Generated_Source\PSoC5/USBFS.c ****                     USBFS_ARB_EP_BASE.arbEp[epNumber].epCfg |= USBFS_ARB_EPX_CFG_IN_DATA_RDY;
1591:Generated_Source\PSoC5/USBFS.c ****                 #endif  /* (USBFS_MANUAL_IN_EP_ARM) */
1592:Generated_Source\PSoC5/USBFS.c **** 
1593:Generated_Source\PSoC5/USBFS.c ****                     /* IN endpoint will be armed in ARB_ISR(source: IN_BUF_FULL) after first DMA tr
1594:Generated_Source\PSoC5/USBFS.c ****                 }
1595:Generated_Source\PSoC5/USBFS.c ****                 else
1596:Generated_Source\PSoC5/USBFS.c ****                 {
1597:Generated_Source\PSoC5/USBFS.c ****                     /* When zero-length packet: arm IN endpoint directly. */
1598:Generated_Source\PSoC5/USBFS.c ****                     USBFS_SIE_EP_BASE.sieEp[epNumber].epCr0 = USBFS_EP[epNumber].epMode;
1599:Generated_Source\PSoC5/USBFS.c ****                 }
1600:Generated_Source\PSoC5/USBFS.c ****             }
1601:Generated_Source\PSoC5/USBFS.c ****         #endif /* (USBFS_EP_MANAGEMENT_DMA_AUTO) */
1602:Generated_Source\PSoC5/USBFS.c ****     #endif /* (USBFS_EP_MANAGEMENT_MANUAL) */
1603:Generated_Source\PSoC5/USBFS.c ****     }
1604:Generated_Source\PSoC5/USBFS.c **** }
 1467              		.loc 1 1604 0
 1468 015a 0FE0     		b	.L77
ARM GAS  C:\Users\CALEBC~1\AppData\Local\Temp\ccUZyw0h.s 			page 55


 1469              	.L76:
1432:Generated_Source\PSoC5/USBFS.c ****             }
 1470              		.loc 1 1432 0
 1471 015c 0A48     		ldr	r0, .L78+4
 1472 015e F979     		ldrb	r1, [r7, #7]	@ zero_extendqisi2
 1473 0160 FA79     		ldrb	r2, [r7, #7]	@ zero_extendqisi2
 1474 0162 084C     		ldr	r4, .L78
 1475 0164 1346     		mov	r3, r2
 1476 0166 5B00     		lsls	r3, r3, #1
 1477 0168 1344     		add	r3, r3, r2
 1478 016a 9B00     		lsls	r3, r3, #2
 1479 016c 2344     		add	r3, r3, r4
 1480 016e 0533     		adds	r3, r3, #5
 1481 0170 1B78     		ldrb	r3, [r3]
 1482 0172 DAB2     		uxtb	r2, r3
 1483 0174 0B01     		lsls	r3, r1, #4
 1484 0176 0344     		add	r3, r3, r0
 1485 0178 0233     		adds	r3, r3, #2
 1486 017a 1A70     		strb	r2, [r3]
 1487              	.L77:
 1488              		.loc 1 1604 0
 1489 017c 00BF     		nop
 1490 017e 0837     		adds	r7, r7, #8
 1491              		.cfi_def_cfa_offset 16
 1492 0180 BD46     		mov	sp, r7
 1493              		.cfi_def_cfa_register 13
 1494              		@ sp needed
 1495 0182 B0BD     		pop	{r4, r5, r7, pc}
 1496              	.L79:
 1497              		.align	2
 1498              	.L78:
 1499 0184 00000000 		.word	USBFS_EP
 1500 0188 FC5F0040 		.word	1073766396
 1501 018c 00000000 		.word	USBFS_DmaTd
 1502 0190 00000000 		.word	USBFS_DmaChan
 1503 0194 70600040 		.word	1073766512
 1504              		.cfi_endproc
 1505              	.LFE13:
 1506              		.size	USBFS_LoadInEP, .-USBFS_LoadInEP
 1507              		.section	.text.USBFS_ReadOutEP,"ax",%progbits
 1508              		.align	2
 1509              		.global	USBFS_ReadOutEP
 1510              		.thumb
 1511              		.thumb_func
 1512              		.type	USBFS_ReadOutEP, %function
 1513              	USBFS_ReadOutEP:
 1514              	.LFB14:
1605:Generated_Source\PSoC5/USBFS.c **** 
1606:Generated_Source\PSoC5/USBFS.c **** 
1607:Generated_Source\PSoC5/USBFS.c **** /*******************************************************************************
1608:Generated_Source\PSoC5/USBFS.c **** * Function Name: USBFS_ReadOutEP
1609:Generated_Source\PSoC5/USBFS.c **** ****************************************************************************//**
1610:Generated_Source\PSoC5/USBFS.c **** *
1611:Generated_Source\PSoC5/USBFS.c **** *   This function performs different functionality depending on the Component’s
1612:Generated_Source\PSoC5/USBFS.c **** *   configured Endpoint Buffer Management. This parameter is defined in the
1613:Generated_Source\PSoC5/USBFS.c **** *   Descriptor Root in Component Configure window.
1614:Generated_Source\PSoC5/USBFS.c **** *
ARM GAS  C:\Users\CALEBC~1\AppData\Local\Temp\ccUZyw0h.s 			page 56


1615:Generated_Source\PSoC5/USBFS.c **** *   *Manual (Static/Dynamic Allocation):*
1616:Generated_Source\PSoC5/USBFS.c **** *   This function moves the specified number of bytes from endpoint buffer to
1617:Generated_Source\PSoC5/USBFS.c **** *   system RAM. The number of bytes actually transferred from endpoint buffer to
1618:Generated_Source\PSoC5/USBFS.c **** *   system RAM is the lesser of the actual number of bytes sent by the host or
1619:Generated_Source\PSoC5/USBFS.c **** *   the number of bytes requested by the length parameter.
1620:Generated_Source\PSoC5/USBFS.c **** *
1621:Generated_Source\PSoC5/USBFS.c **** *   *DMA with Manual Buffer Management:*
1622:Generated_Source\PSoC5/USBFS.c **** *   Configure DMA to transfer data from endpoint buffer to system RAM. Generate
1623:Generated_Source\PSoC5/USBFS.c **** *   a DMA request. The firmware must wait until the DMA completes the data
1624:Generated_Source\PSoC5/USBFS.c **** *   transfer after calling the USBFS_ReadOutEP() API. For example,
1625:Generated_Source\PSoC5/USBFS.c **** *   by checking EPstate:
1626:Generated_Source\PSoC5/USBFS.c **** *
1627:Generated_Source\PSoC5/USBFS.c **** *   \snippet /USBFS_sut_02.cydsn/main.c checking EPstatey
1628:Generated_Source\PSoC5/USBFS.c **** *
1629:Generated_Source\PSoC5/USBFS.c **** *   The USBFS_EnableOutEP() has to be called to allow host to write data into
1630:Generated_Source\PSoC5/USBFS.c **** *   the endpoint buffer after DMA has completed transfer data from OUT endpoint
1631:Generated_Source\PSoC5/USBFS.c **** *   buffer to SRAM.
1632:Generated_Source\PSoC5/USBFS.c **** *
1633:Generated_Source\PSoC5/USBFS.c **** *   *DMA with Automatic Buffer Management:*
1634:Generated_Source\PSoC5/USBFS.c **** *   Configure DMA. This is required only once and automatically generates DMA
1635:Generated_Source\PSoC5/USBFS.c **** *   requests as data arrives
1636:Generated_Source\PSoC5/USBFS.c **** *
1637:Generated_Source\PSoC5/USBFS.c **** *  \param epNumber: Contains the data endpoint number.
1638:Generated_Source\PSoC5/USBFS.c **** *            Valid values are between 1 and 8.
1639:Generated_Source\PSoC5/USBFS.c **** *  \param pData: A pointer to a data array from which the data for the endpoint
1640:Generated_Source\PSoC5/USBFS.c **** *         space is loaded.
1641:Generated_Source\PSoC5/USBFS.c **** *  \param length: The number of bytes to transfer from the USB Out endpoint and
1642:Generated_Source\PSoC5/USBFS.c **** *          loads it into data array. Valid values are between 0 and 1023. The
1643:Generated_Source\PSoC5/USBFS.c **** *          function moves fewer than the requested number of bytes if the host
1644:Generated_Source\PSoC5/USBFS.c **** *          sends fewer bytes than requested.
1645:Generated_Source\PSoC5/USBFS.c **** *
1646:Generated_Source\PSoC5/USBFS.c **** * \return
1647:Generated_Source\PSoC5/USBFS.c **** *  Number of bytes received, 0 for an invalid endpoint.
1648:Generated_Source\PSoC5/USBFS.c **** *
1649:Generated_Source\PSoC5/USBFS.c **** * \reentrant
1650:Generated_Source\PSoC5/USBFS.c **** *  No.
1651:Generated_Source\PSoC5/USBFS.c **** *
1652:Generated_Source\PSoC5/USBFS.c **** *******************************************************************************/
1653:Generated_Source\PSoC5/USBFS.c **** uint16 USBFS_ReadOutEP(uint8 epNumber, uint8 pData[], uint16 length)
1654:Generated_Source\PSoC5/USBFS.c ****                                                                         
1655:Generated_Source\PSoC5/USBFS.c **** {
 1515              		.loc 1 1655 0
 1516              		.cfi_startproc
 1517              		@ args = 0, pretend = 0, frame = 8
 1518              		@ frame_needed = 1, uses_anonymous_args = 0
 1519 0000 80B5     		push	{r7, lr}
 1520              		.cfi_def_cfa_offset 8
 1521              		.cfi_offset 7, -8
 1522              		.cfi_offset 14, -4
 1523 0002 82B0     		sub	sp, sp, #8
 1524              		.cfi_def_cfa_offset 16
 1525 0004 00AF     		add	r7, sp, #0
 1526              		.cfi_def_cfa_register 7
 1527 0006 0346     		mov	r3, r0
 1528 0008 3960     		str	r1, [r7]
 1529 000a FB71     		strb	r3, [r7, #7]
 1530 000c 1346     		mov	r3, r2	@ movhi
ARM GAS  C:\Users\CALEBC~1\AppData\Local\Temp\ccUZyw0h.s 			page 57


 1531 000e BB80     		strh	r3, [r7, #4]	@ movhi
1656:Generated_Source\PSoC5/USBFS.c ****     if ((pData != NULL) && (epNumber > USBFS_EP0) && (epNumber < USBFS_MAX_EP))
 1532              		.loc 1 1656 0
 1533 0010 3B68     		ldr	r3, [r7]
 1534 0012 002B     		cmp	r3, #0
 1535 0014 6AD0     		beq	.L81
 1536              		.loc 1 1656 0 is_stmt 0 discriminator 1
 1537 0016 FB79     		ldrb	r3, [r7, #7]	@ zero_extendqisi2
 1538 0018 002B     		cmp	r3, #0
 1539 001a 67D0     		beq	.L81
 1540              		.loc 1 1656 0 discriminator 2
 1541 001c FB79     		ldrb	r3, [r7, #7]	@ zero_extendqisi2
 1542 001e 082B     		cmp	r3, #8
 1543 0020 64D8     		bhi	.L81
1657:Generated_Source\PSoC5/USBFS.c ****     {
1658:Generated_Source\PSoC5/USBFS.c ****     #if (!USBFS_EP_MANAGEMENT_DMA_AUTO)
1659:Generated_Source\PSoC5/USBFS.c ****         /* Adjust requested length to available data. */
1660:Generated_Source\PSoC5/USBFS.c ****         length = (length > USBFS_GetEPCount(epNumber)) ? USBFS_GetEPCount(epNumber) : length;
 1544              		.loc 1 1660 0 is_stmt 1
 1545 0022 FB79     		ldrb	r3, [r7, #7]	@ zero_extendqisi2
 1546 0024 1846     		mov	r0, r3
 1547 0026 FFF7FEFF 		bl	USBFS_GetEPCount
 1548 002a 0346     		mov	r3, r0
 1549 002c 1A46     		mov	r2, r3
 1550 002e BB88     		ldrh	r3, [r7, #4]
 1551 0030 9342     		cmp	r3, r2
 1552 0032 05D9     		bls	.L82
 1553              		.loc 1 1660 0 is_stmt 0 discriminator 1
 1554 0034 FB79     		ldrb	r3, [r7, #7]	@ zero_extendqisi2
 1555 0036 1846     		mov	r0, r3
 1556 0038 FFF7FEFF 		bl	USBFS_GetEPCount
 1557 003c 0346     		mov	r3, r0
 1558 003e 00E0     		b	.L83
 1559              	.L82:
 1560              		.loc 1 1660 0 discriminator 2
 1561 0040 BB88     		ldrh	r3, [r7, #4]
 1562              	.L83:
 1563              		.loc 1 1660 0 discriminator 4
 1564 0042 BB80     		strh	r3, [r7, #4]	@ movhi
1661:Generated_Source\PSoC5/USBFS.c ****     #endif /* (!USBFS_EP_MANAGEMENT_DMA_AUTO) */
1662:Generated_Source\PSoC5/USBFS.c **** 
1663:Generated_Source\PSoC5/USBFS.c ****     #if (USBFS_EP_MANAGEMENT_MANUAL)
1664:Generated_Source\PSoC5/USBFS.c ****         {
1665:Generated_Source\PSoC5/USBFS.c ****             /* Copy data using arbiter data register. */
1666:Generated_Source\PSoC5/USBFS.c ****             uint16 i;
1667:Generated_Source\PSoC5/USBFS.c ****             for (i = 0u; i < length; ++i)
1668:Generated_Source\PSoC5/USBFS.c ****             {
1669:Generated_Source\PSoC5/USBFS.c ****                 pData[i] = (uint8) USBFS_ARB_EP_BASE.arbEp[epNumber].rwDr;
1670:Generated_Source\PSoC5/USBFS.c ****             }
1671:Generated_Source\PSoC5/USBFS.c ****         }
1672:Generated_Source\PSoC5/USBFS.c **** 
1673:Generated_Source\PSoC5/USBFS.c ****         /* Arm OUT endpoint after data has been copied from endpoint buffer. */
1674:Generated_Source\PSoC5/USBFS.c ****         USBFS_EnableOutEP(epNumber);
1675:Generated_Source\PSoC5/USBFS.c ****     #else
1676:Generated_Source\PSoC5/USBFS.c **** 
1677:Generated_Source\PSoC5/USBFS.c ****         #if (CY_PSOC3 || CY_PSOC5LP)
1678:Generated_Source\PSoC5/USBFS.c ****             /* Initialize DMA if it was not initialized. */
ARM GAS  C:\Users\CALEBC~1\AppData\Local\Temp\ccUZyw0h.s 			page 58


1679:Generated_Source\PSoC5/USBFS.c ****             if (DMA_INVALID_TD == USBFS_DmaTd[epNumber])
 1565              		.loc 1 1679 0 is_stmt 1 discriminator 4
 1566 0044 FB79     		ldrb	r3, [r7, #7]	@ zero_extendqisi2
 1567 0046 2D4A     		ldr	r2, .L87
 1568 0048 D35C     		ldrb	r3, [r2, r3]	@ zero_extendqisi2
 1569 004a FF2B     		cmp	r3, #255
 1570 004c 04D1     		bne	.L84
1680:Generated_Source\PSoC5/USBFS.c ****             {
1681:Generated_Source\PSoC5/USBFS.c ****                 USBFS_InitEP_DMA(epNumber, pData);
 1571              		.loc 1 1681 0
 1572 004e FB79     		ldrb	r3, [r7, #7]	@ zero_extendqisi2
 1573 0050 3968     		ldr	r1, [r7]
 1574 0052 1846     		mov	r0, r3
 1575 0054 FFF7FEFF 		bl	USBFS_InitEP_DMA
 1576              	.L84:
1682:Generated_Source\PSoC5/USBFS.c ****             }
1683:Generated_Source\PSoC5/USBFS.c ****         #endif /* (CY_PSOC3 || CY_PSOC5LP) */
1684:Generated_Source\PSoC5/USBFS.c **** 
1685:Generated_Source\PSoC5/USBFS.c ****         #if (USBFS_EP_MANAGEMENT_DMA_MANUAL)
1686:Generated_Source\PSoC5/USBFS.c ****         #if (CY_PSOC4)
1687:Generated_Source\PSoC5/USBFS.c ****         {
1688:Generated_Source\PSoC5/USBFS.c ****             uint32 channelNum = (uint32) USBFS_DmaChan[epNumber];
1689:Generated_Source\PSoC5/USBFS.c **** 
1690:Generated_Source\PSoC5/USBFS.c ****             /* Disable DMA channel: start configuration. */
1691:Generated_Source\PSoC5/USBFS.c ****             USBFS_CyDmaChDisable(channelNum);
1692:Generated_Source\PSoC5/USBFS.c **** 
1693:Generated_Source\PSoC5/USBFS.c ****             /* Configure source and destination. */
1694:Generated_Source\PSoC5/USBFS.c ****             USBFS_CyDmaSetSrcAddress(channelNum, USBFS_DMA_DESCR0, (void*) &USBFS_ARB_EP_BASE.arbEp
1695:Generated_Source\PSoC5/USBFS.c ****             USBFS_CyDmaSetDstAddress(channelNum, USBFS_DMA_DESCR0, (void*) pData);
1696:Generated_Source\PSoC5/USBFS.c **** 
1697:Generated_Source\PSoC5/USBFS.c ****             /* Configure DMA descriptor. */
1698:Generated_Source\PSoC5/USBFS.c ****             USBFS_CyDmaSetConfiguration(channelNum, USBFS_DMA_DESCR0, USBFS_DMA_COMMON_CFG | (uint1
1699:Generated_Source\PSoC5/USBFS.c ****                                                     CYDMA_BYTE | CYDMA_WORD_ELEMENT | CYDMA_INC_DST
1700:Generated_Source\PSoC5/USBFS.c **** 
1701:Generated_Source\PSoC5/USBFS.c ****             /* Validate descriptor to execute on following DMA request. */
1702:Generated_Source\PSoC5/USBFS.c ****             USBFS_CyDmaValidateDescriptor(channelNum, USBFS_DMA_DESCR0);
1703:Generated_Source\PSoC5/USBFS.c **** 
1704:Generated_Source\PSoC5/USBFS.c ****             /* Enable DMA channel: configuration complete. */
1705:Generated_Source\PSoC5/USBFS.c ****             USBFS_CyDmaChEnable(channelNum);
1706:Generated_Source\PSoC5/USBFS.c ****         }
1707:Generated_Source\PSoC5/USBFS.c ****         #else
1708:Generated_Source\PSoC5/USBFS.c ****             /* Configure DMA to transfer data. */
1709:Generated_Source\PSoC5/USBFS.c ****             (void) CyDmaChDisable(USBFS_DmaChan[epNumber]);
 1577              		.loc 1 1709 0
 1578 0058 FB79     		ldrb	r3, [r7, #7]	@ zero_extendqisi2
 1579 005a 294A     		ldr	r2, .L87+4
 1580 005c D35C     		ldrb	r3, [r2, r3]	@ zero_extendqisi2
 1581 005e 1846     		mov	r0, r3
 1582 0060 FFF7FEFF 		bl	CyDmaChDisable
1710:Generated_Source\PSoC5/USBFS.c ****             (void) CyDmaTdSetConfiguration(USBFS_DmaTd[epNumber], length, CY_DMA_DISABLE_TD, TD_TER
 1583              		.loc 1 1710 0
 1584 0064 FB79     		ldrb	r3, [r7, #7]	@ zero_extendqisi2
 1585 0066 254A     		ldr	r2, .L87
 1586 0068 D05C     		ldrb	r0, [r2, r3]	@ zero_extendqisi2
 1587 006a B988     		ldrh	r1, [r7, #4]
 1588 006c 1223     		movs	r3, #18
 1589 006e FE22     		movs	r2, #254
ARM GAS  C:\Users\CALEBC~1\AppData\Local\Temp\ccUZyw0h.s 			page 59


 1590 0070 FFF7FEFF 		bl	CyDmaTdSetConfiguration
1711:Generated_Source\PSoC5/USBFS.c ****             (void) CyDmaTdSetAddress(USBFS_DmaTd[epNumber], LO16((uint32) &USBFS_ARB_EP_BASE.arbEp[
 1591              		.loc 1 1711 0
 1592 0074 FB79     		ldrb	r3, [r7, #7]	@ zero_extendqisi2
 1593 0076 214A     		ldr	r2, .L87
 1594 0078 D05C     		ldrb	r0, [r2, r3]	@ zero_extendqisi2
 1595 007a FB79     		ldrb	r3, [r7, #7]	@ zero_extendqisi2
 1596 007c 1B01     		lsls	r3, r3, #4
 1597 007e 03F10802 		add	r2, r3, #8
 1598 0082 204B     		ldr	r3, .L87+8
 1599 0084 1344     		add	r3, r3, r2
 1600 0086 9BB2     		uxth	r3, r3
 1601 0088 3A68     		ldr	r2, [r7]
 1602 008a 92B2     		uxth	r2, r2
 1603 008c 1946     		mov	r1, r3
 1604 008e FFF7FEFF 		bl	CyDmaTdSetAddress
1712:Generated_Source\PSoC5/USBFS.c **** 
1713:Generated_Source\PSoC5/USBFS.c ****             /* Enable DMA channel. */
1714:Generated_Source\PSoC5/USBFS.c ****             (void) CyDmaChSetInitialTd(USBFS_DmaChan[epNumber], USBFS_DmaTd[epNumber]);
 1605              		.loc 1 1714 0
 1606 0092 FB79     		ldrb	r3, [r7, #7]	@ zero_extendqisi2
 1607 0094 1A4A     		ldr	r2, .L87+4
 1608 0096 D05C     		ldrb	r0, [r2, r3]	@ zero_extendqisi2
 1609 0098 FB79     		ldrb	r3, [r7, #7]	@ zero_extendqisi2
 1610 009a 184A     		ldr	r2, .L87
 1611 009c D35C     		ldrb	r3, [r2, r3]	@ zero_extendqisi2
 1612 009e 1946     		mov	r1, r3
 1613 00a0 FFF7FEFF 		bl	CyDmaChSetInitialTd
1715:Generated_Source\PSoC5/USBFS.c ****             (void) CyDmaChEnable(USBFS_DmaChan[epNumber], 1u);
 1614              		.loc 1 1715 0
 1615 00a4 FB79     		ldrb	r3, [r7, #7]	@ zero_extendqisi2
 1616 00a6 164A     		ldr	r2, .L87+4
 1617 00a8 D35C     		ldrb	r3, [r2, r3]	@ zero_extendqisi2
 1618 00aa 0121     		movs	r1, #1
 1619 00ac 1846     		mov	r0, r3
 1620 00ae FFF7FEFF 		bl	CyDmaChEnable
1716:Generated_Source\PSoC5/USBFS.c ****         #endif /* (CY_PSOC4) */
1717:Generated_Source\PSoC5/USBFS.c **** 
1718:Generated_Source\PSoC5/USBFS.c ****             /* Generate DMA request. */
1719:Generated_Source\PSoC5/USBFS.c ****             USBFS_ARB_EP_BASE.arbEp[epNumber].epCfg |=  (uint8)  USBFS_ARB_EPX_CFG_DMA_REQ;
 1621              		.loc 1 1719 0
 1622 00b2 1449     		ldr	r1, .L87+8
 1623 00b4 FB79     		ldrb	r3, [r7, #7]	@ zero_extendqisi2
 1624 00b6 1348     		ldr	r0, .L87+8
 1625 00b8 FA79     		ldrb	r2, [r7, #7]	@ zero_extendqisi2
 1626 00ba 1201     		lsls	r2, r2, #4
 1627 00bc 0244     		add	r2, r2, r0
 1628 00be 1278     		ldrb	r2, [r2]
 1629 00c0 D2B2     		uxtb	r2, r2
 1630 00c2 42F00202 		orr	r2, r2, #2
 1631 00c6 D2B2     		uxtb	r2, r2
 1632 00c8 1B01     		lsls	r3, r3, #4
 1633 00ca 0B44     		add	r3, r3, r1
 1634 00cc 1A70     		strb	r2, [r3]
1720:Generated_Source\PSoC5/USBFS.c ****             USBFS_ARB_EP_BASE.arbEp[epNumber].epCfg &=  (uint8) ~USBFS_ARB_EPX_CFG_DMA_REQ;
 1635              		.loc 1 1720 0
 1636 00ce 0D49     		ldr	r1, .L87+8
ARM GAS  C:\Users\CALEBC~1\AppData\Local\Temp\ccUZyw0h.s 			page 60


 1637 00d0 FB79     		ldrb	r3, [r7, #7]	@ zero_extendqisi2
 1638 00d2 0C48     		ldr	r0, .L87+8
 1639 00d4 FA79     		ldrb	r2, [r7, #7]	@ zero_extendqisi2
 1640 00d6 1201     		lsls	r2, r2, #4
 1641 00d8 0244     		add	r2, r2, r0
 1642 00da 1278     		ldrb	r2, [r2]
 1643 00dc D2B2     		uxtb	r2, r2
 1644 00de 22F00202 		bic	r2, r2, #2
 1645 00e2 D2B2     		uxtb	r2, r2
 1646 00e4 1B01     		lsls	r3, r3, #4
 1647 00e6 0B44     		add	r3, r3, r1
 1648 00e8 1A70     		strb	r2, [r3]
 1649 00ea 01E0     		b	.L85
 1650              	.L81:
1721:Generated_Source\PSoC5/USBFS.c **** 
1722:Generated_Source\PSoC5/USBFS.c ****             /* OUT endpoint has to be armed again by user when DMA transfers have been completed.
1723:Generated_Source\PSoC5/USBFS.c ****             * NO_EVENT_PENDING: notifies that data has been copied from endpoint buffer.
1724:Generated_Source\PSoC5/USBFS.c ****             */
1725:Generated_Source\PSoC5/USBFS.c **** 
1726:Generated_Source\PSoC5/USBFS.c ****         #endif /* (USBFS_EP_MANAGEMENT_DMA_MANUAL) */
1727:Generated_Source\PSoC5/USBFS.c **** 
1728:Generated_Source\PSoC5/USBFS.c ****         #if (USBFS_EP_MANAGEMENT_DMA_AUTO)
1729:Generated_Source\PSoC5/USBFS.c ****         #if (CY_PSOC4)
1730:Generated_Source\PSoC5/USBFS.c ****         {
1731:Generated_Source\PSoC5/USBFS.c ****             uint32 channelNum = (uint32) USBFS_DmaChan[epNumber];
1732:Generated_Source\PSoC5/USBFS.c ****             uint32 lengthDescr0, lengthDescr1;
1733:Generated_Source\PSoC5/USBFS.c **** 
1734:Generated_Source\PSoC5/USBFS.c ****             /* Get number of full bursts. */
1735:Generated_Source\PSoC5/USBFS.c ****             USBFS_DmaEpBurstCnt[epNumber] = (uint8) (length / USBFS_DMA_BYTES_PER_BURST);
1736:Generated_Source\PSoC5/USBFS.c **** 
1737:Generated_Source\PSoC5/USBFS.c ****             /* Get number of elements in the last burst. */
1738:Generated_Source\PSoC5/USBFS.c ****             USBFS_DmaEpLastBurstEl[epNumber] = (uint8) (length % USBFS_DMA_BYTES_PER_BURST);
1739:Generated_Source\PSoC5/USBFS.c **** 
1740:Generated_Source\PSoC5/USBFS.c ****             /* Get total number of bursts. */
1741:Generated_Source\PSoC5/USBFS.c ****             USBFS_DmaEpBurstCnt[epNumber] += (0u != USBFS_DmaEpLastBurstEl[epNumber]) ? 1u : 0u;
1742:Generated_Source\PSoC5/USBFS.c **** 
1743:Generated_Source\PSoC5/USBFS.c ****             /* Adjust number of the data elements transfered in last burst. */
1744:Generated_Source\PSoC5/USBFS.c ****             USBFS_DmaEpLastBurstEl[epNumber] = (0u != USBFS_DmaEpLastBurstEl[epNumber]) ?
1745:Generated_Source\PSoC5/USBFS.c ****                                                                   (USBFS_DmaEpLastBurstEl[epNumber]
1746:Generated_Source\PSoC5/USBFS.c ****                                                                   (USBFS_DMA_BYTES_PER_BURST - 1u);
1747:Generated_Source\PSoC5/USBFS.c **** 
1748:Generated_Source\PSoC5/USBFS.c ****             /* Get number of data elements to transfer for descriptor 0 and 1. */
1749:Generated_Source\PSoC5/USBFS.c ****             lengthDescr0 = (1u == USBFS_DmaEpBurstCnt[epNumber]) ? USBFS_DmaEpLastBurstEl[epNumber]
1750:Generated_Source\PSoC5/USBFS.c ****             lengthDescr1 = (2u == USBFS_DmaEpBurstCnt[epNumber]) ? USBFS_DmaEpLastBurstEl[epNumber]
1751:Generated_Source\PSoC5/USBFS.c **** 
1752:Generated_Source\PSoC5/USBFS.c ****             /* Mark if revert number of data elements in descriptor after transfer completion. */
1753:Generated_Source\PSoC5/USBFS.c ****             USBFS_DmaEpLastBurstEl[epNumber] |= (USBFS_DmaEpBurstCnt[epNumber] > 2u) ? USBFS_DMA_DE
1754:Generated_Source\PSoC5/USBFS.c **** 
1755:Generated_Source\PSoC5/USBFS.c ****             /* Mark last descriptor to be executed. */
1756:Generated_Source\PSoC5/USBFS.c ****             USBFS_DmaEpLastBurstEl[epNumber] |= (0u != (USBFS_DmaEpBurstCnt[epNumber] & 0x1u)) ?
1757:Generated_Source\PSoC5/USBFS.c ****                                                                     USBFS_DMA_DESCR0_MASK : USBFS_D
1758:Generated_Source\PSoC5/USBFS.c **** 
1759:Generated_Source\PSoC5/USBFS.c ****             /* Store address of buffer and burst counter for endpoint. */
1760:Generated_Source\PSoC5/USBFS.c ****             USBFS_DmaEpBufferAddrBackup[epNumber] = (uint32) pData;
1761:Generated_Source\PSoC5/USBFS.c ****             USBFS_DmaEpBurstCntBackup[epNumber]   = USBFS_DmaEpBurstCnt[epNumber];
1762:Generated_Source\PSoC5/USBFS.c **** 
1763:Generated_Source\PSoC5/USBFS.c ****             /* Adjust burst counter taking to account: 2 valid descriptors and interrupt trigger af
ARM GAS  C:\Users\CALEBC~1\AppData\Local\Temp\ccUZyw0h.s 			page 61


1764:Generated_Source\PSoC5/USBFS.c ****             USBFS_DmaEpBurstCnt[epNumber] = USBFS_DMA_GET_BURST_CNT(USBFS_DmaEpBurstCnt[epNumber]);
1765:Generated_Source\PSoC5/USBFS.c **** 
1766:Generated_Source\PSoC5/USBFS.c ****             /* Disable DMA channel: start configuration. */
1767:Generated_Source\PSoC5/USBFS.c ****             USBFS_CyDmaChDisable(channelNum);
1768:Generated_Source\PSoC5/USBFS.c **** 
1769:Generated_Source\PSoC5/USBFS.c ****             /* Set destination address. */
1770:Generated_Source\PSoC5/USBFS.c ****             USBFS_CyDmaSetSrcAddress(channelNum, USBFS_DMA_DESCR0, (void*) &USBFS_ARB_EP_BASE.arbEp
1771:Generated_Source\PSoC5/USBFS.c ****             USBFS_CyDmaSetSrcAddress(channelNum, USBFS_DMA_DESCR1, (void*) &USBFS_ARB_EP_BASE.arbEp
1772:Generated_Source\PSoC5/USBFS.c **** 
1773:Generated_Source\PSoC5/USBFS.c ****             USBFS_CyDmaSetDstAddress(channelNum, USBFS_DMA_DESCR0, (void*) ((uint32) pData));
1774:Generated_Source\PSoC5/USBFS.c ****             USBFS_CyDmaSetDstAddress(channelNum, USBFS_DMA_DESCR1, (void*) ((uint32) pData + USBFS_
1775:Generated_Source\PSoC5/USBFS.c **** 
1776:Generated_Source\PSoC5/USBFS.c ****             /* Configure DMA descriptor. */
1777:Generated_Source\PSoC5/USBFS.c ****             USBFS_CyDmaSetConfiguration(channelNum, USBFS_DMA_DESCR0, USBFS_DMA_COMMON_CFG  | lengt
1778:Generated_Source\PSoC5/USBFS.c ****                                                     CYDMA_BYTE | CYDMA_WORD_ELEMENT | CYDMA_INC_DST
1779:Generated_Source\PSoC5/USBFS.c **** 
1780:Generated_Source\PSoC5/USBFS.c ****             /* Configure DMA descriptor. */
1781:Generated_Source\PSoC5/USBFS.c ****             USBFS_CyDmaSetConfiguration(channelNum, USBFS_DMA_DESCR1, USBFS_DMA_COMMON_CFG  | lengt
1782:Generated_Source\PSoC5/USBFS.c ****                                                     CYDMA_BYTE | CYDMA_WORD_ELEMENT | CYDMA_INC_DST
1783:Generated_Source\PSoC5/USBFS.c **** 
1784:Generated_Source\PSoC5/USBFS.c ****             /* Enable interrupt from DMA channel. */
1785:Generated_Source\PSoC5/USBFS.c ****             USBFS_CyDmaSetInterruptMask(channelNum);
1786:Generated_Source\PSoC5/USBFS.c **** 
1787:Generated_Source\PSoC5/USBFS.c ****             /* Validate DMA descriptor 0 and 1. */
1788:Generated_Source\PSoC5/USBFS.c ****             USBFS_CyDmaValidateDescriptor(channelNum, USBFS_DMA_DESCR0);
1789:Generated_Source\PSoC5/USBFS.c **** 
1790:Generated_Source\PSoC5/USBFS.c ****             if (USBFS_DmaEpBurstCntBackup[epNumber] > 1u)
1791:Generated_Source\PSoC5/USBFS.c ****             {
1792:Generated_Source\PSoC5/USBFS.c ****                 USBFS_CyDmaValidateDescriptor(channelNum, USBFS_DMA_DESCR1);
1793:Generated_Source\PSoC5/USBFS.c ****             }
1794:Generated_Source\PSoC5/USBFS.c **** 
1795:Generated_Source\PSoC5/USBFS.c ****             /* Enable DMA channel: configuration complete. */
1796:Generated_Source\PSoC5/USBFS.c ****             USBFS_CyDmaChEnable(channelNum);
1797:Generated_Source\PSoC5/USBFS.c ****         }
1798:Generated_Source\PSoC5/USBFS.c ****         #else
1799:Generated_Source\PSoC5/USBFS.c ****             (void) CyDmaChDisable(USBFS_DmaChan[epNumber]);
1800:Generated_Source\PSoC5/USBFS.c ****             (void) CyDmaTdSetConfiguration(USBFS_DmaTd[epNumber], length,  USBFS_DmaTd[epNumber], T
1801:Generated_Source\PSoC5/USBFS.c ****             (void) CyDmaTdSetAddress(USBFS_DmaTd[epNumber], LO16((uint32) &USBFS_ARB_EP_BASE.arbEp[
1802:Generated_Source\PSoC5/USBFS.c **** 
1803:Generated_Source\PSoC5/USBFS.c ****             /* Clear Any potential pending DMA requests before starting DMA channel to transfer dat
1804:Generated_Source\PSoC5/USBFS.c ****             (void) CyDmaClearPendingDrq(USBFS_DmaChan[epNumber]);
1805:Generated_Source\PSoC5/USBFS.c **** 
1806:Generated_Source\PSoC5/USBFS.c ****             /* Enable DMA channel. */
1807:Generated_Source\PSoC5/USBFS.c ****             (void) CyDmaChSetInitialTd(USBFS_DmaChan[epNumber], USBFS_DmaTd[epNumber]);
1808:Generated_Source\PSoC5/USBFS.c ****             (void) CyDmaChEnable(USBFS_DmaChan[epNumber], 1u);
1809:Generated_Source\PSoC5/USBFS.c ****         #endif /* (CY_PSOC4) */
1810:Generated_Source\PSoC5/USBFS.c **** 
1811:Generated_Source\PSoC5/USBFS.c ****             /* OUT endpoint has to be armed again by user when DMA transfers have been completed.
1812:Generated_Source\PSoC5/USBFS.c ****             * NO_EVENT_PENDING: notifies that data has been copied from endpoint buffer.
1813:Generated_Source\PSoC5/USBFS.c ****             */
1814:Generated_Source\PSoC5/USBFS.c **** 
1815:Generated_Source\PSoC5/USBFS.c ****         #endif /* (USBFS_EP_MANAGEMENT_DMA_AUTO) */
1816:Generated_Source\PSoC5/USBFS.c ****     #endif /* (USBFS_EP_MANAGEMENT_MANUAL) */
1817:Generated_Source\PSoC5/USBFS.c ****     }
1818:Generated_Source\PSoC5/USBFS.c ****     else
1819:Generated_Source\PSoC5/USBFS.c ****     {
1820:Generated_Source\PSoC5/USBFS.c ****         length = 0u;
ARM GAS  C:\Users\CALEBC~1\AppData\Local\Temp\ccUZyw0h.s 			page 62


 1651              		.loc 1 1820 0
 1652 00ec 0023     		movs	r3, #0
 1653 00ee BB80     		strh	r3, [r7, #4]	@ movhi
 1654              	.L85:
1821:Generated_Source\PSoC5/USBFS.c ****     }
1822:Generated_Source\PSoC5/USBFS.c **** 
1823:Generated_Source\PSoC5/USBFS.c ****     return (length);
 1655              		.loc 1 1823 0
 1656 00f0 BB88     		ldrh	r3, [r7, #4]
1824:Generated_Source\PSoC5/USBFS.c **** }
 1657              		.loc 1 1824 0
 1658 00f2 1846     		mov	r0, r3
 1659 00f4 0837     		adds	r7, r7, #8
 1660              		.cfi_def_cfa_offset 8
 1661 00f6 BD46     		mov	sp, r7
 1662              		.cfi_def_cfa_register 13
 1663              		@ sp needed
 1664 00f8 80BD     		pop	{r7, pc}
 1665              	.L88:
 1666 00fa 00BF     		.align	2
 1667              	.L87:
 1668 00fc 00000000 		.word	USBFS_DmaTd
 1669 0100 00000000 		.word	USBFS_DmaChan
 1670 0104 70600040 		.word	1073766512
 1671              		.cfi_endproc
 1672              	.LFE14:
 1673              		.size	USBFS_ReadOutEP, .-USBFS_ReadOutEP
 1674              		.section	.text.USBFS_EnableOutEP,"ax",%progbits
 1675              		.align	2
 1676              		.global	USBFS_EnableOutEP
 1677              		.thumb
 1678              		.thumb_func
 1679              		.type	USBFS_EnableOutEP, %function
 1680              	USBFS_EnableOutEP:
 1681              	.LFB15:
1825:Generated_Source\PSoC5/USBFS.c **** 
1826:Generated_Source\PSoC5/USBFS.c **** 
1827:Generated_Source\PSoC5/USBFS.c **** #if (USBFS_16BITS_EP_ACCESS_ENABLE)
1828:Generated_Source\PSoC5/USBFS.c **** /*******************************************************************************
1829:Generated_Source\PSoC5/USBFS.c **** * Function Name: USBFS_LoadInEP16
1830:Generated_Source\PSoC5/USBFS.c **** ****************************************************************************//**
1831:Generated_Source\PSoC5/USBFS.c **** *
1832:Generated_Source\PSoC5/USBFS.c **** *  This function performs different functionality depending on the Component’s
1833:Generated_Source\PSoC5/USBFS.c **** *  configured Endpoint Buffer Management. This parameter is defined in
1834:Generated_Source\PSoC5/USBFS.c **** *  the Descriptor Root in Component Configure window.
1835:Generated_Source\PSoC5/USBFS.c **** *
1836:Generated_Source\PSoC5/USBFS.c **** *  *Manual (Static/Dynamic Allocation):*
1837:Generated_Source\PSoC5/USBFS.c **** *  This function loads and enables the specified USB data endpoint for an IN
1838:Generated_Source\PSoC5/USBFS.c **** *  data transfer.
1839:Generated_Source\PSoC5/USBFS.c **** *
1840:Generated_Source\PSoC5/USBFS.c **** *  *DMA with Manual Buffer Management:*
1841:Generated_Source\PSoC5/USBFS.c **** *  Configures DMA for a data transfer from system RAM to endpoint buffer.
1842:Generated_Source\PSoC5/USBFS.c **** *  Generates request for a transfer.
1843:Generated_Source\PSoC5/USBFS.c **** *
1844:Generated_Source\PSoC5/USBFS.c **** *  *DMA with Automatic Buffer Management:*
1845:Generated_Source\PSoC5/USBFS.c **** *  Configures DMA. This is required only once, so it is done only when parameter
1846:Generated_Source\PSoC5/USBFS.c **** *  pData is not NULL. When the pData pointer is NULL, the function skips this
ARM GAS  C:\Users\CALEBC~1\AppData\Local\Temp\ccUZyw0h.s 			page 63


1847:Generated_Source\PSoC5/USBFS.c **** *  task. Sets Data ready status: This generates the first DMA transfer and
1848:Generated_Source\PSoC5/USBFS.c **** *  prepares data in endpoint buffer.
1849:Generated_Source\PSoC5/USBFS.c **** *
1850:Generated_Source\PSoC5/USBFS.c **** *  \param epNumber Contains the data endpoint number.
1851:Generated_Source\PSoC5/USBFS.c **** *        Valid values are between 1 and 8.
1852:Generated_Source\PSoC5/USBFS.c **** *  \param *pData A pointer to a data array from which the data for the endpoint
1853:Generated_Source\PSoC5/USBFS.c **** *        space is loaded. It shall be ensured that this pointer address is even
1854:Generated_Source\PSoC5/USBFS.c **** *        to ensure the 16-bit transfer is aligned to even address. Else, a hard
1855:Generated_Source\PSoC5/USBFS.c **** *        fault condition can occur.
1856:Generated_Source\PSoC5/USBFS.c **** *  \param length The number of bytes to transfer from the array and then send as
1857:Generated_Source\PSoC5/USBFS.c **** *        a result of an IN request. Valid values are between 0 and 512 (1023 for
1858:Generated_Source\PSoC5/USBFS.c **** *        DMA with Automatic Buffer Management mode). The value 512 is applicable
1859:Generated_Source\PSoC5/USBFS.c **** *        if only one endpoint is used.
1860:Generated_Source\PSoC5/USBFS.c **** *
1861:Generated_Source\PSoC5/USBFS.c **** * \reentrant
1862:Generated_Source\PSoC5/USBFS.c **** *  No.
1863:Generated_Source\PSoC5/USBFS.c **** *
1864:Generated_Source\PSoC5/USBFS.c **** *******************************************************************************/
1865:Generated_Source\PSoC5/USBFS.c **** void USBFS_LoadInEP16(uint8 epNumber, const uint8 pData[], uint16 length)
1866:Generated_Source\PSoC5/USBFS.c **** {
1867:Generated_Source\PSoC5/USBFS.c ****     /* Check array alignment on half-word boundary. */
1868:Generated_Source\PSoC5/USBFS.c ****     CYASSERT(0u == (((uint32) pData) & 0x01u));
1869:Generated_Source\PSoC5/USBFS.c **** 
1870:Generated_Source\PSoC5/USBFS.c ****     if ((epNumber > USBFS_EP0) && (epNumber < USBFS_MAX_EP))
1871:Generated_Source\PSoC5/USBFS.c ****     {
1872:Generated_Source\PSoC5/USBFS.c ****     #if (!USBFS_EP_MANAGEMENT_DMA_AUTO)
1873:Generated_Source\PSoC5/USBFS.c ****         /* Limit length to available buffer USB IP buffer size. */
1874:Generated_Source\PSoC5/USBFS.c ****         if (length > (USBFS_EPX_DATA_BUF_MAX - USBFS_EP[epNumber].buffOffset))
1875:Generated_Source\PSoC5/USBFS.c ****         {
1876:Generated_Source\PSoC5/USBFS.c ****             length = USBFS_EPX_DATA_BUF_MAX - USBFS_EP[epNumber].buffOffset;
1877:Generated_Source\PSoC5/USBFS.c ****         }
1878:Generated_Source\PSoC5/USBFS.c ****     #endif /* (!USBFS_EP_MANAGEMENT_DMA_AUTO) */
1879:Generated_Source\PSoC5/USBFS.c **** 
1880:Generated_Source\PSoC5/USBFS.c ****         /* Set count and data toggle. */
1881:Generated_Source\PSoC5/USBFS.c ****         USBFS_SIE_EP_BASE.sieEp[epNumber].epCnt0 = (uint32) HI8(length) | USBFS_EP[epNumber].epTogg
1882:Generated_Source\PSoC5/USBFS.c ****         USBFS_SIE_EP_BASE.sieEp[epNumber].epCnt1 = (uint32) LO8(length);
1883:Generated_Source\PSoC5/USBFS.c **** 
1884:Generated_Source\PSoC5/USBFS.c ****         /* Adjust requested length: 2 bytes are handled at one data register access. */
1885:Generated_Source\PSoC5/USBFS.c ****         length += (length & 0x01u);
1886:Generated_Source\PSoC5/USBFS.c **** 
1887:Generated_Source\PSoC5/USBFS.c ****     #if (USBFS_EP_MANAGEMENT_MANUAL)
1888:Generated_Source\PSoC5/USBFS.c ****         if (NULL != pData)
1889:Generated_Source\PSoC5/USBFS.c ****         {
1890:Generated_Source\PSoC5/USBFS.c ****             /* Convert uint8 array to uint16. */
1891:Generated_Source\PSoC5/USBFS.c ****             const uint16 *dataBuf = (uint16 *) pData;
1892:Generated_Source\PSoC5/USBFS.c **** 
1893:Generated_Source\PSoC5/USBFS.c ****             /* Copy data using 16-bits arbiter data register. */
1894:Generated_Source\PSoC5/USBFS.c ****             uint16 i;
1895:Generated_Source\PSoC5/USBFS.c ****             for (i = 0u; i < (length >> 1u); ++i)
1896:Generated_Source\PSoC5/USBFS.c ****             {
1897:Generated_Source\PSoC5/USBFS.c ****                 USBFS_ARB_EP16_BASE.arbEp[epNumber].rwDr16 = dataBuf[i];
1898:Generated_Source\PSoC5/USBFS.c ****             }
1899:Generated_Source\PSoC5/USBFS.c ****         }
1900:Generated_Source\PSoC5/USBFS.c **** 
1901:Generated_Source\PSoC5/USBFS.c ****         /* IN endpoint buffer is full - read to be read. */
1902:Generated_Source\PSoC5/USBFS.c ****         USBFS_EP[epNumber].apiEpState = USBFS_NO_EVENT_PENDING;
1903:Generated_Source\PSoC5/USBFS.c **** 
ARM GAS  C:\Users\CALEBC~1\AppData\Local\Temp\ccUZyw0h.s 			page 64


1904:Generated_Source\PSoC5/USBFS.c ****         /* Arm IN endpoint. */
1905:Generated_Source\PSoC5/USBFS.c ****         USBFS_SIE_EP_BASE.sieEp[epNumber].epCr0 = USBFS_EP[epNumber].epMode;
1906:Generated_Source\PSoC5/USBFS.c **** 
1907:Generated_Source\PSoC5/USBFS.c ****     #else
1908:Generated_Source\PSoC5/USBFS.c **** 
1909:Generated_Source\PSoC5/USBFS.c ****         #if (USBFS_EP_MANAGEMENT_DMA_MANUAL)
1910:Generated_Source\PSoC5/USBFS.c ****             /* IN endpoint buffer will be fully loaded by DMA shortly. */
1911:Generated_Source\PSoC5/USBFS.c ****             USBFS_EP[epNumber].apiEpState = USBFS_NO_EVENT_PENDING;
1912:Generated_Source\PSoC5/USBFS.c **** 
1913:Generated_Source\PSoC5/USBFS.c ****             if ((pData != NULL) && (length > 0u))
1914:Generated_Source\PSoC5/USBFS.c ****             {
1915:Generated_Source\PSoC5/USBFS.c ****                 uint32 channelNum = (uint32) USBFS_DmaChan[epNumber];
1916:Generated_Source\PSoC5/USBFS.c **** 
1917:Generated_Source\PSoC5/USBFS.c ****                 /* Disable DMA channel: start configuration. */
1918:Generated_Source\PSoC5/USBFS.c ****                 USBFS_CyDmaChDisable(channelNum);
1919:Generated_Source\PSoC5/USBFS.c **** 
1920:Generated_Source\PSoC5/USBFS.c ****                 /* Configure source and destination. */
1921:Generated_Source\PSoC5/USBFS.c ****                 USBFS_CyDmaSetSrcAddress(channelNum, USBFS_DMA_DESCR0, (void*) pData);
1922:Generated_Source\PSoC5/USBFS.c ****                 USBFS_CyDmaSetDstAddress(channelNum, USBFS_DMA_DESCR0, (void*) &USBFS_ARB_EP16_BASE
1923:Generated_Source\PSoC5/USBFS.c **** 
1924:Generated_Source\PSoC5/USBFS.c ****                 /* Configure DMA descriptor. */
1925:Generated_Source\PSoC5/USBFS.c ****                 length = (length >> 1u) - 1u;
1926:Generated_Source\PSoC5/USBFS.c ****                 USBFS_CyDmaSetConfiguration(channelNum, USBFS_DMA_DESCR0, USBFS_DMA_COMMON_CFG | le
1927:Generated_Source\PSoC5/USBFS.c ****                                                         CYDMA_HALFWORD | CYDMA_ELEMENT_WORD | CYDMA
1928:Generated_Source\PSoC5/USBFS.c **** 
1929:Generated_Source\PSoC5/USBFS.c ****                 /* Validate descriptor to execute on following DMA request. */
1930:Generated_Source\PSoC5/USBFS.c ****                 USBFS_CyDmaValidateDescriptor(channelNum, USBFS_DMA_DESCR0);
1931:Generated_Source\PSoC5/USBFS.c **** 
1932:Generated_Source\PSoC5/USBFS.c ****                 /* Enable DMA channel: configuration complete. */
1933:Generated_Source\PSoC5/USBFS.c ****                 USBFS_CyDmaChEnable(channelNum);
1934:Generated_Source\PSoC5/USBFS.c **** 
1935:Generated_Source\PSoC5/USBFS.c ****                 /* Generate DMA request. */
1936:Generated_Source\PSoC5/USBFS.c ****                 USBFS_ARB_EP_BASE.arbEp[epNumber].epCfg |=  (uint32)  USBFS_ARB_EPX_CFG_DMA_REQ;
1937:Generated_Source\PSoC5/USBFS.c ****                 USBFS_ARB_EP_BASE.arbEp[epNumber].epCfg &=  (uint32) ~USBFS_ARB_EPX_CFG_DMA_REQ;
1938:Generated_Source\PSoC5/USBFS.c **** 
1939:Generated_Source\PSoC5/USBFS.c ****                 /* IN endpoint will be armed in ARB_ISR(source: IN_BUF_FULL) after first DMA transf
1940:Generated_Source\PSoC5/USBFS.c ****             }
1941:Generated_Source\PSoC5/USBFS.c ****             else
1942:Generated_Source\PSoC5/USBFS.c ****             {
1943:Generated_Source\PSoC5/USBFS.c ****                 /* When zero-length packet: arm IN endpoint directly. */
1944:Generated_Source\PSoC5/USBFS.c ****                 USBFS_SIE_EP_BASE.sieEp[epNumber].epCr0 = USBFS_EP[epNumber].epMode;
1945:Generated_Source\PSoC5/USBFS.c ****             }
1946:Generated_Source\PSoC5/USBFS.c ****         #endif /* (USBFS_EP_MANAGEMENT_DMA_MANUAL) */
1947:Generated_Source\PSoC5/USBFS.c **** 
1948:Generated_Source\PSoC5/USBFS.c ****         #if (USBFS_EP_MANAGEMENT_DMA_AUTO)
1949:Generated_Source\PSoC5/USBFS.c ****             if (pData != NULL)
1950:Generated_Source\PSoC5/USBFS.c ****             {
1951:Generated_Source\PSoC5/USBFS.c ****                 uint32 channelNum = (uint32) USBFS_DmaChan[epNumber];
1952:Generated_Source\PSoC5/USBFS.c **** 
1953:Generated_Source\PSoC5/USBFS.c ****                 /* Store address of buffer. */
1954:Generated_Source\PSoC5/USBFS.c ****                 USBFS_DmaEpBufferAddrBackup[epNumber] = (uint32) pData;
1955:Generated_Source\PSoC5/USBFS.c **** 
1956:Generated_Source\PSoC5/USBFS.c ****                 /* Disable DMA channel: start configuration. */
1957:Generated_Source\PSoC5/USBFS.c ****                 USBFS_CyDmaChDisable(channelNum);
1958:Generated_Source\PSoC5/USBFS.c **** 
1959:Generated_Source\PSoC5/USBFS.c ****                 /* Set destination address. */
1960:Generated_Source\PSoC5/USBFS.c ****                 USBFS_CyDmaSetDstAddress(channelNum, USBFS_DMA_DESCR0, (void*) &USBFS_ARB_EP16_BASE
ARM GAS  C:\Users\CALEBC~1\AppData\Local\Temp\ccUZyw0h.s 			page 65


1961:Generated_Source\PSoC5/USBFS.c ****                 USBFS_CyDmaSetDstAddress(channelNum, USBFS_DMA_DESCR1, (void*) &USBFS_ARB_EP16_BASE
1962:Generated_Source\PSoC5/USBFS.c **** 
1963:Generated_Source\PSoC5/USBFS.c ****                 /* Configure DMA descriptor. */
1964:Generated_Source\PSoC5/USBFS.c ****                 USBFS_CyDmaSetConfiguration(channelNum, USBFS_DMA_DESCR0, USBFS_DMA_COMMON_CFG  |
1965:Generated_Source\PSoC5/USBFS.c ****                                                         CYDMA_HALFWORD | CYDMA_ELEMENT_WORD | CYDMA
1966:Generated_Source\PSoC5/USBFS.c **** 
1967:Generated_Source\PSoC5/USBFS.c ****                 /* Configure DMA descriptor. */
1968:Generated_Source\PSoC5/USBFS.c ****                 USBFS_CyDmaSetConfiguration(channelNum, USBFS_DMA_DESCR1, USBFS_DMA_COMMON_CFG  |
1969:Generated_Source\PSoC5/USBFS.c ****                                                         CYDMA_HALFWORD | CYDMA_ELEMENT_WORD | CYDMA
1970:Generated_Source\PSoC5/USBFS.c **** 
1971:Generated_Source\PSoC5/USBFS.c ****                 /* Enable interrupt from DMA channel. */
1972:Generated_Source\PSoC5/USBFS.c ****                 USBFS_CyDmaSetInterruptMask(channelNum);
1973:Generated_Source\PSoC5/USBFS.c **** 
1974:Generated_Source\PSoC5/USBFS.c ****                 /* Enable DMA channel: configuration complete. */
1975:Generated_Source\PSoC5/USBFS.c ****                 USBFS_CyDmaChEnable(channelNum);
1976:Generated_Source\PSoC5/USBFS.c ****             }
1977:Generated_Source\PSoC5/USBFS.c ****             else
1978:Generated_Source\PSoC5/USBFS.c ****             {
1979:Generated_Source\PSoC5/USBFS.c ****                 /* IN endpoint buffer (32 bytes) will shortly be preloaded by DMA. */
1980:Generated_Source\PSoC5/USBFS.c ****                 USBFS_EP[epNumber].apiEpState = USBFS_NO_EVENT_PENDING;
1981:Generated_Source\PSoC5/USBFS.c **** 
1982:Generated_Source\PSoC5/USBFS.c ****                 if (length > 0u)
1983:Generated_Source\PSoC5/USBFS.c ****                 {
1984:Generated_Source\PSoC5/USBFS.c ****                     uint32 lengthDescr0, lengthDescr1;
1985:Generated_Source\PSoC5/USBFS.c ****                     uint32 channelNum = (uint32) USBFS_DmaChan[epNumber];
1986:Generated_Source\PSoC5/USBFS.c **** 
1987:Generated_Source\PSoC5/USBFS.c ****                     /* Get number of full bursts. */
1988:Generated_Source\PSoC5/USBFS.c ****                     USBFS_DmaEpBurstCnt[epNumber] = (uint8) (length / USBFS_DMA_BYTES_PER_BURST);
1989:Generated_Source\PSoC5/USBFS.c **** 
1990:Generated_Source\PSoC5/USBFS.c ****                     /* Get number of elements in the last burst. */
1991:Generated_Source\PSoC5/USBFS.c ****                     USBFS_DmaEpLastBurstEl[epNumber] = (uint8) (length % USBFS_DMA_BYTES_PER_BURST)
1992:Generated_Source\PSoC5/USBFS.c **** 
1993:Generated_Source\PSoC5/USBFS.c ****                     /* Get total number of bursts. */
1994:Generated_Source\PSoC5/USBFS.c ****                     USBFS_DmaEpBurstCnt[epNumber] += (0u != USBFS_DmaEpLastBurstEl[epNumber]) ? 1u 
1995:Generated_Source\PSoC5/USBFS.c **** 
1996:Generated_Source\PSoC5/USBFS.c ****                     /* Adjust number of data elements transferred in last burst. */
1997:Generated_Source\PSoC5/USBFS.c ****                     USBFS_DmaEpLastBurstEl[epNumber] = (0u != USBFS_DmaEpLastBurstEl[epNumber]) ?
1998:Generated_Source\PSoC5/USBFS.c ****                                                                           ((USBFS_DmaEpLastBurstEl[
1999:Generated_Source\PSoC5/USBFS.c ****                                                                            (USBFS_DMA_HALFWORDS_PER
2000:Generated_Source\PSoC5/USBFS.c **** 
2001:Generated_Source\PSoC5/USBFS.c ****                     /* Get number of data elements to transfer for descriptor 0 and 1. */
2002:Generated_Source\PSoC5/USBFS.c ****                     lengthDescr0 = (1u == USBFS_DmaEpBurstCnt[epNumber]) ? USBFS_DmaEpLastBurstEl[e
2003:Generated_Source\PSoC5/USBFS.c ****                     lengthDescr1 = (2u == USBFS_DmaEpBurstCnt[epNumber]) ? USBFS_DmaEpLastBurstEl[e
2004:Generated_Source\PSoC5/USBFS.c **** 
2005:Generated_Source\PSoC5/USBFS.c ****                     /* Mark which descriptor is last one to execute. */
2006:Generated_Source\PSoC5/USBFS.c ****                     USBFS_DmaEpLastBurstEl[epNumber] |= (0u != (USBFS_DmaEpBurstCnt[epNumber] & 0x1
2007:Generated_Source\PSoC5/USBFS.c ****                                                                             USBFS_DMA_DESCR0_MASK :
2008:Generated_Source\PSoC5/USBFS.c **** 
2009:Generated_Source\PSoC5/USBFS.c ****                     /* Restore DMA settings for current transfer. */
2010:Generated_Source\PSoC5/USBFS.c ****                     USBFS_CyDmaChDisable(channelNum);
2011:Generated_Source\PSoC5/USBFS.c **** 
2012:Generated_Source\PSoC5/USBFS.c ****                     /* Restore destination address for input endpoint. */
2013:Generated_Source\PSoC5/USBFS.c ****                     USBFS_CyDmaSetSrcAddress(channelNum, USBFS_DMA_DESCR0, (void*) ((uint32) USBFS_
2014:Generated_Source\PSoC5/USBFS.c ****                     USBFS_CyDmaSetSrcAddress(channelNum, USBFS_DMA_DESCR1, (void*) ((uint32) USBFS_
2015:Generated_Source\PSoC5/USBFS.c ****                                                                                                    
2016:Generated_Source\PSoC5/USBFS.c **** 
2017:Generated_Source\PSoC5/USBFS.c ****                     /* Set number of elements to transfer. */
ARM GAS  C:\Users\CALEBC~1\AppData\Local\Temp\ccUZyw0h.s 			page 66


2018:Generated_Source\PSoC5/USBFS.c ****                     USBFS_CyDmaSetNumDataElements(channelNum, USBFS_DMA_DESCR0, lengthDescr0);
2019:Generated_Source\PSoC5/USBFS.c ****                     USBFS_CyDmaSetNumDataElements(channelNum, USBFS_DMA_DESCR1, lengthDescr1);
2020:Generated_Source\PSoC5/USBFS.c **** 
2021:Generated_Source\PSoC5/USBFS.c ****                     /* Validate descriptor 0 and command to start with it. */
2022:Generated_Source\PSoC5/USBFS.c ****                     USBFS_CyDmaValidateDescriptor(channelNum, USBFS_DMA_DESCR0);
2023:Generated_Source\PSoC5/USBFS.c ****                     USBFS_CyDmaSetDescriptor0Next(channelNum);
2024:Generated_Source\PSoC5/USBFS.c **** 
2025:Generated_Source\PSoC5/USBFS.c ****                     /* Validate descriptor 1. */
2026:Generated_Source\PSoC5/USBFS.c ****                     if (USBFS_DmaEpBurstCnt[epNumber] > 1u)
2027:Generated_Source\PSoC5/USBFS.c ****                     {
2028:Generated_Source\PSoC5/USBFS.c ****                         USBFS_CyDmaValidateDescriptor(channelNum, USBFS_DMA_DESCR1);
2029:Generated_Source\PSoC5/USBFS.c ****                     }
2030:Generated_Source\PSoC5/USBFS.c **** 
2031:Generated_Source\PSoC5/USBFS.c ****                     /* Adjust burst counter taking to account: 2 valid descriptors and interrupt tr
2032:Generated_Source\PSoC5/USBFS.c ****                     USBFS_DmaEpBurstCnt[epNumber] = USBFS_DMA_GET_BURST_CNT(USBFS_DmaEpBurstCnt[epN
2033:Generated_Source\PSoC5/USBFS.c **** 
2034:Generated_Source\PSoC5/USBFS.c ****                     /* Enable DMA channel: configuration complete. */
2035:Generated_Source\PSoC5/USBFS.c ****                     USBFS_CyDmaChEnable(channelNum);
2036:Generated_Source\PSoC5/USBFS.c **** 
2037:Generated_Source\PSoC5/USBFS.c ****                 #if !defined (USBFS_MANUAL_IN_EP_ARM)
2038:Generated_Source\PSoC5/USBFS.c ****                     /* Set IN data ready to generate DMA request to load data into endpoint buffer.
2039:Generated_Source\PSoC5/USBFS.c ****                     USBFS_ARB_EP_BASE.arbEp[epNumber].epCfg |= USBFS_ARB_EPX_CFG_IN_DATA_RDY;
2040:Generated_Source\PSoC5/USBFS.c ****                 #endif  /* (USBFS_MANUAL_IN_EP_ARM) */
2041:Generated_Source\PSoC5/USBFS.c **** 
2042:Generated_Source\PSoC5/USBFS.c ****                     /* IN endpoint will be armed in ARB_ISR(source: IN_BUF_FULL) after first DMA tr
2043:Generated_Source\PSoC5/USBFS.c ****                 }
2044:Generated_Source\PSoC5/USBFS.c ****                 else
2045:Generated_Source\PSoC5/USBFS.c ****                 {
2046:Generated_Source\PSoC5/USBFS.c ****                     /* When zero-length packet: arm IN endpoint directly. */
2047:Generated_Source\PSoC5/USBFS.c ****                     USBFS_SIE_EP_BASE.sieEp[epNumber].epCr0 = USBFS_EP[epNumber].epMode;
2048:Generated_Source\PSoC5/USBFS.c ****                 }
2049:Generated_Source\PSoC5/USBFS.c ****             }
2050:Generated_Source\PSoC5/USBFS.c ****         #endif /* (USBFS_EP_MANAGEMENT_DMA_AUTO) */
2051:Generated_Source\PSoC5/USBFS.c ****     #endif /* (USBFS_EP_MANAGEMENT_MANUAL) */
2052:Generated_Source\PSoC5/USBFS.c ****     }
2053:Generated_Source\PSoC5/USBFS.c **** }
2054:Generated_Source\PSoC5/USBFS.c **** 
2055:Generated_Source\PSoC5/USBFS.c **** 
2056:Generated_Source\PSoC5/USBFS.c **** /*******************************************************************************
2057:Generated_Source\PSoC5/USBFS.c **** * Function Name: USBFS_ReadOutEP16
2058:Generated_Source\PSoC5/USBFS.c **** ****************************************************************************//**
2059:Generated_Source\PSoC5/USBFS.c **** *
2060:Generated_Source\PSoC5/USBFS.c **** *   This function performs different functionality depending on the Component’s
2061:Generated_Source\PSoC5/USBFS.c **** *   configured Endpoint Buffer Management. This parameter is defined in the
2062:Generated_Source\PSoC5/USBFS.c **** *   Descriptor Root in Component Configure window.
2063:Generated_Source\PSoC5/USBFS.c **** *
2064:Generated_Source\PSoC5/USBFS.c **** *   *Manual (Static/Dynamic Allocation):*
2065:Generated_Source\PSoC5/USBFS.c **** *   This function moves the specified number of bytes from endpoint buffer to
2066:Generated_Source\PSoC5/USBFS.c **** *   system RAM. The number of bytes actually transferred from endpoint buffer to
2067:Generated_Source\PSoC5/USBFS.c **** *   system RAM is the lesser of the actual number of bytes sent by the host or
2068:Generated_Source\PSoC5/USBFS.c **** *   the number of bytes requested by the length parameter.
2069:Generated_Source\PSoC5/USBFS.c **** *
2070:Generated_Source\PSoC5/USBFS.c **** *   *DMA with Manual Buffer Management:*
2071:Generated_Source\PSoC5/USBFS.c **** *   Configure DMA to transfer data from endpoint buffer to system RAM. Generate
2072:Generated_Source\PSoC5/USBFS.c **** *   a DMA request. The firmware must wait until the DMA completes the data
2073:Generated_Source\PSoC5/USBFS.c **** *   transfer after calling the USBFS_ReadOutEP() API. For example,
2074:Generated_Source\PSoC5/USBFS.c **** *   by checking EPstate:
ARM GAS  C:\Users\CALEBC~1\AppData\Local\Temp\ccUZyw0h.s 			page 67


2075:Generated_Source\PSoC5/USBFS.c **** *
2076:Generated_Source\PSoC5/USBFS.c **** *   \snippet /USBFS_sut_02.cydsn/main.c checking EPstatey
2077:Generated_Source\PSoC5/USBFS.c **** *
2078:Generated_Source\PSoC5/USBFS.c **** *   The USBFS_EnableOutEP() has to be called to allow host to write data into
2079:Generated_Source\PSoC5/USBFS.c **** *   the endpoint buffer after DMA has completed transfer data from OUT endpoint
2080:Generated_Source\PSoC5/USBFS.c **** *   buffer to SRAM.
2081:Generated_Source\PSoC5/USBFS.c **** *
2082:Generated_Source\PSoC5/USBFS.c **** *   *DMA with Automatic Buffer Management:*
2083:Generated_Source\PSoC5/USBFS.c **** *   Configure DMA. This is required only once and automatically generates DMA
2084:Generated_Source\PSoC5/USBFS.c **** *   requests as data arrives
2085:Generated_Source\PSoC5/USBFS.c **** *
2086:Generated_Source\PSoC5/USBFS.c **** *  \param epNumber: Contains the data endpoint number.
2087:Generated_Source\PSoC5/USBFS.c **** *         Valid values are between 1 and 8.
2088:Generated_Source\PSoC5/USBFS.c **** *  \param pData: A pointer to a data array into which the data for the endpoint
2089:Generated_Source\PSoC5/USBFS.c **** *         space is copied. It shall be ensured that this pointer address is
2090:Generated_Source\PSoC5/USBFS.c **** *         even to ensure the 16-bit transfer is aligned to even address. Else,
2091:Generated_Source\PSoC5/USBFS.c **** *         a hard fault condition can occur.
2092:Generated_Source\PSoC5/USBFS.c **** *  \param length: The number of bytes to transfer from the USB Out endpoint and
2093:Generated_Source\PSoC5/USBFS.c **** *         loads it into data array. Valid values are between 0 and 1023. The
2094:Generated_Source\PSoC5/USBFS.c **** *         function moves fewer than the requested number of bytes if the host
2095:Generated_Source\PSoC5/USBFS.c **** *         sends fewer bytes than requested.
2096:Generated_Source\PSoC5/USBFS.c **** *
2097:Generated_Source\PSoC5/USBFS.c **** * \return
2098:Generated_Source\PSoC5/USBFS.c **** *  Number of bytes received, 0 for an invalid endpoint.
2099:Generated_Source\PSoC5/USBFS.c **** *
2100:Generated_Source\PSoC5/USBFS.c **** * \reentrant
2101:Generated_Source\PSoC5/USBFS.c **** *  No.
2102:Generated_Source\PSoC5/USBFS.c **** *
2103:Generated_Source\PSoC5/USBFS.c **** *******************************************************************************/
2104:Generated_Source\PSoC5/USBFS.c **** uint16 USBFS_ReadOutEP16(uint8 epNumber, uint8 pData[], uint16 length)
2105:Generated_Source\PSoC5/USBFS.c **** {
2106:Generated_Source\PSoC5/USBFS.c ****     uint32 adjLength;
2107:Generated_Source\PSoC5/USBFS.c **** 
2108:Generated_Source\PSoC5/USBFS.c ****     /* Check array alignment on half-word boundary */
2109:Generated_Source\PSoC5/USBFS.c ****     CYASSERT(0u == (((uint32) pData) & 0x01u));
2110:Generated_Source\PSoC5/USBFS.c **** 
2111:Generated_Source\PSoC5/USBFS.c ****     if ((pData != NULL) && (epNumber > USBFS_EP0) && (epNumber < USBFS_MAX_EP))
2112:Generated_Source\PSoC5/USBFS.c ****     {
2113:Generated_Source\PSoC5/USBFS.c ****     #if (!USBFS_EP_MANAGEMENT_DMA_AUTO)
2114:Generated_Source\PSoC5/USBFS.c ****         /* Adjust requested length to available data. */
2115:Generated_Source\PSoC5/USBFS.c ****         length = (length > USBFS_GetEPCount(epNumber)) ? USBFS_GetEPCount(epNumber) : length;
2116:Generated_Source\PSoC5/USBFS.c ****     #endif /* (!USBFS_EP_MANAGEMENT_DMA_AUTO) */
2117:Generated_Source\PSoC5/USBFS.c **** 
2118:Generated_Source\PSoC5/USBFS.c ****     /* Adjust requested length: 2 bytes are handled at one data register access. */
2119:Generated_Source\PSoC5/USBFS.c ****     adjLength =  length + ((uint32)length & 1u);
2120:Generated_Source\PSoC5/USBFS.c **** 
2121:Generated_Source\PSoC5/USBFS.c ****     #if (USBFS_EP_MANAGEMENT_MANUAL)
2122:Generated_Source\PSoC5/USBFS.c ****         {
2123:Generated_Source\PSoC5/USBFS.c ****             /* Convert uint8 array to uint16. */
2124:Generated_Source\PSoC5/USBFS.c ****             uint16 *dataBuf = (uint16 *) pData;
2125:Generated_Source\PSoC5/USBFS.c **** 
2126:Generated_Source\PSoC5/USBFS.c ****             /* Copy data using 16-bits arbiter data register. */
2127:Generated_Source\PSoC5/USBFS.c ****             uint16 i;
2128:Generated_Source\PSoC5/USBFS.c ****             for (i = 0u; i < (adjLength >> 1u); ++i)
2129:Generated_Source\PSoC5/USBFS.c ****             {
2130:Generated_Source\PSoC5/USBFS.c ****                 dataBuf[i] = (uint16) USBFS_ARB_EP16_BASE.arbEp[epNumber].rwDr16;
2131:Generated_Source\PSoC5/USBFS.c ****             }
ARM GAS  C:\Users\CALEBC~1\AppData\Local\Temp\ccUZyw0h.s 			page 68


2132:Generated_Source\PSoC5/USBFS.c ****         }
2133:Generated_Source\PSoC5/USBFS.c **** 
2134:Generated_Source\PSoC5/USBFS.c ****         /* Arm OUT endpoint after data has been read from endpoint buffer. */
2135:Generated_Source\PSoC5/USBFS.c ****         USBFS_EnableOutEP(epNumber);
2136:Generated_Source\PSoC5/USBFS.c ****     #else
2137:Generated_Source\PSoC5/USBFS.c **** 
2138:Generated_Source\PSoC5/USBFS.c ****         #if (USBFS_EP_MANAGEMENT_DMA_MANUAL)
2139:Generated_Source\PSoC5/USBFS.c ****         {
2140:Generated_Source\PSoC5/USBFS.c ****             uint32 channelNum = (uint32) USBFS_DmaChan[epNumber];
2141:Generated_Source\PSoC5/USBFS.c **** 
2142:Generated_Source\PSoC5/USBFS.c ****             /* Disable DMA channel: start configuration. */
2143:Generated_Source\PSoC5/USBFS.c ****             USBFS_CyDmaChDisable(channelNum);
2144:Generated_Source\PSoC5/USBFS.c **** 
2145:Generated_Source\PSoC5/USBFS.c ****             /* Configure source and destination. */
2146:Generated_Source\PSoC5/USBFS.c ****             USBFS_CyDmaSetSrcAddress(channelNum, USBFS_DMA_DESCR0, (void*) &USBFS_ARB_EP16_BASE.arb
2147:Generated_Source\PSoC5/USBFS.c ****             USBFS_CyDmaSetDstAddress(channelNum, USBFS_DMA_DESCR0, (void*) pData);
2148:Generated_Source\PSoC5/USBFS.c **** 
2149:Generated_Source\PSoC5/USBFS.c ****             /* Configure DMA descriptor. */
2150:Generated_Source\PSoC5/USBFS.c ****             USBFS_CyDmaSetConfiguration(channelNum, USBFS_DMA_DESCR0, USBFS_DMA_COMMON_CFG | (uint1
2151:Generated_Source\PSoC5/USBFS.c ****                                                     CYDMA_HALFWORD | CYDMA_WORD_ELEMENT | CYDMA_INC
2152:Generated_Source\PSoC5/USBFS.c **** 
2153:Generated_Source\PSoC5/USBFS.c ****             /* Validate descriptor to execute on following DMA request. */
2154:Generated_Source\PSoC5/USBFS.c ****             USBFS_CyDmaValidateDescriptor(channelNum, USBFS_DMA_DESCR0);
2155:Generated_Source\PSoC5/USBFS.c **** 
2156:Generated_Source\PSoC5/USBFS.c ****             /* Enable DMA channel: configuration complete. */
2157:Generated_Source\PSoC5/USBFS.c ****             USBFS_CyDmaChEnable(channelNum);
2158:Generated_Source\PSoC5/USBFS.c **** 
2159:Generated_Source\PSoC5/USBFS.c ****             /* Generate DMA request. */
2160:Generated_Source\PSoC5/USBFS.c ****             USBFS_ARB_EP_BASE.arbEp[epNumber].epCfg |=  (uint32)  USBFS_ARB_EPX_CFG_DMA_REQ;
2161:Generated_Source\PSoC5/USBFS.c ****             USBFS_ARB_EP_BASE.arbEp[epNumber].epCfg &=  (uint32) ~USBFS_ARB_EPX_CFG_DMA_REQ;
2162:Generated_Source\PSoC5/USBFS.c **** 
2163:Generated_Source\PSoC5/USBFS.c ****             /* OUT endpoint has to be armed again by user when DMA transfers have been completed.
2164:Generated_Source\PSoC5/USBFS.c ****             * NO_EVENT_PENDING: notifies that data has been copied from endpoint buffer.
2165:Generated_Source\PSoC5/USBFS.c ****             */
2166:Generated_Source\PSoC5/USBFS.c ****         }
2167:Generated_Source\PSoC5/USBFS.c ****         #endif /* (USBFS_EP_MANAGEMENT_DMA_MANUAL) */
2168:Generated_Source\PSoC5/USBFS.c **** 
2169:Generated_Source\PSoC5/USBFS.c ****         #if (USBFS_EP_MANAGEMENT_DMA_AUTO)
2170:Generated_Source\PSoC5/USBFS.c ****         {
2171:Generated_Source\PSoC5/USBFS.c ****             uint32 lengthDescr0, lengthDescr1;
2172:Generated_Source\PSoC5/USBFS.c ****             uint32 channelNum = (uint32) USBFS_DmaChan[epNumber];
2173:Generated_Source\PSoC5/USBFS.c **** 
2174:Generated_Source\PSoC5/USBFS.c ****             /* Get number of full bursts. */
2175:Generated_Source\PSoC5/USBFS.c ****             USBFS_DmaEpBurstCnt[epNumber] = (uint8) (adjLength / USBFS_DMA_BYTES_PER_BURST);
2176:Generated_Source\PSoC5/USBFS.c **** 
2177:Generated_Source\PSoC5/USBFS.c ****             /* Get number of elements in last burst. */
2178:Generated_Source\PSoC5/USBFS.c ****             USBFS_DmaEpLastBurstEl[epNumber] = (uint8) (adjLength % USBFS_DMA_BYTES_PER_BURST);
2179:Generated_Source\PSoC5/USBFS.c **** 
2180:Generated_Source\PSoC5/USBFS.c ****             /* Get total number of bursts. */
2181:Generated_Source\PSoC5/USBFS.c ****             USBFS_DmaEpBurstCnt[epNumber] += (0u != USBFS_DmaEpLastBurstEl[epNumber]) ? 1u : 0u;
2182:Generated_Source\PSoC5/USBFS.c **** 
2183:Generated_Source\PSoC5/USBFS.c ****             /* Adjust number of data elements transferred in last burst. */
2184:Generated_Source\PSoC5/USBFS.c ****             USBFS_DmaEpLastBurstEl[epNumber] = (0u != USBFS_DmaEpLastBurstEl[epNumber]) ?
2185:Generated_Source\PSoC5/USBFS.c ****                                                                   ((USBFS_DmaEpLastBurstEl[epNumber
2186:Generated_Source\PSoC5/USBFS.c ****                                                                    (USBFS_DMA_HALFWORDS_PER_BURST -
2187:Generated_Source\PSoC5/USBFS.c **** 
2188:Generated_Source\PSoC5/USBFS.c ****             /* Get number of data elements to transfer for descriptor 0 and 1. */
ARM GAS  C:\Users\CALEBC~1\AppData\Local\Temp\ccUZyw0h.s 			page 69


2189:Generated_Source\PSoC5/USBFS.c ****             lengthDescr0 = (1u == USBFS_DmaEpBurstCnt[epNumber]) ? USBFS_DmaEpLastBurstEl[epNumber]
2190:Generated_Source\PSoC5/USBFS.c ****             lengthDescr1 = (2u == USBFS_DmaEpBurstCnt[epNumber]) ? USBFS_DmaEpLastBurstEl[epNumber]
2191:Generated_Source\PSoC5/USBFS.c **** 
2192:Generated_Source\PSoC5/USBFS.c ****             /* Mark last descriptor to be executed. */
2193:Generated_Source\PSoC5/USBFS.c ****             USBFS_DmaEpLastBurstEl[epNumber] |= (0u != (USBFS_DmaEpBurstCnt[epNumber] & 0x1u)) ?
2194:Generated_Source\PSoC5/USBFS.c ****                                                                     USBFS_DMA_DESCR0_MASK : USBFS_D
2195:Generated_Source\PSoC5/USBFS.c **** 
2196:Generated_Source\PSoC5/USBFS.c ****             /* Mark if revert number of data elements in descriptor after transfer completion. */
2197:Generated_Source\PSoC5/USBFS.c ****             USBFS_DmaEpLastBurstEl[epNumber] |= (USBFS_DmaEpBurstCnt[epNumber] > 2u) ? USBFS_DMA_DE
2198:Generated_Source\PSoC5/USBFS.c **** 
2199:Generated_Source\PSoC5/USBFS.c ****             /* Mark that 16-bits access to data register is performed. */
2200:Generated_Source\PSoC5/USBFS.c ****             USBFS_DmaEpLastBurstEl[epNumber] |= USBFS_DMA_DESCR_16BITS;
2201:Generated_Source\PSoC5/USBFS.c **** 
2202:Generated_Source\PSoC5/USBFS.c ****             /* Store address of buffer and burst counter for endpoint. */
2203:Generated_Source\PSoC5/USBFS.c ****             USBFS_DmaEpBufferAddrBackup[epNumber] = (uint32) pData;
2204:Generated_Source\PSoC5/USBFS.c ****             USBFS_DmaEpBurstCntBackup[epNumber]   = USBFS_DmaEpBurstCnt[epNumber];
2205:Generated_Source\PSoC5/USBFS.c **** 
2206:Generated_Source\PSoC5/USBFS.c ****             /* Adjust burst counter taking to account: 2 valid descriptors and interrupt trigger af
2207:Generated_Source\PSoC5/USBFS.c ****             USBFS_DmaEpBurstCnt[epNumber] = USBFS_DMA_GET_BURST_CNT(USBFS_DmaEpBurstCnt[epNumber]);
2208:Generated_Source\PSoC5/USBFS.c **** 
2209:Generated_Source\PSoC5/USBFS.c ****             /* Disable DMA channel: start configuration. */
2210:Generated_Source\PSoC5/USBFS.c ****             USBFS_CyDmaChDisable(channelNum);
2211:Generated_Source\PSoC5/USBFS.c **** 
2212:Generated_Source\PSoC5/USBFS.c ****             /* Set destination address. */
2213:Generated_Source\PSoC5/USBFS.c ****             USBFS_CyDmaSetSrcAddress(channelNum, USBFS_DMA_DESCR0, (void*) &USBFS_ARB_EP16_BASE.arb
2214:Generated_Source\PSoC5/USBFS.c ****             USBFS_CyDmaSetSrcAddress(channelNum, USBFS_DMA_DESCR1, (void*) &USBFS_ARB_EP16_BASE.arb
2215:Generated_Source\PSoC5/USBFS.c **** 
2216:Generated_Source\PSoC5/USBFS.c ****             USBFS_CyDmaSetDstAddress(channelNum, USBFS_DMA_DESCR0, (void*) ((uint32) pData));
2217:Generated_Source\PSoC5/USBFS.c ****             USBFS_CyDmaSetDstAddress(channelNum, USBFS_DMA_DESCR1, (void*) ((uint32) pData + USBFS_
2218:Generated_Source\PSoC5/USBFS.c **** 
2219:Generated_Source\PSoC5/USBFS.c ****             /* Configure DMA descriptor 0. */
2220:Generated_Source\PSoC5/USBFS.c ****             USBFS_CyDmaSetConfiguration(channelNum, USBFS_DMA_DESCR0, USBFS_DMA_COMMON_CFG  | lengt
2221:Generated_Source\PSoC5/USBFS.c ****                                                     CYDMA_HALFWORD | CYDMA_WORD_ELEMENT | CYDMA_INC
2222:Generated_Source\PSoC5/USBFS.c **** 
2223:Generated_Source\PSoC5/USBFS.c ****             /* Configure DMA descriptor 1. */
2224:Generated_Source\PSoC5/USBFS.c ****             USBFS_CyDmaSetConfiguration(channelNum, USBFS_DMA_DESCR1, USBFS_DMA_COMMON_CFG  | lengt
2225:Generated_Source\PSoC5/USBFS.c ****                                                     CYDMA_HALFWORD | CYDMA_WORD_ELEMENT | CYDMA_INC
2226:Generated_Source\PSoC5/USBFS.c **** 
2227:Generated_Source\PSoC5/USBFS.c ****             /* Enable interrupt from DMA channel. */
2228:Generated_Source\PSoC5/USBFS.c ****             USBFS_CyDmaSetInterruptMask(channelNum);
2229:Generated_Source\PSoC5/USBFS.c **** 
2230:Generated_Source\PSoC5/USBFS.c ****             /* Validate DMA descriptor 0 and 1. */
2231:Generated_Source\PSoC5/USBFS.c ****             USBFS_CyDmaValidateDescriptor(channelNum, USBFS_DMA_DESCR0);
2232:Generated_Source\PSoC5/USBFS.c ****             
2233:Generated_Source\PSoC5/USBFS.c ****             if (USBFS_DmaEpBurstCntBackup[epNumber] > 1u)
2234:Generated_Source\PSoC5/USBFS.c ****             {
2235:Generated_Source\PSoC5/USBFS.c ****                 USBFS_CyDmaValidateDescriptor(channelNum, USBFS_DMA_DESCR1);
2236:Generated_Source\PSoC5/USBFS.c ****             }
2237:Generated_Source\PSoC5/USBFS.c **** 
2238:Generated_Source\PSoC5/USBFS.c ****             /* Enable DMA channel: configuration complete. */
2239:Generated_Source\PSoC5/USBFS.c ****             USBFS_CyDmaChEnable(channelNum);
2240:Generated_Source\PSoC5/USBFS.c **** 
2241:Generated_Source\PSoC5/USBFS.c ****             /* OUT endpoint has to be armed again by user when DMA transfers have been completed.
2242:Generated_Source\PSoC5/USBFS.c ****             * NO_EVENT_PENDING: notifies that data has been copied from endpoint buffer.
2243:Generated_Source\PSoC5/USBFS.c ****             */
2244:Generated_Source\PSoC5/USBFS.c ****         }
2245:Generated_Source\PSoC5/USBFS.c ****         #endif /* (USBFS_EP_MANAGEMENT_DMA_AUTO) */
ARM GAS  C:\Users\CALEBC~1\AppData\Local\Temp\ccUZyw0h.s 			page 70


2246:Generated_Source\PSoC5/USBFS.c ****     #endif /* (USBFS_EP_MANAGEMENT_MANUAL) */
2247:Generated_Source\PSoC5/USBFS.c ****     }
2248:Generated_Source\PSoC5/USBFS.c ****     else
2249:Generated_Source\PSoC5/USBFS.c ****     {
2250:Generated_Source\PSoC5/USBFS.c ****         length = 0u;
2251:Generated_Source\PSoC5/USBFS.c ****     }
2252:Generated_Source\PSoC5/USBFS.c **** 
2253:Generated_Source\PSoC5/USBFS.c ****     return (length);
2254:Generated_Source\PSoC5/USBFS.c **** }
2255:Generated_Source\PSoC5/USBFS.c **** #endif /* (USBFS_16BITS_EP_ACCESS_ENABLE) */
2256:Generated_Source\PSoC5/USBFS.c **** 
2257:Generated_Source\PSoC5/USBFS.c **** 
2258:Generated_Source\PSoC5/USBFS.c **** /*******************************************************************************
2259:Generated_Source\PSoC5/USBFS.c **** * Function Name: USBFS_EnableOutEP
2260:Generated_Source\PSoC5/USBFS.c **** ****************************************************************************//**
2261:Generated_Source\PSoC5/USBFS.c **** *
2262:Generated_Source\PSoC5/USBFS.c **** *  This function enables the specified endpoint for OUT transfers. Do not call
2263:Generated_Source\PSoC5/USBFS.c **** *  this function for IN endpoints.
2264:Generated_Source\PSoC5/USBFS.c **** *
2265:Generated_Source\PSoC5/USBFS.c **** *  \param epNumber: Contains the data endpoint number. Valid values are between
2266:Generated_Source\PSoC5/USBFS.c **** *  1 and 8.
2267:Generated_Source\PSoC5/USBFS.c **** *
2268:Generated_Source\PSoC5/USBFS.c **** * \globalvars
2269:Generated_Source\PSoC5/USBFS.c **** *
2270:Generated_Source\PSoC5/USBFS.c **** *  \ref USBFS_EP[epNumber].apiEpState - set to NO_EVENT_PENDING
2271:Generated_Source\PSoC5/USBFS.c **** *
2272:Generated_Source\PSoC5/USBFS.c **** * \reentrant
2273:Generated_Source\PSoC5/USBFS.c **** *  No.
2274:Generated_Source\PSoC5/USBFS.c **** *
2275:Generated_Source\PSoC5/USBFS.c **** *******************************************************************************/
2276:Generated_Source\PSoC5/USBFS.c **** void USBFS_EnableOutEP(uint8 epNumber) 
2277:Generated_Source\PSoC5/USBFS.c **** {
 1682              		.loc 1 2277 0
 1683              		.cfi_startproc
 1684              		@ args = 0, pretend = 0, frame = 8
 1685              		@ frame_needed = 1, uses_anonymous_args = 0
 1686              		@ link register save eliminated.
 1687 0000 90B4     		push	{r4, r7}
 1688              		.cfi_def_cfa_offset 8
 1689              		.cfi_offset 4, -8
 1690              		.cfi_offset 7, -4
 1691 0002 82B0     		sub	sp, sp, #8
 1692              		.cfi_def_cfa_offset 16
 1693 0004 00AF     		add	r7, sp, #0
 1694              		.cfi_def_cfa_register 7
 1695 0006 0346     		mov	r3, r0
 1696 0008 FB71     		strb	r3, [r7, #7]
2278:Generated_Source\PSoC5/USBFS.c ****     if ((epNumber > USBFS_EP0) && (epNumber < USBFS_MAX_EP))
 1697              		.loc 1 2278 0
 1698 000a FB79     		ldrb	r3, [r7, #7]	@ zero_extendqisi2
 1699 000c 002B     		cmp	r3, #0
 1700 000e 1CD0     		beq	.L91
 1701              		.loc 1 2278 0 is_stmt 0 discriminator 1
 1702 0010 FB79     		ldrb	r3, [r7, #7]	@ zero_extendqisi2
 1703 0012 082B     		cmp	r3, #8
 1704 0014 19D8     		bhi	.L91
2279:Generated_Source\PSoC5/USBFS.c ****     {
ARM GAS  C:\Users\CALEBC~1\AppData\Local\Temp\ccUZyw0h.s 			page 71


2280:Generated_Source\PSoC5/USBFS.c ****         USBFS_EP[epNumber].apiEpState = USBFS_NO_EVENT_PENDING;
 1705              		.loc 1 2280 0 is_stmt 1
 1706 0016 FA79     		ldrb	r2, [r7, #7]	@ zero_extendqisi2
 1707 0018 0E49     		ldr	r1, .L92
 1708 001a 1346     		mov	r3, r2
 1709 001c 5B00     		lsls	r3, r3, #1
 1710 001e 1344     		add	r3, r3, r2
 1711 0020 9B00     		lsls	r3, r3, #2
 1712 0022 0B44     		add	r3, r3, r1
 1713 0024 0133     		adds	r3, r3, #1
 1714 0026 0022     		movs	r2, #0
 1715 0028 1A70     		strb	r2, [r3]
2281:Generated_Source\PSoC5/USBFS.c **** 
2282:Generated_Source\PSoC5/USBFS.c ****         /* Enable OUT endpoint to be written by Host. */
2283:Generated_Source\PSoC5/USBFS.c ****         USBFS_SIE_EP_BASE.sieEp[epNumber].epCr0 = USBFS_EP[epNumber].epMode;
 1716              		.loc 1 2283 0
 1717 002a 0B48     		ldr	r0, .L92+4
 1718 002c F979     		ldrb	r1, [r7, #7]	@ zero_extendqisi2
 1719 002e FA79     		ldrb	r2, [r7, #7]	@ zero_extendqisi2
 1720 0030 084C     		ldr	r4, .L92
 1721 0032 1346     		mov	r3, r2
 1722 0034 5B00     		lsls	r3, r3, #1
 1723 0036 1344     		add	r3, r3, r2
 1724 0038 9B00     		lsls	r3, r3, #2
 1725 003a 2344     		add	r3, r3, r4
 1726 003c 0533     		adds	r3, r3, #5
 1727 003e 1B78     		ldrb	r3, [r3]
 1728 0040 DAB2     		uxtb	r2, r3
 1729 0042 0B01     		lsls	r3, r1, #4
 1730 0044 0344     		add	r3, r3, r0
 1731 0046 0233     		adds	r3, r3, #2
 1732 0048 1A70     		strb	r2, [r3]
 1733              	.L91:
2284:Generated_Source\PSoC5/USBFS.c ****         
2285:Generated_Source\PSoC5/USBFS.c ****     }
2286:Generated_Source\PSoC5/USBFS.c **** }
 1734              		.loc 1 2286 0
 1735 004a 00BF     		nop
 1736 004c 0837     		adds	r7, r7, #8
 1737              		.cfi_def_cfa_offset 8
 1738 004e BD46     		mov	sp, r7
 1739              		.cfi_def_cfa_register 13
 1740              		@ sp needed
 1741 0050 90BC     		pop	{r4, r7}
 1742              		.cfi_restore 7
 1743              		.cfi_restore 4
 1744              		.cfi_def_cfa_offset 0
 1745 0052 7047     		bx	lr
 1746              	.L93:
 1747              		.align	2
 1748              	.L92:
 1749 0054 00000000 		.word	USBFS_EP
 1750 0058 FC5F0040 		.word	1073766396
 1751              		.cfi_endproc
 1752              	.LFE15:
 1753              		.size	USBFS_EnableOutEP, .-USBFS_EnableOutEP
 1754              		.section	.text.USBFS_DisableOutEP,"ax",%progbits
ARM GAS  C:\Users\CALEBC~1\AppData\Local\Temp\ccUZyw0h.s 			page 72


 1755              		.align	2
 1756              		.global	USBFS_DisableOutEP
 1757              		.thumb
 1758              		.thumb_func
 1759              		.type	USBFS_DisableOutEP, %function
 1760              	USBFS_DisableOutEP:
 1761              	.LFB16:
2287:Generated_Source\PSoC5/USBFS.c **** 
2288:Generated_Source\PSoC5/USBFS.c **** 
2289:Generated_Source\PSoC5/USBFS.c **** /*******************************************************************************
2290:Generated_Source\PSoC5/USBFS.c **** * Function Name: USBFS_DisableOutEP
2291:Generated_Source\PSoC5/USBFS.c **** ****************************************************************************//**
2292:Generated_Source\PSoC5/USBFS.c **** *
2293:Generated_Source\PSoC5/USBFS.c **** *  This function disables the specified USBFS OUT endpoint. Do not call this
2294:Generated_Source\PSoC5/USBFS.c **** *  function for IN endpoints.
2295:Generated_Source\PSoC5/USBFS.c **** *
2296:Generated_Source\PSoC5/USBFS.c **** *  \param epNumber: Contains the data endpoint number.
2297:Generated_Source\PSoC5/USBFS.c **** *            Valid values are between 1 and 8.
2298:Generated_Source\PSoC5/USBFS.c **** *
2299:Generated_Source\PSoC5/USBFS.c **** *******************************************************************************/
2300:Generated_Source\PSoC5/USBFS.c **** void USBFS_DisableOutEP(uint8 epNumber) 
2301:Generated_Source\PSoC5/USBFS.c **** {
 1762              		.loc 1 2301 0
 1763              		.cfi_startproc
 1764              		@ args = 0, pretend = 0, frame = 8
 1765              		@ frame_needed = 1, uses_anonymous_args = 0
 1766              		@ link register save eliminated.
 1767 0000 80B4     		push	{r7}
 1768              		.cfi_def_cfa_offset 4
 1769              		.cfi_offset 7, -4
 1770 0002 83B0     		sub	sp, sp, #12
 1771              		.cfi_def_cfa_offset 16
 1772 0004 00AF     		add	r7, sp, #0
 1773              		.cfi_def_cfa_register 7
 1774 0006 0346     		mov	r3, r0
 1775 0008 FB71     		strb	r3, [r7, #7]
2302:Generated_Source\PSoC5/USBFS.c ****     if ((epNumber > USBFS_EP0) && (epNumber < USBFS_MAX_EP))
 1776              		.loc 1 2302 0
 1777 000a FB79     		ldrb	r3, [r7, #7]	@ zero_extendqisi2
 1778 000c 002B     		cmp	r3, #0
 1779 000e 09D0     		beq	.L96
 1780              		.loc 1 2302 0 is_stmt 0 discriminator 1
 1781 0010 FB79     		ldrb	r3, [r7, #7]	@ zero_extendqisi2
 1782 0012 082B     		cmp	r3, #8
 1783 0014 06D8     		bhi	.L96
2303:Generated_Source\PSoC5/USBFS.c ****     {
2304:Generated_Source\PSoC5/USBFS.c ****         /* Set NAK response for OUT endpoint. */
2305:Generated_Source\PSoC5/USBFS.c ****         USBFS_SIE_EP_BASE.sieEp[epNumber].epCr0 = USBFS_MODE_NAK_OUT;
 1784              		.loc 1 2305 0 is_stmt 1
 1785 0016 064A     		ldr	r2, .L97
 1786 0018 FB79     		ldrb	r3, [r7, #7]	@ zero_extendqisi2
 1787 001a 1B01     		lsls	r3, r3, #4
 1788 001c 1344     		add	r3, r3, r2
 1789 001e 0233     		adds	r3, r3, #2
 1790 0020 0822     		movs	r2, #8
 1791 0022 1A70     		strb	r2, [r3]
 1792              	.L96:
ARM GAS  C:\Users\CALEBC~1\AppData\Local\Temp\ccUZyw0h.s 			page 73


2306:Generated_Source\PSoC5/USBFS.c ****     }
2307:Generated_Source\PSoC5/USBFS.c **** }
 1793              		.loc 1 2307 0
 1794 0024 00BF     		nop
 1795 0026 0C37     		adds	r7, r7, #12
 1796              		.cfi_def_cfa_offset 4
 1797 0028 BD46     		mov	sp, r7
 1798              		.cfi_def_cfa_register 13
 1799              		@ sp needed
 1800 002a 80BC     		pop	{r7}
 1801              		.cfi_restore 7
 1802              		.cfi_def_cfa_offset 0
 1803 002c 7047     		bx	lr
 1804              	.L98:
 1805 002e 00BF     		.align	2
 1806              	.L97:
 1807 0030 FC5F0040 		.word	1073766396
 1808              		.cfi_endproc
 1809              	.LFE16:
 1810              		.size	USBFS_DisableOutEP, .-USBFS_DisableOutEP
 1811              		.section	.text.USBFS_Force,"ax",%progbits
 1812              		.align	2
 1813              		.global	USBFS_Force
 1814              		.thumb
 1815              		.thumb_func
 1816              		.type	USBFS_Force, %function
 1817              	USBFS_Force:
 1818              	.LFB17:
2308:Generated_Source\PSoC5/USBFS.c **** 
2309:Generated_Source\PSoC5/USBFS.c **** 
2310:Generated_Source\PSoC5/USBFS.c **** /*******************************************************************************
2311:Generated_Source\PSoC5/USBFS.c **** * Function Name: USBFS_Force
2312:Generated_Source\PSoC5/USBFS.c **** ****************************************************************************//**
2313:Generated_Source\PSoC5/USBFS.c **** *
2314:Generated_Source\PSoC5/USBFS.c **** *  This function forces a USB J, K, or SE0 state on the D+/D– lines. It provides
2315:Generated_Source\PSoC5/USBFS.c **** *  the necessary mechanism for a USB device application to perform a USB Remote
2316:Generated_Source\PSoC5/USBFS.c **** *  Wakeup. For more information, see the USB 2.0 Specification for details on
2317:Generated_Source\PSoC5/USBFS.c **** *  Suspend and Resume.
2318:Generated_Source\PSoC5/USBFS.c **** *
2319:Generated_Source\PSoC5/USBFS.c **** *  \param state A byte indicating which of the four bus states to enable.
2320:Generated_Source\PSoC5/USBFS.c **** *        Symbolic names  and their associated values are listed here:
2321:Generated_Source\PSoC5/USBFS.c **** *    State                      |Description
2322:Generated_Source\PSoC5/USBFS.c **** *    ---------------------------|----------------------------------------------
2323:Generated_Source\PSoC5/USBFS.c **** *    USBFS_FORCE_J   | Force a J State onto the D+/D– lines
2324:Generated_Source\PSoC5/USBFS.c **** *    USBFS_FORCE_K   | Force a K State onto the D+/D– lines
2325:Generated_Source\PSoC5/USBFS.c **** *    USBFS_FORCE_SE0 | Force a Single Ended 0 onto the D+/D– lines
2326:Generated_Source\PSoC5/USBFS.c **** *    USBFS_FORCE_NONE| Return bus to SIE control
2327:Generated_Source\PSoC5/USBFS.c **** *
2328:Generated_Source\PSoC5/USBFS.c **** *
2329:Generated_Source\PSoC5/USBFS.c **** *******************************************************************************/
2330:Generated_Source\PSoC5/USBFS.c **** void USBFS_Force(uint8 bState) 
2331:Generated_Source\PSoC5/USBFS.c **** {
 1819              		.loc 1 2331 0
 1820              		.cfi_startproc
 1821              		@ args = 0, pretend = 0, frame = 8
 1822              		@ frame_needed = 1, uses_anonymous_args = 0
 1823              		@ link register save eliminated.
ARM GAS  C:\Users\CALEBC~1\AppData\Local\Temp\ccUZyw0h.s 			page 74


 1824 0000 80B4     		push	{r7}
 1825              		.cfi_def_cfa_offset 4
 1826              		.cfi_offset 7, -4
 1827 0002 83B0     		sub	sp, sp, #12
 1828              		.cfi_def_cfa_offset 16
 1829 0004 00AF     		add	r7, sp, #0
 1830              		.cfi_def_cfa_register 7
 1831 0006 0346     		mov	r3, r0
 1832 0008 FB71     		strb	r3, [r7, #7]
2332:Generated_Source\PSoC5/USBFS.c ****     /* This registers is used only for manual control of SIE (no masking is
2333:Generated_Source\PSoC5/USBFS.c ****     * needed before write into it).
2334:Generated_Source\PSoC5/USBFS.c ****     */
2335:Generated_Source\PSoC5/USBFS.c ****     USBFS_USBIO_CR0_REG = bState;
 1833              		.loc 1 2335 0
 1834 000a 044A     		ldr	r2, .L100
 1835 000c FB79     		ldrb	r3, [r7, #7]
 1836 000e 1370     		strb	r3, [r2]
2336:Generated_Source\PSoC5/USBFS.c **** }
 1837              		.loc 1 2336 0
 1838 0010 00BF     		nop
 1839 0012 0C37     		adds	r7, r7, #12
 1840              		.cfi_def_cfa_offset 4
 1841 0014 BD46     		mov	sp, r7
 1842              		.cfi_def_cfa_register 13
 1843              		@ sp needed
 1844 0016 80BC     		pop	{r7}
 1845              		.cfi_restore 7
 1846              		.cfi_def_cfa_offset 0
 1847 0018 7047     		bx	lr
 1848              	.L101:
 1849 001a 00BF     		.align	2
 1850              	.L100:
 1851 001c 10600040 		.word	1073766416
 1852              		.cfi_endproc
 1853              	.LFE17:
 1854              		.size	USBFS_Force, .-USBFS_Force
 1855              		.section	.text.USBFS_GetEPAckState,"ax",%progbits
 1856              		.align	2
 1857              		.global	USBFS_GetEPAckState
 1858              		.thumb
 1859              		.thumb_func
 1860              		.type	USBFS_GetEPAckState, %function
 1861              	USBFS_GetEPAckState:
 1862              	.LFB18:
2337:Generated_Source\PSoC5/USBFS.c **** 
2338:Generated_Source\PSoC5/USBFS.c **** 
2339:Generated_Source\PSoC5/USBFS.c **** /*******************************************************************************
2340:Generated_Source\PSoC5/USBFS.c **** * Function Name: USBFS_GetEPAckState
2341:Generated_Source\PSoC5/USBFS.c **** ****************************************************************************//**
2342:Generated_Source\PSoC5/USBFS.c **** *
2343:Generated_Source\PSoC5/USBFS.c **** *  This function determines whether an ACK transaction occurred on this endpoint
2344:Generated_Source\PSoC5/USBFS.c **** *  by reading the ACK bit in the control register of the endpoint. It does not
2345:Generated_Source\PSoC5/USBFS.c **** *  clear the ACK bit.
2346:Generated_Source\PSoC5/USBFS.c **** *
2347:Generated_Source\PSoC5/USBFS.c **** *  \param epNumber Contains the data endpoint number.
2348:Generated_Source\PSoC5/USBFS.c **** *            Valid values are between 1 and 8.
2349:Generated_Source\PSoC5/USBFS.c **** *
ARM GAS  C:\Users\CALEBC~1\AppData\Local\Temp\ccUZyw0h.s 			page 75


2350:Generated_Source\PSoC5/USBFS.c **** *  \return
2351:Generated_Source\PSoC5/USBFS.c **** *  If an ACKed transaction occurred, this function returns a non-zero value.
2352:Generated_Source\PSoC5/USBFS.c **** *  Otherwise, it returns zero.
2353:Generated_Source\PSoC5/USBFS.c **** *
2354:Generated_Source\PSoC5/USBFS.c **** *******************************************************************************/
2355:Generated_Source\PSoC5/USBFS.c **** uint8 USBFS_GetEPAckState(uint8 epNumber) 
2356:Generated_Source\PSoC5/USBFS.c **** {
 1863              		.loc 1 2356 0
 1864              		.cfi_startproc
 1865              		@ args = 0, pretend = 0, frame = 16
 1866              		@ frame_needed = 1, uses_anonymous_args = 0
 1867              		@ link register save eliminated.
 1868 0000 80B4     		push	{r7}
 1869              		.cfi_def_cfa_offset 4
 1870              		.cfi_offset 7, -4
 1871 0002 85B0     		sub	sp, sp, #20
 1872              		.cfi_def_cfa_offset 24
 1873 0004 00AF     		add	r7, sp, #0
 1874              		.cfi_def_cfa_register 7
 1875 0006 0346     		mov	r3, r0
 1876 0008 FB71     		strb	r3, [r7, #7]
2357:Generated_Source\PSoC5/USBFS.c ****     uint8 cr = 0u;
 1877              		.loc 1 2357 0
 1878 000a 0023     		movs	r3, #0
 1879 000c FB73     		strb	r3, [r7, #15]
2358:Generated_Source\PSoC5/USBFS.c **** 
2359:Generated_Source\PSoC5/USBFS.c ****     if ((epNumber > USBFS_EP0) && (epNumber < USBFS_MAX_EP))
 1880              		.loc 1 2359 0
 1881 000e FB79     		ldrb	r3, [r7, #7]	@ zero_extendqisi2
 1882 0010 002B     		cmp	r3, #0
 1883 0012 0CD0     		beq	.L103
 1884              		.loc 1 2359 0 is_stmt 0 discriminator 1
 1885 0014 FB79     		ldrb	r3, [r7, #7]	@ zero_extendqisi2
 1886 0016 082B     		cmp	r3, #8
 1887 0018 09D8     		bhi	.L103
2360:Generated_Source\PSoC5/USBFS.c ****     {
2361:Generated_Source\PSoC5/USBFS.c ****         cr = USBFS_SIE_EP_BASE.sieEp[epNumber].epCr0 & USBFS_MODE_ACKD;
 1888              		.loc 1 2361 0 is_stmt 1
 1889 001a 084A     		ldr	r2, .L105
 1890 001c FB79     		ldrb	r3, [r7, #7]	@ zero_extendqisi2
 1891 001e 1B01     		lsls	r3, r3, #4
 1892 0020 1344     		add	r3, r3, r2
 1893 0022 0233     		adds	r3, r3, #2
 1894 0024 1B78     		ldrb	r3, [r3]
 1895 0026 DBB2     		uxtb	r3, r3
 1896 0028 03F01003 		and	r3, r3, #16
 1897 002c FB73     		strb	r3, [r7, #15]
 1898              	.L103:
2362:Generated_Source\PSoC5/USBFS.c ****     }
2363:Generated_Source\PSoC5/USBFS.c **** 
2364:Generated_Source\PSoC5/USBFS.c ****     return ((uint8) cr);
 1899              		.loc 1 2364 0
 1900 002e FB7B     		ldrb	r3, [r7, #15]	@ zero_extendqisi2
2365:Generated_Source\PSoC5/USBFS.c **** }
 1901              		.loc 1 2365 0
 1902 0030 1846     		mov	r0, r3
 1903 0032 1437     		adds	r7, r7, #20
ARM GAS  C:\Users\CALEBC~1\AppData\Local\Temp\ccUZyw0h.s 			page 76


 1904              		.cfi_def_cfa_offset 4
 1905 0034 BD46     		mov	sp, r7
 1906              		.cfi_def_cfa_register 13
 1907              		@ sp needed
 1908 0036 80BC     		pop	{r7}
 1909              		.cfi_restore 7
 1910              		.cfi_def_cfa_offset 0
 1911 0038 7047     		bx	lr
 1912              	.L106:
 1913 003a 00BF     		.align	2
 1914              	.L105:
 1915 003c FC5F0040 		.word	1073766396
 1916              		.cfi_endproc
 1917              	.LFE18:
 1918              		.size	USBFS_GetEPAckState, .-USBFS_GetEPAckState
 1919              		.section	.text.USBFS_SetPowerStatus,"ax",%progbits
 1920              		.align	2
 1921              		.global	USBFS_SetPowerStatus
 1922              		.thumb
 1923              		.thumb_func
 1924              		.type	USBFS_SetPowerStatus, %function
 1925              	USBFS_SetPowerStatus:
 1926              	.LFB19:
2366:Generated_Source\PSoC5/USBFS.c **** 
2367:Generated_Source\PSoC5/USBFS.c **** 
2368:Generated_Source\PSoC5/USBFS.c **** /*******************************************************************************
2369:Generated_Source\PSoC5/USBFS.c **** * Function Name: USBFS_SetPowerStatus
2370:Generated_Source\PSoC5/USBFS.c **** ****************************************************************************//**
2371:Generated_Source\PSoC5/USBFS.c **** *
2372:Generated_Source\PSoC5/USBFS.c **** *  This function sets the current power status. The device replies to USB
2373:Generated_Source\PSoC5/USBFS.c **** *  GET_STATUS requests based on this value. This allows the device to properly
2374:Generated_Source\PSoC5/USBFS.c **** *  report its status for USB Chapter 9 compliance. Devices can change their
2375:Generated_Source\PSoC5/USBFS.c **** *  power source from self powered to bus powered at any time and report their
2376:Generated_Source\PSoC5/USBFS.c **** *  current power source as part of the device status. You should call this
2377:Generated_Source\PSoC5/USBFS.c **** *  function any time your device changes from self powered to bus powered or
2378:Generated_Source\PSoC5/USBFS.c **** *  vice versa, and set the status appropriately.
2379:Generated_Source\PSoC5/USBFS.c **** *
2380:Generated_Source\PSoC5/USBFS.c **** *  \param powerStatus: Contains the desired power status, one for self powered
2381:Generated_Source\PSoC5/USBFS.c **** *        or zero for bus powered. Symbolic names and their associated values are
2382:Generated_Source\PSoC5/USBFS.c **** *        given here:
2383:Generated_Source\PSoC5/USBFS.c **** *  Power Status                                |Description
2384:Generated_Source\PSoC5/USBFS.c **** *  --------------------------------------------|---------------------------
2385:Generated_Source\PSoC5/USBFS.c **** *  USBFS_DEVICE_STATUS_BUS_POWERED  | Set the device to bus powered
2386:Generated_Source\PSoC5/USBFS.c **** *  USBFS_DEVICE_STATUS_SELF_POWERED | Set the device to self powered
2387:Generated_Source\PSoC5/USBFS.c **** *
2388:Generated_Source\PSoC5/USBFS.c **** * \globalvars
2389:Generated_Source\PSoC5/USBFS.c **** *
2390:Generated_Source\PSoC5/USBFS.c **** *  \ref USBFS_deviceStatus - set power status
2391:Generated_Source\PSoC5/USBFS.c **** *
2392:Generated_Source\PSoC5/USBFS.c **** * \reentrant
2393:Generated_Source\PSoC5/USBFS.c **** *  No.
2394:Generated_Source\PSoC5/USBFS.c **** *
2395:Generated_Source\PSoC5/USBFS.c **** *******************************************************************************/
2396:Generated_Source\PSoC5/USBFS.c **** void USBFS_SetPowerStatus(uint8 powerStatus) 
2397:Generated_Source\PSoC5/USBFS.c **** {
 1927              		.loc 1 2397 0
 1928              		.cfi_startproc
ARM GAS  C:\Users\CALEBC~1\AppData\Local\Temp\ccUZyw0h.s 			page 77


 1929              		@ args = 0, pretend = 0, frame = 8
 1930              		@ frame_needed = 1, uses_anonymous_args = 0
 1931              		@ link register save eliminated.
 1932 0000 80B4     		push	{r7}
 1933              		.cfi_def_cfa_offset 4
 1934              		.cfi_offset 7, -4
 1935 0002 83B0     		sub	sp, sp, #12
 1936              		.cfi_def_cfa_offset 16
 1937 0004 00AF     		add	r7, sp, #0
 1938              		.cfi_def_cfa_register 7
 1939 0006 0346     		mov	r3, r0
 1940 0008 FB71     		strb	r3, [r7, #7]
2398:Generated_Source\PSoC5/USBFS.c ****     if (powerStatus != USBFS_DEVICE_STATUS_BUS_POWERED)
 1941              		.loc 1 2398 0
 1942 000a FB79     		ldrb	r3, [r7, #7]	@ zero_extendqisi2
 1943 000c 002B     		cmp	r3, #0
 1944 000e 08D0     		beq	.L108
2399:Generated_Source\PSoC5/USBFS.c ****     {
2400:Generated_Source\PSoC5/USBFS.c ****         USBFS_deviceStatus |= (uint8)  USBFS_DEVICE_STATUS_SELF_POWERED;
 1945              		.loc 1 2400 0
 1946 0010 0A4B     		ldr	r3, .L111
 1947 0012 1B78     		ldrb	r3, [r3]
 1948 0014 DBB2     		uxtb	r3, r3
 1949 0016 43F00103 		orr	r3, r3, #1
 1950 001a DAB2     		uxtb	r2, r3
 1951 001c 074B     		ldr	r3, .L111
 1952 001e 1A70     		strb	r2, [r3]
2401:Generated_Source\PSoC5/USBFS.c ****     }
2402:Generated_Source\PSoC5/USBFS.c ****     else
2403:Generated_Source\PSoC5/USBFS.c ****     {
2404:Generated_Source\PSoC5/USBFS.c ****         USBFS_deviceStatus &= (uint8) ~USBFS_DEVICE_STATUS_SELF_POWERED;
2405:Generated_Source\PSoC5/USBFS.c ****     }
2406:Generated_Source\PSoC5/USBFS.c **** }
 1953              		.loc 1 2406 0
 1954 0020 07E0     		b	.L110
 1955              	.L108:
2404:Generated_Source\PSoC5/USBFS.c ****     }
 1956              		.loc 1 2404 0
 1957 0022 064B     		ldr	r3, .L111
 1958 0024 1B78     		ldrb	r3, [r3]
 1959 0026 DBB2     		uxtb	r3, r3
 1960 0028 23F00103 		bic	r3, r3, #1
 1961 002c DAB2     		uxtb	r2, r3
 1962 002e 034B     		ldr	r3, .L111
 1963 0030 1A70     		strb	r2, [r3]
 1964              	.L110:
 1965              		.loc 1 2406 0
 1966 0032 00BF     		nop
 1967 0034 0C37     		adds	r7, r7, #12
 1968              		.cfi_def_cfa_offset 4
 1969 0036 BD46     		mov	sp, r7
 1970              		.cfi_def_cfa_register 13
 1971              		@ sp needed
 1972 0038 80BC     		pop	{r7}
 1973              		.cfi_restore 7
 1974              		.cfi_def_cfa_offset 0
 1975 003a 7047     		bx	lr
ARM GAS  C:\Users\CALEBC~1\AppData\Local\Temp\ccUZyw0h.s 			page 78


 1976              	.L112:
 1977              		.align	2
 1978              	.L111:
 1979 003c 00000000 		.word	USBFS_deviceStatus
 1980              		.cfi_endproc
 1981              	.LFE19:
 1982              		.size	USBFS_SetPowerStatus, .-USBFS_SetPowerStatus
 1983              		.section	.text.USBFS_RWUEnabled,"ax",%progbits
 1984              		.align	2
 1985              		.global	USBFS_RWUEnabled
 1986              		.thumb
 1987              		.thumb_func
 1988              		.type	USBFS_RWUEnabled, %function
 1989              	USBFS_RWUEnabled:
 1990              	.LFB20:
2407:Generated_Source\PSoC5/USBFS.c **** 
2408:Generated_Source\PSoC5/USBFS.c **** 
2409:Generated_Source\PSoC5/USBFS.c **** #if (USBFS_VBUS_MONITORING_ENABLE)
2410:Generated_Source\PSoC5/USBFS.c ****     /***************************************************************************
2411:Generated_Source\PSoC5/USBFS.c ****     * Function Name: USBFS_VBusPresent
2412:Generated_Source\PSoC5/USBFS.c ****     ************************************************************************//**
2413:Generated_Source\PSoC5/USBFS.c ****     *
2414:Generated_Source\PSoC5/USBFS.c ****     *  Determines VBUS presence for self-powered devices. This function is
2415:Generated_Source\PSoC5/USBFS.c ****     *  available when the VBUS Monitoring option is enabled in the Advanced tab.
2416:Generated_Source\PSoC5/USBFS.c ****     *
2417:Generated_Source\PSoC5/USBFS.c ****     * \return
2418:Generated_Source\PSoC5/USBFS.c ****     *  The return value can be the following:
2419:Generated_Source\PSoC5/USBFS.c ****     *  Return Value | Description
2420:Generated_Source\PSoC5/USBFS.c ****     *  -------------|-----------------
2421:Generated_Source\PSoC5/USBFS.c ****     *  1            | VBUS is present
2422:Generated_Source\PSoC5/USBFS.c ****     *  0            | VBUS is absent
2423:Generated_Source\PSoC5/USBFS.c ****     *
2424:Generated_Source\PSoC5/USBFS.c ****     *
2425:Generated_Source\PSoC5/USBFS.c ****     ***************************************************************************/
2426:Generated_Source\PSoC5/USBFS.c ****     uint8 USBFS_VBusPresent(void) 
2427:Generated_Source\PSoC5/USBFS.c ****     {
2428:Generated_Source\PSoC5/USBFS.c ****         return ((0u != (USBFS_VBUS_STATUS_REG & USBFS_VBUS_VALID)) ? (uint8) 1u : (uint8) 0u);
2429:Generated_Source\PSoC5/USBFS.c ****     }
2430:Generated_Source\PSoC5/USBFS.c **** #endif /* (USBFS_VBUS_MONITORING_ENABLE) */
2431:Generated_Source\PSoC5/USBFS.c **** 
2432:Generated_Source\PSoC5/USBFS.c **** 
2433:Generated_Source\PSoC5/USBFS.c **** /*******************************************************************************
2434:Generated_Source\PSoC5/USBFS.c **** * Function Name: USBFS_RWUEnabled
2435:Generated_Source\PSoC5/USBFS.c **** ****************************************************************************//**
2436:Generated_Source\PSoC5/USBFS.c **** *
2437:Generated_Source\PSoC5/USBFS.c **** *  This function returns the current remote wakeup status.
2438:Generated_Source\PSoC5/USBFS.c **** *  If the device supports remote wakeup, the application should use this
2439:Generated_Source\PSoC5/USBFS.c **** *  function to determine if remote wakeup was enabled by the host. When the
2440:Generated_Source\PSoC5/USBFS.c **** *  device is suspended and it determines the conditions to initiate a remote
2441:Generated_Source\PSoC5/USBFS.c **** *  wakeup are met, the application should use the USBFS_Force() function to
2442:Generated_Source\PSoC5/USBFS.c **** *  force the appropriate J and K states onto the USB bus, signaling a remote
2443:Generated_Source\PSoC5/USBFS.c **** *  wakeup.
2444:Generated_Source\PSoC5/USBFS.c **** *
2445:Generated_Source\PSoC5/USBFS.c **** *
2446:Generated_Source\PSoC5/USBFS.c **** * \return
2447:Generated_Source\PSoC5/USBFS.c **** *  Returns non-zero value if remote wakeup is enabled and zero otherwise.
2448:Generated_Source\PSoC5/USBFS.c **** *
ARM GAS  C:\Users\CALEBC~1\AppData\Local\Temp\ccUZyw0h.s 			page 79


2449:Generated_Source\PSoC5/USBFS.c **** * \globalvars
2450:Generated_Source\PSoC5/USBFS.c **** *  USBFS_deviceStatus - checked to determine remote status
2451:Generated_Source\PSoC5/USBFS.c **** *
2452:Generated_Source\PSoC5/USBFS.c **** *******************************************************************************/
2453:Generated_Source\PSoC5/USBFS.c **** uint8 USBFS_RWUEnabled(void) 
2454:Generated_Source\PSoC5/USBFS.c **** {
 1991              		.loc 1 2454 0
 1992              		.cfi_startproc
 1993              		@ args = 0, pretend = 0, frame = 8
 1994              		@ frame_needed = 1, uses_anonymous_args = 0
 1995              		@ link register save eliminated.
 1996 0000 80B4     		push	{r7}
 1997              		.cfi_def_cfa_offset 4
 1998              		.cfi_offset 7, -4
 1999 0002 83B0     		sub	sp, sp, #12
 2000              		.cfi_def_cfa_offset 16
 2001 0004 00AF     		add	r7, sp, #0
 2002              		.cfi_def_cfa_register 7
2455:Generated_Source\PSoC5/USBFS.c ****     uint8 result = USBFS_FALSE;
 2003              		.loc 1 2455 0
 2004 0006 0023     		movs	r3, #0
 2005 0008 FB71     		strb	r3, [r7, #7]
2456:Generated_Source\PSoC5/USBFS.c **** 
2457:Generated_Source\PSoC5/USBFS.c ****     if (0u != (USBFS_deviceStatus & USBFS_DEVICE_STATUS_REMOTE_WAKEUP))
 2006              		.loc 1 2457 0
 2007 000a 074B     		ldr	r3, .L116
 2008 000c 1B78     		ldrb	r3, [r3]
 2009 000e DBB2     		uxtb	r3, r3
 2010 0010 03F00203 		and	r3, r3, #2
 2011 0014 002B     		cmp	r3, #0
 2012 0016 01D0     		beq	.L114
2458:Generated_Source\PSoC5/USBFS.c ****     {
2459:Generated_Source\PSoC5/USBFS.c ****         result = USBFS_TRUE;
 2013              		.loc 1 2459 0
 2014 0018 0123     		movs	r3, #1
 2015 001a FB71     		strb	r3, [r7, #7]
 2016              	.L114:
2460:Generated_Source\PSoC5/USBFS.c ****     }
2461:Generated_Source\PSoC5/USBFS.c **** 
2462:Generated_Source\PSoC5/USBFS.c ****     return (result);
 2017              		.loc 1 2462 0
 2018 001c FB79     		ldrb	r3, [r7, #7]	@ zero_extendqisi2
2463:Generated_Source\PSoC5/USBFS.c **** }
 2019              		.loc 1 2463 0
 2020 001e 1846     		mov	r0, r3
 2021 0020 0C37     		adds	r7, r7, #12
 2022              		.cfi_def_cfa_offset 4
 2023 0022 BD46     		mov	sp, r7
 2024              		.cfi_def_cfa_register 13
 2025              		@ sp needed
 2026 0024 80BC     		pop	{r7}
 2027              		.cfi_restore 7
 2028              		.cfi_def_cfa_offset 0
 2029 0026 7047     		bx	lr
 2030              	.L117:
 2031              		.align	2
 2032              	.L116:
ARM GAS  C:\Users\CALEBC~1\AppData\Local\Temp\ccUZyw0h.s 			page 80


 2033 0028 00000000 		.word	USBFS_deviceStatus
 2034              		.cfi_endproc
 2035              	.LFE20:
 2036              		.size	USBFS_RWUEnabled, .-USBFS_RWUEnabled
 2037              		.section	.text.USBFS_GetDeviceAddress,"ax",%progbits
 2038              		.align	2
 2039              		.global	USBFS_GetDeviceAddress
 2040              		.thumb
 2041              		.thumb_func
 2042              		.type	USBFS_GetDeviceAddress, %function
 2043              	USBFS_GetDeviceAddress:
 2044              	.LFB21:
2464:Generated_Source\PSoC5/USBFS.c **** 
2465:Generated_Source\PSoC5/USBFS.c **** 
2466:Generated_Source\PSoC5/USBFS.c **** /*******************************************************************************
2467:Generated_Source\PSoC5/USBFS.c **** * Function Name: USBFS_GetDeviceAddress
2468:Generated_Source\PSoC5/USBFS.c **** ****************************************************************************//**
2469:Generated_Source\PSoC5/USBFS.c **** *
2470:Generated_Source\PSoC5/USBFS.c **** *  This function returns the currently assigned address for the USB device.
2471:Generated_Source\PSoC5/USBFS.c **** *
2472:Generated_Source\PSoC5/USBFS.c **** * \return
2473:Generated_Source\PSoC5/USBFS.c **** *  Returns the currently assigned address.
2474:Generated_Source\PSoC5/USBFS.c **** *  Returns 0 if the device has not yet been assigned an address.
2475:Generated_Source\PSoC5/USBFS.c **** *
2476:Generated_Source\PSoC5/USBFS.c **** *******************************************************************************/
2477:Generated_Source\PSoC5/USBFS.c **** uint8 USBFS_GetDeviceAddress(void) 
2478:Generated_Source\PSoC5/USBFS.c **** {
 2045              		.loc 1 2478 0
 2046              		.cfi_startproc
 2047              		@ args = 0, pretend = 0, frame = 0
 2048              		@ frame_needed = 1, uses_anonymous_args = 0
 2049              		@ link register save eliminated.
 2050 0000 80B4     		push	{r7}
 2051              		.cfi_def_cfa_offset 4
 2052              		.cfi_offset 7, -4
 2053 0002 00AF     		add	r7, sp, #0
 2054              		.cfi_def_cfa_register 7
2479:Generated_Source\PSoC5/USBFS.c ****     return (uint8)(USBFS_CR0_REG & USBFS_CR0_DEVICE_ADDRESS_MASK);
 2055              		.loc 1 2479 0
 2056 0004 044B     		ldr	r3, .L120
 2057 0006 1B78     		ldrb	r3, [r3]
 2058 0008 DBB2     		uxtb	r3, r3
 2059 000a 03F07F03 		and	r3, r3, #127
 2060 000e DBB2     		uxtb	r3, r3
2480:Generated_Source\PSoC5/USBFS.c **** }
 2061              		.loc 1 2480 0
 2062 0010 1846     		mov	r0, r3
 2063 0012 BD46     		mov	sp, r7
 2064              		.cfi_def_cfa_register 13
 2065              		@ sp needed
 2066 0014 80BC     		pop	{r7}
 2067              		.cfi_restore 7
 2068              		.cfi_def_cfa_offset 0
 2069 0016 7047     		bx	lr
 2070              	.L121:
 2071              		.align	2
 2072              	.L120:
ARM GAS  C:\Users\CALEBC~1\AppData\Local\Temp\ccUZyw0h.s 			page 81


 2073 0018 08600040 		.word	1073766408
 2074              		.cfi_endproc
 2075              	.LFE21:
 2076              		.size	USBFS_GetDeviceAddress, .-USBFS_GetDeviceAddress
 2077              		.section	.text.USBFS_EnableSofInt,"ax",%progbits
 2078              		.align	2
 2079              		.global	USBFS_EnableSofInt
 2080              		.thumb
 2081              		.thumb_func
 2082              		.type	USBFS_EnableSofInt, %function
 2083              	USBFS_EnableSofInt:
 2084              	.LFB22:
2481:Generated_Source\PSoC5/USBFS.c **** 
2482:Generated_Source\PSoC5/USBFS.c **** 
2483:Generated_Source\PSoC5/USBFS.c **** /*******************************************************************************
2484:Generated_Source\PSoC5/USBFS.c **** * Function Name: USBFS_EnableSofInt
2485:Generated_Source\PSoC5/USBFS.c **** ****************************************************************************//**
2486:Generated_Source\PSoC5/USBFS.c **** *
2487:Generated_Source\PSoC5/USBFS.c **** *  This function enables interrupt generation when a Start-of-Frame (SOF)
2488:Generated_Source\PSoC5/USBFS.c **** *  packet is received from the host.
2489:Generated_Source\PSoC5/USBFS.c **** *
2490:Generated_Source\PSoC5/USBFS.c **** *******************************************************************************/
2491:Generated_Source\PSoC5/USBFS.c **** void USBFS_EnableSofInt(void) 
2492:Generated_Source\PSoC5/USBFS.c **** {
 2085              		.loc 1 2492 0
 2086              		.cfi_startproc
 2087              		@ args = 0, pretend = 0, frame = 0
 2088              		@ frame_needed = 1, uses_anonymous_args = 0
 2089              		@ link register save eliminated.
 2090 0000 80B4     		push	{r7}
 2091              		.cfi_def_cfa_offset 4
 2092              		.cfi_offset 7, -4
 2093 0002 00AF     		add	r7, sp, #0
 2094              		.cfi_def_cfa_register 7
2493:Generated_Source\PSoC5/USBFS.c **** #if (CY_PSOC4)
2494:Generated_Source\PSoC5/USBFS.c ****     /* Enable SOF interrupt interrupt source. */
2495:Generated_Source\PSoC5/USBFS.c ****     USBFS_INTR_SIE_MASK_REG |= (uint32) USBFS_INTR_SIE_SOF_INTR;
2496:Generated_Source\PSoC5/USBFS.c **** #else
2497:Generated_Source\PSoC5/USBFS.c ****     /* Enable SOF interrupt if it is present. */
2498:Generated_Source\PSoC5/USBFS.c ****     #if (USBFS_SOF_ISR_ACTIVE)
2499:Generated_Source\PSoC5/USBFS.c ****         CyIntEnable(USBFS_SOF_VECT_NUM);
2500:Generated_Source\PSoC5/USBFS.c ****     #endif /* (USBFS_SOF_ISR_ACTIVE) */
2501:Generated_Source\PSoC5/USBFS.c **** #endif /* (CY_PSOC4) */
2502:Generated_Source\PSoC5/USBFS.c **** }
 2095              		.loc 1 2502 0
 2096 0004 00BF     		nop
 2097 0006 BD46     		mov	sp, r7
 2098              		.cfi_def_cfa_register 13
 2099              		@ sp needed
 2100 0008 80BC     		pop	{r7}
 2101              		.cfi_restore 7
 2102              		.cfi_def_cfa_offset 0
 2103 000a 7047     		bx	lr
 2104              		.cfi_endproc
 2105              	.LFE22:
 2106              		.size	USBFS_EnableSofInt, .-USBFS_EnableSofInt
 2107              		.section	.text.USBFS_DisableSofInt,"ax",%progbits
ARM GAS  C:\Users\CALEBC~1\AppData\Local\Temp\ccUZyw0h.s 			page 82


 2108              		.align	2
 2109              		.global	USBFS_DisableSofInt
 2110              		.thumb
 2111              		.thumb_func
 2112              		.type	USBFS_DisableSofInt, %function
 2113              	USBFS_DisableSofInt:
 2114              	.LFB23:
2503:Generated_Source\PSoC5/USBFS.c **** 
2504:Generated_Source\PSoC5/USBFS.c **** 
2505:Generated_Source\PSoC5/USBFS.c **** /*******************************************************************************
2506:Generated_Source\PSoC5/USBFS.c **** * Function Name: USBFS_DisableSofInt
2507:Generated_Source\PSoC5/USBFS.c **** ****************************************************************************//**
2508:Generated_Source\PSoC5/USBFS.c **** *
2509:Generated_Source\PSoC5/USBFS.c **** *  This function disables interrupt generation when a Start-of-Frame (SOF)
2510:Generated_Source\PSoC5/USBFS.c **** *  packet is received from the host.
2511:Generated_Source\PSoC5/USBFS.c **** *
2512:Generated_Source\PSoC5/USBFS.c **** *******************************************************************************/
2513:Generated_Source\PSoC5/USBFS.c **** void USBFS_DisableSofInt(void) 
2514:Generated_Source\PSoC5/USBFS.c **** {
 2115              		.loc 1 2514 0
 2116              		.cfi_startproc
 2117              		@ args = 0, pretend = 0, frame = 0
 2118              		@ frame_needed = 1, uses_anonymous_args = 0
 2119              		@ link register save eliminated.
 2120 0000 80B4     		push	{r7}
 2121              		.cfi_def_cfa_offset 4
 2122              		.cfi_offset 7, -4
 2123 0002 00AF     		add	r7, sp, #0
 2124              		.cfi_def_cfa_register 7
2515:Generated_Source\PSoC5/USBFS.c **** #if (CY_PSOC4)
2516:Generated_Source\PSoC5/USBFS.c ****     /* Disable SOF interrupt interrupt source. */
2517:Generated_Source\PSoC5/USBFS.c ****     USBFS_INTR_SIE_MASK_REG &= (uint32) ~USBFS_INTR_SIE_SOF_INTR;
2518:Generated_Source\PSoC5/USBFS.c **** #else
2519:Generated_Source\PSoC5/USBFS.c ****     /* Disable SOF interrupt if it is present. */
2520:Generated_Source\PSoC5/USBFS.c ****     #if (USBFS_SOF_ISR_ACTIVE)
2521:Generated_Source\PSoC5/USBFS.c ****         CyIntDisable(USBFS_SOF_VECT_NUM);
2522:Generated_Source\PSoC5/USBFS.c ****     #endif /* (USBFS_SOF_ISR_ACTIVE) */
2523:Generated_Source\PSoC5/USBFS.c **** #endif /* (CY_PSOC4) */
2524:Generated_Source\PSoC5/USBFS.c **** }
 2125              		.loc 1 2524 0
 2126 0004 00BF     		nop
 2127 0006 BD46     		mov	sp, r7
 2128              		.cfi_def_cfa_register 13
 2129              		@ sp needed
 2130 0008 80BC     		pop	{r7}
 2131              		.cfi_restore 7
 2132              		.cfi_def_cfa_offset 0
 2133 000a 7047     		bx	lr
 2134              		.cfi_endproc
 2135              	.LFE23:
 2136              		.size	USBFS_DisableSofInt, .-USBFS_DisableSofInt
 2137              		.text
 2138              	.Letext0:
 2139              		.file 2 "Generated_Source\\PSoC5\\cytypes.h"
 2140              		.file 3 "Generated_Source\\PSoC5\\USBFS.h"
 2141              		.file 4 "Generated_Source\\PSoC5\\USBFS_pvt.h"
 2142              		.section	.debug_info,"",%progbits
ARM GAS  C:\Users\CALEBC~1\AppData\Local\Temp\ccUZyw0h.s 			page 83


 2143              	.Ldebug_info0:
 2144 0000 A9070000 		.4byte	0x7a9
 2145 0004 0400     		.2byte	0x4
 2146 0006 00000000 		.4byte	.Ldebug_abbrev0
 2147 000a 04       		.byte	0x4
 2148 000b 01       		.uleb128 0x1
 2149 000c EA000000 		.4byte	.LASF96
 2150 0010 0C       		.byte	0xc
 2151 0011 EC030000 		.4byte	.LASF97
 2152 0015 4A020000 		.4byte	.LASF98
 2153 0019 00000000 		.4byte	.Ldebug_ranges0+0
 2154 001d 00000000 		.4byte	0
 2155 0021 00000000 		.4byte	.Ldebug_line0
 2156 0025 02       		.uleb128 0x2
 2157 0026 01       		.byte	0x1
 2158 0027 06       		.byte	0x6
 2159 0028 79030000 		.4byte	.LASF0
 2160 002c 02       		.uleb128 0x2
 2161 002d 01       		.byte	0x1
 2162 002e 08       		.byte	0x8
 2163 002f 43030000 		.4byte	.LASF1
 2164 0033 02       		.uleb128 0x2
 2165 0034 02       		.byte	0x2
 2166 0035 05       		.byte	0x5
 2167 0036 AF000000 		.4byte	.LASF2
 2168 003a 02       		.uleb128 0x2
 2169 003b 02       		.byte	0x2
 2170 003c 07       		.byte	0x7
 2171 003d 19040000 		.4byte	.LASF3
 2172 0041 02       		.uleb128 0x2
 2173 0042 04       		.byte	0x4
 2174 0043 05       		.byte	0x5
 2175 0044 36020000 		.4byte	.LASF4
 2176 0048 02       		.uleb128 0x2
 2177 0049 04       		.byte	0x4
 2178 004a 07       		.byte	0x7
 2179 004b 8A040000 		.4byte	.LASF5
 2180 004f 02       		.uleb128 0x2
 2181 0050 08       		.byte	0x8
 2182 0051 05       		.byte	0x5
 2183 0052 1C020000 		.4byte	.LASF6
 2184 0056 02       		.uleb128 0x2
 2185 0057 08       		.byte	0x8
 2186 0058 07       		.byte	0x7
 2187 0059 85030000 		.4byte	.LASF7
 2188 005d 03       		.uleb128 0x3
 2189 005e 04       		.byte	0x4
 2190 005f 05       		.byte	0x5
 2191 0060 696E7400 		.ascii	"int\000"
 2192 0064 02       		.uleb128 0x2
 2193 0065 04       		.byte	0x4
 2194 0066 07       		.byte	0x7
 2195 0067 9C030000 		.4byte	.LASF8
 2196 006b 04       		.uleb128 0x4
 2197 006c E8010000 		.4byte	.LASF9
 2198 0070 02       		.byte	0x2
 2199 0071 9201     		.2byte	0x192
ARM GAS  C:\Users\CALEBC~1\AppData\Local\Temp\ccUZyw0h.s 			page 84


 2200 0073 2C000000 		.4byte	0x2c
 2201 0077 04       		.uleb128 0x4
 2202 0078 C8010000 		.4byte	.LASF10
 2203 007c 02       		.byte	0x2
 2204 007d 9301     		.2byte	0x193
 2205 007f 3A000000 		.4byte	0x3a
 2206 0083 04       		.uleb128 0x4
 2207 0084 7E040000 		.4byte	.LASF11
 2208 0088 02       		.byte	0x2
 2209 0089 9401     		.2byte	0x194
 2210 008b 48000000 		.4byte	0x48
 2211 008f 02       		.uleb128 0x2
 2212 0090 04       		.byte	0x4
 2213 0091 04       		.byte	0x4
 2214 0092 16020000 		.4byte	.LASF12
 2215 0096 02       		.uleb128 0x2
 2216 0097 08       		.byte	0x8
 2217 0098 04       		.byte	0x4
 2218 0099 4D050000 		.4byte	.LASF13
 2219 009d 02       		.uleb128 0x2
 2220 009e 01       		.byte	0x1
 2221 009f 08       		.byte	0x8
 2222 00a0 0B040000 		.4byte	.LASF14
 2223 00a4 04       		.uleb128 0x4
 2224 00a5 85040000 		.4byte	.LASF15
 2225 00a9 02       		.byte	0x2
 2226 00aa 3C02     		.2byte	0x23c
 2227 00ac B0000000 		.4byte	0xb0
 2228 00b0 05       		.uleb128 0x5
 2229 00b1 6B000000 		.4byte	0x6b
 2230 00b5 04       		.uleb128 0x4
 2231 00b6 C4030000 		.4byte	.LASF16
 2232 00ba 02       		.byte	0x2
 2233 00bb 3E02     		.2byte	0x23e
 2234 00bd C1000000 		.4byte	0xc1
 2235 00c1 05       		.uleb128 0x5
 2236 00c2 83000000 		.4byte	0x83
 2237 00c6 02       		.uleb128 0x2
 2238 00c7 08       		.byte	0x8
 2239 00c8 04       		.byte	0x4
 2240 00c9 84010000 		.4byte	.LASF17
 2241 00cd 02       		.uleb128 0x2
 2242 00ce 04       		.byte	0x4
 2243 00cf 07       		.byte	0x7
 2244 00d0 D4000000 		.4byte	.LASF18
 2245 00d4 06       		.uleb128 0x6
 2246 00d5 0C       		.byte	0xc
 2247 00d6 03       		.byte	0x3
 2248 00d7 8D       		.byte	0x8d
 2249 00d8 49010000 		.4byte	0x149
 2250 00dc 07       		.uleb128 0x7
 2251 00dd E5030000 		.4byte	.LASF19
 2252 00e1 03       		.byte	0x3
 2253 00e2 8F       		.byte	0x8f
 2254 00e3 6B000000 		.4byte	0x6b
 2255 00e7 00       		.byte	0
 2256 00e8 07       		.uleb128 0x7
ARM GAS  C:\Users\CALEBC~1\AppData\Local\Temp\ccUZyw0h.s 			page 85


 2257 00e9 3F020000 		.4byte	.LASF20
 2258 00ed 03       		.byte	0x3
 2259 00ee 90       		.byte	0x90
 2260 00ef 6B000000 		.4byte	0x6b
 2261 00f3 01       		.byte	0x1
 2262 00f4 07       		.uleb128 0x7
 2263 00f5 5A040000 		.4byte	.LASF21
 2264 00f9 03       		.byte	0x3
 2265 00fa 91       		.byte	0x91
 2266 00fb 6B000000 		.4byte	0x6b
 2267 00ff 02       		.byte	0x2
 2268 0100 07       		.uleb128 0x7
 2269 0101 16000000 		.4byte	.LASF22
 2270 0105 03       		.byte	0x3
 2271 0106 92       		.byte	0x92
 2272 0107 6B000000 		.4byte	0x6b
 2273 010b 03       		.byte	0x3
 2274 010c 07       		.uleb128 0x7
 2275 010d 2C040000 		.4byte	.LASF23
 2276 0111 03       		.byte	0x3
 2277 0112 93       		.byte	0x93
 2278 0113 6B000000 		.4byte	0x6b
 2279 0117 04       		.byte	0x4
 2280 0118 07       		.uleb128 0x7
 2281 0119 DD000000 		.4byte	.LASF24
 2282 011d 03       		.byte	0x3
 2283 011e 94       		.byte	0x94
 2284 011f 6B000000 		.4byte	0x6b
 2285 0123 05       		.byte	0x5
 2286 0124 07       		.uleb128 0x7
 2287 0125 81000000 		.4byte	.LASF25
 2288 0129 03       		.byte	0x3
 2289 012a 95       		.byte	0x95
 2290 012b 77000000 		.4byte	0x77
 2291 012f 06       		.byte	0x6
 2292 0130 07       		.uleb128 0x7
 2293 0131 DF040000 		.4byte	.LASF26
 2294 0135 03       		.byte	0x3
 2295 0136 96       		.byte	0x96
 2296 0137 77000000 		.4byte	0x77
 2297 013b 08       		.byte	0x8
 2298 013c 07       		.uleb128 0x7
 2299 013d CA030000 		.4byte	.LASF27
 2300 0141 03       		.byte	0x3
 2301 0142 97       		.byte	0x97
 2302 0143 6B000000 		.4byte	0x6b
 2303 0147 0A       		.byte	0xa
 2304 0148 00       		.byte	0
 2305 0149 08       		.uleb128 0x8
 2306 014a 1A030000 		.4byte	.LASF28
 2307 014e 03       		.byte	0x3
 2308 014f 98       		.byte	0x98
 2309 0150 D4000000 		.4byte	0xd4
 2310 0154 06       		.uleb128 0x6
 2311 0155 10       		.byte	0x10
 2312 0156 03       		.byte	0x3
 2313 0157 D4       		.byte	0xd4
ARM GAS  C:\Users\CALEBC~1\AppData\Local\Temp\ccUZyw0h.s 			page 86


 2314 0158 8D010000 		.4byte	0x18d
 2315 015c 07       		.uleb128 0x7
 2316 015d 31040000 		.4byte	.LASF29
 2317 0161 03       		.byte	0x3
 2318 0162 D6       		.byte	0xd6
 2319 0163 6B000000 		.4byte	0x6b
 2320 0167 00       		.byte	0
 2321 0168 07       		.uleb128 0x7
 2322 0169 3F040000 		.4byte	.LASF30
 2323 016d 03       		.byte	0x3
 2324 016e D7       		.byte	0xd7
 2325 016f 6B000000 		.4byte	0x6b
 2326 0173 01       		.byte	0x1
 2327 0174 07       		.uleb128 0x7
 2328 0175 2A020000 		.4byte	.LASF31
 2329 0179 03       		.byte	0x3
 2330 017a D8       		.byte	0xd8
 2331 017b 6B000000 		.4byte	0x6b
 2332 017f 02       		.byte	0x2
 2333 0180 09       		.uleb128 0x9
 2334 0181 67617000 		.ascii	"gap\000"
 2335 0185 03       		.byte	0x3
 2336 0186 D9       		.byte	0xd9
 2337 0187 8D010000 		.4byte	0x18d
 2338 018b 03       		.byte	0x3
 2339 018c 00       		.byte	0
 2340 018d 0A       		.uleb128 0xa
 2341 018e 6B000000 		.4byte	0x6b
 2342 0192 9D010000 		.4byte	0x19d
 2343 0196 0B       		.uleb128 0xb
 2344 0197 CD000000 		.4byte	0xcd
 2345 019b 0C       		.byte	0xc
 2346 019c 00       		.byte	0
 2347 019d 08       		.uleb128 0x8
 2348 019e AB010000 		.4byte	.LASF32
 2349 01a2 03       		.byte	0x3
 2350 01a3 DA       		.byte	0xda
 2351 01a4 54010000 		.4byte	0x154
 2352 01a8 06       		.uleb128 0x6
 2353 01a9 10       		.byte	0x10
 2354 01aa 03       		.byte	0x3
 2355 01ab E6       		.byte	0xe6
 2356 01ac 29020000 		.4byte	0x229
 2357 01b0 07       		.uleb128 0x7
 2358 01b1 30020000 		.4byte	.LASF33
 2359 01b5 03       		.byte	0x3
 2360 01b6 E8       		.byte	0xe8
 2361 01b7 6B000000 		.4byte	0x6b
 2362 01bb 00       		.byte	0
 2363 01bc 07       		.uleb128 0x7
 2364 01bd 92000000 		.4byte	.LASF34
 2365 01c1 03       		.byte	0x3
 2366 01c2 E9       		.byte	0xe9
 2367 01c3 6B000000 		.4byte	0x6b
 2368 01c7 01       		.byte	0x1
 2369 01c8 07       		.uleb128 0x7
 2370 01c9 65030000 		.4byte	.LASF35
ARM GAS  C:\Users\CALEBC~1\AppData\Local\Temp\ccUZyw0h.s 			page 87


 2371 01cd 03       		.byte	0x3
 2372 01ce EA       		.byte	0xea
 2373 01cf 6B000000 		.4byte	0x6b
 2374 01d3 02       		.byte	0x2
 2375 01d4 07       		.uleb128 0x7
 2376 01d5 BF010000 		.4byte	.LASF36
 2377 01d9 03       		.byte	0x3
 2378 01da EB       		.byte	0xeb
 2379 01db 6B000000 		.4byte	0x6b
 2380 01df 03       		.byte	0x3
 2381 01e0 07       		.uleb128 0x7
 2382 01e1 BF030000 		.4byte	.LASF37
 2383 01e5 03       		.byte	0x3
 2384 01e6 EC       		.byte	0xec
 2385 01e7 6B000000 		.4byte	0x6b
 2386 01eb 04       		.byte	0x4
 2387 01ec 07       		.uleb128 0x7
 2388 01ed 7B050000 		.4byte	.LASF38
 2389 01f1 03       		.byte	0x3
 2390 01f2 ED       		.byte	0xed
 2391 01f3 6B000000 		.4byte	0x6b
 2392 01f7 05       		.byte	0x5
 2393 01f8 07       		.uleb128 0x7
 2394 01f9 CF010000 		.4byte	.LASF39
 2395 01fd 03       		.byte	0x3
 2396 01fe EE       		.byte	0xee
 2397 01ff 6B000000 		.4byte	0x6b
 2398 0203 06       		.byte	0x6
 2399 0204 07       		.uleb128 0x7
 2400 0205 73050000 		.4byte	.LASF40
 2401 0209 03       		.byte	0x3
 2402 020a EF       		.byte	0xef
 2403 020b 6B000000 		.4byte	0x6b
 2404 020f 07       		.byte	0x7
 2405 0210 07       		.uleb128 0x7
 2406 0211 BA030000 		.4byte	.LASF41
 2407 0215 03       		.byte	0x3
 2408 0216 F0       		.byte	0xf0
 2409 0217 6B000000 		.4byte	0x6b
 2410 021b 08       		.byte	0x8
 2411 021c 09       		.uleb128 0x9
 2412 021d 67617000 		.ascii	"gap\000"
 2413 0221 03       		.byte	0x3
 2414 0222 F1       		.byte	0xf1
 2415 0223 29020000 		.4byte	0x229
 2416 0227 09       		.byte	0x9
 2417 0228 00       		.byte	0
 2418 0229 0A       		.uleb128 0xa
 2419 022a 6B000000 		.4byte	0x6b
 2420 022e 39020000 		.4byte	0x239
 2421 0232 0B       		.uleb128 0xb
 2422 0233 CD000000 		.4byte	0xcd
 2423 0237 06       		.byte	0x6
 2424 0238 00       		.byte	0
 2425 0239 08       		.uleb128 0x8
 2426 023a 51030000 		.4byte	.LASF42
 2427 023e 03       		.byte	0x3
ARM GAS  C:\Users\CALEBC~1\AppData\Local\Temp\ccUZyw0h.s 			page 88


 2428 023f F2       		.byte	0xf2
 2429 0240 A8010000 		.4byte	0x1a8
 2430 0244 0C       		.uleb128 0xc
 2431 0245 90       		.byte	0x90
 2432 0246 03       		.byte	0x3
 2433 0247 0E01     		.2byte	0x10e
 2434 0249 5B020000 		.4byte	0x25b
 2435 024d 0D       		.uleb128 0xd
 2436 024e 02020000 		.4byte	.LASF43
 2437 0252 03       		.byte	0x3
 2438 0253 1001     		.2byte	0x110
 2439 0255 5B020000 		.4byte	0x25b
 2440 0259 00       		.byte	0
 2441 025a 00       		.byte	0
 2442 025b 0A       		.uleb128 0xa
 2443 025c 9D010000 		.4byte	0x19d
 2444 0260 6B020000 		.4byte	0x26b
 2445 0264 0B       		.uleb128 0xb
 2446 0265 CD000000 		.4byte	0xcd
 2447 0269 08       		.byte	0x8
 2448 026a 00       		.byte	0
 2449 026b 04       		.uleb128 0x4
 2450 026c 61000000 		.4byte	.LASF44
 2451 0270 03       		.byte	0x3
 2452 0271 1101     		.2byte	0x111
 2453 0273 44020000 		.4byte	0x244
 2454 0277 0C       		.uleb128 0xc
 2455 0278 90       		.byte	0x90
 2456 0279 03       		.byte	0x3
 2457 027a 1401     		.2byte	0x114
 2458 027c 8E020000 		.4byte	0x28e
 2459 0280 0D       		.uleb128 0xd
 2460 0281 E4000000 		.4byte	.LASF45
 2461 0285 03       		.byte	0x3
 2462 0286 1601     		.2byte	0x116
 2463 0288 8E020000 		.4byte	0x28e
 2464 028c 00       		.byte	0
 2465 028d 00       		.byte	0
 2466 028e 0A       		.uleb128 0xa
 2467 028f 39020000 		.4byte	0x239
 2468 0293 9E020000 		.4byte	0x29e
 2469 0297 0B       		.uleb128 0xb
 2470 0298 CD000000 		.4byte	0xcd
 2471 029c 08       		.byte	0x8
 2472 029d 00       		.byte	0
 2473 029e 04       		.uleb128 0x4
 2474 029f F5020000 		.4byte	.LASF46
 2475 02a3 03       		.byte	0x3
 2476 02a4 1701     		.2byte	0x117
 2477 02a6 77020000 		.4byte	0x277
 2478 02aa 0E       		.uleb128 0xe
 2479 02ab 67050000 		.4byte	.LASF49
 2480 02af 01       		.byte	0x1
 2481 02b0 BA       		.byte	0xba
 2482 02b1 00000000 		.4byte	.LFB0
 2483 02b5 3C000000 		.4byte	.LFE0-.LFB0
 2484 02b9 01       		.uleb128 0x1
ARM GAS  C:\Users\CALEBC~1\AppData\Local\Temp\ccUZyw0h.s 			page 89


 2485 02ba 9C       		.byte	0x9c
 2486 02bb DC020000 		.4byte	0x2dc
 2487 02bf 0F       		.uleb128 0xf
 2488 02c0 0F020000 		.4byte	.LASF47
 2489 02c4 01       		.byte	0x1
 2490 02c5 BA       		.byte	0xba
 2491 02c6 6B000000 		.4byte	0x6b
 2492 02ca 02       		.uleb128 0x2
 2493 02cb 91       		.byte	0x91
 2494 02cc 77       		.sleb128 -9
 2495 02cd 0F       		.uleb128 0xf
 2496 02ce A6010000 		.4byte	.LASF48
 2497 02d2 01       		.byte	0x1
 2498 02d3 BA       		.byte	0xba
 2499 02d4 6B000000 		.4byte	0x6b
 2500 02d8 02       		.uleb128 0x2
 2501 02d9 91       		.byte	0x91
 2502 02da 76       		.sleb128 -10
 2503 02db 00       		.byte	0
 2504 02dc 0E       		.uleb128 0xe
 2505 02dd 83050000 		.4byte	.LASF50
 2506 02e1 01       		.byte	0x1
 2507 02e2 D3       		.byte	0xd3
 2508 02e3 00000000 		.4byte	.LFB1
 2509 02e7 AC010000 		.4byte	.LFE1-.LFB1
 2510 02eb 01       		.uleb128 0x1
 2511 02ec 9C       		.byte	0x9c
 2512 02ed 0C030000 		.4byte	0x30c
 2513 02f1 10       		.uleb128 0x10
 2514 02f2 C1050000 		.4byte	.LASF51
 2515 02f6 01       		.byte	0x1
 2516 02f7 FA       		.byte	0xfa
 2517 02f8 6B000000 		.4byte	0x6b
 2518 02fc 02       		.uleb128 0x2
 2519 02fd 91       		.byte	0x91
 2520 02fe 75       		.sleb128 -11
 2521 02ff 11       		.uleb128 0x11
 2522 0300 6900     		.ascii	"i\000"
 2523 0302 01       		.byte	0x1
 2524 0303 FD       		.byte	0xfd
 2525 0304 77000000 		.4byte	0x77
 2526 0308 02       		.uleb128 0x2
 2527 0309 91       		.byte	0x91
 2528 030a 76       		.sleb128 -10
 2529 030b 00       		.byte	0
 2530 030c 12       		.uleb128 0x12
 2531 030d EE010000 		.4byte	.LASF52
 2532 0311 01       		.byte	0x1
 2533 0312 CC01     		.2byte	0x1cc
 2534 0314 00000000 		.4byte	.LFB2
 2535 0318 10010000 		.4byte	.LFE2-.LFB2
 2536 031c 01       		.uleb128 0x1
 2537 031d 9C       		.byte	0x9c
 2538 031e 41030000 		.4byte	0x341
 2539 0322 13       		.uleb128 0x13
 2540 0323 0F020000 		.4byte	.LASF47
 2541 0327 01       		.byte	0x1
ARM GAS  C:\Users\CALEBC~1\AppData\Local\Temp\ccUZyw0h.s 			page 90


 2542 0328 CC01     		.2byte	0x1cc
 2543 032a 6B000000 		.4byte	0x6b
 2544 032e 02       		.uleb128 0x2
 2545 032f 91       		.byte	0x91
 2546 0330 77       		.sleb128 -9
 2547 0331 13       		.uleb128 0x13
 2548 0332 A6010000 		.4byte	.LASF48
 2549 0336 01       		.byte	0x1
 2550 0337 CC01     		.2byte	0x1cc
 2551 0339 6B000000 		.4byte	0x6b
 2552 033d 02       		.uleb128 0x2
 2553 033e 91       		.byte	0x91
 2554 033f 76       		.sleb128 -10
 2555 0340 00       		.byte	0
 2556 0341 14       		.uleb128 0x14
 2557 0342 90010000 		.4byte	.LASF80
 2558 0346 01       		.byte	0x1
 2559 0347 9F02     		.2byte	0x29f
 2560 0349 00000000 		.4byte	.LFB3
 2561 034d 68000000 		.4byte	.LFE3-.LFB3
 2562 0351 01       		.uleb128 0x1
 2563 0352 9C       		.byte	0x9c
 2564 0353 12       		.uleb128 0x12
 2565 0354 76000000 		.4byte	.LASF53
 2566 0358 01       		.byte	0x1
 2567 0359 D902     		.2byte	0x2d9
 2568 035b 00000000 		.4byte	.LFB4
 2569 035f 04010000 		.4byte	.LFE4-.LFB4
 2570 0363 01       		.uleb128 0x1
 2571 0364 9C       		.byte	0x9c
 2572 0365 79030000 		.4byte	0x379
 2573 0369 15       		.uleb128 0x15
 2574 036a C1050000 		.4byte	.LASF51
 2575 036e 01       		.byte	0x1
 2576 036f DB02     		.2byte	0x2db
 2577 0371 6B000000 		.4byte	0x6b
 2578 0375 02       		.uleb128 0x2
 2579 0376 91       		.byte	0x91
 2580 0377 77       		.sleb128 -9
 2581 0378 00       		.byte	0
 2582 0379 16       		.uleb128 0x16
 2583 037a EA040000 		.4byte	.LASF55
 2584 037e 01       		.byte	0x1
 2585 037f 5103     		.2byte	0x351
 2586 0381 6B000000 		.4byte	0x6b
 2587 0385 00000000 		.4byte	.LFB5
 2588 0389 38000000 		.4byte	.LFE5-.LFB5
 2589 038d 01       		.uleb128 0x1
 2590 038e 9C       		.byte	0x9c
 2591 038f A3030000 		.4byte	0x3a3
 2592 0393 15       		.uleb128 0x15
 2593 0394 38040000 		.4byte	.LASF54
 2594 0398 01       		.byte	0x1
 2595 0399 5303     		.2byte	0x353
 2596 039b 6B000000 		.4byte	0x6b
 2597 039f 02       		.uleb128 0x2
 2598 03a0 91       		.byte	0x91
ARM GAS  C:\Users\CALEBC~1\AppData\Local\Temp\ccUZyw0h.s 			page 91


 2599 03a1 77       		.sleb128 -9
 2600 03a2 00       		.byte	0
 2601 03a3 17       		.uleb128 0x17
 2602 03a4 B9020000 		.4byte	.LASF78
 2603 03a8 01       		.byte	0x1
 2604 03a9 6803     		.2byte	0x368
 2605 03ab 6B000000 		.4byte	0x6b
 2606 03af 00000000 		.4byte	.LFB6
 2607 03b3 18000000 		.4byte	.LFE6-.LFB6
 2608 03b7 01       		.uleb128 0x1
 2609 03b8 9C       		.byte	0x9c
 2610 03b9 16       		.uleb128 0x16
 2611 03ba FE040000 		.4byte	.LASF56
 2612 03be 01       		.byte	0x1
 2613 03bf 8203     		.2byte	0x382
 2614 03c1 6B000000 		.4byte	0x6b
 2615 03c5 00000000 		.4byte	.LFB7
 2616 03c9 30000000 		.4byte	.LFE7-.LFB7
 2617 03cd 01       		.uleb128 0x1
 2618 03ce 9C       		.byte	0x9c
 2619 03cf E3030000 		.4byte	0x3e3
 2620 03d3 18       		.uleb128 0x18
 2621 03d4 72657300 		.ascii	"res\000"
 2622 03d8 01       		.byte	0x1
 2623 03d9 8403     		.2byte	0x384
 2624 03db 6B000000 		.4byte	0x6b
 2625 03df 02       		.uleb128 0x2
 2626 03e0 91       		.byte	0x91
 2627 03e1 77       		.sleb128 -9
 2628 03e2 00       		.byte	0
 2629 03e3 16       		.uleb128 0x16
 2630 03e4 64040000 		.4byte	.LASF57
 2631 03e8 01       		.byte	0x1
 2632 03e9 9F03     		.2byte	0x39f
 2633 03eb 6B000000 		.4byte	0x6b
 2634 03ef 00000000 		.4byte	.LFB8
 2635 03f3 20000000 		.4byte	.LFE8-.LFB8
 2636 03f7 01       		.uleb128 0x1
 2637 03f8 9C       		.byte	0x9c
 2638 03f9 0D040000 		.4byte	0x40d
 2639 03fd 13       		.uleb128 0x13
 2640 03fe 1F000000 		.4byte	.LASF58
 2641 0402 01       		.byte	0x1
 2642 0403 9F03     		.2byte	0x39f
 2643 0405 6B000000 		.4byte	0x6b
 2644 0409 02       		.uleb128 0x2
 2645 040a 91       		.byte	0x91
 2646 040b 77       		.sleb128 -9
 2647 040c 00       		.byte	0
 2648 040d 16       		.uleb128 0x16
 2649 040e E4020000 		.4byte	.LASF59
 2650 0412 01       		.byte	0x1
 2651 0413 BF03     		.2byte	0x3bf
 2652 0415 6B000000 		.4byte	0x6b
 2653 0419 00000000 		.4byte	.LFB9
 2654 041d 2C000000 		.4byte	.LFE9-.LFB9
 2655 0421 01       		.uleb128 0x1
ARM GAS  C:\Users\CALEBC~1\AppData\Local\Temp\ccUZyw0h.s 			page 92


 2656 0422 9C       		.byte	0x9c
 2657 0423 37040000 		.4byte	0x437
 2658 0427 13       		.uleb128 0x13
 2659 0428 10040000 		.4byte	.LASF60
 2660 042c 01       		.byte	0x1
 2661 042d BF03     		.2byte	0x3bf
 2662 042f 6B000000 		.4byte	0x6b
 2663 0433 02       		.uleb128 0x2
 2664 0434 91       		.byte	0x91
 2665 0435 77       		.sleb128 -9
 2666 0436 00       		.byte	0
 2667 0437 16       		.uleb128 0x16
 2668 0438 D4030000 		.4byte	.LASF61
 2669 043c 01       		.byte	0x1
 2670 043d D603     		.2byte	0x3d6
 2671 043f 77000000 		.4byte	0x77
 2672 0443 00000000 		.4byte	.LFB10
 2673 0447 60000000 		.4byte	.LFE10-.LFB10
 2674 044b 01       		.uleb128 0x1
 2675 044c 9C       		.byte	0x9c
 2676 044d 70040000 		.4byte	0x470
 2677 0451 13       		.uleb128 0x13
 2678 0452 10040000 		.4byte	.LASF60
 2679 0456 01       		.byte	0x1
 2680 0457 D603     		.2byte	0x3d6
 2681 0459 6B000000 		.4byte	0x6b
 2682 045d 02       		.uleb128 0x2
 2683 045e 91       		.byte	0x91
 2684 045f 6F       		.sleb128 -17
 2685 0460 15       		.uleb128 0x15
 2686 0461 2F000000 		.4byte	.LASF62
 2687 0465 01       		.byte	0x1
 2688 0466 D803     		.2byte	0x3d8
 2689 0468 77000000 		.4byte	0x77
 2690 046c 02       		.uleb128 0x2
 2691 046d 91       		.byte	0x91
 2692 046e 76       		.sleb128 -10
 2693 046f 00       		.byte	0
 2694 0470 12       		.uleb128 0x12
 2695 0471 A9030000 		.4byte	.LASF63
 2696 0475 01       		.byte	0x1
 2697 0476 4A04     		.2byte	0x44a
 2698 0478 00000000 		.4byte	.LFB11
 2699 047c AC000000 		.4byte	.LFE11-.LFB11
 2700 0480 01       		.uleb128 0x1
 2701 0481 9C       		.byte	0x9c
 2702 0482 C3040000 		.4byte	0x4c3
 2703 0486 13       		.uleb128 0x13
 2704 0487 10040000 		.4byte	.LASF60
 2705 048b 01       		.byte	0x1
 2706 048c 4A04     		.2byte	0x44a
 2707 048e 6B000000 		.4byte	0x6b
 2708 0492 02       		.uleb128 0x2
 2709 0493 91       		.byte	0x91
 2710 0494 67       		.sleb128 -25
 2711 0495 13       		.uleb128 0x13
 2712 0496 8C000000 		.4byte	.LASF64
ARM GAS  C:\Users\CALEBC~1\AppData\Local\Temp\ccUZyw0h.s 			page 93


 2713 049a 01       		.byte	0x1
 2714 049b 4A04     		.2byte	0x44a
 2715 049d C3040000 		.4byte	0x4c3
 2716 04a1 02       		.uleb128 0x2
 2717 04a2 91       		.byte	0x91
 2718 04a3 60       		.sleb128 -32
 2719 04a4 18       		.uleb128 0x18
 2720 04a5 73726300 		.ascii	"src\000"
 2721 04a9 01       		.byte	0x1
 2722 04aa 4D04     		.2byte	0x44d
 2723 04ac 77000000 		.4byte	0x77
 2724 04b0 02       		.uleb128 0x2
 2725 04b1 91       		.byte	0x91
 2726 04b2 6E       		.sleb128 -18
 2727 04b3 18       		.uleb128 0x18
 2728 04b4 64737400 		.ascii	"dst\000"
 2729 04b8 01       		.byte	0x1
 2730 04b9 4E04     		.2byte	0x44e
 2731 04bb 77000000 		.4byte	0x77
 2732 04bf 02       		.uleb128 0x2
 2733 04c0 91       		.byte	0x91
 2734 04c1 6C       		.sleb128 -20
 2735 04c2 00       		.byte	0
 2736 04c3 19       		.uleb128 0x19
 2737 04c4 04       		.byte	0x4
 2738 04c5 C9040000 		.4byte	0x4c9
 2739 04c9 1A       		.uleb128 0x1a
 2740 04ca 6B000000 		.4byte	0x6b
 2741 04ce 12       		.uleb128 0x12
 2742 04cf 6A030000 		.4byte	.LASF65
 2743 04d3 01       		.byte	0x1
 2744 04d4 C004     		.2byte	0x4c0
 2745 04d6 00000000 		.4byte	.LFB12
 2746 04da 64000000 		.4byte	.LFE12-.LFB12
 2747 04de 01       		.uleb128 0x1
 2748 04df 9C       		.byte	0x9c
 2749 04e0 01050000 		.4byte	0x501
 2750 04e4 13       		.uleb128 0x13
 2751 04e5 10040000 		.4byte	.LASF60
 2752 04e9 01       		.byte	0x1
 2753 04ea C004     		.2byte	0x4c0
 2754 04ec 6B000000 		.4byte	0x6b
 2755 04f0 02       		.uleb128 0x2
 2756 04f1 91       		.byte	0x91
 2757 04f2 6F       		.sleb128 -17
 2758 04f3 18       		.uleb128 0x18
 2759 04f4 6900     		.ascii	"i\000"
 2760 04f6 01       		.byte	0x1
 2761 04f7 C204     		.2byte	0x4c2
 2762 04f9 6B000000 		.4byte	0x6b
 2763 04fd 02       		.uleb128 0x2
 2764 04fe 91       		.byte	0x91
 2765 04ff 77       		.sleb128 -9
 2766 0500 00       		.byte	0
 2767 0501 12       		.uleb128 0x12
 2768 0502 D0040000 		.4byte	.LASF66
 2769 0506 01       		.byte	0x1
ARM GAS  C:\Users\CALEBC~1\AppData\Local\Temp\ccUZyw0h.s 			page 94


 2770 0507 3E05     		.2byte	0x53e
 2771 0509 00000000 		.4byte	.LFB13
 2772 050d 98010000 		.4byte	.LFE13-.LFB13
 2773 0511 01       		.uleb128 0x1
 2774 0512 9C       		.byte	0x9c
 2775 0513 45050000 		.4byte	0x545
 2776 0517 13       		.uleb128 0x13
 2777 0518 10040000 		.4byte	.LASF60
 2778 051c 01       		.byte	0x1
 2779 051d 3E05     		.2byte	0x53e
 2780 051f 6B000000 		.4byte	0x6b
 2781 0523 02       		.uleb128 0x2
 2782 0524 91       		.byte	0x91
 2783 0525 6F       		.sleb128 -17
 2784 0526 13       		.uleb128 0x13
 2785 0527 8C000000 		.4byte	.LASF64
 2786 052b 01       		.byte	0x1
 2787 052c 3E05     		.2byte	0x53e
 2788 052e C3040000 		.4byte	0x4c3
 2789 0532 02       		.uleb128 0x2
 2790 0533 91       		.byte	0x91
 2791 0534 68       		.sleb128 -24
 2792 0535 13       		.uleb128 0x13
 2793 0536 08020000 		.4byte	.LASF67
 2794 053a 01       		.byte	0x1
 2795 053b 3E05     		.2byte	0x53e
 2796 053d 77000000 		.4byte	0x77
 2797 0541 02       		.uleb128 0x2
 2798 0542 91       		.byte	0x91
 2799 0543 6C       		.sleb128 -20
 2800 0544 00       		.byte	0
 2801 0545 1B       		.uleb128 0x1b
 2802 0546 0A030000 		.4byte	.LASF68
 2803 054a 01       		.byte	0x1
 2804 054b 7506     		.2byte	0x675
 2805 054d 77000000 		.4byte	0x77
 2806 0551 00000000 		.4byte	.LFB14
 2807 0555 08010000 		.4byte	.LFE14-.LFB14
 2808 0559 01       		.uleb128 0x1
 2809 055a 9C       		.byte	0x9c
 2810 055b 8D050000 		.4byte	0x58d
 2811 055f 13       		.uleb128 0x13
 2812 0560 10040000 		.4byte	.LASF60
 2813 0564 01       		.byte	0x1
 2814 0565 7506     		.2byte	0x675
 2815 0567 6B000000 		.4byte	0x6b
 2816 056b 02       		.uleb128 0x2
 2817 056c 91       		.byte	0x91
 2818 056d 77       		.sleb128 -9
 2819 056e 13       		.uleb128 0x13
 2820 056f 8C000000 		.4byte	.LASF64
 2821 0573 01       		.byte	0x1
 2822 0574 7506     		.2byte	0x675
 2823 0576 8D050000 		.4byte	0x58d
 2824 057a 02       		.uleb128 0x2
 2825 057b 91       		.byte	0x91
 2826 057c 70       		.sleb128 -16
ARM GAS  C:\Users\CALEBC~1\AppData\Local\Temp\ccUZyw0h.s 			page 95


 2827 057d 13       		.uleb128 0x13
 2828 057e 08020000 		.4byte	.LASF67
 2829 0582 01       		.byte	0x1
 2830 0583 7506     		.2byte	0x675
 2831 0585 77000000 		.4byte	0x77
 2832 0589 02       		.uleb128 0x2
 2833 058a 91       		.byte	0x91
 2834 058b 74       		.sleb128 -12
 2835 058c 00       		.byte	0
 2836 058d 19       		.uleb128 0x19
 2837 058e 04       		.byte	0x4
 2838 058f 6B000000 		.4byte	0x6b
 2839 0593 1C       		.uleb128 0x1c
 2840 0594 BE040000 		.4byte	.LASF69
 2841 0598 01       		.byte	0x1
 2842 0599 E408     		.2byte	0x8e4
 2843 059b 00000000 		.4byte	.LFB15
 2844 059f 5C000000 		.4byte	.LFE15-.LFB15
 2845 05a3 01       		.uleb128 0x1
 2846 05a4 9C       		.byte	0x9c
 2847 05a5 B9050000 		.4byte	0x5b9
 2848 05a9 13       		.uleb128 0x13
 2849 05aa 10040000 		.4byte	.LASF60
 2850 05ae 01       		.byte	0x1
 2851 05af E408     		.2byte	0x8e4
 2852 05b1 6B000000 		.4byte	0x6b
 2853 05b5 02       		.uleb128 0x2
 2854 05b6 91       		.byte	0x91
 2855 05b7 77       		.sleb128 -9
 2856 05b8 00       		.byte	0
 2857 05b9 1C       		.uleb128 0x1c
 2858 05ba 29050000 		.4byte	.LASF70
 2859 05be 01       		.byte	0x1
 2860 05bf FC08     		.2byte	0x8fc
 2861 05c1 00000000 		.4byte	.LFB16
 2862 05c5 34000000 		.4byte	.LFE16-.LFB16
 2863 05c9 01       		.uleb128 0x1
 2864 05ca 9C       		.byte	0x9c
 2865 05cb DF050000 		.4byte	0x5df
 2866 05cf 13       		.uleb128 0x13
 2867 05d0 10040000 		.4byte	.LASF60
 2868 05d4 01       		.byte	0x1
 2869 05d5 FC08     		.2byte	0x8fc
 2870 05d7 6B000000 		.4byte	0x6b
 2871 05db 02       		.uleb128 0x2
 2872 05dc 91       		.byte	0x91
 2873 05dd 77       		.sleb128 -9
 2874 05de 00       		.byte	0
 2875 05df 1C       		.uleb128 0x1c
 2876 05e0 42000000 		.4byte	.LASF71
 2877 05e4 01       		.byte	0x1
 2878 05e5 1A09     		.2byte	0x91a
 2879 05e7 00000000 		.4byte	.LFB17
 2880 05eb 20000000 		.4byte	.LFE17-.LFB17
 2881 05ef 01       		.uleb128 0x1
 2882 05f0 9C       		.byte	0x9c
 2883 05f1 05060000 		.4byte	0x605
ARM GAS  C:\Users\CALEBC~1\AppData\Local\Temp\ccUZyw0h.s 			page 96


 2884 05f5 13       		.uleb128 0x13
 2885 05f6 8E050000 		.4byte	.LASF72
 2886 05fa 01       		.byte	0x1
 2887 05fb 1A09     		.2byte	0x91a
 2888 05fd 6B000000 		.4byte	0x6b
 2889 0601 02       		.uleb128 0x2
 2890 0602 91       		.byte	0x91
 2891 0603 77       		.sleb128 -9
 2892 0604 00       		.byte	0
 2893 0605 16       		.uleb128 0x16
 2894 0606 D0020000 		.4byte	.LASF73
 2895 060a 01       		.byte	0x1
 2896 060b 3309     		.2byte	0x933
 2897 060d 6B000000 		.4byte	0x6b
 2898 0611 00000000 		.4byte	.LFB18
 2899 0615 40000000 		.4byte	.LFE18-.LFB18
 2900 0619 01       		.uleb128 0x1
 2901 061a 9C       		.byte	0x9c
 2902 061b 3D060000 		.4byte	0x63d
 2903 061f 13       		.uleb128 0x13
 2904 0620 10040000 		.4byte	.LASF60
 2905 0624 01       		.byte	0x1
 2906 0625 3309     		.2byte	0x933
 2907 0627 6B000000 		.4byte	0x6b
 2908 062b 02       		.uleb128 0x2
 2909 062c 91       		.byte	0x91
 2910 062d 6F       		.sleb128 -17
 2911 062e 18       		.uleb128 0x18
 2912 062f 637200   		.ascii	"cr\000"
 2913 0632 01       		.byte	0x1
 2914 0633 3509     		.2byte	0x935
 2915 0635 6B000000 		.4byte	0x6b
 2916 0639 02       		.uleb128 0x2
 2917 063a 91       		.byte	0x91
 2918 063b 77       		.sleb128 -9
 2919 063c 00       		.byte	0
 2920 063d 1C       		.uleb128 0x1c
 2921 063e 9A000000 		.4byte	.LASF74
 2922 0642 01       		.byte	0x1
 2923 0643 5C09     		.2byte	0x95c
 2924 0645 00000000 		.4byte	.LFB19
 2925 0649 40000000 		.4byte	.LFE19-.LFB19
 2926 064d 01       		.uleb128 0x1
 2927 064e 9C       		.byte	0x9c
 2928 064f 63060000 		.4byte	0x663
 2929 0653 13       		.uleb128 0x13
 2930 0654 78010000 		.4byte	.LASF75
 2931 0658 01       		.byte	0x1
 2932 0659 5C09     		.2byte	0x95c
 2933 065b 6B000000 		.4byte	0x6b
 2934 065f 02       		.uleb128 0x2
 2935 0660 91       		.byte	0x91
 2936 0661 77       		.sleb128 -9
 2937 0662 00       		.byte	0
 2938 0663 16       		.uleb128 0x16
 2939 0664 3C050000 		.4byte	.LASF76
 2940 0668 01       		.byte	0x1
ARM GAS  C:\Users\CALEBC~1\AppData\Local\Temp\ccUZyw0h.s 			page 97


 2941 0669 9509     		.2byte	0x995
 2942 066b 6B000000 		.4byte	0x6b
 2943 066f 00000000 		.4byte	.LFB20
 2944 0673 2C000000 		.4byte	.LFE20-.LFB20
 2945 0677 01       		.uleb128 0x1
 2946 0678 9C       		.byte	0x9c
 2947 0679 8D060000 		.4byte	0x68d
 2948 067d 15       		.uleb128 0x15
 2949 067e 9E020000 		.4byte	.LASF77
 2950 0682 01       		.byte	0x1
 2951 0683 9709     		.2byte	0x997
 2952 0685 6B000000 		.4byte	0x6b
 2953 0689 02       		.uleb128 0x2
 2954 068a 91       		.byte	0x91
 2955 068b 77       		.sleb128 -9
 2956 068c 00       		.byte	0
 2957 068d 17       		.uleb128 0x17
 2958 068e D2050000 		.4byte	.LASF79
 2959 0692 01       		.byte	0x1
 2960 0693 AD09     		.2byte	0x9ad
 2961 0695 6B000000 		.4byte	0x6b
 2962 0699 00000000 		.4byte	.LFB21
 2963 069d 1C000000 		.4byte	.LFE21-.LFB21
 2964 06a1 01       		.uleb128 0x1
 2965 06a2 9C       		.byte	0x9c
 2966 06a3 14       		.uleb128 0x14
 2967 06a4 4E000000 		.4byte	.LASF81
 2968 06a8 01       		.byte	0x1
 2969 06a9 BB09     		.2byte	0x9bb
 2970 06ab 00000000 		.4byte	.LFB22
 2971 06af 0C000000 		.4byte	.LFE22-.LFB22
 2972 06b3 01       		.uleb128 0x1
 2973 06b4 9C       		.byte	0x9c
 2974 06b5 14       		.uleb128 0x14
 2975 06b6 46040000 		.4byte	.LASF82
 2976 06ba 01       		.byte	0x1
 2977 06bb D109     		.2byte	0x9d1
 2978 06bd 00000000 		.4byte	.LFB23
 2979 06c1 0C000000 		.4byte	.LFE23-.LFB23
 2980 06c5 01       		.uleb128 0x1
 2981 06c6 9C       		.byte	0x9c
 2982 06c7 1D       		.uleb128 0x1d
 2983 06c8 34000000 		.4byte	.LASF83
 2984 06cc 01       		.byte	0x1
 2985 06cd 28       		.byte	0x28
 2986 06ce 6B000000 		.4byte	0x6b
 2987 06d2 05       		.uleb128 0x5
 2988 06d3 03       		.byte	0x3
 2989 06d4 00000000 		.4byte	USBFS_initVar
 2990 06d8 1E       		.uleb128 0x1e
 2991 06d9 9C040000 		.4byte	.LASF84
 2992 06dd 03       		.byte	0x3
 2993 06de D202     		.2byte	0x2d2
 2994 06e0 B0000000 		.4byte	0xb0
 2995 06e4 1E       		.uleb128 0x1e
 2996 06e5 D4010000 		.4byte	.LASF85
 2997 06e9 03       		.byte	0x3
ARM GAS  C:\Users\CALEBC~1\AppData\Local\Temp\ccUZyw0h.s 			page 98


 2998 06ea D302     		.2byte	0x2d3
 2999 06ec B0000000 		.4byte	0xb0
 3000 06f0 1E       		.uleb128 0x1e
 3001 06f1 2F030000 		.4byte	.LASF86
 3002 06f5 03       		.byte	0x3
 3003 06f6 D402     		.2byte	0x2d4
 3004 06f8 B0000000 		.4byte	0xb0
 3005 06fc 1E       		.uleb128 0x1e
 3006 06fd B9000000 		.4byte	.LASF87
 3007 0701 03       		.byte	0x3
 3008 0702 D502     		.2byte	0x2d5
 3009 0704 B0000000 		.4byte	0xb0
 3010 0708 1E       		.uleb128 0x1e
 3011 0709 54050000 		.4byte	.LASF88
 3012 070d 03       		.byte	0x3
 3013 070e D602     		.2byte	0x2d6
 3014 0710 B0000000 		.4byte	0xb0
 3015 0714 1F       		.uleb128 0x1f
 3016 0715 00000000 		.4byte	.LASF89
 3017 0719 04       		.byte	0x4
 3018 071a 72       		.byte	0x72
 3019 071b B0000000 		.4byte	0xb0
 3020 071f 0A       		.uleb128 0xa
 3021 0720 B0000000 		.4byte	0xb0
 3022 0724 2F070000 		.4byte	0x72f
 3023 0728 0B       		.uleb128 0xb
 3024 0729 CD000000 		.4byte	0xcd
 3025 072d 00       		.byte	0
 3026 072e 00       		.byte	0
 3027 072f 1F       		.uleb128 0x1f
 3028 0730 AA050000 		.4byte	.LASF90
 3029 0734 04       		.byte	0x4
 3030 0735 73       		.byte	0x73
 3031 0736 3A070000 		.4byte	0x73a
 3032 073a 05       		.uleb128 0x5
 3033 073b 1F070000 		.4byte	0x71f
 3034 073f 1F       		.uleb128 0x1f
 3035 0740 A5020000 		.4byte	.LASF91
 3036 0744 04       		.byte	0x4
 3037 0745 75       		.byte	0x75
 3038 0746 B0000000 		.4byte	0xb0
 3039 074a 0A       		.uleb128 0xa
 3040 074b 5A070000 		.4byte	0x75a
 3041 074f 5A070000 		.4byte	0x75a
 3042 0753 0B       		.uleb128 0xb
 3043 0754 CD000000 		.4byte	0xcd
 3044 0758 08       		.byte	0x8
 3045 0759 00       		.byte	0
 3046 075a 05       		.uleb128 0x5
 3047 075b 49010000 		.4byte	0x149
 3048 075f 1F       		.uleb128 0x1f
 3049 0760 A9040000 		.4byte	.LASF92
 3050 0764 04       		.byte	0x4
 3051 0765 79       		.byte	0x79
 3052 0766 6A070000 		.4byte	0x76a
 3053 076a 05       		.uleb128 0x5
 3054 076b 4A070000 		.4byte	0x74a
ARM GAS  C:\Users\CALEBC~1\AppData\Local\Temp\ccUZyw0h.s 			page 99


 3055 076f 0A       		.uleb128 0xa
 3056 0770 6B000000 		.4byte	0x6b
 3057 0774 7F070000 		.4byte	0x77f
 3058 0778 0B       		.uleb128 0xb
 3059 0779 CD000000 		.4byte	0xcd
 3060 077d 08       		.byte	0x8
 3061 077e 00       		.byte	0
 3062 077f 1D       		.uleb128 0x1d
 3063 0780 1B050000 		.4byte	.LASF93
 3064 0784 01       		.byte	0x1
 3065 0785 3D       		.byte	0x3d
 3066 0786 6F070000 		.4byte	0x76f
 3067 078a 05       		.uleb128 0x5
 3068 078b 03       		.byte	0x3
 3069 078c 00000000 		.4byte	USBFS_DmaChan
 3070 0790 1D       		.uleb128 0x1d
 3071 0791 B2040000 		.4byte	.LASF94
 3072 0795 01       		.byte	0x1
 3073 0796 40       		.byte	0x40
 3074 0797 6F070000 		.4byte	0x76f
 3075 079b 05       		.uleb128 0x5
 3076 079c 03       		.byte	0x3
 3077 079d 00000000 		.4byte	USBFS_DmaTd
 3078 07a1 1F       		.uleb128 0x1f
 3079 07a2 95050000 		.4byte	.LASF95
 3080 07a6 04       		.byte	0x4
 3081 07a7 9B       		.byte	0x9b
 3082 07a8 B0000000 		.4byte	0xb0
 3083 07ac 00       		.byte	0
 3084              		.section	.debug_abbrev,"",%progbits
 3085              	.Ldebug_abbrev0:
 3086 0000 01       		.uleb128 0x1
 3087 0001 11       		.uleb128 0x11
 3088 0002 01       		.byte	0x1
 3089 0003 25       		.uleb128 0x25
 3090 0004 0E       		.uleb128 0xe
 3091 0005 13       		.uleb128 0x13
 3092 0006 0B       		.uleb128 0xb
 3093 0007 03       		.uleb128 0x3
 3094 0008 0E       		.uleb128 0xe
 3095 0009 1B       		.uleb128 0x1b
 3096 000a 0E       		.uleb128 0xe
 3097 000b 55       		.uleb128 0x55
 3098 000c 17       		.uleb128 0x17
 3099 000d 11       		.uleb128 0x11
 3100 000e 01       		.uleb128 0x1
 3101 000f 10       		.uleb128 0x10
 3102 0010 17       		.uleb128 0x17
 3103 0011 00       		.byte	0
 3104 0012 00       		.byte	0
 3105 0013 02       		.uleb128 0x2
 3106 0014 24       		.uleb128 0x24
 3107 0015 00       		.byte	0
 3108 0016 0B       		.uleb128 0xb
 3109 0017 0B       		.uleb128 0xb
 3110 0018 3E       		.uleb128 0x3e
 3111 0019 0B       		.uleb128 0xb
ARM GAS  C:\Users\CALEBC~1\AppData\Local\Temp\ccUZyw0h.s 			page 100


 3112 001a 03       		.uleb128 0x3
 3113 001b 0E       		.uleb128 0xe
 3114 001c 00       		.byte	0
 3115 001d 00       		.byte	0
 3116 001e 03       		.uleb128 0x3
 3117 001f 24       		.uleb128 0x24
 3118 0020 00       		.byte	0
 3119 0021 0B       		.uleb128 0xb
 3120 0022 0B       		.uleb128 0xb
 3121 0023 3E       		.uleb128 0x3e
 3122 0024 0B       		.uleb128 0xb
 3123 0025 03       		.uleb128 0x3
 3124 0026 08       		.uleb128 0x8
 3125 0027 00       		.byte	0
 3126 0028 00       		.byte	0
 3127 0029 04       		.uleb128 0x4
 3128 002a 16       		.uleb128 0x16
 3129 002b 00       		.byte	0
 3130 002c 03       		.uleb128 0x3
 3131 002d 0E       		.uleb128 0xe
 3132 002e 3A       		.uleb128 0x3a
 3133 002f 0B       		.uleb128 0xb
 3134 0030 3B       		.uleb128 0x3b
 3135 0031 05       		.uleb128 0x5
 3136 0032 49       		.uleb128 0x49
 3137 0033 13       		.uleb128 0x13
 3138 0034 00       		.byte	0
 3139 0035 00       		.byte	0
 3140 0036 05       		.uleb128 0x5
 3141 0037 35       		.uleb128 0x35
 3142 0038 00       		.byte	0
 3143 0039 49       		.uleb128 0x49
 3144 003a 13       		.uleb128 0x13
 3145 003b 00       		.byte	0
 3146 003c 00       		.byte	0
 3147 003d 06       		.uleb128 0x6
 3148 003e 13       		.uleb128 0x13
 3149 003f 01       		.byte	0x1
 3150 0040 0B       		.uleb128 0xb
 3151 0041 0B       		.uleb128 0xb
 3152 0042 3A       		.uleb128 0x3a
 3153 0043 0B       		.uleb128 0xb
 3154 0044 3B       		.uleb128 0x3b
 3155 0045 0B       		.uleb128 0xb
 3156 0046 01       		.uleb128 0x1
 3157 0047 13       		.uleb128 0x13
 3158 0048 00       		.byte	0
 3159 0049 00       		.byte	0
 3160 004a 07       		.uleb128 0x7
 3161 004b 0D       		.uleb128 0xd
 3162 004c 00       		.byte	0
 3163 004d 03       		.uleb128 0x3
 3164 004e 0E       		.uleb128 0xe
 3165 004f 3A       		.uleb128 0x3a
 3166 0050 0B       		.uleb128 0xb
 3167 0051 3B       		.uleb128 0x3b
 3168 0052 0B       		.uleb128 0xb
ARM GAS  C:\Users\CALEBC~1\AppData\Local\Temp\ccUZyw0h.s 			page 101


 3169 0053 49       		.uleb128 0x49
 3170 0054 13       		.uleb128 0x13
 3171 0055 38       		.uleb128 0x38
 3172 0056 0B       		.uleb128 0xb
 3173 0057 00       		.byte	0
 3174 0058 00       		.byte	0
 3175 0059 08       		.uleb128 0x8
 3176 005a 16       		.uleb128 0x16
 3177 005b 00       		.byte	0
 3178 005c 03       		.uleb128 0x3
 3179 005d 0E       		.uleb128 0xe
 3180 005e 3A       		.uleb128 0x3a
 3181 005f 0B       		.uleb128 0xb
 3182 0060 3B       		.uleb128 0x3b
 3183 0061 0B       		.uleb128 0xb
 3184 0062 49       		.uleb128 0x49
 3185 0063 13       		.uleb128 0x13
 3186 0064 00       		.byte	0
 3187 0065 00       		.byte	0
 3188 0066 09       		.uleb128 0x9
 3189 0067 0D       		.uleb128 0xd
 3190 0068 00       		.byte	0
 3191 0069 03       		.uleb128 0x3
 3192 006a 08       		.uleb128 0x8
 3193 006b 3A       		.uleb128 0x3a
 3194 006c 0B       		.uleb128 0xb
 3195 006d 3B       		.uleb128 0x3b
 3196 006e 0B       		.uleb128 0xb
 3197 006f 49       		.uleb128 0x49
 3198 0070 13       		.uleb128 0x13
 3199 0071 38       		.uleb128 0x38
 3200 0072 0B       		.uleb128 0xb
 3201 0073 00       		.byte	0
 3202 0074 00       		.byte	0
 3203 0075 0A       		.uleb128 0xa
 3204 0076 01       		.uleb128 0x1
 3205 0077 01       		.byte	0x1
 3206 0078 49       		.uleb128 0x49
 3207 0079 13       		.uleb128 0x13
 3208 007a 01       		.uleb128 0x1
 3209 007b 13       		.uleb128 0x13
 3210 007c 00       		.byte	0
 3211 007d 00       		.byte	0
 3212 007e 0B       		.uleb128 0xb
 3213 007f 21       		.uleb128 0x21
 3214 0080 00       		.byte	0
 3215 0081 49       		.uleb128 0x49
 3216 0082 13       		.uleb128 0x13
 3217 0083 2F       		.uleb128 0x2f
 3218 0084 0B       		.uleb128 0xb
 3219 0085 00       		.byte	0
 3220 0086 00       		.byte	0
 3221 0087 0C       		.uleb128 0xc
 3222 0088 13       		.uleb128 0x13
 3223 0089 01       		.byte	0x1
 3224 008a 0B       		.uleb128 0xb
 3225 008b 0B       		.uleb128 0xb
ARM GAS  C:\Users\CALEBC~1\AppData\Local\Temp\ccUZyw0h.s 			page 102


 3226 008c 3A       		.uleb128 0x3a
 3227 008d 0B       		.uleb128 0xb
 3228 008e 3B       		.uleb128 0x3b
 3229 008f 05       		.uleb128 0x5
 3230 0090 01       		.uleb128 0x1
 3231 0091 13       		.uleb128 0x13
 3232 0092 00       		.byte	0
 3233 0093 00       		.byte	0
 3234 0094 0D       		.uleb128 0xd
 3235 0095 0D       		.uleb128 0xd
 3236 0096 00       		.byte	0
 3237 0097 03       		.uleb128 0x3
 3238 0098 0E       		.uleb128 0xe
 3239 0099 3A       		.uleb128 0x3a
 3240 009a 0B       		.uleb128 0xb
 3241 009b 3B       		.uleb128 0x3b
 3242 009c 05       		.uleb128 0x5
 3243 009d 49       		.uleb128 0x49
 3244 009e 13       		.uleb128 0x13
 3245 009f 38       		.uleb128 0x38
 3246 00a0 0B       		.uleb128 0xb
 3247 00a1 00       		.byte	0
 3248 00a2 00       		.byte	0
 3249 00a3 0E       		.uleb128 0xe
 3250 00a4 2E       		.uleb128 0x2e
 3251 00a5 01       		.byte	0x1
 3252 00a6 3F       		.uleb128 0x3f
 3253 00a7 19       		.uleb128 0x19
 3254 00a8 03       		.uleb128 0x3
 3255 00a9 0E       		.uleb128 0xe
 3256 00aa 3A       		.uleb128 0x3a
 3257 00ab 0B       		.uleb128 0xb
 3258 00ac 3B       		.uleb128 0x3b
 3259 00ad 0B       		.uleb128 0xb
 3260 00ae 27       		.uleb128 0x27
 3261 00af 19       		.uleb128 0x19
 3262 00b0 11       		.uleb128 0x11
 3263 00b1 01       		.uleb128 0x1
 3264 00b2 12       		.uleb128 0x12
 3265 00b3 06       		.uleb128 0x6
 3266 00b4 40       		.uleb128 0x40
 3267 00b5 18       		.uleb128 0x18
 3268 00b6 9642     		.uleb128 0x2116
 3269 00b8 19       		.uleb128 0x19
 3270 00b9 01       		.uleb128 0x1
 3271 00ba 13       		.uleb128 0x13
 3272 00bb 00       		.byte	0
 3273 00bc 00       		.byte	0
 3274 00bd 0F       		.uleb128 0xf
 3275 00be 05       		.uleb128 0x5
 3276 00bf 00       		.byte	0
 3277 00c0 03       		.uleb128 0x3
 3278 00c1 0E       		.uleb128 0xe
 3279 00c2 3A       		.uleb128 0x3a
 3280 00c3 0B       		.uleb128 0xb
 3281 00c4 3B       		.uleb128 0x3b
 3282 00c5 0B       		.uleb128 0xb
ARM GAS  C:\Users\CALEBC~1\AppData\Local\Temp\ccUZyw0h.s 			page 103


 3283 00c6 49       		.uleb128 0x49
 3284 00c7 13       		.uleb128 0x13
 3285 00c8 02       		.uleb128 0x2
 3286 00c9 18       		.uleb128 0x18
 3287 00ca 00       		.byte	0
 3288 00cb 00       		.byte	0
 3289 00cc 10       		.uleb128 0x10
 3290 00cd 34       		.uleb128 0x34
 3291 00ce 00       		.byte	0
 3292 00cf 03       		.uleb128 0x3
 3293 00d0 0E       		.uleb128 0xe
 3294 00d1 3A       		.uleb128 0x3a
 3295 00d2 0B       		.uleb128 0xb
 3296 00d3 3B       		.uleb128 0x3b
 3297 00d4 0B       		.uleb128 0xb
 3298 00d5 49       		.uleb128 0x49
 3299 00d6 13       		.uleb128 0x13
 3300 00d7 02       		.uleb128 0x2
 3301 00d8 18       		.uleb128 0x18
 3302 00d9 00       		.byte	0
 3303 00da 00       		.byte	0
 3304 00db 11       		.uleb128 0x11
 3305 00dc 34       		.uleb128 0x34
 3306 00dd 00       		.byte	0
 3307 00de 03       		.uleb128 0x3
 3308 00df 08       		.uleb128 0x8
 3309 00e0 3A       		.uleb128 0x3a
 3310 00e1 0B       		.uleb128 0xb
 3311 00e2 3B       		.uleb128 0x3b
 3312 00e3 0B       		.uleb128 0xb
 3313 00e4 49       		.uleb128 0x49
 3314 00e5 13       		.uleb128 0x13
 3315 00e6 02       		.uleb128 0x2
 3316 00e7 18       		.uleb128 0x18
 3317 00e8 00       		.byte	0
 3318 00e9 00       		.byte	0
 3319 00ea 12       		.uleb128 0x12
 3320 00eb 2E       		.uleb128 0x2e
 3321 00ec 01       		.byte	0x1
 3322 00ed 3F       		.uleb128 0x3f
 3323 00ee 19       		.uleb128 0x19
 3324 00ef 03       		.uleb128 0x3
 3325 00f0 0E       		.uleb128 0xe
 3326 00f1 3A       		.uleb128 0x3a
 3327 00f2 0B       		.uleb128 0xb
 3328 00f3 3B       		.uleb128 0x3b
 3329 00f4 05       		.uleb128 0x5
 3330 00f5 27       		.uleb128 0x27
 3331 00f6 19       		.uleb128 0x19
 3332 00f7 11       		.uleb128 0x11
 3333 00f8 01       		.uleb128 0x1
 3334 00f9 12       		.uleb128 0x12
 3335 00fa 06       		.uleb128 0x6
 3336 00fb 40       		.uleb128 0x40
 3337 00fc 18       		.uleb128 0x18
 3338 00fd 9642     		.uleb128 0x2116
 3339 00ff 19       		.uleb128 0x19
ARM GAS  C:\Users\CALEBC~1\AppData\Local\Temp\ccUZyw0h.s 			page 104


 3340 0100 01       		.uleb128 0x1
 3341 0101 13       		.uleb128 0x13
 3342 0102 00       		.byte	0
 3343 0103 00       		.byte	0
 3344 0104 13       		.uleb128 0x13
 3345 0105 05       		.uleb128 0x5
 3346 0106 00       		.byte	0
 3347 0107 03       		.uleb128 0x3
 3348 0108 0E       		.uleb128 0xe
 3349 0109 3A       		.uleb128 0x3a
 3350 010a 0B       		.uleb128 0xb
 3351 010b 3B       		.uleb128 0x3b
 3352 010c 05       		.uleb128 0x5
 3353 010d 49       		.uleb128 0x49
 3354 010e 13       		.uleb128 0x13
 3355 010f 02       		.uleb128 0x2
 3356 0110 18       		.uleb128 0x18
 3357 0111 00       		.byte	0
 3358 0112 00       		.byte	0
 3359 0113 14       		.uleb128 0x14
 3360 0114 2E       		.uleb128 0x2e
 3361 0115 00       		.byte	0
 3362 0116 3F       		.uleb128 0x3f
 3363 0117 19       		.uleb128 0x19
 3364 0118 03       		.uleb128 0x3
 3365 0119 0E       		.uleb128 0xe
 3366 011a 3A       		.uleb128 0x3a
 3367 011b 0B       		.uleb128 0xb
 3368 011c 3B       		.uleb128 0x3b
 3369 011d 05       		.uleb128 0x5
 3370 011e 27       		.uleb128 0x27
 3371 011f 19       		.uleb128 0x19
 3372 0120 11       		.uleb128 0x11
 3373 0121 01       		.uleb128 0x1
 3374 0122 12       		.uleb128 0x12
 3375 0123 06       		.uleb128 0x6
 3376 0124 40       		.uleb128 0x40
 3377 0125 18       		.uleb128 0x18
 3378 0126 9742     		.uleb128 0x2117
 3379 0128 19       		.uleb128 0x19
 3380 0129 00       		.byte	0
 3381 012a 00       		.byte	0
 3382 012b 15       		.uleb128 0x15
 3383 012c 34       		.uleb128 0x34
 3384 012d 00       		.byte	0
 3385 012e 03       		.uleb128 0x3
 3386 012f 0E       		.uleb128 0xe
 3387 0130 3A       		.uleb128 0x3a
 3388 0131 0B       		.uleb128 0xb
 3389 0132 3B       		.uleb128 0x3b
 3390 0133 05       		.uleb128 0x5
 3391 0134 49       		.uleb128 0x49
 3392 0135 13       		.uleb128 0x13
 3393 0136 02       		.uleb128 0x2
 3394 0137 18       		.uleb128 0x18
 3395 0138 00       		.byte	0
 3396 0139 00       		.byte	0
ARM GAS  C:\Users\CALEBC~1\AppData\Local\Temp\ccUZyw0h.s 			page 105


 3397 013a 16       		.uleb128 0x16
 3398 013b 2E       		.uleb128 0x2e
 3399 013c 01       		.byte	0x1
 3400 013d 3F       		.uleb128 0x3f
 3401 013e 19       		.uleb128 0x19
 3402 013f 03       		.uleb128 0x3
 3403 0140 0E       		.uleb128 0xe
 3404 0141 3A       		.uleb128 0x3a
 3405 0142 0B       		.uleb128 0xb
 3406 0143 3B       		.uleb128 0x3b
 3407 0144 05       		.uleb128 0x5
 3408 0145 27       		.uleb128 0x27
 3409 0146 19       		.uleb128 0x19
 3410 0147 49       		.uleb128 0x49
 3411 0148 13       		.uleb128 0x13
 3412 0149 11       		.uleb128 0x11
 3413 014a 01       		.uleb128 0x1
 3414 014b 12       		.uleb128 0x12
 3415 014c 06       		.uleb128 0x6
 3416 014d 40       		.uleb128 0x40
 3417 014e 18       		.uleb128 0x18
 3418 014f 9742     		.uleb128 0x2117
 3419 0151 19       		.uleb128 0x19
 3420 0152 01       		.uleb128 0x1
 3421 0153 13       		.uleb128 0x13
 3422 0154 00       		.byte	0
 3423 0155 00       		.byte	0
 3424 0156 17       		.uleb128 0x17
 3425 0157 2E       		.uleb128 0x2e
 3426 0158 00       		.byte	0
 3427 0159 3F       		.uleb128 0x3f
 3428 015a 19       		.uleb128 0x19
 3429 015b 03       		.uleb128 0x3
 3430 015c 0E       		.uleb128 0xe
 3431 015d 3A       		.uleb128 0x3a
 3432 015e 0B       		.uleb128 0xb
 3433 015f 3B       		.uleb128 0x3b
 3434 0160 05       		.uleb128 0x5
 3435 0161 27       		.uleb128 0x27
 3436 0162 19       		.uleb128 0x19
 3437 0163 49       		.uleb128 0x49
 3438 0164 13       		.uleb128 0x13
 3439 0165 11       		.uleb128 0x11
 3440 0166 01       		.uleb128 0x1
 3441 0167 12       		.uleb128 0x12
 3442 0168 06       		.uleb128 0x6
 3443 0169 40       		.uleb128 0x40
 3444 016a 18       		.uleb128 0x18
 3445 016b 9742     		.uleb128 0x2117
 3446 016d 19       		.uleb128 0x19
 3447 016e 00       		.byte	0
 3448 016f 00       		.byte	0
 3449 0170 18       		.uleb128 0x18
 3450 0171 34       		.uleb128 0x34
 3451 0172 00       		.byte	0
 3452 0173 03       		.uleb128 0x3
 3453 0174 08       		.uleb128 0x8
ARM GAS  C:\Users\CALEBC~1\AppData\Local\Temp\ccUZyw0h.s 			page 106


 3454 0175 3A       		.uleb128 0x3a
 3455 0176 0B       		.uleb128 0xb
 3456 0177 3B       		.uleb128 0x3b
 3457 0178 05       		.uleb128 0x5
 3458 0179 49       		.uleb128 0x49
 3459 017a 13       		.uleb128 0x13
 3460 017b 02       		.uleb128 0x2
 3461 017c 18       		.uleb128 0x18
 3462 017d 00       		.byte	0
 3463 017e 00       		.byte	0
 3464 017f 19       		.uleb128 0x19
 3465 0180 0F       		.uleb128 0xf
 3466 0181 00       		.byte	0
 3467 0182 0B       		.uleb128 0xb
 3468 0183 0B       		.uleb128 0xb
 3469 0184 49       		.uleb128 0x49
 3470 0185 13       		.uleb128 0x13
 3471 0186 00       		.byte	0
 3472 0187 00       		.byte	0
 3473 0188 1A       		.uleb128 0x1a
 3474 0189 26       		.uleb128 0x26
 3475 018a 00       		.byte	0
 3476 018b 49       		.uleb128 0x49
 3477 018c 13       		.uleb128 0x13
 3478 018d 00       		.byte	0
 3479 018e 00       		.byte	0
 3480 018f 1B       		.uleb128 0x1b
 3481 0190 2E       		.uleb128 0x2e
 3482 0191 01       		.byte	0x1
 3483 0192 3F       		.uleb128 0x3f
 3484 0193 19       		.uleb128 0x19
 3485 0194 03       		.uleb128 0x3
 3486 0195 0E       		.uleb128 0xe
 3487 0196 3A       		.uleb128 0x3a
 3488 0197 0B       		.uleb128 0xb
 3489 0198 3B       		.uleb128 0x3b
 3490 0199 05       		.uleb128 0x5
 3491 019a 27       		.uleb128 0x27
 3492 019b 19       		.uleb128 0x19
 3493 019c 49       		.uleb128 0x49
 3494 019d 13       		.uleb128 0x13
 3495 019e 11       		.uleb128 0x11
 3496 019f 01       		.uleb128 0x1
 3497 01a0 12       		.uleb128 0x12
 3498 01a1 06       		.uleb128 0x6
 3499 01a2 40       		.uleb128 0x40
 3500 01a3 18       		.uleb128 0x18
 3501 01a4 9642     		.uleb128 0x2116
 3502 01a6 19       		.uleb128 0x19
 3503 01a7 01       		.uleb128 0x1
 3504 01a8 13       		.uleb128 0x13
 3505 01a9 00       		.byte	0
 3506 01aa 00       		.byte	0
 3507 01ab 1C       		.uleb128 0x1c
 3508 01ac 2E       		.uleb128 0x2e
 3509 01ad 01       		.byte	0x1
 3510 01ae 3F       		.uleb128 0x3f
ARM GAS  C:\Users\CALEBC~1\AppData\Local\Temp\ccUZyw0h.s 			page 107


 3511 01af 19       		.uleb128 0x19
 3512 01b0 03       		.uleb128 0x3
 3513 01b1 0E       		.uleb128 0xe
 3514 01b2 3A       		.uleb128 0x3a
 3515 01b3 0B       		.uleb128 0xb
 3516 01b4 3B       		.uleb128 0x3b
 3517 01b5 05       		.uleb128 0x5
 3518 01b6 27       		.uleb128 0x27
 3519 01b7 19       		.uleb128 0x19
 3520 01b8 11       		.uleb128 0x11
 3521 01b9 01       		.uleb128 0x1
 3522 01ba 12       		.uleb128 0x12
 3523 01bb 06       		.uleb128 0x6
 3524 01bc 40       		.uleb128 0x40
 3525 01bd 18       		.uleb128 0x18
 3526 01be 9742     		.uleb128 0x2117
 3527 01c0 19       		.uleb128 0x19
 3528 01c1 01       		.uleb128 0x1
 3529 01c2 13       		.uleb128 0x13
 3530 01c3 00       		.byte	0
 3531 01c4 00       		.byte	0
 3532 01c5 1D       		.uleb128 0x1d
 3533 01c6 34       		.uleb128 0x34
 3534 01c7 00       		.byte	0
 3535 01c8 03       		.uleb128 0x3
 3536 01c9 0E       		.uleb128 0xe
 3537 01ca 3A       		.uleb128 0x3a
 3538 01cb 0B       		.uleb128 0xb
 3539 01cc 3B       		.uleb128 0x3b
 3540 01cd 0B       		.uleb128 0xb
 3541 01ce 49       		.uleb128 0x49
 3542 01cf 13       		.uleb128 0x13
 3543 01d0 3F       		.uleb128 0x3f
 3544 01d1 19       		.uleb128 0x19
 3545 01d2 02       		.uleb128 0x2
 3546 01d3 18       		.uleb128 0x18
 3547 01d4 00       		.byte	0
 3548 01d5 00       		.byte	0
 3549 01d6 1E       		.uleb128 0x1e
 3550 01d7 34       		.uleb128 0x34
 3551 01d8 00       		.byte	0
 3552 01d9 03       		.uleb128 0x3
 3553 01da 0E       		.uleb128 0xe
 3554 01db 3A       		.uleb128 0x3a
 3555 01dc 0B       		.uleb128 0xb
 3556 01dd 3B       		.uleb128 0x3b
 3557 01de 05       		.uleb128 0x5
 3558 01df 49       		.uleb128 0x49
 3559 01e0 13       		.uleb128 0x13
 3560 01e1 3F       		.uleb128 0x3f
 3561 01e2 19       		.uleb128 0x19
 3562 01e3 3C       		.uleb128 0x3c
 3563 01e4 19       		.uleb128 0x19
 3564 01e5 00       		.byte	0
 3565 01e6 00       		.byte	0
 3566 01e7 1F       		.uleb128 0x1f
 3567 01e8 34       		.uleb128 0x34
ARM GAS  C:\Users\CALEBC~1\AppData\Local\Temp\ccUZyw0h.s 			page 108


 3568 01e9 00       		.byte	0
 3569 01ea 03       		.uleb128 0x3
 3570 01eb 0E       		.uleb128 0xe
 3571 01ec 3A       		.uleb128 0x3a
 3572 01ed 0B       		.uleb128 0xb
 3573 01ee 3B       		.uleb128 0x3b
 3574 01ef 0B       		.uleb128 0xb
 3575 01f0 49       		.uleb128 0x49
 3576 01f1 13       		.uleb128 0x13
 3577 01f2 3F       		.uleb128 0x3f
 3578 01f3 19       		.uleb128 0x19
 3579 01f4 3C       		.uleb128 0x3c
 3580 01f5 19       		.uleb128 0x19
 3581 01f6 00       		.byte	0
 3582 01f7 00       		.byte	0
 3583 01f8 00       		.byte	0
 3584              		.section	.debug_aranges,"",%progbits
 3585 0000 D4000000 		.4byte	0xd4
 3586 0004 0200     		.2byte	0x2
 3587 0006 00000000 		.4byte	.Ldebug_info0
 3588 000a 04       		.byte	0x4
 3589 000b 00       		.byte	0
 3590 000c 0000     		.2byte	0
 3591 000e 0000     		.2byte	0
 3592 0010 00000000 		.4byte	.LFB0
 3593 0014 3C000000 		.4byte	.LFE0-.LFB0
 3594 0018 00000000 		.4byte	.LFB1
 3595 001c AC010000 		.4byte	.LFE1-.LFB1
 3596 0020 00000000 		.4byte	.LFB2
 3597 0024 10010000 		.4byte	.LFE2-.LFB2
 3598 0028 00000000 		.4byte	.LFB3
 3599 002c 68000000 		.4byte	.LFE3-.LFB3
 3600 0030 00000000 		.4byte	.LFB4
 3601 0034 04010000 		.4byte	.LFE4-.LFB4
 3602 0038 00000000 		.4byte	.LFB5
 3603 003c 38000000 		.4byte	.LFE5-.LFB5
 3604 0040 00000000 		.4byte	.LFB6
 3605 0044 18000000 		.4byte	.LFE6-.LFB6
 3606 0048 00000000 		.4byte	.LFB7
 3607 004c 30000000 		.4byte	.LFE7-.LFB7
 3608 0050 00000000 		.4byte	.LFB8
 3609 0054 20000000 		.4byte	.LFE8-.LFB8
 3610 0058 00000000 		.4byte	.LFB9
 3611 005c 2C000000 		.4byte	.LFE9-.LFB9
 3612 0060 00000000 		.4byte	.LFB10
 3613 0064 60000000 		.4byte	.LFE10-.LFB10
 3614 0068 00000000 		.4byte	.LFB11
 3615 006c AC000000 		.4byte	.LFE11-.LFB11
 3616 0070 00000000 		.4byte	.LFB12
 3617 0074 64000000 		.4byte	.LFE12-.LFB12
 3618 0078 00000000 		.4byte	.LFB13
 3619 007c 98010000 		.4byte	.LFE13-.LFB13
 3620 0080 00000000 		.4byte	.LFB14
 3621 0084 08010000 		.4byte	.LFE14-.LFB14
 3622 0088 00000000 		.4byte	.LFB15
 3623 008c 5C000000 		.4byte	.LFE15-.LFB15
 3624 0090 00000000 		.4byte	.LFB16
ARM GAS  C:\Users\CALEBC~1\AppData\Local\Temp\ccUZyw0h.s 			page 109


 3625 0094 34000000 		.4byte	.LFE16-.LFB16
 3626 0098 00000000 		.4byte	.LFB17
 3627 009c 20000000 		.4byte	.LFE17-.LFB17
 3628 00a0 00000000 		.4byte	.LFB18
 3629 00a4 40000000 		.4byte	.LFE18-.LFB18
 3630 00a8 00000000 		.4byte	.LFB19
 3631 00ac 40000000 		.4byte	.LFE19-.LFB19
 3632 00b0 00000000 		.4byte	.LFB20
 3633 00b4 2C000000 		.4byte	.LFE20-.LFB20
 3634 00b8 00000000 		.4byte	.LFB21
 3635 00bc 1C000000 		.4byte	.LFE21-.LFB21
 3636 00c0 00000000 		.4byte	.LFB22
 3637 00c4 0C000000 		.4byte	.LFE22-.LFB22
 3638 00c8 00000000 		.4byte	.LFB23
 3639 00cc 0C000000 		.4byte	.LFE23-.LFB23
 3640 00d0 00000000 		.4byte	0
 3641 00d4 00000000 		.4byte	0
 3642              		.section	.debug_ranges,"",%progbits
 3643              	.Ldebug_ranges0:
 3644 0000 00000000 		.4byte	.LFB0
 3645 0004 3C000000 		.4byte	.LFE0
 3646 0008 00000000 		.4byte	.LFB1
 3647 000c AC010000 		.4byte	.LFE1
 3648 0010 00000000 		.4byte	.LFB2
 3649 0014 10010000 		.4byte	.LFE2
 3650 0018 00000000 		.4byte	.LFB3
 3651 001c 68000000 		.4byte	.LFE3
 3652 0020 00000000 		.4byte	.LFB4
 3653 0024 04010000 		.4byte	.LFE4
 3654 0028 00000000 		.4byte	.LFB5
 3655 002c 38000000 		.4byte	.LFE5
 3656 0030 00000000 		.4byte	.LFB6
 3657 0034 18000000 		.4byte	.LFE6
 3658 0038 00000000 		.4byte	.LFB7
 3659 003c 30000000 		.4byte	.LFE7
 3660 0040 00000000 		.4byte	.LFB8
 3661 0044 20000000 		.4byte	.LFE8
 3662 0048 00000000 		.4byte	.LFB9
 3663 004c 2C000000 		.4byte	.LFE9
 3664 0050 00000000 		.4byte	.LFB10
 3665 0054 60000000 		.4byte	.LFE10
 3666 0058 00000000 		.4byte	.LFB11
 3667 005c AC000000 		.4byte	.LFE11
 3668 0060 00000000 		.4byte	.LFB12
 3669 0064 64000000 		.4byte	.LFE12
 3670 0068 00000000 		.4byte	.LFB13
 3671 006c 98010000 		.4byte	.LFE13
 3672 0070 00000000 		.4byte	.LFB14
 3673 0074 08010000 		.4byte	.LFE14
 3674 0078 00000000 		.4byte	.LFB15
 3675 007c 5C000000 		.4byte	.LFE15
 3676 0080 00000000 		.4byte	.LFB16
 3677 0084 34000000 		.4byte	.LFE16
 3678 0088 00000000 		.4byte	.LFB17
 3679 008c 20000000 		.4byte	.LFE17
 3680 0090 00000000 		.4byte	.LFB18
 3681 0094 40000000 		.4byte	.LFE18
ARM GAS  C:\Users\CALEBC~1\AppData\Local\Temp\ccUZyw0h.s 			page 110


 3682 0098 00000000 		.4byte	.LFB19
 3683 009c 40000000 		.4byte	.LFE19
 3684 00a0 00000000 		.4byte	.LFB20
 3685 00a4 2C000000 		.4byte	.LFE20
 3686 00a8 00000000 		.4byte	.LFB21
 3687 00ac 1C000000 		.4byte	.LFE21
 3688 00b0 00000000 		.4byte	.LFB22
 3689 00b4 0C000000 		.4byte	.LFE22
 3690 00b8 00000000 		.4byte	.LFB23
 3691 00bc 0C000000 		.4byte	.LFE23
 3692 00c0 00000000 		.4byte	0
 3693 00c4 00000000 		.4byte	0
 3694              		.section	.debug_line,"",%progbits
 3695              	.Ldebug_line0:
 3696 0000 76030000 		.section	.debug_str,"MS",%progbits,1
 3696      02005C00 
 3696      00000201 
 3696      FB0E0D00 
 3696      01010101 
 3697              	.LASF89:
 3698 0000 55534246 		.ascii	"USBFS_interfaceNumber\000"
 3698      535F696E 
 3698      74657266 
 3698      6163654E 
 3698      756D6265 
 3699              	.LASF22:
 3700 0016 6570546F 		.ascii	"epToggle\000"
 3700      67676C65 
 3700      00
 3701              	.LASF58:
 3702 001f 696E7465 		.ascii	"interfaceNumber\000"
 3702      72666163 
 3702      654E756D 
 3702      62657200 
 3703              	.LASF62:
 3704 002f 636E7472 		.ascii	"cntr\000"
 3704      00
 3705              	.LASF83:
 3706 0034 55534246 		.ascii	"USBFS_initVar\000"
 3706      535F696E 
 3706      69745661 
 3706      7200
 3707              	.LASF71:
 3708 0042 55534246 		.ascii	"USBFS_Force\000"
 3708      535F466F 
 3708      72636500 
 3709              	.LASF81:
 3710 004e 55534246 		.ascii	"USBFS_EnableSofInt\000"
 3710      535F456E 
 3710      61626C65 
 3710      536F6649 
 3710      6E7400
 3711              	.LASF44:
 3712 0061 55534246 		.ascii	"USBFS_sie_eps_struct\000"
 3712      535F7369 
 3712      655F6570 
 3712      735F7374 
ARM GAS  C:\Users\CALEBC~1\AppData\Local\Temp\ccUZyw0h.s 			page 111


 3712      72756374 
 3713              	.LASF53:
 3714 0076 55534246 		.ascii	"USBFS_Stop\000"
 3714      535F5374 
 3714      6F7000
 3715              	.LASF25:
 3716 0081 62756666 		.ascii	"buffOffset\000"
 3716      4F666673 
 3716      657400
 3717              	.LASF64:
 3718 008c 70446174 		.ascii	"pData\000"
 3718      6100
 3719              	.LASF34:
 3720 0092 6570496E 		.ascii	"epIntEn\000"
 3720      74456E00 
 3721              	.LASF74:
 3722 009a 55534246 		.ascii	"USBFS_SetPowerStatus\000"
 3722      535F5365 
 3722      74506F77 
 3722      65725374 
 3722      61747573 
 3723              	.LASF2:
 3724 00af 73686F72 		.ascii	"short int\000"
 3724      7420696E 
 3724      7400
 3725              	.LASF87:
 3726 00b9 55534246 		.ascii	"USBFS_configurationChanged\000"
 3726      535F636F 
 3726      6E666967 
 3726      75726174 
 3726      696F6E43 
 3727              	.LASF18:
 3728 00d4 73697A65 		.ascii	"sizetype\000"
 3728      74797065 
 3728      00
 3729              	.LASF24:
 3730 00dd 65704D6F 		.ascii	"epMode\000"
 3730      646500
 3731              	.LASF45:
 3732 00e4 61726245 		.ascii	"arbEp\000"
 3732      7000
 3733              	.LASF96:
 3734 00ea 474E5520 		.ascii	"GNU C11 5.4.1 20160609 (release) [ARM/embedded-5-br"
 3734      43313120 
 3734      352E342E 
 3734      31203230 
 3734      31363036 
 3735 011d 616E6368 		.ascii	"anch revision 237715] -mcpu=cortex-m3 -mthumb -g -O"
 3735      20726576 
 3735      6973696F 
 3735      6E203233 
 3735      37373135 
 3736 0150 30202D66 		.ascii	"0 -ffunction-sections -ffat-lto-objects\000"
 3736      66756E63 
 3736      74696F6E 
 3736      2D736563 
 3736      74696F6E 
ARM GAS  C:\Users\CALEBC~1\AppData\Local\Temp\ccUZyw0h.s 			page 112


 3737              	.LASF75:
 3738 0178 706F7765 		.ascii	"powerStatus\000"
 3738      72537461 
 3738      74757300 
 3739              	.LASF17:
 3740 0184 6C6F6E67 		.ascii	"long double\000"
 3740      20646F75 
 3740      626C6500 
 3741              	.LASF80:
 3742 0190 55534246 		.ascii	"USBFS_ReInitComponent\000"
 3742      535F5265 
 3742      496E6974 
 3742      436F6D70 
 3742      6F6E656E 
 3743              	.LASF48:
 3744 01a6 6D6F6465 		.ascii	"mode\000"
 3744      00
 3745              	.LASF32:
 3746 01ab 55534246 		.ascii	"USBFS_sie_ep_struct\000"
 3746      535F7369 
 3746      655F6570 
 3746      5F737472 
 3746      75637400 
 3747              	.LASF36:
 3748 01bf 72657365 		.ascii	"reserved\000"
 3748      72766564 
 3748      00
 3749              	.LASF10:
 3750 01c8 75696E74 		.ascii	"uint16\000"
 3750      313600
 3751              	.LASF39:
 3752 01cf 72775261 		.ascii	"rwRa\000"
 3752      00
 3753              	.LASF85:
 3754 01d4 55534246 		.ascii	"USBFS_transferState\000"
 3754      535F7472 
 3754      616E7366 
 3754      65725374 
 3754      61746500 
 3755              	.LASF9:
 3756 01e8 75696E74 		.ascii	"uint8\000"
 3756      3800
 3757              	.LASF52:
 3758 01ee 55534246 		.ascii	"USBFS_InitComponent\000"
 3758      535F496E 
 3758      6974436F 
 3758      6D706F6E 
 3758      656E7400 
 3759              	.LASF43:
 3760 0202 73696545 		.ascii	"sieEp\000"
 3760      7000
 3761              	.LASF67:
 3762 0208 6C656E67 		.ascii	"length\000"
 3762      746800
 3763              	.LASF47:
 3764 020f 64657669 		.ascii	"device\000"
 3764      636500
ARM GAS  C:\Users\CALEBC~1\AppData\Local\Temp\ccUZyw0h.s 			page 113


 3765              	.LASF12:
 3766 0216 666C6F61 		.ascii	"float\000"
 3766      7400
 3767              	.LASF6:
 3768 021c 6C6F6E67 		.ascii	"long long int\000"
 3768      206C6F6E 
 3768      6720696E 
 3768      7400
 3769              	.LASF31:
 3770 022a 65704372 		.ascii	"epCr0\000"
 3770      3000
 3771              	.LASF33:
 3772 0230 65704366 		.ascii	"epCfg\000"
 3772      6700
 3773              	.LASF4:
 3774 0236 6C6F6E67 		.ascii	"long int\000"
 3774      20696E74 
 3774      00
 3775              	.LASF20:
 3776 023f 61706945 		.ascii	"apiEpState\000"
 3776      70537461 
 3776      746500
 3777              	.LASF98:
 3778 024a 433A5C55 		.ascii	"C:\\Users\\Caleb Cotter\\Documents\\GitHub\\3HC\\3H"
 3778      73657273 
 3778      5C43616C 
 3778      65622043 
 3778      6F747465 
 3779 0277 435F4669 		.ascii	"C_Firmware\\USBFS_Bulk_Wraparound.cydsn\000"
 3779      726D7761 
 3779      72655C55 
 3779      53424653 
 3779      5F42756C 
 3780              	.LASF77:
 3781 029e 72657375 		.ascii	"result\000"
 3781      6C7400
 3782              	.LASF91:
 3783 02a5 55534246 		.ascii	"USBFS_deviceAddress\000"
 3783      535F6465 
 3783      76696365 
 3783      41646472 
 3783      65737300 
 3784              	.LASF78:
 3785 02b9 55534246 		.ascii	"USBFS_GetConfiguration\000"
 3785      535F4765 
 3785      74436F6E 
 3785      66696775 
 3785      72617469 
 3786              	.LASF73:
 3787 02d0 55534246 		.ascii	"USBFS_GetEPAckState\000"
 3787      535F4765 
 3787      74455041 
 3787      636B5374 
 3787      61746500 
 3788              	.LASF59:
 3789 02e4 55534246 		.ascii	"USBFS_GetEPState\000"
 3789      535F4765 
ARM GAS  C:\Users\CALEBC~1\AppData\Local\Temp\ccUZyw0h.s 			page 114


 3789      74455053 
 3789      74617465 
 3789      00
 3790              	.LASF46:
 3791 02f5 55534246 		.ascii	"USBFS_arb_eps_struct\000"
 3791      535F6172 
 3791      625F6570 
 3791      735F7374 
 3791      72756374 
 3792              	.LASF68:
 3793 030a 55534246 		.ascii	"USBFS_ReadOutEP\000"
 3793      535F5265 
 3793      61644F75 
 3793      74455000 
 3794              	.LASF28:
 3795 031a 545F5553 		.ascii	"T_USBFS_EP_CTL_BLOCK\000"
 3795      4246535F 
 3795      45505F43 
 3795      544C5F42 
 3795      4C4F434B 
 3796              	.LASF86:
 3797 032f 55534246 		.ascii	"USBFS_configuration\000"
 3797      535F636F 
 3797      6E666967 
 3797      75726174 
 3797      696F6E00 
 3798              	.LASF1:
 3799 0343 756E7369 		.ascii	"unsigned char\000"
 3799      676E6564 
 3799      20636861 
 3799      7200
 3800              	.LASF42:
 3801 0351 55534246 		.ascii	"USBFS_arb_ep_struct\000"
 3801      535F6172 
 3801      625F6570 
 3801      5F737472 
 3801      75637400 
 3802              	.LASF35:
 3803 0365 65705372 		.ascii	"epSr\000"
 3803      00
 3804              	.LASF65:
 3805 036a 55534246 		.ascii	"USBFS_Stop_DMA\000"
 3805      535F5374 
 3805      6F705F44 
 3805      4D4100
 3806              	.LASF0:
 3807 0379 7369676E 		.ascii	"signed char\000"
 3807      65642063 
 3807      68617200 
 3808              	.LASF7:
 3809 0385 6C6F6E67 		.ascii	"long long unsigned int\000"
 3809      206C6F6E 
 3809      6720756E 
 3809      7369676E 
 3809      65642069 
 3810              	.LASF8:
 3811 039c 756E7369 		.ascii	"unsigned int\000"
ARM GAS  C:\Users\CALEBC~1\AppData\Local\Temp\ccUZyw0h.s 			page 115


 3811      676E6564 
 3811      20696E74 
 3811      00
 3812              	.LASF63:
 3813 03a9 55534246 		.ascii	"USBFS_InitEP_DMA\000"
 3813      535F496E 
 3813      69744550 
 3813      5F444D41 
 3813      00
 3814              	.LASF41:
 3815 03ba 72774472 		.ascii	"rwDr\000"
 3815      00
 3816              	.LASF37:
 3817 03bf 72775761 		.ascii	"rwWa\000"
 3817      00
 3818              	.LASF16:
 3819 03c4 72656733 		.ascii	"reg32\000"
 3819      3200
 3820              	.LASF27:
 3821 03ca 696E7465 		.ascii	"interface\000"
 3821      72666163 
 3821      6500
 3822              	.LASF61:
 3823 03d4 55534246 		.ascii	"USBFS_GetEPCount\000"
 3823      535F4765 
 3823      74455043 
 3823      6F756E74 
 3823      00
 3824              	.LASF19:
 3825 03e5 61747472 		.ascii	"attrib\000"
 3825      696200
 3826              	.LASF97:
 3827 03ec 47656E65 		.ascii	"Generated_Source\\PSoC5\\USBFS.c\000"
 3827      72617465 
 3827      645F536F 
 3827      75726365 
 3827      5C50536F 
 3828              	.LASF14:
 3829 040b 63686172 		.ascii	"char\000"
 3829      00
 3830              	.LASF60:
 3831 0410 65704E75 		.ascii	"epNumber\000"
 3831      6D626572 
 3831      00
 3832              	.LASF3:
 3833 0419 73686F72 		.ascii	"short unsigned int\000"
 3833      7420756E 
 3833      7369676E 
 3833      65642069 
 3833      6E7400
 3834              	.LASF23:
 3835 042c 61646472 		.ascii	"addr\000"
 3835      00
 3836              	.LASF29:
 3837 0431 6570436E 		.ascii	"epCnt0\000"
 3837      743000
 3838              	.LASF54:
ARM GAS  C:\Users\CALEBC~1\AppData\Local\Temp\ccUZyw0h.s 			page 116


 3839 0438 63723152 		.ascii	"cr1Reg\000"
 3839      656700
 3840              	.LASF30:
 3841 043f 6570436E 		.ascii	"epCnt1\000"
 3841      743100
 3842              	.LASF82:
 3843 0446 55534246 		.ascii	"USBFS_DisableSofInt\000"
 3843      535F4469 
 3843      7361626C 
 3843      65536F66 
 3843      496E7400 
 3844              	.LASF21:
 3845 045a 68774570 		.ascii	"hwEpState\000"
 3845      53746174 
 3845      6500
 3846              	.LASF57:
 3847 0464 55534246 		.ascii	"USBFS_GetInterfaceSetting\000"
 3847      535F4765 
 3847      74496E74 
 3847      65726661 
 3847      63655365 
 3848              	.LASF11:
 3849 047e 75696E74 		.ascii	"uint32\000"
 3849      333200
 3850              	.LASF15:
 3851 0485 72656738 		.ascii	"reg8\000"
 3851      00
 3852              	.LASF5:
 3853 048a 6C6F6E67 		.ascii	"long unsigned int\000"
 3853      20756E73 
 3853      69676E65 
 3853      6420696E 
 3853      7400
 3854              	.LASF84:
 3855 049c 55534246 		.ascii	"USBFS_device\000"
 3855      535F6465 
 3855      76696365 
 3855      00
 3856              	.LASF92:
 3857 04a9 55534246 		.ascii	"USBFS_EP\000"
 3857      535F4550 
 3857      00
 3858              	.LASF94:
 3859 04b2 55534246 		.ascii	"USBFS_DmaTd\000"
 3859      535F446D 
 3859      61546400 
 3860              	.LASF69:
 3861 04be 55534246 		.ascii	"USBFS_EnableOutEP\000"
 3861      535F456E 
 3861      61626C65 
 3861      4F757445 
 3861      5000
 3862              	.LASF66:
 3863 04d0 55534246 		.ascii	"USBFS_LoadInEP\000"
 3863      535F4C6F 
 3863      6164496E 
 3863      455000
ARM GAS  C:\Users\CALEBC~1\AppData\Local\Temp\ccUZyw0h.s 			page 117


 3864              	.LASF26:
 3865 04df 62756666 		.ascii	"bufferSize\000"
 3865      65725369 
 3865      7A6500
 3866              	.LASF55:
 3867 04ea 55534246 		.ascii	"USBFS_CheckActivity\000"
 3867      535F4368 
 3867      65636B41 
 3867      63746976 
 3867      69747900 
 3868              	.LASF56:
 3869 04fe 55534246 		.ascii	"USBFS_IsConfigurationChanged\000"
 3869      535F4973 
 3869      436F6E66 
 3869      69677572 
 3869      6174696F 
 3870              	.LASF93:
 3871 051b 55534246 		.ascii	"USBFS_DmaChan\000"
 3871      535F446D 
 3871      61436861 
 3871      6E00
 3872              	.LASF70:
 3873 0529 55534246 		.ascii	"USBFS_DisableOutEP\000"
 3873      535F4469 
 3873      7361626C 
 3873      654F7574 
 3873      455000
 3874              	.LASF76:
 3875 053c 55534246 		.ascii	"USBFS_RWUEnabled\000"
 3875      535F5257 
 3875      55456E61 
 3875      626C6564 
 3875      00
 3876              	.LASF13:
 3877 054d 646F7562 		.ascii	"double\000"
 3877      6C6500
 3878              	.LASF88:
 3879 0554 55534246 		.ascii	"USBFS_deviceStatus\000"
 3879      535F6465 
 3879      76696365 
 3879      53746174 
 3879      757300
 3880              	.LASF49:
 3881 0567 55534246 		.ascii	"USBFS_Start\000"
 3881      535F5374 
 3881      61727400 
 3882              	.LASF40:
 3883 0573 72775261 		.ascii	"rwRaMsb\000"
 3883      4D736200 
 3884              	.LASF38:
 3885 057b 72775761 		.ascii	"rwWaMsb\000"
 3885      4D736200 
 3886              	.LASF50:
 3887 0583 55534246 		.ascii	"USBFS_Init\000"
 3887      535F496E 
 3887      697400
 3888              	.LASF72:
ARM GAS  C:\Users\CALEBC~1\AppData\Local\Temp\ccUZyw0h.s 			page 118


 3889 058e 62537461 		.ascii	"bState\000"
 3889      746500
 3890              	.LASF95:
 3891 0595 55534246 		.ascii	"USBFS_lastPacketSize\000"
 3891      535F6C61 
 3891      73745061 
 3891      636B6574 
 3891      53697A65 
 3892              	.LASF90:
 3893 05aa 55534246 		.ascii	"USBFS_interfaceSetting\000"
 3893      535F696E 
 3893      74657266 
 3893      61636553 
 3893      65747469 
 3894              	.LASF51:
 3895 05c1 656E6162 		.ascii	"enableInterrupts\000"
 3895      6C65496E 
 3895      74657272 
 3895      75707473 
 3895      00
 3896              	.LASF79:
 3897 05d2 55534246 		.ascii	"USBFS_GetDeviceAddress\000"
 3897      535F4765 
 3897      74446576 
 3897      69636541 
 3897      64647265 
 3898              		.ident	"GCC: (GNU Tools for ARM Embedded Processors) 5.4.1 20160609 (release) [ARM/embedded-5-bran
