ARM GAS  C:\Users\CALEBC~1\AppData\Local\Temp\ccUZyw0h.s 			page 1


   1              		.syntax unified
   2              		.cpu cortex-m3
   3              		.fpu softvfp
   4              		.eabi_attribute 20, 1
   5              		.eabi_attribute 21, 1
   6              		.eabi_attribute 23, 3
   7              		.eabi_attribute 24, 1
   8              		.eabi_attribute 25, 1
   9              		.eabi_attribute 26, 1
  10              		.eabi_attribute 30, 6
  11              		.eabi_attribute 34, 1
  12              		.eabi_attribute 18, 4
  13              		.thumb
  14              		.syntax unified
  15              		.file	"USBFS.c"
  16              		.text
  17              	.Ltext0:
  18              		.cfi_sections	.debug_frame
  19              		.global	USBFS_initVar
  20              		.bss
  21              		.type	USBFS_initVar, %object
  22              		.size	USBFS_initVar, 1
  23              	USBFS_initVar:
  24 0000 00       		.space	1
  25              		.comm	USBFS_DmaChan,9,4
  26              		.comm	USBFS_DmaTd,9,4
  27              		.section	.text.USBFS_Start,"ax",%progbits
  28              		.align	2
  29              		.global	USBFS_Start
  30              		.thumb
  31              		.thumb_func
  32              		.type	USBFS_Start, %function
  33              	USBFS_Start:
  34              	.LFB0:
  35              		.file 1 "Generated_Source\\PSoC5\\USBFS.c"
   1:Generated_Source\PSoC5/USBFS.c **** /***************************************************************************//**
   2:Generated_Source\PSoC5/USBFS.c **** * \file USBFS.c
   3:Generated_Source\PSoC5/USBFS.c **** * \version 3.10
   4:Generated_Source\PSoC5/USBFS.c **** *
   5:Generated_Source\PSoC5/USBFS.c **** * \brief
   6:Generated_Source\PSoC5/USBFS.c **** *  This file contains the global USBFS API functions.
   7:Generated_Source\PSoC5/USBFS.c **** *
   8:Generated_Source\PSoC5/USBFS.c **** * Note:
   9:Generated_Source\PSoC5/USBFS.c **** *  Many of the functions use an endpoint number. SRAM arrays are sized with 9
  10:Generated_Source\PSoC5/USBFS.c **** *  elements, so they are indexed directly by epNumber.  The SIE and ARB
  11:Generated_Source\PSoC5/USBFS.c **** *  registers are indexed by variations of epNumber - 1.
  12:Generated_Source\PSoC5/USBFS.c **** *
  13:Generated_Source\PSoC5/USBFS.c **** ********************************************************************************
  14:Generated_Source\PSoC5/USBFS.c **** * \copyright
  15:Generated_Source\PSoC5/USBFS.c **** * Copyright 2008-2016, Cypress Semiconductor Corporation.  All rights reserved.
  16:Generated_Source\PSoC5/USBFS.c **** * You may use this file only in accordance with the license, terms, conditions,
  17:Generated_Source\PSoC5/USBFS.c **** * disclaimers, and limitations in the end user license agreement accompanying
  18:Generated_Source\PSoC5/USBFS.c **** * the software package with which this file was provided.
  19:Generated_Source\PSoC5/USBFS.c **** *******************************************************************************/
  20:Generated_Source\PSoC5/USBFS.c **** 
  21:Generated_Source\PSoC5/USBFS.c **** #include "USBFS_pvt.h"
  22:Generated_Source\PSoC5/USBFS.c **** #include "USBFS_cydmac.h"
ARM GAS  C:\Users\CALEBC~1\AppData\Local\Temp\ccUZyw0h.s 			page 2


  23:Generated_Source\PSoC5/USBFS.c **** #include "USBFS_hid.h"
  24:Generated_Source\PSoC5/USBFS.c **** #include "USBFS_Dp.h"
  25:Generated_Source\PSoC5/USBFS.c **** 
  26:Generated_Source\PSoC5/USBFS.c **** 
  27:Generated_Source\PSoC5/USBFS.c **** /***************************************
  28:Generated_Source\PSoC5/USBFS.c **** * Global data allocation
  29:Generated_Source\PSoC5/USBFS.c **** ***************************************/
  30:Generated_Source\PSoC5/USBFS.c **** 
  31:Generated_Source\PSoC5/USBFS.c **** /** Indicates whether the USBFS has been initialized. The variable is
  32:Generated_Source\PSoC5/USBFS.c **** * initialized to 0 after device reset and set to 1 the first time USBFS_Start()
  33:Generated_Source\PSoC5/USBFS.c **** * is called. This allows the Component to restart without reinitialization after
  34:Generated_Source\PSoC5/USBFS.c **** * the first call to the USBFS_Start() routine.
  35:Generated_Source\PSoC5/USBFS.c **** * If re-initialization of the Component is required, the variable should be set
  36:Generated_Source\PSoC5/USBFS.c **** * to 0 before the USBFS_Start() routine is called. Alternatively, the USBFS can
  37:Generated_Source\PSoC5/USBFS.c **** * be reinitialized by calling both USBFS_Init() and USBFS_InitComponent()
  38:Generated_Source\PSoC5/USBFS.c **** * functions.
  39:Generated_Source\PSoC5/USBFS.c **** */
  40:Generated_Source\PSoC5/USBFS.c **** uint8 USBFS_initVar = 0u;
  41:Generated_Source\PSoC5/USBFS.c **** 
  42:Generated_Source\PSoC5/USBFS.c **** #if (USBFS_EP_MANAGEMENT_DMA)
  43:Generated_Source\PSoC5/USBFS.c ****     #if (CY_PSOC4)
  44:Generated_Source\PSoC5/USBFS.c ****         static void USBFS_InitEpDma(void);
  45:Generated_Source\PSoC5/USBFS.c **** 
  46:Generated_Source\PSoC5/USBFS.c ****         /* DMA chanels assigend for endpoints. */
  47:Generated_Source\PSoC5/USBFS.c ****         const uint8 USBFS_DmaChan[USBFS_MAX_EP] =
  48:Generated_Source\PSoC5/USBFS.c ****         {
  49:Generated_Source\PSoC5/USBFS.c ****             0u,
  50:Generated_Source\PSoC5/USBFS.c ****             (uint8) USBFS_ep1_dma_CHANNEL,
  51:Generated_Source\PSoC5/USBFS.c ****             (uint8) USBFS_ep2_dma_CHANNEL,
  52:Generated_Source\PSoC5/USBFS.c ****             0u,
  53:Generated_Source\PSoC5/USBFS.c ****             0u,
  54:Generated_Source\PSoC5/USBFS.c ****             0u,
  55:Generated_Source\PSoC5/USBFS.c ****             0u,
  56:Generated_Source\PSoC5/USBFS.c ****             0u,
  57:Generated_Source\PSoC5/USBFS.c ****             0u,
  58:Generated_Source\PSoC5/USBFS.c ****         };        
  59:Generated_Source\PSoC5/USBFS.c ****     #else
  60:Generated_Source\PSoC5/USBFS.c ****         /* DMA chanels assigend for endpoints. */
  61:Generated_Source\PSoC5/USBFS.c ****         uint8 USBFS_DmaChan[USBFS_MAX_EP];
  62:Generated_Source\PSoC5/USBFS.c ****         
  63:Generated_Source\PSoC5/USBFS.c ****         /* DMA TDs require for PSoC 3/5LP operation. */
  64:Generated_Source\PSoC5/USBFS.c ****         uint8 USBFS_DmaTd[USBFS_MAX_EP];
  65:Generated_Source\PSoC5/USBFS.c ****     #endif /* (CY_PSOC4) */
  66:Generated_Source\PSoC5/USBFS.c **** #endif /* (USBFS_EP_MANAGEMENT_DMA) */
  67:Generated_Source\PSoC5/USBFS.c **** 
  68:Generated_Source\PSoC5/USBFS.c **** #if (USBFS_EP_MANAGEMENT_DMA_AUTO)
  69:Generated_Source\PSoC5/USBFS.c **** #if (CY_PSOC4)
  70:Generated_Source\PSoC5/USBFS.c ****     /* Number of DMA bursts. */
  71:Generated_Source\PSoC5/USBFS.c ****     uint8  USBFS_DmaEpBurstCnt   [USBFS_MAX_EP];
  72:Generated_Source\PSoC5/USBFS.c ****     
  73:Generated_Source\PSoC5/USBFS.c ****     /* Number of bytes to transfer in last DMA burst. */
  74:Generated_Source\PSoC5/USBFS.c ****     uint8  USBFS_DmaEpLastBurstEl[USBFS_MAX_EP];
  75:Generated_Source\PSoC5/USBFS.c **** 
  76:Generated_Source\PSoC5/USBFS.c ****     /* Storage for arrays above. */
  77:Generated_Source\PSoC5/USBFS.c ****     uint8  USBFS_DmaEpBurstCntBackup  [USBFS_MAX_EP];
  78:Generated_Source\PSoC5/USBFS.c ****     uint32 USBFS_DmaEpBufferAddrBackup[USBFS_MAX_EP];
  79:Generated_Source\PSoC5/USBFS.c ****      
ARM GAS  C:\Users\CALEBC~1\AppData\Local\Temp\ccUZyw0h.s 			page 3


  80:Generated_Source\PSoC5/USBFS.c ****     /* DMA trigger mux output for usb.dma_req[0-7]. */
  81:Generated_Source\PSoC5/USBFS.c ****     const uint8 USBFS_DmaReqOut[USBFS_MAX_EP] =
  82:Generated_Source\PSoC5/USBFS.c ****     {
  83:Generated_Source\PSoC5/USBFS.c ****         0u,
  84:Generated_Source\PSoC5/USBFS.c ****         USBFS_ep1_dma__TR_OUTPUT,
  85:Generated_Source\PSoC5/USBFS.c ****         USBFS_ep2_dma__TR_OUTPUT,
  86:Generated_Source\PSoC5/USBFS.c ****         0u,
  87:Generated_Source\PSoC5/USBFS.c ****         0u,
  88:Generated_Source\PSoC5/USBFS.c ****         0u,
  89:Generated_Source\PSoC5/USBFS.c ****         0u,
  90:Generated_Source\PSoC5/USBFS.c ****         0u,
  91:Generated_Source\PSoC5/USBFS.c ****         0u,
  92:Generated_Source\PSoC5/USBFS.c ****     };
  93:Generated_Source\PSoC5/USBFS.c **** 
  94:Generated_Source\PSoC5/USBFS.c ****     /* DMA trigger mux output for usb.dma_burstend[0-7]. */
  95:Generated_Source\PSoC5/USBFS.c ****     const uint8 USBFS_DmaBurstEndOut[USBFS_MAX_EP] =
  96:Generated_Source\PSoC5/USBFS.c ****     {
  97:Generated_Source\PSoC5/USBFS.c ****         0u,
  98:Generated_Source\PSoC5/USBFS.c ****         USBFS_BURSTEND_0_TR_OUTPUT,
  99:Generated_Source\PSoC5/USBFS.c ****         USBFS_BURSTEND_1_TR_OUTPUT,
 100:Generated_Source\PSoC5/USBFS.c ****         USBFS_BURSTEND_2_TR_OUTPUT,
 101:Generated_Source\PSoC5/USBFS.c ****         USBFS_BURSTEND_3_TR_OUTPUT,
 102:Generated_Source\PSoC5/USBFS.c ****         USBFS_BURSTEND_4_TR_OUTPUT,
 103:Generated_Source\PSoC5/USBFS.c ****         USBFS_BURSTEND_5_TR_OUTPUT,
 104:Generated_Source\PSoC5/USBFS.c ****         USBFS_BURSTEND_6_TR_OUTPUT,
 105:Generated_Source\PSoC5/USBFS.c ****         USBFS_BURSTEND_7_TR_OUTPUT
 106:Generated_Source\PSoC5/USBFS.c ****     };
 107:Generated_Source\PSoC5/USBFS.c ****     
 108:Generated_Source\PSoC5/USBFS.c **** #else
 109:Generated_Source\PSoC5/USBFS.c ****     #if (USBFS_EP_DMA_AUTO_OPT == 0u)
 110:Generated_Source\PSoC5/USBFS.c ****         static uint8 clearInDataRdyStatus = USBFS_ARB_EPX_CFG_DEFAULT;
 111:Generated_Source\PSoC5/USBFS.c ****         uint8 USBFS_DmaNextTd[USBFS_MAX_EP];
 112:Generated_Source\PSoC5/USBFS.c ****         const uint8 USBFS_epX_TD_TERMOUT_EN[USBFS_MAX_EP] =
 113:Generated_Source\PSoC5/USBFS.c ****         {
 114:Generated_Source\PSoC5/USBFS.c ****             0u,
 115:Generated_Source\PSoC5/USBFS.c ****             USBFS_ep1__TD_TERMOUT_EN,
 116:Generated_Source\PSoC5/USBFS.c ****             USBFS_ep2__TD_TERMOUT_EN,
 117:Generated_Source\PSoC5/USBFS.c ****             0u,
 118:Generated_Source\PSoC5/USBFS.c ****             0u,
 119:Generated_Source\PSoC5/USBFS.c ****             0u,
 120:Generated_Source\PSoC5/USBFS.c ****             0u,
 121:Generated_Source\PSoC5/USBFS.c ****             0u,
 122:Generated_Source\PSoC5/USBFS.c ****             0u,
 123:Generated_Source\PSoC5/USBFS.c ****         };
 124:Generated_Source\PSoC5/USBFS.c **** 
 125:Generated_Source\PSoC5/USBFS.c ****         volatile uint16 USBFS_inLength[USBFS_MAX_EP];
 126:Generated_Source\PSoC5/USBFS.c ****         const uint8 *USBFS_inDataPointer[USBFS_MAX_EP];
 127:Generated_Source\PSoC5/USBFS.c ****         volatile uint8 USBFS_inBufFull[USBFS_MAX_EP];
 128:Generated_Source\PSoC5/USBFS.c ****     #endif /* (USBFS_EP_DMA_AUTO_OPT == 0u) */
 129:Generated_Source\PSoC5/USBFS.c **** #endif /* (CY_PSOC4) */
 130:Generated_Source\PSoC5/USBFS.c **** #endif /* (USBFS_EP_MANAGEMENT_DMA_AUTO) */
 131:Generated_Source\PSoC5/USBFS.c **** 
 132:Generated_Source\PSoC5/USBFS.c **** 
 133:Generated_Source\PSoC5/USBFS.c **** /*******************************************************************************
 134:Generated_Source\PSoC5/USBFS.c **** * Function Name: USBFS_Start
 135:Generated_Source\PSoC5/USBFS.c **** ****************************************************************************//**
 136:Generated_Source\PSoC5/USBFS.c **** *
ARM GAS  C:\Users\CALEBC~1\AppData\Local\Temp\ccUZyw0h.s 			page 4


 137:Generated_Source\PSoC5/USBFS.c **** *   This function performs all required initialization for the USBFS component.
 138:Generated_Source\PSoC5/USBFS.c **** *   After this function call, the USB device initiates communication with the
 139:Generated_Source\PSoC5/USBFS.c **** *   host by pull-up D+ line. This is the preferred method to begin component
 140:Generated_Source\PSoC5/USBFS.c **** *   operation.
 141:Generated_Source\PSoC5/USBFS.c **** *
 142:Generated_Source\PSoC5/USBFS.c **** *   Note that global interrupts have to be enabled because interrupts are
 143:Generated_Source\PSoC5/USBFS.c **** *   required for USBFS component operation.
 144:Generated_Source\PSoC5/USBFS.c **** *
 145:Generated_Source\PSoC5/USBFS.c **** *   PSoC 4200L devices: when USBFS component configured to DMA with Automatic
 146:Generated_Source\PSoC5/USBFS.c **** *   Buffer Management, the DMA interrupt priority is changed to the highest
 147:Generated_Source\PSoC5/USBFS.c **** *   (priority 0) inside this function.
 148:Generated_Source\PSoC5/USBFS.c **** *
 149:Generated_Source\PSoC5/USBFS.c **** *   PSoC 3/PSoC 5LP devices: when USBFS component configured to DMA with
 150:Generated_Source\PSoC5/USBFS.c **** *   Automatic Buffer Management, the Arbiter interrupt priority is changed to
 151:Generated_Source\PSoC5/USBFS.c **** *   the highest (priority 0) inside this function.
 152:Generated_Source\PSoC5/USBFS.c **** *
 153:Generated_Source\PSoC5/USBFS.c **** *  \param device
 154:Generated_Source\PSoC5/USBFS.c **** *          Contains the device number of the desired device descriptor.
 155:Generated_Source\PSoC5/USBFS.c **** *          The device number can be found in the Device Descriptor Tab of
 156:Generated_Source\PSoC5/USBFS.c **** *          "Configure" dialog, under the settings of desired Device Descriptor,
 157:Generated_Source\PSoC5/USBFS.c **** *          in the "Device Number" field.
 158:Generated_Source\PSoC5/USBFS.c **** *  \param mode:
 159:Generated_Source\PSoC5/USBFS.c **** *   The operating voltage. This determines whether the voltage regulator
 160:Generated_Source\PSoC5/USBFS.c **** *   is enabled for 5V operation or if pass through mode is used for 3.3V
 161:Generated_Source\PSoC5/USBFS.c **** *   operation. Symbolic names and their associated values are given in the
 162:Generated_Source\PSoC5/USBFS.c **** *   following list.
 163:Generated_Source\PSoC5/USBFS.c **** *
 164:Generated_Source\PSoC5/USBFS.c **** *       *USBFS_3V_OPERATION* - Disable voltage regulator and pass-
 165:Generated_Source\PSoC5/USBFS.c **** *                                      through Vcc for pull-up
 166:Generated_Source\PSoC5/USBFS.c **** *
 167:Generated_Source\PSoC5/USBFS.c **** *       *USBFS_5V_OPERATION* - Enable voltage regulator and use
 168:Generated_Source\PSoC5/USBFS.c **** *                                      regulator for pull-up
 169:Generated_Source\PSoC5/USBFS.c **** *
 170:Generated_Source\PSoC5/USBFS.c **** *       *USBFS_DWR_POWER_OPERATION* - Enable or disable the voltage
 171:Generated_Source\PSoC5/USBFS.c **** *                                      regulator depending on the power supply
 172:Generated_Source\PSoC5/USBFS.c **** *                                      voltage configuration in the DWR tab.
 173:Generated_Source\PSoC5/USBFS.c **** *                                      For PSoC 3/5LP devices, the VDDD supply
 174:Generated_Source\PSoC5/USBFS.c **** *                                      voltage is considered and for PSoC 4A-L,
 175:Generated_Source\PSoC5/USBFS.c **** *                                      the VBUS supply voltage is considered.*
 176:Generated_Source\PSoC5/USBFS.c **** * \globalvars
 177:Generated_Source\PSoC5/USBFS.c **** *  \ref USBFS_initVar
 178:Generated_Source\PSoC5/USBFS.c **** *
 179:Generated_Source\PSoC5/USBFS.c **** * \sideeffect
 180:Generated_Source\PSoC5/USBFS.c **** *   This function will reset all communication states to default.
 181:Generated_Source\PSoC5/USBFS.c **** *
 182:Generated_Source\PSoC5/USBFS.c **** * \reentrant
 183:Generated_Source\PSoC5/USBFS.c **** *  No.
 184:Generated_Source\PSoC5/USBFS.c **** *
 185:Generated_Source\PSoC5/USBFS.c **** *******************************************************************************/
 186:Generated_Source\PSoC5/USBFS.c **** void USBFS_Start(uint8 device, uint8 mode) 
 187:Generated_Source\PSoC5/USBFS.c **** {
  36              		.loc 1 187 0
  37              		.cfi_startproc
  38              		@ args = 0, pretend = 0, frame = 8
  39              		@ frame_needed = 1, uses_anonymous_args = 0
  40 0000 80B5     		push	{r7, lr}
  41              		.cfi_def_cfa_offset 8
ARM GAS  C:\Users\CALEBC~1\AppData\Local\Temp\ccUZyw0h.s 			page 5


  42              		.cfi_offset 7, -8
  43              		.cfi_offset 14, -4
  44 0002 82B0     		sub	sp, sp, #8
  45              		.cfi_def_cfa_offset 16
  46 0004 00AF     		add	r7, sp, #0
  47              		.cfi_def_cfa_register 7
  48 0006 0346     		mov	r3, r0
  49 0008 0A46     		mov	r2, r1
  50 000a FB71     		strb	r3, [r7, #7]
  51 000c 1346     		mov	r3, r2
  52 000e BB71     		strb	r3, [r7, #6]
 188:Generated_Source\PSoC5/USBFS.c ****     if (0u == USBFS_initVar)
  53              		.loc 1 188 0
  54 0010 094B     		ldr	r3, .L3
  55 0012 1B78     		ldrb	r3, [r3]	@ zero_extendqisi2
  56 0014 002B     		cmp	r3, #0
  57 0016 04D1     		bne	.L2
 189:Generated_Source\PSoC5/USBFS.c ****     {
 190:Generated_Source\PSoC5/USBFS.c ****         USBFS_Init();
  58              		.loc 1 190 0
  59 0018 FFF7FEFF 		bl	USBFS_Init
 191:Generated_Source\PSoC5/USBFS.c ****         USBFS_initVar = 1u;
  60              		.loc 1 191 0
  61 001c 064B     		ldr	r3, .L3
  62 001e 0122     		movs	r2, #1
  63 0020 1A70     		strb	r2, [r3]
  64              	.L2:
 192:Generated_Source\PSoC5/USBFS.c ****     }
 193:Generated_Source\PSoC5/USBFS.c **** 
 194:Generated_Source\PSoC5/USBFS.c ****     USBFS_InitComponent(device, mode);
  65              		.loc 1 194 0
  66 0022 BA79     		ldrb	r2, [r7, #6]	@ zero_extendqisi2
  67 0024 FB79     		ldrb	r3, [r7, #7]	@ zero_extendqisi2
  68 0026 1146     		mov	r1, r2
  69 0028 1846     		mov	r0, r3
  70 002a FFF7FEFF 		bl	USBFS_InitComponent
 195:Generated_Source\PSoC5/USBFS.c **** }
  71              		.loc 1 195 0
  72 002e 00BF     		nop
  73 0030 0837     		adds	r7, r7, #8
  74              		.cfi_def_cfa_offset 8
  75 0032 BD46     		mov	sp, r7
  76              		.cfi_def_cfa_register 13
  77              		@ sp needed
  78 0034 80BD     		pop	{r7, pc}
  79              	.L4:
  80 0036 00BF     		.align	2
  81              	.L3:
  82 0038 00000000 		.word	USBFS_initVar
  83              		.cfi_endproc
  84              	.LFE0:
  85              		.size	USBFS_Start, .-USBFS_Start
  86              		.section	.text.USBFS_Init,"ax",%progbits
  87              		.align	2
  88              		.global	USBFS_Init
  89              		.thumb
  90              		.thumb_func
ARM GAS  C:\Users\CALEBC~1\AppData\Local\Temp\ccUZyw0h.s 			page 6


  91              		.type	USBFS_Init, %function
  92              	USBFS_Init:
  93              	.LFB1:
 196:Generated_Source\PSoC5/USBFS.c **** 
 197:Generated_Source\PSoC5/USBFS.c **** 
 198:Generated_Source\PSoC5/USBFS.c **** /*******************************************************************************
 199:Generated_Source\PSoC5/USBFS.c **** * Function Name: USBFS_Init
 200:Generated_Source\PSoC5/USBFS.c **** ****************************************************************************//**
 201:Generated_Source\PSoC5/USBFS.c **** *
 202:Generated_Source\PSoC5/USBFS.c **** * This function initializes or restores the component according to the
 203:Generated_Source\PSoC5/USBFS.c **** * customizer Configure dialog settings. It is not necessary to call
 204:Generated_Source\PSoC5/USBFS.c **** * USBFS_Init() because the USBFS_Start() routine calls
 205:Generated_Source\PSoC5/USBFS.c **** * this function and is the preferred method to begin component operation.
 206:Generated_Source\PSoC5/USBFS.c **** *
 207:Generated_Source\PSoC5/USBFS.c **** * \reentrant
 208:Generated_Source\PSoC5/USBFS.c **** *  No.
 209:Generated_Source\PSoC5/USBFS.c **** *
 210:Generated_Source\PSoC5/USBFS.c **** *******************************************************************************/
 211:Generated_Source\PSoC5/USBFS.c **** void USBFS_Init(void) 
 212:Generated_Source\PSoC5/USBFS.c **** {
  94              		.loc 1 212 0
  95              		.cfi_startproc
  96              		@ args = 0, pretend = 0, frame = 8
  97              		@ frame_needed = 1, uses_anonymous_args = 0
  98 0000 80B5     		push	{r7, lr}
  99              		.cfi_def_cfa_offset 8
 100              		.cfi_offset 7, -8
 101              		.cfi_offset 14, -4
 102 0002 82B0     		sub	sp, sp, #8
 103              		.cfi_def_cfa_offset 16
 104 0004 00AF     		add	r7, sp, #0
 105              		.cfi_def_cfa_register 7
 213:Generated_Source\PSoC5/USBFS.c **** #if (CY_PSOC4)
 214:Generated_Source\PSoC5/USBFS.c ****     /* Enable clock to USB IP. */
 215:Generated_Source\PSoC5/USBFS.c ****     USBFS_USB_CLK_EN_REG = USBFS_USB_CLK_CSR_CLK_EN;
 216:Generated_Source\PSoC5/USBFS.c **** 
 217:Generated_Source\PSoC5/USBFS.c ****     /* The internal regulator (CR1.REG_ENABLE) is enabled in
 218:Generated_Source\PSoC5/USBFS.c ****     * USBFS_InitComponent() if it is required.
 219:Generated_Source\PSoC5/USBFS.c ****     */
 220:Generated_Source\PSoC5/USBFS.c **** 
 221:Generated_Source\PSoC5/USBFS.c ****     /* Enable USBIO control on drive mode of D+ and D- pins. */
 222:Generated_Source\PSoC5/USBFS.c ****     USBFS_USBIO_CR1_REG &= ~ (uint32) USBFS_USBIO_CR1_IOMODE;
 223:Generated_Source\PSoC5/USBFS.c **** 
 224:Generated_Source\PSoC5/USBFS.c ****     /* Set number of LF CLK to detect UBS bus reset. */
 225:Generated_Source\PSoC5/USBFS.c ****     USBFS_BUS_RST_CNT_REG = USBFS_DEFUALT_BUS_RST_CNT;
 226:Generated_Source\PSoC5/USBFS.c **** 
 227:Generated_Source\PSoC5/USBFS.c ****     /* Select VBUS detection source and clear PHY isolate. The application level
 228:Generated_Source\PSoC5/USBFS.c ****     * must ensure that VBUS is valid. There is no need to wait 2us before VBUS is valid.
 229:Generated_Source\PSoC5/USBFS.c ****     */
 230:Generated_Source\PSoC5/USBFS.c ****     USBFS_POWER_CTRL_REG = USBFS_DEFAULT_POWER_CTRL_VBUS;
 231:Generated_Source\PSoC5/USBFS.c **** 
 232:Generated_Source\PSoC5/USBFS.c ****     /* Enable PHY detector and single-ended and differential receivers. */
 233:Generated_Source\PSoC5/USBFS.c ****     USBFS_POWER_CTRL_REG |= USBFS_DEFAULT_POWER_CTRL_PHY;
 234:Generated_Source\PSoC5/USBFS.c **** 
 235:Generated_Source\PSoC5/USBFS.c ****     /* Suspend clear sequence. */
 236:Generated_Source\PSoC5/USBFS.c ****     USBFS_POWER_CTRL_REG &= (uint32) ~USBFS_POWER_CTRL_SUSPEND;
 237:Generated_Source\PSoC5/USBFS.c ****     CyDelayUs(USBFS_WAIT_SUSPEND_DEL_DISABLE);
ARM GAS  C:\Users\CALEBC~1\AppData\Local\Temp\ccUZyw0h.s 			page 7


 238:Generated_Source\PSoC5/USBFS.c ****     USBFS_POWER_CTRL_REG &= (uint32) ~USBFS_POWER_CTRL_SUSPEND_DEL;
 239:Generated_Source\PSoC5/USBFS.c **** 
 240:Generated_Source\PSoC5/USBFS.c ****     /* Sets IMO lock options and clear all other bits. */
 241:Generated_Source\PSoC5/USBFS.c ****     USBFS_CR1_REG = USBFS_DEFUALT_CR1;
 242:Generated_Source\PSoC5/USBFS.c **** 
 243:Generated_Source\PSoC5/USBFS.c ****     /* Configure level (hi, lo, med) for each interrupt source. */
 244:Generated_Source\PSoC5/USBFS.c ****     USBFS_INTR_LVL_SEL_REG = USBFS_DEFAULT_INTR_LVL_SEL;
 245:Generated_Source\PSoC5/USBFS.c **** 
 246:Generated_Source\PSoC5/USBFS.c ****     /* Configure interrupt sources from: SOF, Bus Reset and EP0. */
 247:Generated_Source\PSoC5/USBFS.c ****     USBFS_INTR_SIE_MASK_REG = USBFS_DEFAULT_INTR_SIE_MASK;
 248:Generated_Source\PSoC5/USBFS.c **** 
 249:Generated_Source\PSoC5/USBFS.c **** #else
 250:Generated_Source\PSoC5/USBFS.c ****     uint8 enableInterrupts = CyEnterCriticalSection();
 106              		.loc 1 250 0
 107 0006 FFF7FEFF 		bl	CyEnterCriticalSection
 108 000a 0346     		mov	r3, r0
 109 000c 7B71     		strb	r3, [r7, #5]
 251:Generated_Source\PSoC5/USBFS.c **** 
 252:Generated_Source\PSoC5/USBFS.c **** #if (USBFS_EP_MANAGEMENT_DMA)
 253:Generated_Source\PSoC5/USBFS.c ****     uint16 i;
 254:Generated_Source\PSoC5/USBFS.c **** #endif /* (USBFS_EP_MANAGEMENT_DMA) */
 255:Generated_Source\PSoC5/USBFS.c **** 
 256:Generated_Source\PSoC5/USBFS.c ****     /* Enable USB block. */
 257:Generated_Source\PSoC5/USBFS.c ****     USBFS_PM_ACT_CFG_REG |= USBFS_PM_ACT_EN_FSUSB;
 110              		.loc 1 257 0
 111 000e 564A     		ldr	r2, .L8
 112 0010 554B     		ldr	r3, .L8
 113 0012 1B78     		ldrb	r3, [r3]
 114 0014 DBB2     		uxtb	r3, r3
 115 0016 43F00103 		orr	r3, r3, #1
 116 001a DBB2     		uxtb	r3, r3
 117 001c 1370     		strb	r3, [r2]
 258:Generated_Source\PSoC5/USBFS.c ****     /* Enable USB block for Standby Power Mode. */
 259:Generated_Source\PSoC5/USBFS.c ****     USBFS_PM_STBY_CFG_REG |= USBFS_PM_STBY_EN_FSUSB;
 118              		.loc 1 259 0
 119 001e 534A     		ldr	r2, .L8+4
 120 0020 524B     		ldr	r3, .L8+4
 121 0022 1B78     		ldrb	r3, [r3]
 122 0024 DBB2     		uxtb	r3, r3
 123 0026 43F00103 		orr	r3, r3, #1
 124 002a DBB2     		uxtb	r3, r3
 125 002c 1370     		strb	r3, [r2]
 260:Generated_Source\PSoC5/USBFS.c **** 
 261:Generated_Source\PSoC5/USBFS.c ****     /* Enable core clock. */
 262:Generated_Source\PSoC5/USBFS.c ****     USBFS_USB_CLK_EN_REG = USBFS_USB_CLK_ENABLE;
 126              		.loc 1 262 0
 127 002e 504B     		ldr	r3, .L8+8
 128 0030 0122     		movs	r2, #1
 129 0032 1A70     		strb	r2, [r3]
 263:Generated_Source\PSoC5/USBFS.c **** 
 264:Generated_Source\PSoC5/USBFS.c ****     USBFS_CR1_REG = USBFS_CR1_ENABLE_LOCK;
 130              		.loc 1 264 0
 131 0034 4F4B     		ldr	r3, .L8+12
 132 0036 0222     		movs	r2, #2
 133 0038 1A70     		strb	r2, [r3]
 265:Generated_Source\PSoC5/USBFS.c **** 
 266:Generated_Source\PSoC5/USBFS.c ****     /* ENABLING USBIO PADS IN USB MODE FROM I/O MODE. */
ARM GAS  C:\Users\CALEBC~1\AppData\Local\Temp\ccUZyw0h.s 			page 8


 267:Generated_Source\PSoC5/USBFS.c ****     /* Ensure USB transmit enable is low (USB_USBIO_CR0.ten). - Manual Transmission - Disabled. */
 268:Generated_Source\PSoC5/USBFS.c ****     USBFS_USBIO_CR0_REG &= (uint8) ~USBFS_USBIO_CR0_TEN;
 134              		.loc 1 268 0
 135 003a 4F4A     		ldr	r2, .L8+16
 136 003c 4E4B     		ldr	r3, .L8+16
 137 003e 1B78     		ldrb	r3, [r3]
 138 0040 DBB2     		uxtb	r3, r3
 139 0042 03F07F03 		and	r3, r3, #127
 140 0046 DBB2     		uxtb	r3, r3
 141 0048 1370     		strb	r3, [r2]
 269:Generated_Source\PSoC5/USBFS.c ****     CyDelayUs(USBFS_WAIT_REG_STABILITY_50NS);  /* ~50ns delay. */
 142              		.loc 1 269 0
 143 004a 0020     		movs	r0, #0
 144 004c FFF7FEFF 		bl	CyDelayUs
 270:Generated_Source\PSoC5/USBFS.c ****     /* Disable USBIO by asserting PM.USB_CR0.fsusbio_pd_n(Inverted.
 271:Generated_Source\PSoC5/USBFS.c ****     *  high. These bits will be set low by the power manager out-of-reset.
 272:Generated_Source\PSoC5/USBFS.c ****     *  Also confirm USBIO pull-up is disabled.
 273:Generated_Source\PSoC5/USBFS.c ****     */
 274:Generated_Source\PSoC5/USBFS.c ****     USBFS_PM_USB_CR0_REG &= (uint8) ~(USBFS_PM_USB_CR0_PD_N |
 145              		.loc 1 274 0
 146 0050 4A4A     		ldr	r2, .L8+20
 147 0052 4A4B     		ldr	r3, .L8+20
 148 0054 1B78     		ldrb	r3, [r3]
 149 0056 DBB2     		uxtb	r3, r3
 150 0058 23F00603 		bic	r3, r3, #6
 151 005c DBB2     		uxtb	r3, r3
 152 005e 1370     		strb	r3, [r2]
 275:Generated_Source\PSoC5/USBFS.c ****                                                  USBFS_PM_USB_CR0_PD_PULLUP_N);
 276:Generated_Source\PSoC5/USBFS.c **** 
 277:Generated_Source\PSoC5/USBFS.c ****     /* Select IOMODE to USB mode. */
 278:Generated_Source\PSoC5/USBFS.c ****     USBFS_USBIO_CR1_REG &= (uint8) ~USBFS_USBIO_CR1_IOMODE;
 153              		.loc 1 278 0
 154 0060 474A     		ldr	r2, .L8+24
 155 0062 474B     		ldr	r3, .L8+24
 156 0064 1B78     		ldrb	r3, [r3]
 157 0066 DBB2     		uxtb	r3, r3
 158 0068 23F02003 		bic	r3, r3, #32
 159 006c DBB2     		uxtb	r3, r3
 160 006e 1370     		strb	r3, [r2]
 279:Generated_Source\PSoC5/USBFS.c **** 
 280:Generated_Source\PSoC5/USBFS.c ****     /* Enable USBIO reference by setting PM.USB_CR0.fsusbio_ref_en. */
 281:Generated_Source\PSoC5/USBFS.c ****     USBFS_PM_USB_CR0_REG |= USBFS_PM_USB_CR0_REF_EN;
 161              		.loc 1 281 0
 162 0070 424A     		ldr	r2, .L8+20
 163 0072 424B     		ldr	r3, .L8+20
 164 0074 1B78     		ldrb	r3, [r3]
 165 0076 DBB2     		uxtb	r3, r3
 166 0078 43F00103 		orr	r3, r3, #1
 167 007c DBB2     		uxtb	r3, r3
 168 007e 1370     		strb	r3, [r2]
 282:Generated_Source\PSoC5/USBFS.c ****     /* Reference is available for 1us after regulator is enabled. */
 283:Generated_Source\PSoC5/USBFS.c ****     CyDelayUs(USBFS_WAIT_REG_STABILITY_1US);
 169              		.loc 1 283 0
 170 0080 0120     		movs	r0, #1
 171 0082 FFF7FEFF 		bl	CyDelayUs
 284:Generated_Source\PSoC5/USBFS.c ****     /* OR 40us after power is restored. */
 285:Generated_Source\PSoC5/USBFS.c ****     CyDelayUs(USBFS_WAIT_VREF_RESTORE);
ARM GAS  C:\Users\CALEBC~1\AppData\Local\Temp\ccUZyw0h.s 			page 9


 172              		.loc 1 285 0
 173 0086 2820     		movs	r0, #40
 174 0088 FFF7FEFF 		bl	CyDelayUs
 286:Generated_Source\PSoC5/USBFS.c ****     /* Ensure single-ended disable bits are low (PRT15.INP_DIS[7:6])(input receiver enabled). */
 287:Generated_Source\PSoC5/USBFS.c ****     USBFS_DM_INP_DIS_REG &= (uint8) ~USBFS_DM_MASK;
 175              		.loc 1 287 0
 176 008c 3D4A     		ldr	r2, .L8+28
 177 008e 3D4B     		ldr	r3, .L8+28
 178 0090 1B78     		ldrb	r3, [r3]
 179 0092 DBB2     		uxtb	r3, r3
 180 0094 03F07F03 		and	r3, r3, #127
 181 0098 DBB2     		uxtb	r3, r3
 182 009a 1370     		strb	r3, [r2]
 288:Generated_Source\PSoC5/USBFS.c ****     USBFS_DP_INP_DIS_REG &= (uint8) ~USBFS_DP_MASK;
 183              		.loc 1 288 0
 184 009c 394A     		ldr	r2, .L8+28
 185 009e 394B     		ldr	r3, .L8+28
 186 00a0 1B78     		ldrb	r3, [r3]
 187 00a2 DBB2     		uxtb	r3, r3
 188 00a4 23F04003 		bic	r3, r3, #64
 189 00a8 DBB2     		uxtb	r3, r3
 190 00aa 1370     		strb	r3, [r2]
 289:Generated_Source\PSoC5/USBFS.c **** 
 290:Generated_Source\PSoC5/USBFS.c ****     /* Enable USBIO. */
 291:Generated_Source\PSoC5/USBFS.c ****     USBFS_PM_USB_CR0_REG |= USBFS_PM_USB_CR0_PD_N;
 191              		.loc 1 291 0
 192 00ac 334A     		ldr	r2, .L8+20
 193 00ae 334B     		ldr	r3, .L8+20
 194 00b0 1B78     		ldrb	r3, [r3]
 195 00b2 DBB2     		uxtb	r3, r3
 196 00b4 43F00203 		orr	r3, r3, #2
 197 00b8 DBB2     		uxtb	r3, r3
 198 00ba 1370     		strb	r3, [r2]
 292:Generated_Source\PSoC5/USBFS.c ****     CyDelayUs(USBFS_WAIT_PD_PULLUP_N_ENABLE);
 199              		.loc 1 292 0
 200 00bc 0220     		movs	r0, #2
 201 00be FFF7FEFF 		bl	CyDelayUs
 293:Generated_Source\PSoC5/USBFS.c ****     /* Set USBIO pull-up enable. */
 294:Generated_Source\PSoC5/USBFS.c ****     USBFS_PM_USB_CR0_REG |= USBFS_PM_USB_CR0_PD_PULLUP_N;
 202              		.loc 1 294 0
 203 00c2 2E4A     		ldr	r2, .L8+20
 204 00c4 2D4B     		ldr	r3, .L8+20
 205 00c6 1B78     		ldrb	r3, [r3]
 206 00c8 DBB2     		uxtb	r3, r3
 207 00ca 43F00403 		orr	r3, r3, #4
 208 00ce DBB2     		uxtb	r3, r3
 209 00d0 1370     		strb	r3, [r2]
 295:Generated_Source\PSoC5/USBFS.c **** 
 296:Generated_Source\PSoC5/USBFS.c ****     /* Reset Arbiter Write Address register for endpoint 1. */
 297:Generated_Source\PSoC5/USBFS.c ****     CY_SET_REG8(USBFS_ARB_RW1_WA_PTR,     0u);
 210              		.loc 1 297 0
 211 00d2 2D4B     		ldr	r3, .L8+32
 212 00d4 0022     		movs	r2, #0
 213 00d6 1A70     		strb	r2, [r3]
 298:Generated_Source\PSoC5/USBFS.c ****     CY_SET_REG8(USBFS_ARB_RW1_WA_MSB_PTR, 0u);
 214              		.loc 1 298 0
 215 00d8 2C4B     		ldr	r3, .L8+36
ARM GAS  C:\Users\CALEBC~1\AppData\Local\Temp\ccUZyw0h.s 			page 10


 216 00da 0022     		movs	r2, #0
 217 00dc 1A70     		strb	r2, [r3]
 299:Generated_Source\PSoC5/USBFS.c **** 
 300:Generated_Source\PSoC5/USBFS.c **** #if (USBFS_EP_MANAGEMENT_DMA)
 301:Generated_Source\PSoC5/USBFS.c ****     /* Initialize transfer descriptor. This will be used to detect DMA state - initialized or not. 
 302:Generated_Source\PSoC5/USBFS.c ****     for (i = 0u; i < USBFS_MAX_EP; ++i)
 218              		.loc 1 302 0
 219 00de 0023     		movs	r3, #0
 220 00e0 FB80     		strh	r3, [r7, #6]	@ movhi
 221 00e2 06E0     		b	.L6
 222              	.L7:
 303:Generated_Source\PSoC5/USBFS.c ****     {
 304:Generated_Source\PSoC5/USBFS.c ****         USBFS_DmaTd[i] = DMA_INVALID_TD;
 223              		.loc 1 304 0 discriminator 3
 224 00e4 FB88     		ldrh	r3, [r7, #6]
 225 00e6 2A4A     		ldr	r2, .L8+40
 226 00e8 FF21     		movs	r1, #255
 227 00ea D154     		strb	r1, [r2, r3]
 302:Generated_Source\PSoC5/USBFS.c ****     {
 228              		.loc 1 302 0 discriminator 3
 229 00ec FB88     		ldrh	r3, [r7, #6]	@ movhi
 230 00ee 0133     		adds	r3, r3, #1
 231 00f0 FB80     		strh	r3, [r7, #6]	@ movhi
 232              	.L6:
 302:Generated_Source\PSoC5/USBFS.c ****     {
 233              		.loc 1 302 0 is_stmt 0 discriminator 1
 234 00f2 FB88     		ldrh	r3, [r7, #6]
 235 00f4 082B     		cmp	r3, #8
 236 00f6 F5D9     		bls	.L7
 305:Generated_Source\PSoC5/USBFS.c **** 
 306:Generated_Source\PSoC5/USBFS.c ****     #if (USBFS_EP_MANAGEMENT_DMA_AUTO && (USBFS_EP_DMA_AUTO_OPT == 0u))
 307:Generated_Source\PSoC5/USBFS.c ****         USBFS_DmaNextTd[i] = DMA_INVALID_TD;
 308:Generated_Source\PSoC5/USBFS.c ****     #endif /* (USBFS_EP_MANAGEMENT_DMA_AUTO && (USBFS_EP_DMA_AUTO_OPT == 0u)) */
 309:Generated_Source\PSoC5/USBFS.c ****     }
 310:Generated_Source\PSoC5/USBFS.c **** #endif /* (USBFS_EP_MANAGEMENT_DMA) */
 311:Generated_Source\PSoC5/USBFS.c **** 
 312:Generated_Source\PSoC5/USBFS.c ****     CyExitCriticalSection(enableInterrupts);
 237              		.loc 1 312 0 is_stmt 1
 238 00f8 7B79     		ldrb	r3, [r7, #5]	@ zero_extendqisi2
 239 00fa 1846     		mov	r0, r3
 240 00fc FFF7FEFF 		bl	CyExitCriticalSection
 313:Generated_Source\PSoC5/USBFS.c **** #endif /* (CY_PSOC4) */
 314:Generated_Source\PSoC5/USBFS.c **** 
 315:Generated_Source\PSoC5/USBFS.c ****     /* Configure interrupts from USB block. */
 316:Generated_Source\PSoC5/USBFS.c **** #if (CY_PSOC4)
 317:Generated_Source\PSoC5/USBFS.c ****     /* Configure hi_int: set handler and priority. */
 318:Generated_Source\PSoC5/USBFS.c ****     CyIntSetPriority     (USBFS_INTR_HI_VECT_NUM,  USBFS_INTR_HI_PRIORITY);
 319:Generated_Source\PSoC5/USBFS.c ****     (void) CyIntSetVector(USBFS_INTR_HI_VECT_NUM, &USBFS_INTR_HI_ISR);
 320:Generated_Source\PSoC5/USBFS.c **** 
 321:Generated_Source\PSoC5/USBFS.c ****     /* Configure lo_int: set handler and priority. */
 322:Generated_Source\PSoC5/USBFS.c ****     CyIntSetPriority     (USBFS_INTR_LO_VECT_NUM,  USBFS_INTR_LO_PRIORITY);
 323:Generated_Source\PSoC5/USBFS.c ****     (void) CyIntSetVector(USBFS_INTR_LO_VECT_NUM, &USBFS_INTR_LO_ISR);
 324:Generated_Source\PSoC5/USBFS.c **** 
 325:Generated_Source\PSoC5/USBFS.c ****     /* Configure med_int: set handler and priority (routed through DSI). */
 326:Generated_Source\PSoC5/USBFS.c ****     CyIntSetPriority     (USBFS_INTR_MED_VECT_NUM,  USBFS_INTR_MED_PRIORITY);
 327:Generated_Source\PSoC5/USBFS.c ****     (void) CyIntSetVector(USBFS_INTR_MED_VECT_NUM, &USBFS_INTR_MED_ISR);
 328:Generated_Source\PSoC5/USBFS.c **** 
ARM GAS  C:\Users\CALEBC~1\AppData\Local\Temp\ccUZyw0h.s 			page 11


 329:Generated_Source\PSoC5/USBFS.c **** #else
 330:Generated_Source\PSoC5/USBFS.c ****     /* Set bus reset interrupt. */
 331:Generated_Source\PSoC5/USBFS.c ****     CyIntSetPriority(USBFS_BUS_RESET_VECT_NUM, USBFS_BUS_RESET_PRIOR);
 241              		.loc 1 331 0
 242 0100 0721     		movs	r1, #7
 243 0102 1720     		movs	r0, #23
 244 0104 FFF7FEFF 		bl	CyIntSetPriority
 332:Generated_Source\PSoC5/USBFS.c ****     (void) CyIntSetVector(USBFS_BUS_RESET_VECT_NUM,   &USBFS_BUS_RESET_ISR);
 245              		.loc 1 332 0
 246 0108 2249     		ldr	r1, .L8+44
 247 010a 1720     		movs	r0, #23
 248 010c FFF7FEFF 		bl	CyIntSetVector
 333:Generated_Source\PSoC5/USBFS.c **** 
 334:Generated_Source\PSoC5/USBFS.c ****     /* Set Control Endpoint Interrupt. */
 335:Generated_Source\PSoC5/USBFS.c ****     CyIntSetPriority(USBFS_EP_0_VECT_NUM, USBFS_EP_0_PRIOR);
 249              		.loc 1 335 0
 250 0110 0721     		movs	r1, #7
 251 0112 1820     		movs	r0, #24
 252 0114 FFF7FEFF 		bl	CyIntSetPriority
 336:Generated_Source\PSoC5/USBFS.c ****     (void) CyIntSetVector(USBFS_EP_0_VECT_NUM,   &USBFS_EP_0_ISR);
 253              		.loc 1 336 0
 254 0118 1F49     		ldr	r1, .L8+48
 255 011a 1820     		movs	r0, #24
 256 011c FFF7FEFF 		bl	CyIntSetVector
 337:Generated_Source\PSoC5/USBFS.c **** 
 338:Generated_Source\PSoC5/USBFS.c ****     /* Set SOF interrupt. */
 339:Generated_Source\PSoC5/USBFS.c ****     #if (USBFS_SOF_ISR_ACTIVE)
 340:Generated_Source\PSoC5/USBFS.c ****         CyIntSetPriority     (USBFS_SOF_VECT_NUM,  USBFS_SOF_PRIOR);
 341:Generated_Source\PSoC5/USBFS.c ****         (void) CyIntSetVector(USBFS_SOF_VECT_NUM, &USBFS_SOF_ISR);
 342:Generated_Source\PSoC5/USBFS.c ****     #endif /* (USBFS_SOF_ISR_ACTIVE) */
 343:Generated_Source\PSoC5/USBFS.c **** 
 344:Generated_Source\PSoC5/USBFS.c ****     /* Set Data Endpoint 1 Interrupt. */
 345:Generated_Source\PSoC5/USBFS.c ****     #if (USBFS_EP1_ISR_ACTIVE)
 346:Generated_Source\PSoC5/USBFS.c ****         CyIntSetPriority     (USBFS_EP_1_VECT_NUM,  USBFS_EP_1_PRIOR);
 257              		.loc 1 346 0
 258 0120 0721     		movs	r1, #7
 259 0122 0020     		movs	r0, #0
 260 0124 FFF7FEFF 		bl	CyIntSetPriority
 347:Generated_Source\PSoC5/USBFS.c ****         (void) CyIntSetVector(USBFS_EP_1_VECT_NUM,  &USBFS_EP_1_ISR);
 261              		.loc 1 347 0
 262 0128 1C49     		ldr	r1, .L8+52
 263 012a 0020     		movs	r0, #0
 264 012c FFF7FEFF 		bl	CyIntSetVector
 348:Generated_Source\PSoC5/USBFS.c ****     #endif /* (USBFS_EP1_ISR_ACTIVE) */
 349:Generated_Source\PSoC5/USBFS.c **** 
 350:Generated_Source\PSoC5/USBFS.c ****     /* Set Data Endpoint 2 Interrupt. */
 351:Generated_Source\PSoC5/USBFS.c ****     #if (USBFS_EP2_ISR_ACTIVE)
 352:Generated_Source\PSoC5/USBFS.c ****         CyIntSetPriority     (USBFS_EP_2_VECT_NUM,  USBFS_EP_2_PRIOR);
 265              		.loc 1 352 0
 266 0130 0721     		movs	r1, #7
 267 0132 0120     		movs	r0, #1
 268 0134 FFF7FEFF 		bl	CyIntSetPriority
 353:Generated_Source\PSoC5/USBFS.c ****         (void) CyIntSetVector(USBFS_EP_2_VECT_NUM, &USBFS_EP_2_ISR);
 269              		.loc 1 353 0
 270 0138 1949     		ldr	r1, .L8+56
 271 013a 0120     		movs	r0, #1
 272 013c FFF7FEFF 		bl	CyIntSetVector
ARM GAS  C:\Users\CALEBC~1\AppData\Local\Temp\ccUZyw0h.s 			page 12


 354:Generated_Source\PSoC5/USBFS.c ****     #endif /* (USBFS_EP2_ISR_ACTIVE) */
 355:Generated_Source\PSoC5/USBFS.c **** 
 356:Generated_Source\PSoC5/USBFS.c ****     /* Set Data Endpoint 3 Interrupt. */
 357:Generated_Source\PSoC5/USBFS.c ****     #if (USBFS_EP3_ISR_ACTIVE)
 358:Generated_Source\PSoC5/USBFS.c ****         CyIntSetPriority     (USBFS_EP_3_VECT_NUM,  USBFS_EP_3_PRIOR);
 359:Generated_Source\PSoC5/USBFS.c ****         (void) CyIntSetVector(USBFS_EP_3_VECT_NUM, &USBFS_EP_3_ISR);
 360:Generated_Source\PSoC5/USBFS.c ****     #endif /* (USBFS_EP3_ISR_ACTIVE) */
 361:Generated_Source\PSoC5/USBFS.c **** 
 362:Generated_Source\PSoC5/USBFS.c ****     /* Set Data Endpoint 4 Interrupt. */
 363:Generated_Source\PSoC5/USBFS.c ****     #if (USBFS_EP4_ISR_ACTIVE)
 364:Generated_Source\PSoC5/USBFS.c ****         CyIntSetPriority     (USBFS_EP_4_VECT_NUM,  USBFS_EP_4_PRIOR);
 365:Generated_Source\PSoC5/USBFS.c ****         (void) CyIntSetVector(USBFS_EP_4_VECT_NUM, &USBFS_EP_4_ISR);
 366:Generated_Source\PSoC5/USBFS.c ****     #endif /* (USBFS_EP4_ISR_ACTIVE) */
 367:Generated_Source\PSoC5/USBFS.c **** 
 368:Generated_Source\PSoC5/USBFS.c ****     /* Set Data Endpoint 5 Interrupt. */
 369:Generated_Source\PSoC5/USBFS.c ****     #if (USBFS_EP5_ISR_ACTIVE)
 370:Generated_Source\PSoC5/USBFS.c ****         CyIntSetPriority     (USBFS_EP_5_VECT_NUM,  USBFS_EP_5_PRIOR);
 371:Generated_Source\PSoC5/USBFS.c ****         (void) CyIntSetVector(USBFS_EP_5_VECT_NUM, &USBFS_EP_5_ISR);
 372:Generated_Source\PSoC5/USBFS.c ****     #endif /* (USBFS_EP5_ISR_ACTIVE) */
 373:Generated_Source\PSoC5/USBFS.c **** 
 374:Generated_Source\PSoC5/USBFS.c ****     /* Set Data Endpoint 6 Interrupt. */
 375:Generated_Source\PSoC5/USBFS.c ****     #if (USBFS_EP6_ISR_ACTIVE)
 376:Generated_Source\PSoC5/USBFS.c ****         CyIntSetPriority     (USBFS_EP_6_VECT_NUM,  USBFS_EP_6_PRIOR);
 377:Generated_Source\PSoC5/USBFS.c ****         (void) CyIntSetVector(USBFS_EP_6_VECT_NUM, &USBFS_EP_6_ISR);
 378:Generated_Source\PSoC5/USBFS.c ****     #endif /* (USBFS_EP6_ISR_ACTIVE) */
 379:Generated_Source\PSoC5/USBFS.c **** 
 380:Generated_Source\PSoC5/USBFS.c ****      /* Set Data Endpoint 7 Interrupt. */
 381:Generated_Source\PSoC5/USBFS.c ****     #if (USBFS_EP7_ISR_ACTIVE)
 382:Generated_Source\PSoC5/USBFS.c ****         CyIntSetPriority     (USBFS_EP_7_VECT_NUM,  USBFS_EP_7_PRIOR);
 383:Generated_Source\PSoC5/USBFS.c ****         (void) CyIntSetVector(USBFS_EP_7_VECT_NUM, &USBFS_EP_7_ISR);
 384:Generated_Source\PSoC5/USBFS.c ****     #endif /* (USBFS_EP7_ISR_ACTIVE) */
 385:Generated_Source\PSoC5/USBFS.c **** 
 386:Generated_Source\PSoC5/USBFS.c ****     /* Set Data Endpoint 8 Interrupt. */
 387:Generated_Source\PSoC5/USBFS.c ****     #if (USBFS_EP8_ISR_ACTIVE)
 388:Generated_Source\PSoC5/USBFS.c ****         CyIntSetPriority     (USBFS_EP_8_VECT_NUM,  USBFS_EP_8_PRIOR);
 389:Generated_Source\PSoC5/USBFS.c ****         (void) CyIntSetVector(USBFS_EP_8_VECT_NUM, &USBFS_EP_8_ISR);
 390:Generated_Source\PSoC5/USBFS.c ****     #endif /* (USBFS_EP8_ISR_ACTIVE) */
 391:Generated_Source\PSoC5/USBFS.c **** 
 392:Generated_Source\PSoC5/USBFS.c ****     /* Set ARB Interrupt. */
 393:Generated_Source\PSoC5/USBFS.c ****     #if (USBFS_EP_MANAGEMENT_DMA && USBFS_ARB_ISR_ACTIVE)
 394:Generated_Source\PSoC5/USBFS.c ****         CyIntSetPriority     (USBFS_ARB_VECT_NUM,  USBFS_ARB_PRIOR);
 273              		.loc 1 394 0
 274 0140 0021     		movs	r1, #0
 275 0142 1620     		movs	r0, #22
 276 0144 FFF7FEFF 		bl	CyIntSetPriority
 395:Generated_Source\PSoC5/USBFS.c ****         (void) CyIntSetVector(USBFS_ARB_VECT_NUM, &USBFS_ARB_ISR);
 277              		.loc 1 395 0
 278 0148 1649     		ldr	r1, .L8+60
 279 014a 1620     		movs	r0, #22
 280 014c FFF7FEFF 		bl	CyIntSetVector
 396:Generated_Source\PSoC5/USBFS.c ****     #endif /* (USBFS_EP_MANAGEMENT_DMA && USBFS_ARB_ISR_ACTIVE) */
 397:Generated_Source\PSoC5/USBFS.c **** #endif /* (CY_PSOC4) */
 398:Generated_Source\PSoC5/USBFS.c **** 
 399:Generated_Source\PSoC5/USBFS.c ****     /* Common: Configure GPIO interrupt for wakeup. */
 400:Generated_Source\PSoC5/USBFS.c **** #if (USBFS_DP_ISR_ACTIVE)
 401:Generated_Source\PSoC5/USBFS.c ****     CyIntSetPriority     (USBFS_DP_INTC_VECT_NUM,  USBFS_DP_INTC_PRIORITY);
 281              		.loc 1 401 0
ARM GAS  C:\Users\CALEBC~1\AppData\Local\Temp\ccUZyw0h.s 			page 13


 282 0150 0721     		movs	r1, #7
 283 0152 0C20     		movs	r0, #12
 284 0154 FFF7FEFF 		bl	CyIntSetPriority
 402:Generated_Source\PSoC5/USBFS.c ****     (void) CyIntSetVector(USBFS_DP_INTC_VECT_NUM, &USBFS_DP_ISR);
 285              		.loc 1 402 0
 286 0158 1349     		ldr	r1, .L8+64
 287 015a 0C20     		movs	r0, #12
 288 015c FFF7FEFF 		bl	CyIntSetVector
 403:Generated_Source\PSoC5/USBFS.c **** #endif /* (USBFS_DP_ISR_ACTIVE) */
 404:Generated_Source\PSoC5/USBFS.c **** 
 405:Generated_Source\PSoC5/USBFS.c **** #if (USBFS_EP_MANAGEMENT_DMA && CY_PSOC4)
 406:Generated_Source\PSoC5/USBFS.c ****     /* Initialize DMA channels. */
 407:Generated_Source\PSoC5/USBFS.c ****     USBFS_InitEpDma();
 408:Generated_Source\PSoC5/USBFS.c **** #endif /* (USBFS_EP_MANAGEMENT_DMA && CY_PSOC4) */
 409:Generated_Source\PSoC5/USBFS.c **** }
 289              		.loc 1 409 0
 290 0160 00BF     		nop
 291 0162 0837     		adds	r7, r7, #8
 292              		.cfi_def_cfa_offset 8
 293 0164 BD46     		mov	sp, r7
 294              		.cfi_def_cfa_register 13
 295              		@ sp needed
 296 0166 80BD     		pop	{r7, pc}
 297              	.L9:
 298              		.align	2
 299              	.L8:
 300 0168 A5430040 		.word	1073759141
 301 016c B5430040 		.word	1073759157
 302 0170 9D600040 		.word	1073766557
 303 0174 09600040 		.word	1073766409
 304 0178 10600040 		.word	1073766416
 305 017c 94430040 		.word	1073759124
 306 0180 12600040 		.word	1073766418
 307 0184 F8510040 		.word	1073762808
 308 0188 84600040 		.word	1073766532
 309 018c 85600040 		.word	1073766533
 310 0190 00000000 		.word	USBFS_DmaTd
 311 0194 00000000 		.word	USBFS_BUS_RESET_ISR
 312 0198 00000000 		.word	USBFS_EP_0_ISR
 313 019c 00000000 		.word	USBFS_EP_1_ISR
 314 01a0 00000000 		.word	USBFS_EP_2_ISR
 315 01a4 00000000 		.word	USBFS_ARB_ISR
 316 01a8 00000000 		.word	USBFS_DP_ISR
 317              		.cfi_endproc
 318              	.LFE1:
 319              		.size	USBFS_Init, .-USBFS_Init
 320              		.section	.text.USBFS_InitComponent,"ax",%progbits
 321              		.align	2
 322              		.global	USBFS_InitComponent
 323              		.thumb
 324              		.thumb_func
 325              		.type	USBFS_InitComponent, %function
 326              	USBFS_InitComponent:
 327              	.LFB2:
 410:Generated_Source\PSoC5/USBFS.c **** 
 411:Generated_Source\PSoC5/USBFS.c **** 
 412:Generated_Source\PSoC5/USBFS.c **** /*******************************************************************************
ARM GAS  C:\Users\CALEBC~1\AppData\Local\Temp\ccUZyw0h.s 			page 14


 413:Generated_Source\PSoC5/USBFS.c **** * Function Name: USBFS_InitComponent
 414:Generated_Source\PSoC5/USBFS.c **** ****************************************************************************//**
 415:Generated_Source\PSoC5/USBFS.c **** *
 416:Generated_Source\PSoC5/USBFS.c **** *   This function initializes the component’s global variables and initiates
 417:Generated_Source\PSoC5/USBFS.c **** *   communication with the host by pull-up D+ line.
 418:Generated_Source\PSoC5/USBFS.c **** *
 419:Generated_Source\PSoC5/USBFS.c **** * \param device:
 420:Generated_Source\PSoC5/USBFS.c **** *   Contains the device number of the desired device descriptor. The device
 421:Generated_Source\PSoC5/USBFS.c **** *   number can be found in the Device Descriptor Tab of "Configure" dialog,
 422:Generated_Source\PSoC5/USBFS.c **** *   under the settings of desired Device Descriptor, in the *Device Number*
 423:Generated_Source\PSoC5/USBFS.c **** *   field.
 424:Generated_Source\PSoC5/USBFS.c **** *  \param mode:
 425:Generated_Source\PSoC5/USBFS.c **** *   The operating voltage. This determines whether the voltage regulator
 426:Generated_Source\PSoC5/USBFS.c **** *   is enabled for 5V operation or if pass through mode is used for 3.3V
 427:Generated_Source\PSoC5/USBFS.c **** *   operation. Symbolic names and their associated values are given in the
 428:Generated_Source\PSoC5/USBFS.c **** *   following list.
 429:Generated_Source\PSoC5/USBFS.c **** *
 430:Generated_Source\PSoC5/USBFS.c **** *       *USBFS_3V_OPERATION* - Disable voltage regulator and pass-
 431:Generated_Source\PSoC5/USBFS.c **** *                                      through Vcc for pull-up
 432:Generated_Source\PSoC5/USBFS.c **** *
 433:Generated_Source\PSoC5/USBFS.c **** *       *USBFS_5V_OPERATION* - Enable voltage regulator and use
 434:Generated_Source\PSoC5/USBFS.c **** *                                      regulator for pull-up
 435:Generated_Source\PSoC5/USBFS.c **** *
 436:Generated_Source\PSoC5/USBFS.c **** *       *USBFS_DWR_POWER_OPERATION* - Enable or disable the voltage
 437:Generated_Source\PSoC5/USBFS.c **** *                                      regulator depending on the power supply
 438:Generated_Source\PSoC5/USBFS.c **** *                                      voltage configuration in the DWR tab.
 439:Generated_Source\PSoC5/USBFS.c **** *                                      For PSoC 3/5LP devices, the VDDD supply
 440:Generated_Source\PSoC5/USBFS.c **** *                                      voltage is considered and for PSoC 4A-L,
 441:Generated_Source\PSoC5/USBFS.c **** *                                      the VBUS supply voltage is considered.
 442:Generated_Source\PSoC5/USBFS.c **** *
 443:Generated_Source\PSoC5/USBFS.c **** * \globalvars
 444:Generated_Source\PSoC5/USBFS.c **** *   \ref USBFS_device
 445:Generated_Source\PSoC5/USBFS.c **** *   \ref USBFS_transferState
 446:Generated_Source\PSoC5/USBFS.c **** *   \ref USBFS_configuration
 447:Generated_Source\PSoC5/USBFS.c **** *   \ref USBFS_deviceStatus
 448:Generated_Source\PSoC5/USBFS.c **** *
 449:Generated_Source\PSoC5/USBFS.c **** *   \ref USBFS_deviceAddress - Contains the current device address. This
 450:Generated_Source\PSoC5/USBFS.c **** *       variable is initialized to zero in this API. The Host starts to communicate
 451:Generated_Source\PSoC5/USBFS.c **** *      to the device with address 0 and then sets it to a whatever value using a
 452:Generated_Source\PSoC5/USBFS.c **** *      SET_ADDRESS request.
 453:Generated_Source\PSoC5/USBFS.c **** *
 454:Generated_Source\PSoC5/USBFS.c **** *   \ref USBFS_lastPacketSize - Initialized to 0;
 455:Generated_Source\PSoC5/USBFS.c **** *
 456:Generated_Source\PSoC5/USBFS.c **** * \reentrant
 457:Generated_Source\PSoC5/USBFS.c **** *  No.
 458:Generated_Source\PSoC5/USBFS.c **** *
 459:Generated_Source\PSoC5/USBFS.c **** *******************************************************************************/
 460:Generated_Source\PSoC5/USBFS.c **** void USBFS_InitComponent(uint8 device, uint8 mode) 
 461:Generated_Source\PSoC5/USBFS.c **** {
 328              		.loc 1 461 0
 329              		.cfi_startproc
 330              		@ args = 0, pretend = 0, frame = 8
 331              		@ frame_needed = 1, uses_anonymous_args = 0
 332 0000 80B5     		push	{r7, lr}
 333              		.cfi_def_cfa_offset 8
 334              		.cfi_offset 7, -8
 335              		.cfi_offset 14, -4
ARM GAS  C:\Users\CALEBC~1\AppData\Local\Temp\ccUZyw0h.s 			page 15


 336 0002 82B0     		sub	sp, sp, #8
 337              		.cfi_def_cfa_offset 16
 338 0004 00AF     		add	r7, sp, #0
 339              		.cfi_def_cfa_register 7
 340 0006 0346     		mov	r3, r0
 341 0008 0A46     		mov	r2, r1
 342 000a FB71     		strb	r3, [r7, #7]
 343 000c 1346     		mov	r3, r2
 344 000e BB71     		strb	r3, [r7, #6]
 462:Generated_Source\PSoC5/USBFS.c ****     /* Initialize _hidProtocol variable to comply with
 463:Generated_Source\PSoC5/USBFS.c ****     *  HID 7.2.6 Set_Protocol Request:
 464:Generated_Source\PSoC5/USBFS.c ****     *  "When initialized, all devices default to report protocol."
 465:Generated_Source\PSoC5/USBFS.c ****     */
 466:Generated_Source\PSoC5/USBFS.c **** #if defined(USBFS_ENABLE_HID_CLASS)
 467:Generated_Source\PSoC5/USBFS.c ****     uint8 i;
 468:Generated_Source\PSoC5/USBFS.c **** 
 469:Generated_Source\PSoC5/USBFS.c ****     for (i = 0u; i < USBFS_MAX_INTERFACES_NUMBER; i++)
 470:Generated_Source\PSoC5/USBFS.c ****     {
 471:Generated_Source\PSoC5/USBFS.c ****         USBFS_hidProtocol[i] = USBFS_PROTOCOL_REPORT;
 472:Generated_Source\PSoC5/USBFS.c ****     }
 473:Generated_Source\PSoC5/USBFS.c **** #endif /* USBFS_ENABLE_HID_CLASS */
 474:Generated_Source\PSoC5/USBFS.c **** 
 475:Generated_Source\PSoC5/USBFS.c ****     /* Store device number to access descriptor. */
 476:Generated_Source\PSoC5/USBFS.c ****     USBFS_device = device;
 345              		.loc 1 476 0
 346 0010 304A     		ldr	r2, .L16
 347 0012 FB79     		ldrb	r3, [r7, #7]
 348 0014 1370     		strb	r3, [r2]
 477:Generated_Source\PSoC5/USBFS.c **** 
 478:Generated_Source\PSoC5/USBFS.c ****     /* Reset component internal variables. */
 479:Generated_Source\PSoC5/USBFS.c ****     USBFS_transferState   = USBFS_TRANS_STATE_IDLE;
 349              		.loc 1 479 0
 350 0016 304B     		ldr	r3, .L16+4
 351 0018 0022     		movs	r2, #0
 352 001a 1A70     		strb	r2, [r3]
 480:Generated_Source\PSoC5/USBFS.c ****     USBFS_configurationChanged = 0u;
 353              		.loc 1 480 0
 354 001c 2F4B     		ldr	r3, .L16+8
 355 001e 0022     		movs	r2, #0
 356 0020 1A70     		strb	r2, [r3]
 481:Generated_Source\PSoC5/USBFS.c ****     USBFS_configuration   = 0u;
 357              		.loc 1 481 0
 358 0022 2F4B     		ldr	r3, .L16+12
 359 0024 0022     		movs	r2, #0
 360 0026 1A70     		strb	r2, [r3]
 482:Generated_Source\PSoC5/USBFS.c ****     USBFS_interfaceNumber = 0u;
 361              		.loc 1 482 0
 362 0028 2E4B     		ldr	r3, .L16+16
 363 002a 0022     		movs	r2, #0
 364 002c 1A70     		strb	r2, [r3]
 483:Generated_Source\PSoC5/USBFS.c ****     USBFS_deviceAddress   = 0u;
 365              		.loc 1 483 0
 366 002e 2E4B     		ldr	r3, .L16+20
 367 0030 0022     		movs	r2, #0
 368 0032 1A70     		strb	r2, [r3]
 484:Generated_Source\PSoC5/USBFS.c ****     USBFS_deviceStatus    = 0u;
 369              		.loc 1 484 0
ARM GAS  C:\Users\CALEBC~1\AppData\Local\Temp\ccUZyw0h.s 			page 16


 370 0034 2D4B     		ldr	r3, .L16+24
 371 0036 0022     		movs	r2, #0
 372 0038 1A70     		strb	r2, [r3]
 485:Generated_Source\PSoC5/USBFS.c ****     USBFS_lastPacketSize  = 0u;
 373              		.loc 1 485 0
 374 003a 2D4B     		ldr	r3, .L16+28
 375 003c 0022     		movs	r2, #0
 376 003e 1A70     		strb	r2, [r3]
 486:Generated_Source\PSoC5/USBFS.c **** 
 487:Generated_Source\PSoC5/USBFS.c ****     /* Enable component interrupts. */
 488:Generated_Source\PSoC5/USBFS.c **** #if (CY_PSOC4)
 489:Generated_Source\PSoC5/USBFS.c ****     CyIntEnable(USBFS_INTR_HI_VECT_NUM);
 490:Generated_Source\PSoC5/USBFS.c ****     CyIntEnable(USBFS_INTR_MED_VECT_NUM);
 491:Generated_Source\PSoC5/USBFS.c ****     CyIntEnable(USBFS_INTR_LO_VECT_NUM);
 492:Generated_Source\PSoC5/USBFS.c **** #else
 493:Generated_Source\PSoC5/USBFS.c ****     CyIntEnable(USBFS_BUS_RESET_VECT_NUM);
 377              		.loc 1 493 0
 378 0040 2C4B     		ldr	r3, .L16+32
 379 0042 4FF40002 		mov	r2, #8388608
 380 0046 1A60     		str	r2, [r3]
 494:Generated_Source\PSoC5/USBFS.c ****     CyIntEnable(USBFS_EP_0_VECT_NUM);
 381              		.loc 1 494 0
 382 0048 2A4B     		ldr	r3, .L16+32
 383 004a 4FF08072 		mov	r2, #16777216
 384 004e 1A60     		str	r2, [r3]
 495:Generated_Source\PSoC5/USBFS.c **** 
 496:Generated_Source\PSoC5/USBFS.c ****     #if (USBFS_SOF_ISR_ACTIVE)
 497:Generated_Source\PSoC5/USBFS.c ****         CyIntEnable(USBFS_SOF_VECT_NUM);
 498:Generated_Source\PSoC5/USBFS.c ****     #endif /* (USBFS_SOF_ISR_ACTIVE) */
 499:Generated_Source\PSoC5/USBFS.c **** 
 500:Generated_Source\PSoC5/USBFS.c ****     #if (USBFS_EP1_ISR_ACTIVE)
 501:Generated_Source\PSoC5/USBFS.c ****         CyIntEnable(USBFS_EP_1_VECT_NUM);
 385              		.loc 1 501 0
 386 0050 284B     		ldr	r3, .L16+32
 387 0052 0122     		movs	r2, #1
 388 0054 1A60     		str	r2, [r3]
 502:Generated_Source\PSoC5/USBFS.c ****     #endif /* (USBFS_EP1_ISR_ACTIVE) */
 503:Generated_Source\PSoC5/USBFS.c **** 
 504:Generated_Source\PSoC5/USBFS.c ****     #if (USBFS_EP2_ISR_ACTIVE)
 505:Generated_Source\PSoC5/USBFS.c ****         CyIntEnable(USBFS_EP_2_VECT_NUM);
 389              		.loc 1 505 0
 390 0056 274B     		ldr	r3, .L16+32
 391 0058 0222     		movs	r2, #2
 392 005a 1A60     		str	r2, [r3]
 506:Generated_Source\PSoC5/USBFS.c ****     #endif /* (USBFS_EP5_ISR_ACTIVE) */
 507:Generated_Source\PSoC5/USBFS.c **** 
 508:Generated_Source\PSoC5/USBFS.c ****     #if (USBFS_EP3_ISR_ACTIVE)
 509:Generated_Source\PSoC5/USBFS.c ****         CyIntEnable(USBFS_EP_3_VECT_NUM);
 510:Generated_Source\PSoC5/USBFS.c ****     #endif /* (USBFS_EP5_ISR_ACTIVE) */
 511:Generated_Source\PSoC5/USBFS.c **** 
 512:Generated_Source\PSoC5/USBFS.c ****     #if (USBFS_EP4_ISR_ACTIVE)
 513:Generated_Source\PSoC5/USBFS.c ****         CyIntEnable(USBFS_EP_4_VECT_NUM);
 514:Generated_Source\PSoC5/USBFS.c ****     #endif /* (USBFS_EP5_ISR_ACTIVE) */
 515:Generated_Source\PSoC5/USBFS.c **** 
 516:Generated_Source\PSoC5/USBFS.c ****     #if (USBFS_EP5_ISR_ACTIVE)
 517:Generated_Source\PSoC5/USBFS.c ****         CyIntEnable(USBFS_EP_5_VECT_NUM);
 518:Generated_Source\PSoC5/USBFS.c ****     #endif /* (USBFS_EP5_ISR_ACTIVE) */
ARM GAS  C:\Users\CALEBC~1\AppData\Local\Temp\ccUZyw0h.s 			page 17


 519:Generated_Source\PSoC5/USBFS.c **** 
 520:Generated_Source\PSoC5/USBFS.c ****     #if (USBFS_EP6_ISR_ACTIVE)
 521:Generated_Source\PSoC5/USBFS.c ****         CyIntEnable(USBFS_EP_6_VECT_NUM);
 522:Generated_Source\PSoC5/USBFS.c ****     #endif /* USBFS_EP6_ISR_REMOVE */
 523:Generated_Source\PSoC5/USBFS.c **** 
 524:Generated_Source\PSoC5/USBFS.c ****     #if (USBFS_EP7_ISR_ACTIVE)
 525:Generated_Source\PSoC5/USBFS.c ****         CyIntEnable(USBFS_EP_7_VECT_NUM);
 526:Generated_Source\PSoC5/USBFS.c ****     #endif /* (USBFS_EP7_ISR_ACTIVE) */
 527:Generated_Source\PSoC5/USBFS.c **** 
 528:Generated_Source\PSoC5/USBFS.c ****     #if (USBFS_EP8_ISR_ACTIVE)
 529:Generated_Source\PSoC5/USBFS.c ****         CyIntEnable(USBFS_EP_8_VECT_NUM);
 530:Generated_Source\PSoC5/USBFS.c ****     #endif /* (USBFS_EP8_ISR_ACTIVE) */
 531:Generated_Source\PSoC5/USBFS.c **** #endif /* (CY_PSOC4) */
 532:Generated_Source\PSoC5/USBFS.c **** 
 533:Generated_Source\PSoC5/USBFS.c **** #if (USBFS_EP_MANAGEMENT_DMA && USBFS_ARB_ISR_ACTIVE)
 534:Generated_Source\PSoC5/USBFS.c ****     /* Enable ARB EP interrupt sources. */
 535:Generated_Source\PSoC5/USBFS.c ****     USBFS_ARB_INT_EN_REG = USBFS_DEFAULT_ARB_INT_EN;
 393              		.loc 1 535 0
 394 005c 264B     		ldr	r3, .L16+36
 395 005e 0322     		movs	r2, #3
 396 0060 1A70     		strb	r2, [r3]
 536:Generated_Source\PSoC5/USBFS.c **** 
 537:Generated_Source\PSoC5/USBFS.c ****     #if (CY_PSOC3 || CY_PSOC5)
 538:Generated_Source\PSoC5/USBFS.c ****         CyIntEnable(USBFS_ARB_VECT_NUM);
 397              		.loc 1 538 0
 398 0062 244B     		ldr	r3, .L16+32
 399 0064 4FF48002 		mov	r2, #4194304
 400 0068 1A60     		str	r2, [r3]
 539:Generated_Source\PSoC5/USBFS.c ****     #endif /* (CY_PSOC3 || CY_PSOC5) */
 540:Generated_Source\PSoC5/USBFS.c **** #endif   /* (USBFS_EP_MANAGEMENT_DMA && USBFS_ARB_ISR_ACTIVE) */
 541:Generated_Source\PSoC5/USBFS.c **** 
 542:Generated_Source\PSoC5/USBFS.c **** /* Arbiter configuration for DMA transfers. */
 543:Generated_Source\PSoC5/USBFS.c **** #if (USBFS_EP_MANAGEMENT_DMA)
 544:Generated_Source\PSoC5/USBFS.c ****     /* Configure Arbiter for Manual or Auto DMA operation and clear configuration completion. */
 545:Generated_Source\PSoC5/USBFS.c ****     USBFS_ARB_CFG_REG = USBFS_DEFAULT_ARB_CFG;
 401              		.loc 1 545 0
 402 006a 244B     		ldr	r3, .L16+40
 403 006c 2022     		movs	r2, #32
 404 006e 1A70     		strb	r2, [r3]
 546:Generated_Source\PSoC5/USBFS.c **** 
 547:Generated_Source\PSoC5/USBFS.c ****     #if (CY_PSOC4)
 548:Generated_Source\PSoC5/USBFS.c ****         /* Enable DMA operation. */
 549:Generated_Source\PSoC5/USBFS.c ****         CyDmaEnable();
 550:Generated_Source\PSoC5/USBFS.c **** 
 551:Generated_Source\PSoC5/USBFS.c ****         #if (USBFS_EP_MANAGEMENT_DMA_AUTO)
 552:Generated_Source\PSoC5/USBFS.c ****             /* Change DMA priority to be highest. */
 553:Generated_Source\PSoC5/USBFS.c ****              CyIntSetPriority(CYDMA_INTR_NUMBER, USBFS_DMA_AUTO_INTR_PRIO);
 554:Generated_Source\PSoC5/USBFS.c ****         #endif /* (USBFS_EP_MANAGEMENT_DMA_AUTO) */
 555:Generated_Source\PSoC5/USBFS.c ****     #endif /* (CY_PSOC4) */
 556:Generated_Source\PSoC5/USBFS.c **** 
 557:Generated_Source\PSoC5/USBFS.c ****     #if (USBFS_EP_MANAGEMENT_DMA_AUTO)
 558:Generated_Source\PSoC5/USBFS.c ****         #if (CY_PSOC4)
 559:Generated_Source\PSoC5/USBFS.c ****             /* Enable DMA interrupt to handle DMA management. */
 560:Generated_Source\PSoC5/USBFS.c ****             CyIntEnable(CYDMA_INTR_NUMBER);
 561:Generated_Source\PSoC5/USBFS.c ****         #else
 562:Generated_Source\PSoC5/USBFS.c ****             #if (USBFS_EP_DMA_AUTO_OPT == 0u)
 563:Generated_Source\PSoC5/USBFS.c ****                 /* Initialize interrupts which handle verification of successful DMA transaction. *
ARM GAS  C:\Users\CALEBC~1\AppData\Local\Temp\ccUZyw0h.s 			page 18


 564:Generated_Source\PSoC5/USBFS.c ****                 USBFS_EP_DMA_Done_isr_StartEx(&USBFS_EP_DMA_DONE_ISR);
 565:Generated_Source\PSoC5/USBFS.c ****                 USBFS_EP17_DMA_Done_SR_InterruptEnable();
 566:Generated_Source\PSoC5/USBFS.c ****                 USBFS_EP8_DMA_Done_SR_InterruptEnable();
 567:Generated_Source\PSoC5/USBFS.c ****             #endif /* (USBFS_EP_DMA_AUTO_OPT == 0u) */
 568:Generated_Source\PSoC5/USBFS.c ****         #endif /* (CY_PSOC4) */
 569:Generated_Source\PSoC5/USBFS.c ****     #endif /* (USBFS_EP_MANAGEMENT_DMA_AUTO) */
 570:Generated_Source\PSoC5/USBFS.c **** #endif /* (USBFS_EP_MANAGEMENT_DMA) */
 571:Generated_Source\PSoC5/USBFS.c **** 
 572:Generated_Source\PSoC5/USBFS.c ****     /* Enable USB regulator depends on operation voltage. IMO Locking is enabled in Init(). */
 573:Generated_Source\PSoC5/USBFS.c ****     switch(mode)
 405              		.loc 1 573 0
 406 0070 BB79     		ldrb	r3, [r7, #6]	@ zero_extendqisi2
 407 0072 002B     		cmp	r3, #0
 408 0074 02D0     		beq	.L12
 409 0076 012B     		cmp	r3, #1
 410 0078 09D0     		beq	.L13
 411 007a 11E0     		b	.L15
 412              	.L12:
 574:Generated_Source\PSoC5/USBFS.c ****     {
 575:Generated_Source\PSoC5/USBFS.c ****     case USBFS_3V_OPERATION:
 576:Generated_Source\PSoC5/USBFS.c ****         /* Disable regulator for 3V operation. */
 577:Generated_Source\PSoC5/USBFS.c ****         USBFS_CR1_REG &= (uint8) ~USBFS_CR1_REG_ENABLE;
 413              		.loc 1 577 0
 414 007c 204A     		ldr	r2, .L16+44
 415 007e 204B     		ldr	r3, .L16+44
 416 0080 1B78     		ldrb	r3, [r3]
 417 0082 DBB2     		uxtb	r3, r3
 418 0084 23F00103 		bic	r3, r3, #1
 419 0088 DBB2     		uxtb	r3, r3
 420 008a 1370     		strb	r3, [r2]
 578:Generated_Source\PSoC5/USBFS.c ****         break;
 421              		.loc 1 578 0
 422 008c 11E0     		b	.L14
 423              	.L13:
 579:Generated_Source\PSoC5/USBFS.c **** 
 580:Generated_Source\PSoC5/USBFS.c ****     case USBFS_5V_OPERATION:
 581:Generated_Source\PSoC5/USBFS.c ****         /* Enable regulator for 5V operation. */
 582:Generated_Source\PSoC5/USBFS.c ****         USBFS_CR1_REG |= (uint8)  USBFS_CR1_REG_ENABLE;
 424              		.loc 1 582 0
 425 008e 1C4A     		ldr	r2, .L16+44
 426 0090 1B4B     		ldr	r3, .L16+44
 427 0092 1B78     		ldrb	r3, [r3]
 428 0094 DBB2     		uxtb	r3, r3
 429 0096 43F00103 		orr	r3, r3, #1
 430 009a DBB2     		uxtb	r3, r3
 431 009c 1370     		strb	r3, [r2]
 583:Generated_Source\PSoC5/USBFS.c ****         break;
 432              		.loc 1 583 0
 433 009e 08E0     		b	.L14
 434              	.L15:
 584:Generated_Source\PSoC5/USBFS.c **** 
 585:Generated_Source\PSoC5/USBFS.c ****     default: /* Check DWR settings of USB power supply. */
 586:Generated_Source\PSoC5/USBFS.c ****     #if (USBFS_VDDD_MV < USBFS_3500MV)
 587:Generated_Source\PSoC5/USBFS.c ****         /* Disable regulator for 3V operation. */
 588:Generated_Source\PSoC5/USBFS.c ****         USBFS_CR1_REG &= (uint8) ~USBFS_CR1_REG_ENABLE;
 589:Generated_Source\PSoC5/USBFS.c ****     #else
 590:Generated_Source\PSoC5/USBFS.c ****         /* Enable regulator for 5V operation. */
ARM GAS  C:\Users\CALEBC~1\AppData\Local\Temp\ccUZyw0h.s 			page 19


 591:Generated_Source\PSoC5/USBFS.c ****         USBFS_CR1_REG |= (uint8)  USBFS_CR1_REG_ENABLE;
 435              		.loc 1 591 0
 436 00a0 174A     		ldr	r2, .L16+44
 437 00a2 174B     		ldr	r3, .L16+44
 438 00a4 1B78     		ldrb	r3, [r3]
 439 00a6 DBB2     		uxtb	r3, r3
 440 00a8 43F00103 		orr	r3, r3, #1
 441 00ac DBB2     		uxtb	r3, r3
 442 00ae 1370     		strb	r3, [r2]
 592:Generated_Source\PSoC5/USBFS.c ****     #endif /* (USBFS_VDDD_MV < USBFS_3500MV) */
 593:Generated_Source\PSoC5/USBFS.c ****         break;
 443              		.loc 1 593 0
 444 00b0 00BF     		nop
 445              	.L14:
 594:Generated_Source\PSoC5/USBFS.c ****     }
 595:Generated_Source\PSoC5/USBFS.c **** 
 596:Generated_Source\PSoC5/USBFS.c **** #if (CY_PSOC4)
 597:Generated_Source\PSoC5/USBFS.c ****     /* Clear bus activity. */
 598:Generated_Source\PSoC5/USBFS.c ****     USBFS_CR1_REG &= (uint32) ~USBFS_CR1_BUS_ACTIVITY;
 599:Generated_Source\PSoC5/USBFS.c **** 
 600:Generated_Source\PSoC5/USBFS.c ****     /* Clear EP0 count register. */
 601:Generated_Source\PSoC5/USBFS.c ****     USBFS_EP0_CNT_REG = USBFS_CLEAR_REG;
 602:Generated_Source\PSoC5/USBFS.c **** 
 603:Generated_Source\PSoC5/USBFS.c ****     /* Set EP0.CR: ACK Setup, NAK IN/OUT. */
 604:Generated_Source\PSoC5/USBFS.c ****     USBFS_EP0_CR_REG = USBFS_MODE_NAK_IN_OUT;
 605:Generated_Source\PSoC5/USBFS.c **** 
 606:Generated_Source\PSoC5/USBFS.c ****     #if (USBFS_LPM_ACTIVE)
 607:Generated_Source\PSoC5/USBFS.c ****         if (NULL != USBFS_GetBOSPtr())
 608:Generated_Source\PSoC5/USBFS.c ****         {
 609:Generated_Source\PSoC5/USBFS.c ****             /* Enable LPM and acknowledge LPM packets for active device.
 610:Generated_Source\PSoC5/USBFS.c ****             * Reset NYET_EN and SUB_RESP bits in the LPM_CTRL register.
 611:Generated_Source\PSoC5/USBFS.c ****             */
 612:Generated_Source\PSoC5/USBFS.c ****             USBFS_LPM_CTRL_REG = (USBFS_LPM_CTRL_LPM_EN | \
 613:Generated_Source\PSoC5/USBFS.c ****                                              USBFS_LPM_CTRL_LPM_ACK_RESP);
 614:Generated_Source\PSoC5/USBFS.c ****         }
 615:Generated_Source\PSoC5/USBFS.c ****         else
 616:Generated_Source\PSoC5/USBFS.c ****         {
 617:Generated_Source\PSoC5/USBFS.c ****             /* Disable LPM for active device. */
 618:Generated_Source\PSoC5/USBFS.c ****             USBFS_LPM_CTRL_REG &= (uint32) ~USBFS_LPM_CTRL_LPM_EN;
 619:Generated_Source\PSoC5/USBFS.c ****         }
 620:Generated_Source\PSoC5/USBFS.c ****     #endif /* (USBFS_LPM_ACTIVE) */
 621:Generated_Source\PSoC5/USBFS.c **** 
 622:Generated_Source\PSoC5/USBFS.c ****     /* Enable device to responds to USB traffic with address 0. */
 623:Generated_Source\PSoC5/USBFS.c ****     USBFS_CR0_REG = USBFS_DEFUALT_CR0;
 624:Generated_Source\PSoC5/USBFS.c **** 
 625:Generated_Source\PSoC5/USBFS.c **** #else
 626:Generated_Source\PSoC5/USBFS.c ****     /* Set EP0.CR: ACK Setup, STALL IN/OUT. */
 627:Generated_Source\PSoC5/USBFS.c ****     USBFS_EP0_CR_REG = USBFS_MODE_STALL_IN_OUT;
 446              		.loc 1 627 0
 447 00b2 144B     		ldr	r3, .L16+48
 448 00b4 0322     		movs	r2, #3
 449 00b6 1A70     		strb	r2, [r3]
 628:Generated_Source\PSoC5/USBFS.c **** 
 629:Generated_Source\PSoC5/USBFS.c ****     /* Enable device to respond to USB traffic with address 0. */
 630:Generated_Source\PSoC5/USBFS.c ****     USBFS_CR0_REG = USBFS_DEFUALT_CR0;
 450              		.loc 1 630 0
 451 00b8 134B     		ldr	r3, .L16+52
ARM GAS  C:\Users\CALEBC~1\AppData\Local\Temp\ccUZyw0h.s 			page 20


 452 00ba 8022     		movs	r2, #128
 453 00bc 1A70     		strb	r2, [r3]
 631:Generated_Source\PSoC5/USBFS.c ****     CyDelayCycles(USBFS_WAIT_CR0_REG_STABILITY);
 454              		.loc 1 631 0
 455 00be 0120     		movs	r0, #1
 456 00c0 FFF7FEFF 		bl	CyDelayCycles
 632:Generated_Source\PSoC5/USBFS.c **** #endif /* (CY_PSOC4) */
 633:Generated_Source\PSoC5/USBFS.c **** 
 634:Generated_Source\PSoC5/USBFS.c ****     /* Enable D+ pull-up and keep USB control on IO. */
 635:Generated_Source\PSoC5/USBFS.c ****     USBFS_USBIO_CR1_REG = USBFS_USBIO_CR1_USBPUEN;
 457              		.loc 1 635 0
 458 00c4 114B     		ldr	r3, .L16+56
 459 00c6 0422     		movs	r2, #4
 460 00c8 1A70     		strb	r2, [r3]
 636:Generated_Source\PSoC5/USBFS.c **** }
 461              		.loc 1 636 0
 462 00ca 00BF     		nop
 463 00cc 0837     		adds	r7, r7, #8
 464              		.cfi_def_cfa_offset 8
 465 00ce BD46     		mov	sp, r7
 466              		.cfi_def_cfa_register 13
 467              		@ sp needed
 468 00d0 80BD     		pop	{r7, pc}
 469              	.L17:
 470 00d2 00BF     		.align	2
 471              	.L16:
 472 00d4 00000000 		.word	USBFS_device
 473 00d8 00000000 		.word	USBFS_transferState
 474 00dc 00000000 		.word	USBFS_configurationChanged
 475 00e0 00000000 		.word	USBFS_configuration
 476 00e4 00000000 		.word	USBFS_interfaceNumber
 477 00e8 00000000 		.word	USBFS_deviceAddress
 478 00ec 00000000 		.word	USBFS_deviceStatus
 479 00f0 00000000 		.word	USBFS_lastPacketSize
 480 00f4 00E100E0 		.word	-536813312
 481 00f8 9E600040 		.word	1073766558
 482 00fc 9C600040 		.word	1073766556
 483 0100 09600040 		.word	1073766409
 484 0104 28600040 		.word	1073766440
 485 0108 08600040 		.word	1073766408
 486 010c 12600040 		.word	1073766418
 487              		.cfi_endproc
 488              	.LFE2:
 489              		.size	USBFS_InitComponent, .-USBFS_InitComponent
 490              		.section	.text.USBFS_ReInitComponent,"ax",%progbits
 491              		.align	2
 492              		.global	USBFS_ReInitComponent
 493              		.thumb
 494              		.thumb_func
 495              		.type	USBFS_ReInitComponent, %function
 496              	USBFS_ReInitComponent:
 497              	.LFB3:
 637:Generated_Source\PSoC5/USBFS.c **** 
 638:Generated_Source\PSoC5/USBFS.c **** 
 639:Generated_Source\PSoC5/USBFS.c **** /*******************************************************************************
 640:Generated_Source\PSoC5/USBFS.c **** * Function Name: USBFS_ReInitComponent
 641:Generated_Source\PSoC5/USBFS.c **** ****************************************************************************//**
ARM GAS  C:\Users\CALEBC~1\AppData\Local\Temp\ccUZyw0h.s 			page 21


 642:Generated_Source\PSoC5/USBFS.c **** *
 643:Generated_Source\PSoC5/USBFS.c **** *  This function reinitialize the component configuration and is
 644:Generated_Source\PSoC5/USBFS.c **** *  intend to be called from the Reset interrupt.
 645:Generated_Source\PSoC5/USBFS.c **** *
 646:Generated_Source\PSoC5/USBFS.c **** * \globalvars
 647:Generated_Source\PSoC5/USBFS.c **** *   USBFS_device - Contains the device number of the desired Device
 648:Generated_Source\PSoC5/USBFS.c **** *        Descriptor. The device number can be found in the Device Descriptor tab
 649:Generated_Source\PSoC5/USBFS.c **** *       of the Configure dialog, under the settings of the desired Device Descriptor,
 650:Generated_Source\PSoC5/USBFS.c **** *       in the Device Number field.
 651:Generated_Source\PSoC5/USBFS.c **** *   USBFS_transferState - This variable is used by the communication
 652:Generated_Source\PSoC5/USBFS.c **** *       functions to handle the current transfer state. Initialized to
 653:Generated_Source\PSoC5/USBFS.c **** *       TRANS_STATE_IDLE in this API.
 654:Generated_Source\PSoC5/USBFS.c **** *   USBFS_configuration - Contains the current configuration number
 655:Generated_Source\PSoC5/USBFS.c **** *       set by the Host using a SET_CONFIGURATION request.
 656:Generated_Source\PSoC5/USBFS.c **** *       Initialized to zero in this API.
 657:Generated_Source\PSoC5/USBFS.c **** *   USBFS_deviceAddress - Contains the current device address. This
 658:Generated_Source\PSoC5/USBFS.c **** *       variable is initialized to zero in this API. The Host starts to communicate
 659:Generated_Source\PSoC5/USBFS.c **** *      to the device with address 0 and then sets it to a whatever value using
 660:Generated_Source\PSoC5/USBFS.c **** *      a SET_ADDRESS request.
 661:Generated_Source\PSoC5/USBFS.c **** *   USBFS_deviceStatus - Initialized to 0.
 662:Generated_Source\PSoC5/USBFS.c **** *       This is a two-bit variable which contains the power status in the first bit
 663:Generated_Source\PSoC5/USBFS.c **** *       (DEVICE_STATUS_BUS_POWERED or DEVICE_STATUS_SELF_POWERED) and the remote
 664:Generated_Source\PSoC5/USBFS.c **** *       wakeup status (DEVICE_STATUS_REMOTE_WAKEUP) in the second bit.
 665:Generated_Source\PSoC5/USBFS.c **** *   USBFS_lastPacketSize - Initialized to 0;
 666:Generated_Source\PSoC5/USBFS.c **** *
 667:Generated_Source\PSoC5/USBFS.c **** * \reentrant
 668:Generated_Source\PSoC5/USBFS.c **** *  No.
 669:Generated_Source\PSoC5/USBFS.c **** *
 670:Generated_Source\PSoC5/USBFS.c **** *******************************************************************************/
 671:Generated_Source\PSoC5/USBFS.c **** void USBFS_ReInitComponent(void) 
 672:Generated_Source\PSoC5/USBFS.c **** {
 498              		.loc 1 672 0
 499              		.cfi_startproc
 500              		@ args = 0, pretend = 0, frame = 0
 501              		@ frame_needed = 1, uses_anonymous_args = 0
 502              		@ link register save eliminated.
 503 0000 80B4     		push	{r7}
 504              		.cfi_def_cfa_offset 4
 505              		.cfi_offset 7, -4
 506 0002 00AF     		add	r7, sp, #0
 507              		.cfi_def_cfa_register 7
 673:Generated_Source\PSoC5/USBFS.c ****     /* Initialize _hidProtocol variable to comply with HID 7.2.6 Set_Protocol
 674:Generated_Source\PSoC5/USBFS.c ****     *  Request: "When initialized, all devices default to report protocol."
 675:Generated_Source\PSoC5/USBFS.c ****     */
 676:Generated_Source\PSoC5/USBFS.c **** #if defined(USBFS_ENABLE_HID_CLASS)
 677:Generated_Source\PSoC5/USBFS.c ****     uint8 i;
 678:Generated_Source\PSoC5/USBFS.c **** 
 679:Generated_Source\PSoC5/USBFS.c ****     for (i = 0u; i < USBFS_MAX_INTERFACES_NUMBER; i++)
 680:Generated_Source\PSoC5/USBFS.c ****     {
 681:Generated_Source\PSoC5/USBFS.c ****         USBFS_hidProtocol[i] = USBFS_PROTOCOL_REPORT;
 682:Generated_Source\PSoC5/USBFS.c ****     }
 683:Generated_Source\PSoC5/USBFS.c **** #endif /* USBFS_ENABLE_HID_CLASS */
 684:Generated_Source\PSoC5/USBFS.c **** 
 685:Generated_Source\PSoC5/USBFS.c ****     /* Reset component internal variables. */
 686:Generated_Source\PSoC5/USBFS.c ****     USBFS_transferState   = USBFS_TRANS_STATE_IDLE;
 508              		.loc 1 686 0
 509 0004 0F4B     		ldr	r3, .L19
ARM GAS  C:\Users\CALEBC~1\AppData\Local\Temp\ccUZyw0h.s 			page 22


 510 0006 0022     		movs	r2, #0
 511 0008 1A70     		strb	r2, [r3]
 687:Generated_Source\PSoC5/USBFS.c ****     USBFS_configurationChanged = 0u;
 512              		.loc 1 687 0
 513 000a 0F4B     		ldr	r3, .L19+4
 514 000c 0022     		movs	r2, #0
 515 000e 1A70     		strb	r2, [r3]
 688:Generated_Source\PSoC5/USBFS.c ****     USBFS_configuration   = 0u;
 516              		.loc 1 688 0
 517 0010 0E4B     		ldr	r3, .L19+8
 518 0012 0022     		movs	r2, #0
 519 0014 1A70     		strb	r2, [r3]
 689:Generated_Source\PSoC5/USBFS.c ****     USBFS_interfaceNumber = 0u;
 520              		.loc 1 689 0
 521 0016 0E4B     		ldr	r3, .L19+12
 522 0018 0022     		movs	r2, #0
 523 001a 1A70     		strb	r2, [r3]
 690:Generated_Source\PSoC5/USBFS.c ****     USBFS_deviceAddress   = 0u;
 524              		.loc 1 690 0
 525 001c 0D4B     		ldr	r3, .L19+16
 526 001e 0022     		movs	r2, #0
 527 0020 1A70     		strb	r2, [r3]
 691:Generated_Source\PSoC5/USBFS.c ****     USBFS_deviceStatus    = 0u;
 528              		.loc 1 691 0
 529 0022 0D4B     		ldr	r3, .L19+20
 530 0024 0022     		movs	r2, #0
 531 0026 1A70     		strb	r2, [r3]
 692:Generated_Source\PSoC5/USBFS.c ****     USBFS_lastPacketSize  = 0u;
 532              		.loc 1 692 0
 533 0028 0C4B     		ldr	r3, .L19+24
 534 002a 0022     		movs	r2, #0
 535 002c 1A70     		strb	r2, [r3]
 693:Generated_Source\PSoC5/USBFS.c **** 
 694:Generated_Source\PSoC5/USBFS.c **** #if (CY_PSOC4)
 695:Generated_Source\PSoC5/USBFS.c ****     /* Set EP0.CR: ACK Setup, NAK IN/OUT. */
 696:Generated_Source\PSoC5/USBFS.c ****     USBFS_EP0_CR_REG = USBFS_MODE_NAK_IN_OUT;
 697:Generated_Source\PSoC5/USBFS.c **** #else
 698:Generated_Source\PSoC5/USBFS.c ****     /* Set EP0.CR: ACK Setup, STALL IN/OUT. */
 699:Generated_Source\PSoC5/USBFS.c ****     USBFS_EP0_CR_REG = USBFS_MODE_STALL_IN_OUT;
 536              		.loc 1 699 0
 537 002e 0C4B     		ldr	r3, .L19+28
 538 0030 0322     		movs	r2, #3
 539 0032 1A70     		strb	r2, [r3]
 700:Generated_Source\PSoC5/USBFS.c **** #endif /* (CY_PSOC4) */
 701:Generated_Source\PSoC5/USBFS.c **** 
 702:Generated_Source\PSoC5/USBFS.c ****     /* Enable device to respond to USB traffic with address 0. */
 703:Generated_Source\PSoC5/USBFS.c ****     USBFS_CR0_REG = USBFS_DEFUALT_CR0;
 540              		.loc 1 703 0
 541 0034 0B4B     		ldr	r3, .L19+32
 542 0036 8022     		movs	r2, #128
 543 0038 1A70     		strb	r2, [r3]
 704:Generated_Source\PSoC5/USBFS.c **** }
 544              		.loc 1 704 0
 545 003a 00BF     		nop
 546 003c BD46     		mov	sp, r7
 547              		.cfi_def_cfa_register 13
 548              		@ sp needed
ARM GAS  C:\Users\CALEBC~1\AppData\Local\Temp\ccUZyw0h.s 			page 23


 549 003e 80BC     		pop	{r7}
 550              		.cfi_restore 7
 551              		.cfi_def_cfa_offset 0
 552 0040 7047     		bx	lr
 553              	.L20:
 554 0042 00BF     		.align	2
 555              	.L19:
 556 0044 00000000 		.word	USBFS_transferState
 557 0048 00000000 		.word	USBFS_configurationChanged
 558 004c 00000000 		.word	USBFS_configuration
 559 0050 00000000 		.word	USBFS_interfaceNumber
 560 0054 00000000 		.word	USBFS_deviceAddress
 561 0058 00000000 		.word	USBFS_deviceStatus
 562 005c 00000000 		.word	USBFS_lastPacketSize
 563 0060 28600040 		.word	1073766440
 564 0064 08600040 		.word	1073766408
 565              		.cfi_endproc
 566              	.LFE3:
 567              		.size	USBFS_ReInitComponent, .-USBFS_ReInitComponent
 568              		.section	.text.USBFS_Stop,"ax",%progbits
 569              		.align	2
 570              		.global	USBFS_Stop
 571              		.thumb
 572              		.thumb_func
 573              		.type	USBFS_Stop, %function
 574              	USBFS_Stop:
 575              	.LFB4:
 705:Generated_Source\PSoC5/USBFS.c **** 
 706:Generated_Source\PSoC5/USBFS.c **** 
 707:Generated_Source\PSoC5/USBFS.c **** /*******************************************************************************
 708:Generated_Source\PSoC5/USBFS.c **** * Function Name: USBFS_Stop
 709:Generated_Source\PSoC5/USBFS.c **** ****************************************************************************//**
 710:Generated_Source\PSoC5/USBFS.c **** *
 711:Generated_Source\PSoC5/USBFS.c **** *  This function shuts down the USB function including to release
 712:Generated_Source\PSoC5/USBFS.c **** *  the D+ pull-up and disabling the SIE.
 713:Generated_Source\PSoC5/USBFS.c **** *
 714:Generated_Source\PSoC5/USBFS.c **** * \globalvars
 715:Generated_Source\PSoC5/USBFS.c **** *   \ref USBFS_configuration
 716:Generated_Source\PSoC5/USBFS.c **** *
 717:Generated_Source\PSoC5/USBFS.c **** *   USBFS_deviceAddress - Contains the current device address. This
 718:Generated_Source\PSoC5/USBFS.c **** *       variable is initialized to zero in this API. The Host starts to communicate
 719:Generated_Source\PSoC5/USBFS.c **** *      to the device with address 0 and then sets it to a whatever value using
 720:Generated_Source\PSoC5/USBFS.c **** *      a SET_ADDRESS request.
 721:Generated_Source\PSoC5/USBFS.c **** *
 722:Generated_Source\PSoC5/USBFS.c **** *   \ref USBFS_deviceStatus
 723:Generated_Source\PSoC5/USBFS.c **** *
 724:Generated_Source\PSoC5/USBFS.c **** *   \ref USBFS_configurationChanged
 725:Generated_Source\PSoC5/USBFS.c **** *
 726:Generated_Source\PSoC5/USBFS.c **** *   USBFS_intiVar -  This variable is set to zero
 727:Generated_Source\PSoC5/USBFS.c **** *
 728:Generated_Source\PSoC5/USBFS.c **** *******************************************************************************/
 729:Generated_Source\PSoC5/USBFS.c **** void USBFS_Stop(void) 
 730:Generated_Source\PSoC5/USBFS.c **** {
 576              		.loc 1 730 0
 577              		.cfi_startproc
 578              		@ args = 0, pretend = 0, frame = 8
 579              		@ frame_needed = 1, uses_anonymous_args = 0
ARM GAS  C:\Users\CALEBC~1\AppData\Local\Temp\ccUZyw0h.s 			page 24


 580 0000 80B5     		push	{r7, lr}
 581              		.cfi_def_cfa_offset 8
 582              		.cfi_offset 7, -8
 583              		.cfi_offset 14, -4
 584 0002 82B0     		sub	sp, sp, #8
 585              		.cfi_def_cfa_offset 16
 586 0004 00AF     		add	r7, sp, #0
 587              		.cfi_def_cfa_register 7
 731:Generated_Source\PSoC5/USBFS.c ****     uint8 enableInterrupts;
 732:Generated_Source\PSoC5/USBFS.c **** 
 733:Generated_Source\PSoC5/USBFS.c **** #if (USBFS_EP_MANAGEMENT_DMA)
 734:Generated_Source\PSoC5/USBFS.c ****     /* Stop all DMA channels. */
 735:Generated_Source\PSoC5/USBFS.c ****     USBFS_Stop_DMA(USBFS_MAX_EP);
 588              		.loc 1 735 0
 589 0006 0920     		movs	r0, #9
 590 0008 FFF7FEFF 		bl	USBFS_Stop_DMA
 736:Generated_Source\PSoC5/USBFS.c **** #endif /* (USBFS_EP_MANAGEMENT_DMA) */
 737:Generated_Source\PSoC5/USBFS.c **** 
 738:Generated_Source\PSoC5/USBFS.c ****     enableInterrupts = CyEnterCriticalSection();
 591              		.loc 1 738 0
 592 000c FFF7FEFF 		bl	CyEnterCriticalSection
 593 0010 0346     		mov	r3, r0
 594 0012 FB71     		strb	r3, [r7, #7]
 739:Generated_Source\PSoC5/USBFS.c **** 
 740:Generated_Source\PSoC5/USBFS.c ****     /* Disable USB IP to respond to USB traffic. */
 741:Generated_Source\PSoC5/USBFS.c ****     USBFS_CR0_REG &= (uint8) ~USBFS_CR0_ENABLE;
 595              		.loc 1 741 0
 596 0014 2E4A     		ldr	r2, .L22
 597 0016 2E4B     		ldr	r3, .L22
 598 0018 1B78     		ldrb	r3, [r3]
 599 001a DBB2     		uxtb	r3, r3
 600 001c 03F07F03 		and	r3, r3, #127
 601 0020 DBB2     		uxtb	r3, r3
 602 0022 1370     		strb	r3, [r2]
 742:Generated_Source\PSoC5/USBFS.c **** 
 743:Generated_Source\PSoC5/USBFS.c ****     /* Disable D+ pull-up. */
 744:Generated_Source\PSoC5/USBFS.c ****     USBFS_USBIO_CR1_REG &= (uint8) ~ USBFS_USBIO_CR1_USBPUEN;
 603              		.loc 1 744 0
 604 0024 2B4A     		ldr	r2, .L22+4
 605 0026 2B4B     		ldr	r3, .L22+4
 606 0028 1B78     		ldrb	r3, [r3]
 607 002a DBB2     		uxtb	r3, r3
 608 002c 23F00403 		bic	r3, r3, #4
 609 0030 DBB2     		uxtb	r3, r3
 610 0032 1370     		strb	r3, [r2]
 745:Generated_Source\PSoC5/USBFS.c **** 
 746:Generated_Source\PSoC5/USBFS.c **** #if (CY_PSOC4)
 747:Generated_Source\PSoC5/USBFS.c ****     /* Disable USBFS block. */
 748:Generated_Source\PSoC5/USBFS.c ****     USBFS_POWER_CTRL_REG &= (uint32) ~USBFS_POWER_CTRL_ENABLE;
 749:Generated_Source\PSoC5/USBFS.c **** #else
 750:Generated_Source\PSoC5/USBFS.c ****     /* Clear power active and standby mode templates. */
 751:Generated_Source\PSoC5/USBFS.c ****     USBFS_PM_ACT_CFG_REG  &= (uint8) ~USBFS_PM_ACT_EN_FSUSB;
 611              		.loc 1 751 0
 612 0034 284A     		ldr	r2, .L22+8
 613 0036 284B     		ldr	r3, .L22+8
 614 0038 1B78     		ldrb	r3, [r3]
 615 003a DBB2     		uxtb	r3, r3
ARM GAS  C:\Users\CALEBC~1\AppData\Local\Temp\ccUZyw0h.s 			page 25


 616 003c 23F00103 		bic	r3, r3, #1
 617 0040 DBB2     		uxtb	r3, r3
 618 0042 1370     		strb	r3, [r2]
 752:Generated_Source\PSoC5/USBFS.c ****     USBFS_PM_STBY_CFG_REG &= (uint8) ~USBFS_PM_STBY_EN_FSUSB;
 619              		.loc 1 752 0
 620 0044 254A     		ldr	r2, .L22+12
 621 0046 254B     		ldr	r3, .L22+12
 622 0048 1B78     		ldrb	r3, [r3]
 623 004a DBB2     		uxtb	r3, r3
 624 004c 23F00103 		bic	r3, r3, #1
 625 0050 DBB2     		uxtb	r3, r3
 626 0052 1370     		strb	r3, [r2]
 753:Generated_Source\PSoC5/USBFS.c **** 
 754:Generated_Source\PSoC5/USBFS.c ****     /* Ensure single-ended disable bits are high (PRT15.INP_DIS[7:6])
 755:Generated_Source\PSoC5/USBFS.c ****      * (input receiver disabled). */
 756:Generated_Source\PSoC5/USBFS.c ****     USBFS_DM_INP_DIS_REG |= (uint8) USBFS_DM_MASK;
 627              		.loc 1 756 0
 628 0054 224A     		ldr	r2, .L22+16
 629 0056 224B     		ldr	r3, .L22+16
 630 0058 1B78     		ldrb	r3, [r3]
 631 005a DBB2     		uxtb	r3, r3
 632 005c 63F07F03 		orn	r3, r3, #127
 633 0060 DBB2     		uxtb	r3, r3
 634 0062 1370     		strb	r3, [r2]
 757:Generated_Source\PSoC5/USBFS.c ****     USBFS_DP_INP_DIS_REG |= (uint8) USBFS_DP_MASK;
 635              		.loc 1 757 0
 636 0064 1E4A     		ldr	r2, .L22+16
 637 0066 1E4B     		ldr	r3, .L22+16
 638 0068 1B78     		ldrb	r3, [r3]
 639 006a DBB2     		uxtb	r3, r3
 640 006c 43F04003 		orr	r3, r3, #64
 641 0070 DBB2     		uxtb	r3, r3
 642 0072 1370     		strb	r3, [r2]
 758:Generated_Source\PSoC5/USBFS.c **** 
 759:Generated_Source\PSoC5/USBFS.c **** #endif /* (CY_PSOC4) */
 760:Generated_Source\PSoC5/USBFS.c **** 
 761:Generated_Source\PSoC5/USBFS.c ****     CyExitCriticalSection(enableInterrupts);
 643              		.loc 1 761 0
 644 0074 FB79     		ldrb	r3, [r7, #7]	@ zero_extendqisi2
 645 0076 1846     		mov	r0, r3
 646 0078 FFF7FEFF 		bl	CyExitCriticalSection
 762:Generated_Source\PSoC5/USBFS.c **** 
 763:Generated_Source\PSoC5/USBFS.c ****     /* Disable component interrupts. */
 764:Generated_Source\PSoC5/USBFS.c **** #if (CY_PSOC4)
 765:Generated_Source\PSoC5/USBFS.c ****     CyIntDisable(USBFS_INTR_HI_VECT_NUM);
 766:Generated_Source\PSoC5/USBFS.c ****     CyIntDisable(USBFS_INTR_LO_VECT_NUM);
 767:Generated_Source\PSoC5/USBFS.c ****     CyIntDisable(USBFS_INTR_MED_VECT_NUM);
 768:Generated_Source\PSoC5/USBFS.c **** #else
 769:Generated_Source\PSoC5/USBFS.c **** 
 770:Generated_Source\PSoC5/USBFS.c ****     CyIntDisable(USBFS_BUS_RESET_VECT_NUM);
 647              		.loc 1 770 0
 648 007c 194B     		ldr	r3, .L22+20
 649 007e 4FF40002 		mov	r2, #8388608
 650 0082 1A60     		str	r2, [r3]
 771:Generated_Source\PSoC5/USBFS.c ****     CyIntDisable(USBFS_EP_0_VECT_NUM);
 651              		.loc 1 771 0
 652 0084 174B     		ldr	r3, .L22+20
ARM GAS  C:\Users\CALEBC~1\AppData\Local\Temp\ccUZyw0h.s 			page 26


 653 0086 4FF08072 		mov	r2, #16777216
 654 008a 1A60     		str	r2, [r3]
 772:Generated_Source\PSoC5/USBFS.c **** 
 773:Generated_Source\PSoC5/USBFS.c ****     #if (USBFS_SOF_ISR_ACTIVE)
 774:Generated_Source\PSoC5/USBFS.c ****         CyIntDisable(USBFS_SOF_VECT_NUM);
 775:Generated_Source\PSoC5/USBFS.c ****     #endif /* (USBFS_SOF_ISR_ACTIVE) */
 776:Generated_Source\PSoC5/USBFS.c **** 
 777:Generated_Source\PSoC5/USBFS.c ****     #if (USBFS_EP1_ISR_ACTIVE)
 778:Generated_Source\PSoC5/USBFS.c ****         CyIntDisable(USBFS_EP_1_VECT_NUM);
 655              		.loc 1 778 0
 656 008c 154B     		ldr	r3, .L22+20
 657 008e 0122     		movs	r2, #1
 658 0090 1A60     		str	r2, [r3]
 779:Generated_Source\PSoC5/USBFS.c ****     #endif /* (USBFS_EP1_ISR_ACTIVE) */
 780:Generated_Source\PSoC5/USBFS.c **** 
 781:Generated_Source\PSoC5/USBFS.c ****     #if (USBFS_EP2_ISR_ACTIVE)
 782:Generated_Source\PSoC5/USBFS.c ****         CyIntDisable(USBFS_EP_2_VECT_NUM);
 659              		.loc 1 782 0
 660 0092 144B     		ldr	r3, .L22+20
 661 0094 0222     		movs	r2, #2
 662 0096 1A60     		str	r2, [r3]
 783:Generated_Source\PSoC5/USBFS.c ****     #endif /* (USBFS_EP2_ISR_ACTIVE) */
 784:Generated_Source\PSoC5/USBFS.c **** 
 785:Generated_Source\PSoC5/USBFS.c ****     #if (USBFS_EP3_ISR_ACTIVE)
 786:Generated_Source\PSoC5/USBFS.c ****         CyIntDisable(USBFS_EP_3_VECT_NUM);
 787:Generated_Source\PSoC5/USBFS.c ****     #endif /* (USBFS_EP3_ISR_ACTIVE) */
 788:Generated_Source\PSoC5/USBFS.c **** 
 789:Generated_Source\PSoC5/USBFS.c ****     #if (USBFS_EP4_ISR_ACTIVE)
 790:Generated_Source\PSoC5/USBFS.c ****         CyIntDisable(USBFS_EP_4_VECT_NUM);
 791:Generated_Source\PSoC5/USBFS.c ****     #endif /* (USBFS_EP4_ISR_ACTIVE) */
 792:Generated_Source\PSoC5/USBFS.c **** 
 793:Generated_Source\PSoC5/USBFS.c ****     #if (USBFS_EP5_ISR_ACTIVE)
 794:Generated_Source\PSoC5/USBFS.c ****         CyIntDisable(USBFS_EP_5_VECT_NUM);
 795:Generated_Source\PSoC5/USBFS.c ****     #endif /* (USBFS_EP5_ISR_ACTIVE) */
 796:Generated_Source\PSoC5/USBFS.c **** 
 797:Generated_Source\PSoC5/USBFS.c ****     #if (USBFS_EP6_ISR_ACTIVE)
 798:Generated_Source\PSoC5/USBFS.c ****         CyIntDisable(USBFS_EP_6_VECT_NUM);
 799:Generated_Source\PSoC5/USBFS.c ****     #endif /* USBFS_EP6_ISR_REMOVE */
 800:Generated_Source\PSoC5/USBFS.c **** 
 801:Generated_Source\PSoC5/USBFS.c ****     #if (USBFS_EP7_ISR_ACTIVE)
 802:Generated_Source\PSoC5/USBFS.c ****         CyIntDisable(USBFS_EP_7_VECT_NUM);
 803:Generated_Source\PSoC5/USBFS.c ****     #endif /* (USBFS_EP7_ISR_ACTIVE) */
 804:Generated_Source\PSoC5/USBFS.c **** 
 805:Generated_Source\PSoC5/USBFS.c ****     #if (USBFS_EP8_ISR_ACTIVE)
 806:Generated_Source\PSoC5/USBFS.c ****         CyIntDisable(USBFS_EP_8_VECT_NUM);
 807:Generated_Source\PSoC5/USBFS.c ****     #endif /* (USBFS_EP8_ISR_ACTIVE) */
 808:Generated_Source\PSoC5/USBFS.c **** 
 809:Generated_Source\PSoC5/USBFS.c ****     #if (USBFS_DP_ISR_ACTIVE)
 810:Generated_Source\PSoC5/USBFS.c ****         /* Clear active mode Dp interrupt source history. */
 811:Generated_Source\PSoC5/USBFS.c ****         (void) USBFS_Dp_ClearInterrupt();
 663              		.loc 1 811 0
 664 0098 FFF7FEFF 		bl	USBFS_Dp_ClearInterrupt
 812:Generated_Source\PSoC5/USBFS.c ****         CyIntClearPending(USBFS_DP_INTC_VECT_NUM);
 665              		.loc 1 812 0
 666 009c 124B     		ldr	r3, .L22+24
 667 009e 4FF48052 		mov	r2, #4096
 668 00a2 1A60     		str	r2, [r3]
ARM GAS  C:\Users\CALEBC~1\AppData\Local\Temp\ccUZyw0h.s 			page 27


 813:Generated_Source\PSoC5/USBFS.c ****     #endif /* (USBFS_DP_ISR_ACTIVE). */
 814:Generated_Source\PSoC5/USBFS.c **** 
 815:Generated_Source\PSoC5/USBFS.c **** #endif /* (CY_PSOC4) */
 816:Generated_Source\PSoC5/USBFS.c **** 
 817:Generated_Source\PSoC5/USBFS.c ****     /* Reset component internal variables. */
 818:Generated_Source\PSoC5/USBFS.c ****     USBFS_configurationChanged = 0u;
 669              		.loc 1 818 0
 670 00a4 114B     		ldr	r3, .L22+28
 671 00a6 0022     		movs	r2, #0
 672 00a8 1A70     		strb	r2, [r3]
 819:Generated_Source\PSoC5/USBFS.c ****     USBFS_configuration   = 0u;
 673              		.loc 1 819 0
 674 00aa 114B     		ldr	r3, .L22+32
 675 00ac 0022     		movs	r2, #0
 676 00ae 1A70     		strb	r2, [r3]
 820:Generated_Source\PSoC5/USBFS.c ****     USBFS_interfaceNumber = 0u;
 677              		.loc 1 820 0
 678 00b0 104B     		ldr	r3, .L22+36
 679 00b2 0022     		movs	r2, #0
 680 00b4 1A70     		strb	r2, [r3]
 821:Generated_Source\PSoC5/USBFS.c ****     USBFS_deviceAddress   = 0u;
 681              		.loc 1 821 0
 682 00b6 104B     		ldr	r3, .L22+40
 683 00b8 0022     		movs	r2, #0
 684 00ba 1A70     		strb	r2, [r3]
 822:Generated_Source\PSoC5/USBFS.c ****     USBFS_deviceStatus    = 0u;
 685              		.loc 1 822 0
 686 00bc 0F4B     		ldr	r3, .L22+44
 687 00be 0022     		movs	r2, #0
 688 00c0 1A70     		strb	r2, [r3]
 823:Generated_Source\PSoC5/USBFS.c **** 
 824:Generated_Source\PSoC5/USBFS.c ****     /* It is mandatory for correct device startup. */
 825:Generated_Source\PSoC5/USBFS.c ****     USBFS_initVar = 0u;
 689              		.loc 1 825 0
 690 00c2 0F4B     		ldr	r3, .L22+48
 691 00c4 0022     		movs	r2, #0
 692 00c6 1A70     		strb	r2, [r3]
 826:Generated_Source\PSoC5/USBFS.c **** }
 693              		.loc 1 826 0
 694 00c8 00BF     		nop
 695 00ca 0837     		adds	r7, r7, #8
 696              		.cfi_def_cfa_offset 8
 697 00cc BD46     		mov	sp, r7
 698              		.cfi_def_cfa_register 13
 699              		@ sp needed
 700 00ce 80BD     		pop	{r7, pc}
 701              	.L23:
 702              		.align	2
 703              	.L22:
 704 00d0 08600040 		.word	1073766408
 705 00d4 12600040 		.word	1073766418
 706 00d8 A5430040 		.word	1073759141
 707 00dc B5430040 		.word	1073759157
 708 00e0 F8510040 		.word	1073762808
 709 00e4 80E100E0 		.word	-536813184
 710 00e8 80E200E0 		.word	-536812928
 711 00ec 00000000 		.word	USBFS_configurationChanged
ARM GAS  C:\Users\CALEBC~1\AppData\Local\Temp\ccUZyw0h.s 			page 28


 712 00f0 00000000 		.word	USBFS_configuration
 713 00f4 00000000 		.word	USBFS_interfaceNumber
 714 00f8 00000000 		.word	USBFS_deviceAddress
 715 00fc 00000000 		.word	USBFS_deviceStatus
 716 0100 00000000 		.word	USBFS_initVar
 717              		.cfi_endproc
 718              	.LFE4:
 719              		.size	USBFS_Stop, .-USBFS_Stop
 720              		.section	.text.USBFS_CheckActivity,"ax",%progbits
 721              		.align	2
 722              		.global	USBFS_CheckActivity
 723              		.thumb
 724              		.thumb_func
 725              		.type	USBFS_CheckActivity, %function
 726              	USBFS_CheckActivity:
 727              	.LFB5:
 827:Generated_Source\PSoC5/USBFS.c **** 
 828:Generated_Source\PSoC5/USBFS.c **** 
 829:Generated_Source\PSoC5/USBFS.c **** /*******************************************************************************
 830:Generated_Source\PSoC5/USBFS.c **** * Function Name: USBFS_CheckActivity
 831:Generated_Source\PSoC5/USBFS.c **** ****************************************************************************//**
 832:Generated_Source\PSoC5/USBFS.c **** *
 833:Generated_Source\PSoC5/USBFS.c **** *  This function returns the activity status of the bus. It clears the hardware
 834:Generated_Source\PSoC5/USBFS.c **** *  status to provide updated status on the next call of this function. It
 835:Generated_Source\PSoC5/USBFS.c **** *  provides a way to determine whether any USB bus activity occurred. The
 836:Generated_Source\PSoC5/USBFS.c **** *  application should use this function to determine if the USB suspend
 837:Generated_Source\PSoC5/USBFS.c **** *  conditions are met.
 838:Generated_Source\PSoC5/USBFS.c **** *
 839:Generated_Source\PSoC5/USBFS.c **** *
 840:Generated_Source\PSoC5/USBFS.c **** * \return
 841:Generated_Source\PSoC5/USBFS.c **** *  cystatus: Status of the bus since the last call of the function.
 842:Generated_Source\PSoC5/USBFS.c **** *  Return Value |   Description
 843:Generated_Source\PSoC5/USBFS.c **** *  -------------|---------------------------------------------------------------
 844:Generated_Source\PSoC5/USBFS.c **** *  1            |Bus activity was detected since the last call to this function
 845:Generated_Source\PSoC5/USBFS.c **** *  0            |Bus activity was not detected since the last call to this function
 846:Generated_Source\PSoC5/USBFS.c **** *
 847:Generated_Source\PSoC5/USBFS.c **** *
 848:Generated_Source\PSoC5/USBFS.c **** *******************************************************************************/
 849:Generated_Source\PSoC5/USBFS.c **** uint8 USBFS_CheckActivity(void) 
 850:Generated_Source\PSoC5/USBFS.c **** {
 728              		.loc 1 850 0
 729              		.cfi_startproc
 730              		@ args = 0, pretend = 0, frame = 8
 731              		@ frame_needed = 1, uses_anonymous_args = 0
 732              		@ link register save eliminated.
 733 0000 80B4     		push	{r7}
 734              		.cfi_def_cfa_offset 4
 735              		.cfi_offset 7, -4
 736 0002 83B0     		sub	sp, sp, #12
 737              		.cfi_def_cfa_offset 16
 738 0004 00AF     		add	r7, sp, #0
 739              		.cfi_def_cfa_register 7
 851:Generated_Source\PSoC5/USBFS.c ****     uint8 cr1Reg = USBFS_CR1_REG;
 740              		.loc 1 851 0
 741 0006 0B4B     		ldr	r3, .L28
 742 0008 1B78     		ldrb	r3, [r3]
 743 000a FB71     		strb	r3, [r7, #7]
ARM GAS  C:\Users\CALEBC~1\AppData\Local\Temp\ccUZyw0h.s 			page 29


 852:Generated_Source\PSoC5/USBFS.c **** 
 853:Generated_Source\PSoC5/USBFS.c ****     /* Clear bus activity. */
 854:Generated_Source\PSoC5/USBFS.c ****     USBFS_CR1_REG = (cr1Reg & (uint8) ~USBFS_CR1_BUS_ACTIVITY);
 744              		.loc 1 854 0
 745 000c 094A     		ldr	r2, .L28
 746 000e FB79     		ldrb	r3, [r7, #7]
 747 0010 23F00403 		bic	r3, r3, #4
 748 0014 DBB2     		uxtb	r3, r3
 749 0016 1370     		strb	r3, [r2]
 855:Generated_Source\PSoC5/USBFS.c **** 
 856:Generated_Source\PSoC5/USBFS.c ****     /* Get bus activity. */
 857:Generated_Source\PSoC5/USBFS.c ****     return ((0u != (cr1Reg & USBFS_CR1_BUS_ACTIVITY)) ? (1u) : (0u));
 750              		.loc 1 857 0
 751 0018 FB79     		ldrb	r3, [r7, #7]	@ zero_extendqisi2
 752 001a 03F00403 		and	r3, r3, #4
 753 001e 002B     		cmp	r3, #0
 754 0020 01D0     		beq	.L25
 755              		.loc 1 857 0 is_stmt 0 discriminator 1
 756 0022 0123     		movs	r3, #1
 757 0024 00E0     		b	.L26
 758              	.L25:
 759              		.loc 1 857 0 discriminator 2
 760 0026 0023     		movs	r3, #0
 761              	.L26:
 858:Generated_Source\PSoC5/USBFS.c **** }
 762              		.loc 1 858 0 is_stmt 1 discriminator 4
 763 0028 1846     		mov	r0, r3
 764 002a 0C37     		adds	r7, r7, #12
 765              		.cfi_def_cfa_offset 4
 766 002c BD46     		mov	sp, r7
 767              		.cfi_def_cfa_register 13
 768              		@ sp needed
 769 002e 80BC     		pop	{r7}
 770              		.cfi_restore 7
 771              		.cfi_def_cfa_offset 0
 772 0030 7047     		bx	lr
 773              	.L29:
 774 0032 00BF     		.align	2
 775              	.L28:
 776 0034 09600040 		.word	1073766409
 777              		.cfi_endproc
 778              	.LFE5:
 779              		.size	USBFS_CheckActivity, .-USBFS_CheckActivity
 780              		.section	.text.USBFS_GetConfiguration,"ax",%progbits
 781              		.align	2
 782              		.global	USBFS_GetConfiguration
 783              		.thumb
 784              		.thumb_func
 785              		.type	USBFS_GetConfiguration, %function
 786              	USBFS_GetConfiguration:
 787              	.LFB6:
 859:Generated_Source\PSoC5/USBFS.c **** 
 860:Generated_Source\PSoC5/USBFS.c **** 
 861:Generated_Source\PSoC5/USBFS.c **** /*******************************************************************************
 862:Generated_Source\PSoC5/USBFS.c **** * Function Name: USBFS_GetConfiguration
 863:Generated_Source\PSoC5/USBFS.c **** ****************************************************************************//**
 864:Generated_Source\PSoC5/USBFS.c **** *
ARM GAS  C:\Users\CALEBC~1\AppData\Local\Temp\ccUZyw0h.s 			page 30


 865:Generated_Source\PSoC5/USBFS.c **** *  This function gets the current configuration of the USB device.
 866:Generated_Source\PSoC5/USBFS.c **** *
 867:Generated_Source\PSoC5/USBFS.c **** * \return
 868:Generated_Source\PSoC5/USBFS.c **** *  Returns the currently assigned configuration. Returns 0 if the device
 869:Generated_Source\PSoC5/USBFS.c **** *  is not configured
 870:Generated_Source\PSoC5/USBFS.c **** *
 871:Generated_Source\PSoC5/USBFS.c **** *******************************************************************************/
 872:Generated_Source\PSoC5/USBFS.c **** uint8 USBFS_GetConfiguration(void) 
 873:Generated_Source\PSoC5/USBFS.c **** {
 788              		.loc 1 873 0
 789              		.cfi_startproc
 790              		@ args = 0, pretend = 0, frame = 0
 791              		@ frame_needed = 1, uses_anonymous_args = 0
 792              		@ link register save eliminated.
 793 0000 80B4     		push	{r7}
 794              		.cfi_def_cfa_offset 4
 795              		.cfi_offset 7, -4
 796 0002 00AF     		add	r7, sp, #0
 797              		.cfi_def_cfa_register 7
 874:Generated_Source\PSoC5/USBFS.c ****     return (USBFS_configuration);
 798              		.loc 1 874 0
 799 0004 034B     		ldr	r3, .L32
 800 0006 1B78     		ldrb	r3, [r3]
 801 0008 DBB2     		uxtb	r3, r3
 875:Generated_Source\PSoC5/USBFS.c **** }
 802              		.loc 1 875 0
 803 000a 1846     		mov	r0, r3
 804 000c BD46     		mov	sp, r7
 805              		.cfi_def_cfa_register 13
 806              		@ sp needed
 807 000e 80BC     		pop	{r7}
 808              		.cfi_restore 7
 809              		.cfi_def_cfa_offset 0
 810 0010 7047     		bx	lr
 811              	.L33:
 812 0012 00BF     		.align	2
 813              	.L32:
 814 0014 00000000 		.word	USBFS_configuration
 815              		.cfi_endproc
 816              	.LFE6:
 817              		.size	USBFS_GetConfiguration, .-USBFS_GetConfiguration
 818              		.section	.text.USBFS_IsConfigurationChanged,"ax",%progbits
 819              		.align	2
 820              		.global	USBFS_IsConfigurationChanged
 821              		.thumb
 822              		.thumb_func
 823              		.type	USBFS_IsConfigurationChanged, %function
 824              	USBFS_IsConfigurationChanged:
 825              	.LFB7:
 876:Generated_Source\PSoC5/USBFS.c **** 
 877:Generated_Source\PSoC5/USBFS.c **** 
 878:Generated_Source\PSoC5/USBFS.c **** /*******************************************************************************
 879:Generated_Source\PSoC5/USBFS.c **** * Function Name: USBFS_IsConfigurationChanged
 880:Generated_Source\PSoC5/USBFS.c **** ****************************************************************************//**
 881:Generated_Source\PSoC5/USBFS.c **** *
 882:Generated_Source\PSoC5/USBFS.c **** *  This function returns the clear-on-read configuration state.  It is useful
 883:Generated_Source\PSoC5/USBFS.c **** *  when the host sends double SET_CONFIGURATION request with the same 
ARM GAS  C:\Users\CALEBC~1\AppData\Local\Temp\ccUZyw0h.s 			page 31


 884:Generated_Source\PSoC5/USBFS.c **** *  configuration number or changes alternate settings of the interface. 
 885:Generated_Source\PSoC5/USBFS.c **** *  After configuration has been changed the OUT endpoints must be enabled and IN 
 886:Generated_Source\PSoC5/USBFS.c **** *  endpoint must be loaded with data to start communication with the host.
 887:Generated_Source\PSoC5/USBFS.c **** *
 888:Generated_Source\PSoC5/USBFS.c **** * \return
 889:Generated_Source\PSoC5/USBFS.c **** *  None-zero value when new configuration has been changed, otherwise zero is
 890:Generated_Source\PSoC5/USBFS.c **** *  returned.
 891:Generated_Source\PSoC5/USBFS.c **** *
 892:Generated_Source\PSoC5/USBFS.c **** * \globalvars
 893:Generated_Source\PSoC5/USBFS.c **** *
 894:Generated_Source\PSoC5/USBFS.c **** *  \ref USBFS_configurationChanged - This variable is set to 1 after
 895:Generated_Source\PSoC5/USBFS.c **** *   a SET_CONFIGURATION request and cleared in this function.
 896:Generated_Source\PSoC5/USBFS.c **** *
 897:Generated_Source\PSoC5/USBFS.c **** *******************************************************************************/
 898:Generated_Source\PSoC5/USBFS.c **** uint8 USBFS_IsConfigurationChanged(void) 
 899:Generated_Source\PSoC5/USBFS.c **** {
 826              		.loc 1 899 0
 827              		.cfi_startproc
 828              		@ args = 0, pretend = 0, frame = 8
 829              		@ frame_needed = 1, uses_anonymous_args = 0
 830              		@ link register save eliminated.
 831 0000 80B4     		push	{r7}
 832              		.cfi_def_cfa_offset 4
 833              		.cfi_offset 7, -4
 834 0002 83B0     		sub	sp, sp, #12
 835              		.cfi_def_cfa_offset 16
 836 0004 00AF     		add	r7, sp, #0
 837              		.cfi_def_cfa_register 7
 900:Generated_Source\PSoC5/USBFS.c ****     uint8 res = 0u;
 838              		.loc 1 900 0
 839 0006 0023     		movs	r3, #0
 840 0008 FB71     		strb	r3, [r7, #7]
 901:Generated_Source\PSoC5/USBFS.c **** 
 902:Generated_Source\PSoC5/USBFS.c ****     if (USBFS_configurationChanged != 0u)
 841              		.loc 1 902 0
 842 000a 084B     		ldr	r3, .L37
 843 000c 1B78     		ldrb	r3, [r3]
 844 000e DBB2     		uxtb	r3, r3
 845 0010 002B     		cmp	r3, #0
 846 0012 05D0     		beq	.L35
 903:Generated_Source\PSoC5/USBFS.c ****     {
 904:Generated_Source\PSoC5/USBFS.c ****         res = USBFS_configurationChanged;
 847              		.loc 1 904 0
 848 0014 054B     		ldr	r3, .L37
 849 0016 1B78     		ldrb	r3, [r3]
 850 0018 FB71     		strb	r3, [r7, #7]
 905:Generated_Source\PSoC5/USBFS.c ****         USBFS_configurationChanged = 0u;
 851              		.loc 1 905 0
 852 001a 044B     		ldr	r3, .L37
 853 001c 0022     		movs	r2, #0
 854 001e 1A70     		strb	r2, [r3]
 855              	.L35:
 906:Generated_Source\PSoC5/USBFS.c ****     }
 907:Generated_Source\PSoC5/USBFS.c **** 
 908:Generated_Source\PSoC5/USBFS.c ****     return (res);
 856              		.loc 1 908 0
 857 0020 FB79     		ldrb	r3, [r7, #7]	@ zero_extendqisi2
ARM GAS  C:\Users\CALEBC~1\AppData\Local\Temp\ccUZyw0h.s 			page 32


 909:Generated_Source\PSoC5/USBFS.c **** }
 858              		.loc 1 909 0
 859 0022 1846     		mov	r0, r3
 860 0024 0C37     		adds	r7, r7, #12
 861              		.cfi_def_cfa_offset 4
 862 0026 BD46     		mov	sp, r7
 863              		.cfi_def_cfa_register 13
 864              		@ sp needed
 865 0028 80BC     		pop	{r7}
 866              		.cfi_restore 7
 867              		.cfi_def_cfa_offset 0
 868 002a 7047     		bx	lr
 869              	.L38:
 870              		.align	2
 871              	.L37:
 872 002c 00000000 		.word	USBFS_configurationChanged
 873              		.cfi_endproc
 874              	.LFE7:
 875              		.size	USBFS_IsConfigurationChanged, .-USBFS_IsConfigurationChanged
 876              		.section	.text.USBFS_GetInterfaceSetting,"ax",%progbits
 877              		.align	2
 878              		.global	USBFS_GetInterfaceSetting
 879              		.thumb
 880              		.thumb_func
 881              		.type	USBFS_GetInterfaceSetting, %function
 882              	USBFS_GetInterfaceSetting:
 883              	.LFB8:
 910:Generated_Source\PSoC5/USBFS.c **** 
 911:Generated_Source\PSoC5/USBFS.c **** 
 912:Generated_Source\PSoC5/USBFS.c **** /*******************************************************************************
 913:Generated_Source\PSoC5/USBFS.c **** * Function Name: USBFS_GetInterfaceSetting
 914:Generated_Source\PSoC5/USBFS.c **** ****************************************************************************//**
 915:Generated_Source\PSoC5/USBFS.c **** *
 916:Generated_Source\PSoC5/USBFS.c **** *  This function gets the current alternate setting for the specified interface.
 917:Generated_Source\PSoC5/USBFS.c **** *  It is useful to identify which alternate settings are active in the specified 
 918:Generated_Source\PSoC5/USBFS.c **** *  interface.
 919:Generated_Source\PSoC5/USBFS.c **** *
 920:Generated_Source\PSoC5/USBFS.c **** *  \param
 921:Generated_Source\PSoC5/USBFS.c **** *  interfaceNumber interface number
 922:Generated_Source\PSoC5/USBFS.c **** *
 923:Generated_Source\PSoC5/USBFS.c **** * \return
 924:Generated_Source\PSoC5/USBFS.c **** *  Returns the current alternate setting for the specified interface.
 925:Generated_Source\PSoC5/USBFS.c **** *
 926:Generated_Source\PSoC5/USBFS.c **** *******************************************************************************/
 927:Generated_Source\PSoC5/USBFS.c **** uint8  USBFS_GetInterfaceSetting(uint8 interfaceNumber)
 928:Generated_Source\PSoC5/USBFS.c ****                                                     
 929:Generated_Source\PSoC5/USBFS.c **** {
 884              		.loc 1 929 0
 885              		.cfi_startproc
 886              		@ args = 0, pretend = 0, frame = 8
 887              		@ frame_needed = 1, uses_anonymous_args = 0
 888              		@ link register save eliminated.
 889 0000 80B4     		push	{r7}
 890              		.cfi_def_cfa_offset 4
 891              		.cfi_offset 7, -4
 892 0002 83B0     		sub	sp, sp, #12
 893              		.cfi_def_cfa_offset 16
ARM GAS  C:\Users\CALEBC~1\AppData\Local\Temp\ccUZyw0h.s 			page 33


 894 0004 00AF     		add	r7, sp, #0
 895              		.cfi_def_cfa_register 7
 896 0006 0346     		mov	r3, r0
 897 0008 FB71     		strb	r3, [r7, #7]
 930:Generated_Source\PSoC5/USBFS.c ****     return (USBFS_interfaceSetting[interfaceNumber]);
 898              		.loc 1 930 0
 899 000a FB79     		ldrb	r3, [r7, #7]	@ zero_extendqisi2
 900 000c 034A     		ldr	r2, .L41
 901 000e D35C     		ldrb	r3, [r2, r3]
 902 0010 DBB2     		uxtb	r3, r3
 931:Generated_Source\PSoC5/USBFS.c **** }
 903              		.loc 1 931 0
 904 0012 1846     		mov	r0, r3
 905 0014 0C37     		adds	r7, r7, #12
 906              		.cfi_def_cfa_offset 4
 907 0016 BD46     		mov	sp, r7
 908              		.cfi_def_cfa_register 13
 909              		@ sp needed
 910 0018 80BC     		pop	{r7}
 911              		.cfi_restore 7
 912              		.cfi_def_cfa_offset 0
 913 001a 7047     		bx	lr
 914              	.L42:
 915              		.align	2
 916              	.L41:
 917 001c 00000000 		.word	USBFS_interfaceSetting
 918              		.cfi_endproc
 919              	.LFE8:
 920              		.size	USBFS_GetInterfaceSetting, .-USBFS_GetInterfaceSetting
 921              		.section	.text.USBFS_GetEPState,"ax",%progbits
 922              		.align	2
 923              		.global	USBFS_GetEPState
 924              		.thumb
 925              		.thumb_func
 926              		.type	USBFS_GetEPState, %function
 927              	USBFS_GetEPState:
 928              	.LFB9:
 932:Generated_Source\PSoC5/USBFS.c **** 
 933:Generated_Source\PSoC5/USBFS.c **** 
 934:Generated_Source\PSoC5/USBFS.c **** /*******************************************************************************
 935:Generated_Source\PSoC5/USBFS.c **** * Function Name: USBFS_GetEPState
 936:Generated_Source\PSoC5/USBFS.c **** ****************************************************************************//**
 937:Generated_Source\PSoC5/USBFS.c **** *
 938:Generated_Source\PSoC5/USBFS.c **** *  This function returns the state of the requested endpoint.
 939:Generated_Source\PSoC5/USBFS.c **** *
 940:Generated_Source\PSoC5/USBFS.c **** * \param epNumber Data endpoint number
 941:Generated_Source\PSoC5/USBFS.c **** *
 942:Generated_Source\PSoC5/USBFS.c **** * \return
 943:Generated_Source\PSoC5/USBFS.c **** *  Returns the current state of the specified USBFS endpoint. Symbolic names and
 944:Generated_Source\PSoC5/USBFS.c **** *  their associated values are given in the following table. Use these constants
 945:Generated_Source\PSoC5/USBFS.c **** *  whenever you write code to change the state of the endpoints, such as ISR
 946:Generated_Source\PSoC5/USBFS.c **** *  code, to handle data sent or received.
 947:Generated_Source\PSoC5/USBFS.c **** *
 948:Generated_Source\PSoC5/USBFS.c **** *  Return Value           | Description
 949:Generated_Source\PSoC5/USBFS.c **** *  -----------------------|-----------------------------------------------------
 950:Generated_Source\PSoC5/USBFS.c **** *  USBFS_NO_EVENT_PENDING |The endpoint is awaiting SIE action
 951:Generated_Source\PSoC5/USBFS.c **** *  USBFS_EVENT_PENDING    |The endpoint is awaiting CPU action
ARM GAS  C:\Users\CALEBC~1\AppData\Local\Temp\ccUZyw0h.s 			page 34


 952:Generated_Source\PSoC5/USBFS.c **** *  USBFS_NO_EVENT_ALLOWED |The endpoint is locked from access
 953:Generated_Source\PSoC5/USBFS.c **** *  USBFS_IN_BUFFER_FULL   |The IN endpoint is loaded and the mode is set to ACK IN
 954:Generated_Source\PSoC5/USBFS.c **** *  USBFS_IN_BUFFER_EMPTY  |An IN transaction occurred and more data can be loaded
 955:Generated_Source\PSoC5/USBFS.c **** *  USBFS_OUT_BUFFER_EMPTY |The OUT endpoint is set to ACK OUT and is waiting for data
 956:Generated_Source\PSoC5/USBFS.c **** *  USBFS_OUT_BUFFER_FULL  |An OUT transaction has occurred and data can be read
 957:Generated_Source\PSoC5/USBFS.c **** *
 958:Generated_Source\PSoC5/USBFS.c **** *******************************************************************************/
 959:Generated_Source\PSoC5/USBFS.c **** uint8 USBFS_GetEPState(uint8 epNumber) 
 960:Generated_Source\PSoC5/USBFS.c **** {
 929              		.loc 1 960 0
 930              		.cfi_startproc
 931              		@ args = 0, pretend = 0, frame = 8
 932              		@ frame_needed = 1, uses_anonymous_args = 0
 933              		@ link register save eliminated.
 934 0000 80B4     		push	{r7}
 935              		.cfi_def_cfa_offset 4
 936              		.cfi_offset 7, -4
 937 0002 83B0     		sub	sp, sp, #12
 938              		.cfi_def_cfa_offset 16
 939 0004 00AF     		add	r7, sp, #0
 940              		.cfi_def_cfa_register 7
 941 0006 0346     		mov	r3, r0
 942 0008 FB71     		strb	r3, [r7, #7]
 961:Generated_Source\PSoC5/USBFS.c ****     return (USBFS_EP[epNumber].apiEpState);
 943              		.loc 1 961 0
 944 000a FA79     		ldrb	r2, [r7, #7]	@ zero_extendqisi2
 945 000c 0649     		ldr	r1, .L45
 946 000e 1346     		mov	r3, r2
 947 0010 5B00     		lsls	r3, r3, #1
 948 0012 1344     		add	r3, r3, r2
 949 0014 9B00     		lsls	r3, r3, #2
 950 0016 0B44     		add	r3, r3, r1
 951 0018 0133     		adds	r3, r3, #1
 952 001a 1B78     		ldrb	r3, [r3]
 953 001c DBB2     		uxtb	r3, r3
 962:Generated_Source\PSoC5/USBFS.c **** }
 954              		.loc 1 962 0
 955 001e 1846     		mov	r0, r3
 956 0020 0C37     		adds	r7, r7, #12
 957              		.cfi_def_cfa_offset 4
 958 0022 BD46     		mov	sp, r7
 959              		.cfi_def_cfa_register 13
 960              		@ sp needed
 961 0024 80BC     		pop	{r7}
 962              		.cfi_restore 7
 963              		.cfi_def_cfa_offset 0
 964 0026 7047     		bx	lr
 965              	.L46:
 966              		.align	2
 967              	.L45:
 968 0028 00000000 		.word	USBFS_EP
 969              		.cfi_endproc
 970              	.LFE9:
 971              		.size	USBFS_GetEPState, .-USBFS_GetEPState
 972              		.section	.text.USBFS_GetEPCount,"ax",%progbits
 973              		.align	2
 974              		.global	USBFS_GetEPCount
ARM GAS  C:\Users\CALEBC~1\AppData\Local\Temp\ccUZyw0h.s 			page 35


 975              		.thumb
 976              		.thumb_func
 977              		.type	USBFS_GetEPCount, %function
 978              	USBFS_GetEPCount:
 979              	.LFB10:
 963:Generated_Source\PSoC5/USBFS.c **** 
 964:Generated_Source\PSoC5/USBFS.c **** 
 965:Generated_Source\PSoC5/USBFS.c **** /*******************************************************************************
 966:Generated_Source\PSoC5/USBFS.c **** * Function Name: USBFS_GetEPCount
 967:Generated_Source\PSoC5/USBFS.c **** ****************************************************************************//**
 968:Generated_Source\PSoC5/USBFS.c **** *
 969:Generated_Source\PSoC5/USBFS.c **** *  This function supports Data Endpoints only(EP1-EP8).
 970:Generated_Source\PSoC5/USBFS.c **** *  Returns the transfer count for the requested endpoint.  The value from
 971:Generated_Source\PSoC5/USBFS.c **** *  the count registers includes 2 counts for the two byte checksum of the
 972:Generated_Source\PSoC5/USBFS.c **** *  packet.  This function subtracts the two counts.
 973:Generated_Source\PSoC5/USBFS.c **** *
 974:Generated_Source\PSoC5/USBFS.c **** *  \param epNumber Data Endpoint Number.
 975:Generated_Source\PSoC5/USBFS.c **** *                   Valid values are between 1 and 8.
 976:Generated_Source\PSoC5/USBFS.c **** *
 977:Generated_Source\PSoC5/USBFS.c **** * \return
 978:Generated_Source\PSoC5/USBFS.c **** *  Returns the current byte count from the specified endpoint or 0 for an
 979:Generated_Source\PSoC5/USBFS.c **** *  invalid endpoint.
 980:Generated_Source\PSoC5/USBFS.c **** *
 981:Generated_Source\PSoC5/USBFS.c **** *******************************************************************************/
 982:Generated_Source\PSoC5/USBFS.c **** uint16 USBFS_GetEPCount(uint8 epNumber) 
 983:Generated_Source\PSoC5/USBFS.c **** {
 980              		.loc 1 983 0
 981              		.cfi_startproc
 982              		@ args = 0, pretend = 0, frame = 16
 983              		@ frame_needed = 1, uses_anonymous_args = 0
 984              		@ link register save eliminated.
 985 0000 80B4     		push	{r7}
 986              		.cfi_def_cfa_offset 4
 987              		.cfi_offset 7, -4
 988 0002 85B0     		sub	sp, sp, #20
 989              		.cfi_def_cfa_offset 24
 990 0004 00AF     		add	r7, sp, #0
 991              		.cfi_def_cfa_register 7
 992 0006 0346     		mov	r3, r0
 993 0008 FB71     		strb	r3, [r7, #7]
 984:Generated_Source\PSoC5/USBFS.c ****     uint16 cntr = 0u;
 994              		.loc 1 984 0
 995 000a 0023     		movs	r3, #0
 996 000c FB81     		strh	r3, [r7, #14]	@ movhi
 985:Generated_Source\PSoC5/USBFS.c **** 
 986:Generated_Source\PSoC5/USBFS.c ****     if ((epNumber > USBFS_EP0) && (epNumber < USBFS_MAX_EP))
 997              		.loc 1 986 0
 998 000e FB79     		ldrb	r3, [r7, #7]	@ zero_extendqisi2
 999 0010 002B     		cmp	r3, #0
 1000 0012 1CD0     		beq	.L48
 1001              		.loc 1 986 0 is_stmt 0 discriminator 1
 1002 0014 FB79     		ldrb	r3, [r7, #7]	@ zero_extendqisi2
 1003 0016 082B     		cmp	r3, #8
 1004 0018 19D8     		bhi	.L48
 987:Generated_Source\PSoC5/USBFS.c ****     {
 988:Generated_Source\PSoC5/USBFS.c ****         /* Get 11-bits EP counter where epCnt0 - 3 bits MSB and epCnt1 - 8 bits LSB. */
 989:Generated_Source\PSoC5/USBFS.c ****         cntr  = ((uint16) USBFS_SIE_EP_BASE.sieEp[epNumber].epCnt0) & USBFS_EPX_CNT0_MASK;
ARM GAS  C:\Users\CALEBC~1\AppData\Local\Temp\ccUZyw0h.s 			page 36


 1005              		.loc 1 989 0 is_stmt 1
 1006 001a 104A     		ldr	r2, .L50
 1007 001c FB79     		ldrb	r3, [r7, #7]	@ zero_extendqisi2
 1008 001e 1B01     		lsls	r3, r3, #4
 1009 0020 1344     		add	r3, r3, r2
 1010 0022 1B78     		ldrb	r3, [r3]
 1011 0024 DBB2     		uxtb	r3, r3
 1012 0026 9BB2     		uxth	r3, r3
 1013 0028 03F00F03 		and	r3, r3, #15
 1014 002c FB81     		strh	r3, [r7, #14]	@ movhi
 990:Generated_Source\PSoC5/USBFS.c ****         cntr  = ((uint16) (cntr << 8u)) | ((uint16) USBFS_SIE_EP_BASE.sieEp[epNumber].epCnt1);
 1015              		.loc 1 990 0
 1016 002e FB89     		ldrh	r3, [r7, #14]	@ movhi
 1017 0030 1B02     		lsls	r3, r3, #8
 1018 0032 9AB2     		uxth	r2, r3
 1019 0034 0949     		ldr	r1, .L50
 1020 0036 FB79     		ldrb	r3, [r7, #7]	@ zero_extendqisi2
 1021 0038 1B01     		lsls	r3, r3, #4
 1022 003a 0B44     		add	r3, r3, r1
 1023 003c 0133     		adds	r3, r3, #1
 1024 003e 1B78     		ldrb	r3, [r3]
 1025 0040 DBB2     		uxtb	r3, r3
 1026 0042 9BB2     		uxth	r3, r3
 1027 0044 1343     		orrs	r3, r3, r2
 1028 0046 FB81     		strh	r3, [r7, #14]	@ movhi
 991:Generated_Source\PSoC5/USBFS.c ****         cntr -= USBFS_EPX_CNTX_CRC_COUNT;
 1029              		.loc 1 991 0
 1030 0048 FB89     		ldrh	r3, [r7, #14]	@ movhi
 1031 004a 023B     		subs	r3, r3, #2
 1032 004c FB81     		strh	r3, [r7, #14]	@ movhi
 1033              	.L48:
 992:Generated_Source\PSoC5/USBFS.c ****     }
 993:Generated_Source\PSoC5/USBFS.c **** 
 994:Generated_Source\PSoC5/USBFS.c ****     return (cntr);
 1034              		.loc 1 994 0
 1035 004e FB89     		ldrh	r3, [r7, #14]
 995:Generated_Source\PSoC5/USBFS.c **** }
 1036              		.loc 1 995 0
 1037 0050 1846     		mov	r0, r3
 1038 0052 1437     		adds	r7, r7, #20
 1039              		.cfi_def_cfa_offset 4
 1040 0054 BD46     		mov	sp, r7
 1041              		.cfi_def_cfa_register 13
 1042              		@ sp needed
 1043 0056 80BC     		pop	{r7}
 1044              		.cfi_restore 7
 1045              		.cfi_def_cfa_offset 0
 1046 0058 7047     		bx	lr
 1047              	.L51:
 1048 005a 00BF     		.align	2
 1049              	.L50:
 1050 005c FC5F0040 		.word	1073766396
 1051              		.cfi_endproc
 1052              	.LFE10:
 1053              		.size	USBFS_GetEPCount, .-USBFS_GetEPCount
 1054              		.section	.text.USBFS_InitEP_DMA,"ax",%progbits
 1055              		.align	2
ARM GAS  C:\Users\CALEBC~1\AppData\Local\Temp\ccUZyw0h.s 			page 37


 1056              		.global	USBFS_InitEP_DMA
 1057              		.thumb
 1058              		.thumb_func
 1059              		.type	USBFS_InitEP_DMA, %function
 1060              	USBFS_InitEP_DMA:
 1061              	.LFB11:
 996:Generated_Source\PSoC5/USBFS.c **** 
 997:Generated_Source\PSoC5/USBFS.c **** 
 998:Generated_Source\PSoC5/USBFS.c **** #if (USBFS_EP_MANAGEMENT_DMA)
 999:Generated_Source\PSoC5/USBFS.c **** #if (CY_PSOC4)
1000:Generated_Source\PSoC5/USBFS.c ****     /*******************************************************************************
1001:Generated_Source\PSoC5/USBFS.c ****     * Function Name: USBFS_InitEpDma
1002:Generated_Source\PSoC5/USBFS.c ****     ****************************************************************************//**
1003:Generated_Source\PSoC5/USBFS.c ****     *
1004:Generated_Source\PSoC5/USBFS.c ****     *  This function configures priority for all DMA channels utilized by the
1005:Generated_Source\PSoC5/USBFS.c ****     *  component. Also sets callbacks for DMA auto mode.
1006:Generated_Source\PSoC5/USBFS.c ****     *
1007:Generated_Source\PSoC5/USBFS.c ****     *******************************************************************************/
1008:Generated_Source\PSoC5/USBFS.c ****     static void USBFS_InitEpDma(void)
1009:Generated_Source\PSoC5/USBFS.c ****     {
1010:Generated_Source\PSoC5/USBFS.c ****     #if (USBFS_DMA1_ACTIVE)
1011:Generated_Source\PSoC5/USBFS.c ****         CYDMA_CH_CTL_BASE.ctl[USBFS_ep1_dma_CHANNEL] = USBFS_ep1_dma_CHANNEL_CFG;
1012:Generated_Source\PSoC5/USBFS.c ****     #endif /* (USBFS_DMA1_ACTIVE) */
1013:Generated_Source\PSoC5/USBFS.c **** 
1014:Generated_Source\PSoC5/USBFS.c ****     #if (USBFS_DMA2_ACTIVE)
1015:Generated_Source\PSoC5/USBFS.c ****         CYDMA_CH_CTL_BASE.ctl[USBFS_ep2_dma_CHANNEL] = USBFS_ep2_dma_CHANNEL_CFG;
1016:Generated_Source\PSoC5/USBFS.c ****     #endif /* (USBFS_DMA2_ACTIVE) */
1017:Generated_Source\PSoC5/USBFS.c **** 
1018:Generated_Source\PSoC5/USBFS.c ****     #if (USBFS_DMA3_ACTIVE)
1019:Generated_Source\PSoC5/USBFS.c ****         CYDMA_CH_CTL_BASE.ctl[USBFS_ep3_dma_CHANNEL] = USBFS_ep3_dma_CHANNEL_CFG;
1020:Generated_Source\PSoC5/USBFS.c ****     #endif /* (USBFS_DMA3_ACTIVE) */
1021:Generated_Source\PSoC5/USBFS.c **** 
1022:Generated_Source\PSoC5/USBFS.c ****     #if (USBFS_DMA4_ACTIVE)
1023:Generated_Source\PSoC5/USBFS.c ****         CYDMA_CH_CTL_BASE.ctl[USBFS_ep4_dma_CHANNEL] = USBFS_ep4_dma_CHANNEL_CFG;
1024:Generated_Source\PSoC5/USBFS.c ****     #endif /* (USBFS_DMA4_ACTIVE) */
1025:Generated_Source\PSoC5/USBFS.c **** 
1026:Generated_Source\PSoC5/USBFS.c ****     #if (USBFS_DMA5_ACTIVE)
1027:Generated_Source\PSoC5/USBFS.c ****         CYDMA_CH_CTL_BASE.ctl[USBFS_ep5_dma_CHANNEL] = USBFS_ep5_dma_CHANNEL_CFG;
1028:Generated_Source\PSoC5/USBFS.c ****     #endif /* (USBFS_DMA5_ACTIVE) */
1029:Generated_Source\PSoC5/USBFS.c **** 
1030:Generated_Source\PSoC5/USBFS.c ****     #if (USBFS_DMA6_ACTIVE)
1031:Generated_Source\PSoC5/USBFS.c ****         CYDMA_CH_CTL_BASE.ctl[USBFS_ep6_dma_CHANNEL] = USBFS_ep6_dma_CHANNEL_CFG;
1032:Generated_Source\PSoC5/USBFS.c ****     #endif /* (USBFS_DMA6_ACTIVE) */
1033:Generated_Source\PSoC5/USBFS.c **** 
1034:Generated_Source\PSoC5/USBFS.c ****     #if (USBFS_DMA7_ACTIVE)
1035:Generated_Source\PSoC5/USBFS.c ****         CYDMA_CH_CTL_BASE.ctl[USBFS_ep7_dma_CHANNEL] = USBFS_ep7_dma_CHANNEL_CFG;
1036:Generated_Source\PSoC5/USBFS.c ****     #endif /* (USBFS_DMA7_ACTIVE) */
1037:Generated_Source\PSoC5/USBFS.c **** 
1038:Generated_Source\PSoC5/USBFS.c ****     #if (USBFS_DMA8_ACTIVE)
1039:Generated_Source\PSoC5/USBFS.c ****         CYDMA_CH_CTL_BASE.ctl[USBFS_ep8_dma_CHANNEL] = USBFS_ep8_dma_CHANNEL_CFG;
1040:Generated_Source\PSoC5/USBFS.c ****     #endif /* (USBFS_DMA8_ACTIVE) */
1041:Generated_Source\PSoC5/USBFS.c **** 
1042:Generated_Source\PSoC5/USBFS.c ****     #if (USBFS_EP_MANAGEMENT_DMA_AUTO)
1043:Generated_Source\PSoC5/USBFS.c ****         /* Initialize DMA channel callbacks. */
1044:Generated_Source\PSoC5/USBFS.c ****         #if (USBFS_DMA1_ACTIVE)
1045:Generated_Source\PSoC5/USBFS.c ****             (void) USBFS_ep1_dma_SetInterruptCallback(&USBFS_EP1_DMA_DONE_ISR);
1046:Generated_Source\PSoC5/USBFS.c ****         #endif /* (USBFS_DMA1_ACTIVE) */
ARM GAS  C:\Users\CALEBC~1\AppData\Local\Temp\ccUZyw0h.s 			page 38


1047:Generated_Source\PSoC5/USBFS.c **** 
1048:Generated_Source\PSoC5/USBFS.c ****         #if (USBFS_DMA2_ACTIVE)
1049:Generated_Source\PSoC5/USBFS.c ****             (void) USBFS_ep2_dma_SetInterruptCallback(&USBFS_EP2_DMA_DONE_ISR);
1050:Generated_Source\PSoC5/USBFS.c ****         #endif /* (USBFS_DMA2_ACTIVE) */
1051:Generated_Source\PSoC5/USBFS.c **** 
1052:Generated_Source\PSoC5/USBFS.c ****         #if (USBFS_DMA3_ACTIVE)
1053:Generated_Source\PSoC5/USBFS.c ****             (void) USBFS_ep3_dma_SetInterruptCallback(&USBFS_EP3_DMA_DONE_ISR);
1054:Generated_Source\PSoC5/USBFS.c ****         #endif /* (USBFS_DMA3_ACTIVE) */
1055:Generated_Source\PSoC5/USBFS.c **** 
1056:Generated_Source\PSoC5/USBFS.c ****         #if (USBFS_DMA4_ACTIVE)
1057:Generated_Source\PSoC5/USBFS.c ****             (void) USBFS_ep4_dma_SetInterruptCallback(&USBFS_EP4_DMA_DONE_ISR);
1058:Generated_Source\PSoC5/USBFS.c ****         #endif /* (USBFS_DMA4_ACTIVE) */
1059:Generated_Source\PSoC5/USBFS.c **** 
1060:Generated_Source\PSoC5/USBFS.c ****         #if (USBFS_DMA5_ACTIVE)
1061:Generated_Source\PSoC5/USBFS.c ****             (void) USBFS_ep5_dma_SetInterruptCallback(&USBFS_EP5_DMA_DONE_ISR);
1062:Generated_Source\PSoC5/USBFS.c ****         #endif /* (USBFS_DMA5_ACTIVE) */
1063:Generated_Source\PSoC5/USBFS.c **** 
1064:Generated_Source\PSoC5/USBFS.c ****         #if (USBFS_DMA6_ACTIVE)
1065:Generated_Source\PSoC5/USBFS.c ****             (void) USBFS_ep6_dma_SetInterruptCallback(&USBFS_EP6_DMA_DONE_ISR);
1066:Generated_Source\PSoC5/USBFS.c ****         #endif /* (USBFS_DMA6_ACTIVE) */
1067:Generated_Source\PSoC5/USBFS.c **** 
1068:Generated_Source\PSoC5/USBFS.c ****         #if (USBFS_DMA7_ACTIVE)
1069:Generated_Source\PSoC5/USBFS.c ****             (void) USBFS_ep7_dma_SetInterruptCallback(&USBFS_EP7_DMA_DONE_ISR);
1070:Generated_Source\PSoC5/USBFS.c ****         #endif /* (USBFS_DMA7_ACTIVE) */
1071:Generated_Source\PSoC5/USBFS.c **** 
1072:Generated_Source\PSoC5/USBFS.c ****         #if (USBFS_DMA8_ACTIVE)
1073:Generated_Source\PSoC5/USBFS.c ****             (void) USBFS_ep8_dma_SetInterruptCallback(&USBFS_EP8_DMA_DONE_ISR);
1074:Generated_Source\PSoC5/USBFS.c ****         #endif /* (USBFS_DMA8_ACTIVE) */
1075:Generated_Source\PSoC5/USBFS.c ****     #endif /* (USBFS_EP_MANAGEMENT_DMA_AUTO) */
1076:Generated_Source\PSoC5/USBFS.c ****     }
1077:Generated_Source\PSoC5/USBFS.c **** #else
1078:Generated_Source\PSoC5/USBFS.c **** 
1079:Generated_Source\PSoC5/USBFS.c **** 
1080:Generated_Source\PSoC5/USBFS.c ****     /***************************************************************************
1081:Generated_Source\PSoC5/USBFS.c ****     * Function Name: USBFS_InitEP_DMA
1082:Generated_Source\PSoC5/USBFS.c ****     ************************************************************************//**
1083:Generated_Source\PSoC5/USBFS.c ****     *
1084:Generated_Source\PSoC5/USBFS.c ****     *  This function allocates and initializes a DMA channel to be used by the
1085:Generated_Source\PSoC5/USBFS.c ****     *  USBFS_LoadInEP() or USBFS_ReadOutEP() APIs for data
1086:Generated_Source\PSoC5/USBFS.c ****     *  transfer. It is available when the Endpoint Memory Management parameter
1087:Generated_Source\PSoC5/USBFS.c ****     *  is set to DMA.
1088:Generated_Source\PSoC5/USBFS.c ****     *
1089:Generated_Source\PSoC5/USBFS.c ****     *  This function is automatically called from the USBFS_LoadInEP() and USBFS_ReadOutEP() APIs.
1090:Generated_Source\PSoC5/USBFS.c ****     *
1091:Generated_Source\PSoC5/USBFS.c ****     *  \param epNumber Contains the data endpoint number.
1092:Generated_Source\PSoC5/USBFS.c ****     *            Valid values are between 1 and 8.
1093:Generated_Source\PSoC5/USBFS.c ****     *  \param *pData Pointer to a data array that is related to the EP transfers.
1094:Generated_Source\PSoC5/USBFS.c ****     *
1095:Generated_Source\PSoC5/USBFS.c ****     * \reentrant No.
1096:Generated_Source\PSoC5/USBFS.c ****     *
1097:Generated_Source\PSoC5/USBFS.c ****     ***************************************************************************/
1098:Generated_Source\PSoC5/USBFS.c ****     void USBFS_InitEP_DMA(uint8 epNumber, const uint8 *pData)
1099:Generated_Source\PSoC5/USBFS.c ****                                                                     
1100:Generated_Source\PSoC5/USBFS.c ****     {
 1062              		.loc 1 1100 0
 1063              		.cfi_startproc
 1064              		@ args = 0, pretend = 0, frame = 16
ARM GAS  C:\Users\CALEBC~1\AppData\Local\Temp\ccUZyw0h.s 			page 39


 1065              		@ frame_needed = 1, uses_anonymous_args = 0
 1066 0000 90B5     		push	{r4, r7, lr}
 1067              		.cfi_def_cfa_offset 12
 1068              		.cfi_offset 4, -12
 1069              		.cfi_offset 7, -8
 1070              		.cfi_offset 14, -4
 1071 0002 85B0     		sub	sp, sp, #20
 1072              		.cfi_def_cfa_offset 32
 1073 0004 00AF     		add	r7, sp, #0
 1074              		.cfi_def_cfa_register 7
 1075 0006 0346     		mov	r3, r0
 1076 0008 3960     		str	r1, [r7]
 1077 000a FB71     		strb	r3, [r7, #7]
1101:Generated_Source\PSoC5/USBFS.c ****         uint16 src;
1102:Generated_Source\PSoC5/USBFS.c ****         uint16 dst;
1103:Generated_Source\PSoC5/USBFS.c **** 
1104:Generated_Source\PSoC5/USBFS.c ****     #if (CY_PSOC3)
1105:Generated_Source\PSoC5/USBFS.c ****         src = HI16(CYDEV_SRAM_BASE);
1106:Generated_Source\PSoC5/USBFS.c ****         dst = HI16(CYDEV_PERIPH_BASE);
1107:Generated_Source\PSoC5/USBFS.c ****         pData = pData;
1108:Generated_Source\PSoC5/USBFS.c ****     #else
1109:Generated_Source\PSoC5/USBFS.c ****         if ((USBFS_EP[epNumber].addr & USBFS_DIR_IN) != 0u)
 1078              		.loc 1 1109 0
 1079 000c FA79     		ldrb	r2, [r7, #7]	@ zero_extendqisi2
 1080 000e 2449     		ldr	r1, .L61
 1081 0010 1346     		mov	r3, r2
 1082 0012 5B00     		lsls	r3, r3, #1
 1083 0014 1344     		add	r3, r3, r2
 1084 0016 9B00     		lsls	r3, r3, #2
 1085 0018 0B44     		add	r3, r3, r1
 1086 001a 0433     		adds	r3, r3, #4
 1087 001c 1B78     		ldrb	r3, [r3]
 1088 001e DBB2     		uxtb	r3, r3
 1089 0020 5BB2     		sxtb	r3, r3
 1090 0022 002B     		cmp	r3, #0
 1091 0024 06DA     		bge	.L53
1110:Generated_Source\PSoC5/USBFS.c ****         {
1111:Generated_Source\PSoC5/USBFS.c ****             /* IN endpoint: source is memory buffer. */
1112:Generated_Source\PSoC5/USBFS.c ****             src = HI16(pData);
 1092              		.loc 1 1112 0
 1093 0026 3B68     		ldr	r3, [r7]
 1094 0028 1B0C     		lsrs	r3, r3, #16
 1095 002a FB81     		strh	r3, [r7, #14]	@ movhi
1113:Generated_Source\PSoC5/USBFS.c ****             dst = HI16(CYDEV_PERIPH_BASE);
 1096              		.loc 1 1113 0
 1097 002c 4FF48043 		mov	r3, #16384
 1098 0030 BB81     		strh	r3, [r7, #12]	@ movhi
 1099 0032 05E0     		b	.L54
 1100              	.L53:
1114:Generated_Source\PSoC5/USBFS.c ****         }
1115:Generated_Source\PSoC5/USBFS.c ****         else
1116:Generated_Source\PSoC5/USBFS.c ****         {
1117:Generated_Source\PSoC5/USBFS.c ****             /* OUT endpoint: source is USB IP memory buffer. */
1118:Generated_Source\PSoC5/USBFS.c ****             src = HI16(CYDEV_PERIPH_BASE);
 1101              		.loc 1 1118 0
 1102 0034 4FF48043 		mov	r3, #16384
 1103 0038 FB81     		strh	r3, [r7, #14]	@ movhi
ARM GAS  C:\Users\CALEBC~1\AppData\Local\Temp\ccUZyw0h.s 			page 40


1119:Generated_Source\PSoC5/USBFS.c ****             dst = HI16(pData);
 1104              		.loc 1 1119 0
 1105 003a 3B68     		ldr	r3, [r7]
 1106 003c 1B0C     		lsrs	r3, r3, #16
 1107 003e BB81     		strh	r3, [r7, #12]	@ movhi
 1108              	.L54:
1120:Generated_Source\PSoC5/USBFS.c ****         }
1121:Generated_Source\PSoC5/USBFS.c ****     #endif  /* (CY_PSOC3) */
1122:Generated_Source\PSoC5/USBFS.c **** 
1123:Generated_Source\PSoC5/USBFS.c ****         switch(epNumber)
 1109              		.loc 1 1123 0
 1110 0040 FB79     		ldrb	r3, [r7, #7]	@ zero_extendqisi2
 1111 0042 012B     		cmp	r3, #1
 1112 0044 02D0     		beq	.L56
 1113 0046 022B     		cmp	r3, #2
 1114 0048 0CD0     		beq	.L57
1124:Generated_Source\PSoC5/USBFS.c ****         {
1125:Generated_Source\PSoC5/USBFS.c ****     #if (USBFS_DMA1_ACTIVE)
1126:Generated_Source\PSoC5/USBFS.c ****         case USBFS_EP1:
1127:Generated_Source\PSoC5/USBFS.c ****             USBFS_DmaChan[epNumber] = USBFS_ep1_DmaInitialize(USBFS_DMA_BYTES_PER_BURST,
1128:Generated_Source\PSoC5/USBFS.c ****                                                                                     USBFS_DMA_REQUE
1129:Generated_Source\PSoC5/USBFS.c ****             break;
1130:Generated_Source\PSoC5/USBFS.c ****     #endif /* (USBFS_DMA1_ACTIVE) */
1131:Generated_Source\PSoC5/USBFS.c **** 
1132:Generated_Source\PSoC5/USBFS.c ****     #if (USBFS_DMA2_ACTIVE)
1133:Generated_Source\PSoC5/USBFS.c ****         case USBFS_EP2:
1134:Generated_Source\PSoC5/USBFS.c ****             USBFS_DmaChan[epNumber] = USBFS_ep2_DmaInitialize(USBFS_DMA_BYTES_PER_BURST,
1135:Generated_Source\PSoC5/USBFS.c ****                                                                                     USBFS_DMA_REQUE
1136:Generated_Source\PSoC5/USBFS.c ****             break;
1137:Generated_Source\PSoC5/USBFS.c ****     #endif /* (USBFS_DMA2_ACTIVE) */
1138:Generated_Source\PSoC5/USBFS.c **** 
1139:Generated_Source\PSoC5/USBFS.c ****     #if (USBFS_DMA3_ACTIVE)
1140:Generated_Source\PSoC5/USBFS.c ****             case USBFS_EP3:
1141:Generated_Source\PSoC5/USBFS.c ****                 USBFS_DmaChan[epNumber] = USBFS_ep3_DmaInitialize(USBFS_DMA_BYTES_PER_BURST,
1142:Generated_Source\PSoC5/USBFS.c ****                                                                                         USBFS_DMA_R
1143:Generated_Source\PSoC5/USBFS.c ****             break;
1144:Generated_Source\PSoC5/USBFS.c ****     #endif /* (USBFS_DMA3_ACTIVE) */
1145:Generated_Source\PSoC5/USBFS.c **** 
1146:Generated_Source\PSoC5/USBFS.c ****     #if (USBFS_DMA4_ACTIVE)
1147:Generated_Source\PSoC5/USBFS.c ****             case USBFS_EP4:
1148:Generated_Source\PSoC5/USBFS.c ****                 USBFS_DmaChan[epNumber] = USBFS_ep4_DmaInitialize(USBFS_DMA_BYTES_PER_BURST,
1149:Generated_Source\PSoC5/USBFS.c ****                                                                                         USBFS_DMA_R
1150:Generated_Source\PSoC5/USBFS.c ****             break;
1151:Generated_Source\PSoC5/USBFS.c ****     #endif /* (USBFS_DMA4_ACTIVE) */
1152:Generated_Source\PSoC5/USBFS.c **** 
1153:Generated_Source\PSoC5/USBFS.c ****     #if (USBFS_DMA5_ACTIVE)
1154:Generated_Source\PSoC5/USBFS.c ****             case USBFS_EP5:
1155:Generated_Source\PSoC5/USBFS.c ****                 USBFS_DmaChan[epNumber] = USBFS_ep5_DmaInitialize(USBFS_DMA_BYTES_PER_BURST,
1156:Generated_Source\PSoC5/USBFS.c ****                                                                                         USBFS_DMA_R
1157:Generated_Source\PSoC5/USBFS.c ****             break;
1158:Generated_Source\PSoC5/USBFS.c ****     #endif /* (USBFS_DMA5_ACTIVE) */
1159:Generated_Source\PSoC5/USBFS.c **** 
1160:Generated_Source\PSoC5/USBFS.c ****     #if (USBFS_DMA6_ACTIVE)
1161:Generated_Source\PSoC5/USBFS.c ****         case USBFS_EP6:
1162:Generated_Source\PSoC5/USBFS.c ****             USBFS_DmaChan[epNumber] = USBFS_ep6_DmaInitialize(USBFS_DMA_BYTES_PER_BURST,
1163:Generated_Source\PSoC5/USBFS.c ****                                                                                     USBFS_DMA_REQUE
1164:Generated_Source\PSoC5/USBFS.c ****             break;
ARM GAS  C:\Users\CALEBC~1\AppData\Local\Temp\ccUZyw0h.s 			page 41


1165:Generated_Source\PSoC5/USBFS.c ****     #endif /* (USBFS_DMA6_ACTIVE) */
1166:Generated_Source\PSoC5/USBFS.c **** 
1167:Generated_Source\PSoC5/USBFS.c ****     #if (USBFS_DMA7_ACTIVE)
1168:Generated_Source\PSoC5/USBFS.c ****         case USBFS_EP7:
1169:Generated_Source\PSoC5/USBFS.c ****                 USBFS_DmaChan[epNumber] = USBFS_ep7_DmaInitialize(USBFS_DMA_BYTES_PER_BURST,
1170:Generated_Source\PSoC5/USBFS.c ****                                                                                         USBFS_DMA_R
1171:Generated_Source\PSoC5/USBFS.c ****             break;
1172:Generated_Source\PSoC5/USBFS.c ****     #endif /* (USBFS_DMA7_ACTIVE) */
1173:Generated_Source\PSoC5/USBFS.c **** 
1174:Generated_Source\PSoC5/USBFS.c ****     #if (USBFS_DMA8_ACTIVE)
1175:Generated_Source\PSoC5/USBFS.c ****         case USBFS_EP8:
1176:Generated_Source\PSoC5/USBFS.c ****                 USBFS_DmaChan[epNumber] = USBFS_ep8_DmaInitialize(USBFS_DMA_BYTES_PER_BURST,
1177:Generated_Source\PSoC5/USBFS.c ****                                                                                         USBFS_DMA_R
1178:Generated_Source\PSoC5/USBFS.c ****             break;
1179:Generated_Source\PSoC5/USBFS.c ****     #endif /* (USBFS_DMA8_ACTIVE) */
1180:Generated_Source\PSoC5/USBFS.c **** 
1181:Generated_Source\PSoC5/USBFS.c ****         default:
1182:Generated_Source\PSoC5/USBFS.c ****             /* Do nothing for endpoints other than 1-8. */
1183:Generated_Source\PSoC5/USBFS.c ****             break;
 1115              		.loc 1 1183 0
 1116 004a 17E0     		b	.L58
 1117              	.L56:
1127:Generated_Source\PSoC5/USBFS.c ****                                                                                     USBFS_DMA_REQUE
 1118              		.loc 1 1127 0
 1119 004c FC79     		ldrb	r4, [r7, #7]	@ zero_extendqisi2
 1120 004e BB89     		ldrh	r3, [r7, #12]
 1121 0050 FA89     		ldrh	r2, [r7, #14]
 1122 0052 0021     		movs	r1, #0
 1123 0054 0020     		movs	r0, #0
 1124 0056 FFF7FEFF 		bl	USBFS_ep1_DmaInitialize
 1125 005a 0346     		mov	r3, r0
 1126 005c 1A46     		mov	r2, r3
 1127 005e 114B     		ldr	r3, .L61+4
 1128 0060 1A55     		strb	r2, [r3, r4]
1129:Generated_Source\PSoC5/USBFS.c ****     #endif /* (USBFS_DMA1_ACTIVE) */
 1129              		.loc 1 1129 0
 1130 0062 0BE0     		b	.L58
 1131              	.L57:
1134:Generated_Source\PSoC5/USBFS.c ****                                                                                     USBFS_DMA_REQUE
 1132              		.loc 1 1134 0
 1133 0064 FC79     		ldrb	r4, [r7, #7]	@ zero_extendqisi2
 1134 0066 BB89     		ldrh	r3, [r7, #12]
 1135 0068 FA89     		ldrh	r2, [r7, #14]
 1136 006a 0021     		movs	r1, #0
 1137 006c 0020     		movs	r0, #0
 1138 006e FFF7FEFF 		bl	USBFS_ep2_DmaInitialize
 1139 0072 0346     		mov	r3, r0
 1140 0074 1A46     		mov	r2, r3
 1141 0076 0B4B     		ldr	r3, .L61+4
 1142 0078 1A55     		strb	r2, [r3, r4]
1136:Generated_Source\PSoC5/USBFS.c ****     #endif /* (USBFS_DMA2_ACTIVE) */
 1143              		.loc 1 1136 0
 1144 007a 00BF     		nop
 1145              	.L58:
1184:Generated_Source\PSoC5/USBFS.c ****         }
1185:Generated_Source\PSoC5/USBFS.c **** 
1186:Generated_Source\PSoC5/USBFS.c ****         if ((epNumber > USBFS_EP0) && (epNumber < USBFS_MAX_EP))
ARM GAS  C:\Users\CALEBC~1\AppData\Local\Temp\ccUZyw0h.s 			page 42


 1146              		.loc 1 1186 0
 1147 007c FB79     		ldrb	r3, [r7, #7]	@ zero_extendqisi2
 1148 007e 002B     		cmp	r3, #0
 1149 0080 09D0     		beq	.L60
 1150              		.loc 1 1186 0 is_stmt 0 discriminator 1
 1151 0082 FB79     		ldrb	r3, [r7, #7]	@ zero_extendqisi2
 1152 0084 082B     		cmp	r3, #8
 1153 0086 06D8     		bhi	.L60
1187:Generated_Source\PSoC5/USBFS.c ****         {
1188:Generated_Source\PSoC5/USBFS.c ****             USBFS_DmaTd[epNumber] = CyDmaTdAllocate();
 1154              		.loc 1 1188 0 is_stmt 1
 1155 0088 FC79     		ldrb	r4, [r7, #7]	@ zero_extendqisi2
 1156 008a FFF7FEFF 		bl	CyDmaTdAllocate
 1157 008e 0346     		mov	r3, r0
 1158 0090 1A46     		mov	r2, r3
 1159 0092 054B     		ldr	r3, .L61+8
 1160 0094 1A55     		strb	r2, [r3, r4]
 1161              	.L60:
1189:Generated_Source\PSoC5/USBFS.c **** 
1190:Generated_Source\PSoC5/USBFS.c ****         #if (USBFS_EP_MANAGEMENT_DMA_AUTO && (USBFS_EP_DMA_AUTO_OPT == 0u))
1191:Generated_Source\PSoC5/USBFS.c ****             USBFS_DmaNextTd[epNumber] = CyDmaTdAllocate();
1192:Generated_Source\PSoC5/USBFS.c ****         #endif /* (USBFS_EP_MANAGEMENT_DMA_AUTO && (USBFS_EP_DMA_AUTO_OPT == 0u)) */
1193:Generated_Source\PSoC5/USBFS.c ****         }
1194:Generated_Source\PSoC5/USBFS.c ****     }
 1162              		.loc 1 1194 0
 1163 0096 00BF     		nop
 1164 0098 1437     		adds	r7, r7, #20
 1165              		.cfi_def_cfa_offset 12
 1166 009a BD46     		mov	sp, r7
 1167              		.cfi_def_cfa_register 13
 1168              		@ sp needed
 1169 009c 90BD     		pop	{r4, r7, pc}
 1170              	.L62:
 1171 009e 00BF     		.align	2
 1172              	.L61:
 1173 00a0 00000000 		.word	USBFS_EP
 1174 00a4 00000000 		.word	USBFS_DmaChan
 1175 00a8 00000000 		.word	USBFS_DmaTd
 1176              		.cfi_endproc
 1177              	.LFE11:
 1178              		.size	USBFS_InitEP_DMA, .-USBFS_InitEP_DMA
 1179              		.section	.text.USBFS_Stop_DMA,"ax",%progbits
 1180              		.align	2
 1181              		.global	USBFS_Stop_DMA
 1182              		.thumb
 1183              		.thumb_func
 1184              		.type	USBFS_Stop_DMA, %function
 1185              	USBFS_Stop_DMA:
 1186              	.LFB12:
1195:Generated_Source\PSoC5/USBFS.c **** #endif /* (CY_PSOC4) */
1196:Generated_Source\PSoC5/USBFS.c **** 
1197:Generated_Source\PSoC5/USBFS.c ****     /***************************************************************************
1198:Generated_Source\PSoC5/USBFS.c ****     * Function Name: USBFS_Stop_DMA
1199:Generated_Source\PSoC5/USBFS.c ****     ************************************************************************//**
1200:Generated_Source\PSoC5/USBFS.c ****     *  
1201:Generated_Source\PSoC5/USBFS.c ****     *  This function stops DMA channel associated with endpoint. It is available 
1202:Generated_Source\PSoC5/USBFS.c ****     *  when the Endpoint Buffer Management parameter is set to DMA. Call this 
ARM GAS  C:\Users\CALEBC~1\AppData\Local\Temp\ccUZyw0h.s 			page 43


1203:Generated_Source\PSoC5/USBFS.c ****     *  function when endpoint direction is changed from IN to OUT or vice versa 
1204:Generated_Source\PSoC5/USBFS.c ****     *  to trigger DMA re-configuration when USBFS_LoadInEP() or 
1205:Generated_Source\PSoC5/USBFS.c ****     *  USBFS_ReadOutEP() functions are called the first time. 
1206:Generated_Source\PSoC5/USBFS.c ****     *  
1207:Generated_Source\PSoC5/USBFS.c ****     *  \param epNumber: The data endpoint number for which associated DMA 
1208:Generated_Source\PSoC5/USBFS.c ****     *  channel is stopped. The range of valid values is between 1 and 8. To stop 
1209:Generated_Source\PSoC5/USBFS.c ****     *  all DMAs associated with endpoints call this function with 
1210:Generated_Source\PSoC5/USBFS.c ****     *  USBFS_MAX_EP argument.
1211:Generated_Source\PSoC5/USBFS.c ****     *
1212:Generated_Source\PSoC5/USBFS.c ****     * \reentrant
1213:Generated_Source\PSoC5/USBFS.c ****     *  No.
1214:Generated_Source\PSoC5/USBFS.c ****     *
1215:Generated_Source\PSoC5/USBFS.c ****     ***************************************************************************/
1216:Generated_Source\PSoC5/USBFS.c ****     void USBFS_Stop_DMA(uint8 epNumber) 
1217:Generated_Source\PSoC5/USBFS.c ****     {
 1187              		.loc 1 1217 0
 1188              		.cfi_startproc
 1189              		@ args = 0, pretend = 0, frame = 16
 1190              		@ frame_needed = 1, uses_anonymous_args = 0
 1191 0000 80B5     		push	{r7, lr}
 1192              		.cfi_def_cfa_offset 8
 1193              		.cfi_offset 7, -8
 1194              		.cfi_offset 14, -4
 1195 0002 84B0     		sub	sp, sp, #16
 1196              		.cfi_def_cfa_offset 24
 1197 0004 00AF     		add	r7, sp, #0
 1198              		.cfi_def_cfa_register 7
 1199 0006 0346     		mov	r3, r0
 1200 0008 FB71     		strb	r3, [r7, #7]
1218:Generated_Source\PSoC5/USBFS.c ****         uint8 i;
1219:Generated_Source\PSoC5/USBFS.c **** 
1220:Generated_Source\PSoC5/USBFS.c ****         i = (epNumber < USBFS_MAX_EP) ? epNumber : USBFS_EP1;
 1201              		.loc 1 1220 0
 1202 000a FB79     		ldrb	r3, [r7, #7]	@ zero_extendqisi2
 1203 000c 082B     		cmp	r3, #8
 1204 000e 01D8     		bhi	.L64
 1205              		.loc 1 1220 0 is_stmt 0 discriminator 1
 1206 0010 FB79     		ldrb	r3, [r7, #7]	@ zero_extendqisi2
 1207 0012 00E0     		b	.L65
 1208              	.L64:
 1209              		.loc 1 1220 0 discriminator 2
 1210 0014 0123     		movs	r3, #1
 1211              	.L65:
 1212              		.loc 1 1220 0 discriminator 4
 1213 0016 FB73     		strb	r3, [r7, #15]
 1214              	.L68:
1221:Generated_Source\PSoC5/USBFS.c **** 
1222:Generated_Source\PSoC5/USBFS.c ****         do
1223:Generated_Source\PSoC5/USBFS.c ****         {
1224:Generated_Source\PSoC5/USBFS.c ****         #if (CY_PSOC4)
1225:Generated_Source\PSoC5/USBFS.c ****             if (0u != USBFS_DmaChan[i])
1226:Generated_Source\PSoC5/USBFS.c ****             {
1227:Generated_Source\PSoC5/USBFS.c ****                 USBFS_CyDmaChDisable(USBFS_DmaChan[i]);
1228:Generated_Source\PSoC5/USBFS.c ****             }
1229:Generated_Source\PSoC5/USBFS.c ****         #else
1230:Generated_Source\PSoC5/USBFS.c ****             if(USBFS_DmaTd[i] != DMA_INVALID_TD)
 1215              		.loc 1 1230 0 is_stmt 1
ARM GAS  C:\Users\CALEBC~1\AppData\Local\Temp\ccUZyw0h.s 			page 44


 1216 0018 FB7B     		ldrb	r3, [r7, #15]	@ zero_extendqisi2
 1217 001a 104A     		ldr	r2, .L70
 1218 001c D35C     		ldrb	r3, [r2, r3]	@ zero_extendqisi2
 1219 001e FF2B     		cmp	r3, #255
 1220 0020 0FD0     		beq	.L66
1231:Generated_Source\PSoC5/USBFS.c ****             {
1232:Generated_Source\PSoC5/USBFS.c ****                 (void) CyDmaChDisable(USBFS_DmaChan[i]);
 1221              		.loc 1 1232 0
 1222 0022 FB7B     		ldrb	r3, [r7, #15]	@ zero_extendqisi2
 1223 0024 0E4A     		ldr	r2, .L70+4
 1224 0026 D35C     		ldrb	r3, [r2, r3]	@ zero_extendqisi2
 1225 0028 1846     		mov	r0, r3
 1226 002a FFF7FEFF 		bl	CyDmaChDisable
1233:Generated_Source\PSoC5/USBFS.c ****                 CyDmaTdFree(USBFS_DmaTd[i]);
 1227              		.loc 1 1233 0
 1228 002e FB7B     		ldrb	r3, [r7, #15]	@ zero_extendqisi2
 1229 0030 0A4A     		ldr	r2, .L70
 1230 0032 D35C     		ldrb	r3, [r2, r3]	@ zero_extendqisi2
 1231 0034 1846     		mov	r0, r3
 1232 0036 FFF7FEFF 		bl	CyDmaTdFree
1234:Generated_Source\PSoC5/USBFS.c ****                 USBFS_DmaTd[i] = DMA_INVALID_TD;
 1233              		.loc 1 1234 0
 1234 003a FB7B     		ldrb	r3, [r7, #15]	@ zero_extendqisi2
 1235 003c 074A     		ldr	r2, .L70
 1236 003e FF21     		movs	r1, #255
 1237 0040 D154     		strb	r1, [r2, r3]
 1238              	.L66:
1235:Generated_Source\PSoC5/USBFS.c ****             }
1236:Generated_Source\PSoC5/USBFS.c **** 
1237:Generated_Source\PSoC5/USBFS.c ****             #if (USBFS_EP_MANAGEMENT_DMA_AUTO && (USBFS_EP_DMA_AUTO_OPT == 0u))
1238:Generated_Source\PSoC5/USBFS.c ****                 if(USBFS_DmaNextTd[i] != DMA_INVALID_TD)
1239:Generated_Source\PSoC5/USBFS.c ****                 {
1240:Generated_Source\PSoC5/USBFS.c ****                     CyDmaTdFree(USBFS_DmaNextTd[i]);
1241:Generated_Source\PSoC5/USBFS.c ****                     USBFS_DmaNextTd[i] = DMA_INVALID_TD;
1242:Generated_Source\PSoC5/USBFS.c ****                 }
1243:Generated_Source\PSoC5/USBFS.c ****             #endif /* (USBFS_EP_MANAGEMENT_DMA_AUTO && (USBFS_EP_DMA_AUTO_OPT == 0u)) */
1244:Generated_Source\PSoC5/USBFS.c **** 
1245:Generated_Source\PSoC5/USBFS.c ****         #endif /* (CY_PSOC4) */
1246:Generated_Source\PSoC5/USBFS.c ****             i++;
 1239              		.loc 1 1246 0
 1240 0042 FB7B     		ldrb	r3, [r7, #15]	@ zero_extendqisi2
 1241 0044 0133     		adds	r3, r3, #1
 1242 0046 FB73     		strb	r3, [r7, #15]
1247:Generated_Source\PSoC5/USBFS.c ****         }
1248:Generated_Source\PSoC5/USBFS.c ****         while ((i < USBFS_MAX_EP) && (epNumber == USBFS_MAX_EP));
 1243              		.loc 1 1248 0
 1244 0048 FB7B     		ldrb	r3, [r7, #15]	@ zero_extendqisi2
 1245 004a 082B     		cmp	r3, #8
 1246 004c 02D8     		bhi	.L69
 1247              		.loc 1 1248 0 is_stmt 0 discriminator 1
 1248 004e FB79     		ldrb	r3, [r7, #7]	@ zero_extendqisi2
 1249 0050 092B     		cmp	r3, #9
 1250 0052 E1D0     		beq	.L68
 1251              	.L69:
1249:Generated_Source\PSoC5/USBFS.c ****     }
 1252              		.loc 1 1249 0 is_stmt 1
 1253 0054 00BF     		nop
ARM GAS  C:\Users\CALEBC~1\AppData\Local\Temp\ccUZyw0h.s 			page 45


 1254 0056 1037     		adds	r7, r7, #16
 1255              		.cfi_def_cfa_offset 8
 1256 0058 BD46     		mov	sp, r7
 1257              		.cfi_def_cfa_register 13
 1258              		@ sp needed
 1259 005a 80BD     		pop	{r7, pc}
 1260              	.L71:
 1261              		.align	2
 1262              	.L70:
 1263 005c 00000000 		.word	USBFS_DmaTd
 1264 0060 00000000 		.word	USBFS_DmaChan
 1265              		.cfi_endproc
 1266              	.LFE12:
 1267              		.size	USBFS_Stop_DMA, .-USBFS_Stop_DMA
 1268              		.section	.text.USBFS_LoadInEP,"ax",%progbits
 1269              		.align	2
 1270              		.global	USBFS_LoadInEP
 1271              		.thumb
 1272              		.thumb_func
 1273              		.type	USBFS_LoadInEP, %function
 1274              	USBFS_LoadInEP:
 1275              	.LFB13:
1250:Generated_Source\PSoC5/USBFS.c **** #endif /* (USBFS_EP_MANAGEMENT_DMA) */
1251:Generated_Source\PSoC5/USBFS.c **** 
1252:Generated_Source\PSoC5/USBFS.c **** 
1253:Generated_Source\PSoC5/USBFS.c **** #if (CY_PSOC3 || CY_PSOC5)
1254:Generated_Source\PSoC5/USBFS.c **** #if (USBFS_EP_MANAGEMENT_DMA_AUTO && (USBFS_EP_DMA_AUTO_OPT == 0u))
1255:Generated_Source\PSoC5/USBFS.c ****     /***************************************************************************
1256:Generated_Source\PSoC5/USBFS.c ****     * Function Name: USBFS_LoadNextInEP
1257:Generated_Source\PSoC5/USBFS.c ****     ************************************************************************//**
1258:Generated_Source\PSoC5/USBFS.c ****     *
1259:Generated_Source\PSoC5/USBFS.c ****     * Summary:
1260:Generated_Source\PSoC5/USBFS.c ****     *  This internal function is used for IN endpoint DMA reconfiguration in
1261:Generated_Source\PSoC5/USBFS.c ****     *  Auto DMA mode.
1262:Generated_Source\PSoC5/USBFS.c ****     *
1263:Generated_Source\PSoC5/USBFS.c ****     * Parameters:
1264:Generated_Source\PSoC5/USBFS.c ****     *  epNumber: Contains the data endpoint number.
1265:Generated_Source\PSoC5/USBFS.c ****     *  mode:   0 - Configure DMA to send the the rest of data.
1266:Generated_Source\PSoC5/USBFS.c ****     *          1 - Configure DMA to repeat 2 last bytes of the first burst.
1267:Generated_Source\PSoC5/USBFS.c ****     *
1268:Generated_Source\PSoC5/USBFS.c ****     ***************************************************************************/
1269:Generated_Source\PSoC5/USBFS.c ****     void USBFS_LoadNextInEP(uint8 epNumber, uint8 mode) 
1270:Generated_Source\PSoC5/USBFS.c ****     {
1271:Generated_Source\PSoC5/USBFS.c ****         reg16 *convert;
1272:Generated_Source\PSoC5/USBFS.c **** 
1273:Generated_Source\PSoC5/USBFS.c ****         if (mode == 0u)
1274:Generated_Source\PSoC5/USBFS.c ****         {
1275:Generated_Source\PSoC5/USBFS.c ****             /* Configure DMA to send rest of data. */
1276:Generated_Source\PSoC5/USBFS.c ****             /* CyDmaTdSetConfiguration API is optimized to change transfer length only and configur
1277:Generated_Source\PSoC5/USBFS.c ****             convert = (reg16 *) &CY_DMA_TDMEM_STRUCT_PTR[USBFS_DmaTd[epNumber]].TD0[0u];
1278:Generated_Source\PSoC5/USBFS.c ****             /* Set transfer length. */
1279:Generated_Source\PSoC5/USBFS.c ****             CY_SET_REG16(convert, USBFS_inLength[epNumber] - USBFS_DMA_BYTES_PER_BURST);
1280:Generated_Source\PSoC5/USBFS.c ****             /* CyDmaTdSetAddress API is optimized to change source address only. */
1281:Generated_Source\PSoC5/USBFS.c ****             convert = (reg16 *) &CY_DMA_TDMEM_STRUCT_PTR[USBFS_DmaTd[epNumber]].TD1[0u];
1282:Generated_Source\PSoC5/USBFS.c ****             CY_SET_REG16(convert, LO16((uint32)USBFS_inDataPointer[epNumber] +
1283:Generated_Source\PSoC5/USBFS.c ****                                             USBFS_DMA_BYTES_PER_BURST));
1284:Generated_Source\PSoC5/USBFS.c ****             USBFS_inBufFull[epNumber] = 1u;
ARM GAS  C:\Users\CALEBC~1\AppData\Local\Temp\ccUZyw0h.s 			page 46


1285:Generated_Source\PSoC5/USBFS.c ****         }
1286:Generated_Source\PSoC5/USBFS.c ****         else
1287:Generated_Source\PSoC5/USBFS.c ****         {
1288:Generated_Source\PSoC5/USBFS.c ****             /* Configure DMA to repeat 2 last bytes of the first burst. */
1289:Generated_Source\PSoC5/USBFS.c ****             /* CyDmaTdSetConfiguration API is optimized to change transfer length only and configur
1290:Generated_Source\PSoC5/USBFS.c ****             convert = (reg16 *) &CY_DMA_TDMEM_STRUCT_PTR[USBFS_DmaTd[epNumber]].TD0[0u];
1291:Generated_Source\PSoC5/USBFS.c ****             /* Set transfer length. */
1292:Generated_Source\PSoC5/USBFS.c ****             CY_SET_REG16(convert, USBFS_DMA_BYTES_REPEAT);
1293:Generated_Source\PSoC5/USBFS.c ****             /* CyDmaTdSetAddress API is optimized to change source address only. */
1294:Generated_Source\PSoC5/USBFS.c ****             convert = (reg16 *) &CY_DMA_TDMEM_STRUCT_PTR[USBFS_DmaTd[epNumber]].TD1[0u];
1295:Generated_Source\PSoC5/USBFS.c ****             CY_SET_REG16(convert,  LO16((uint32)USBFS_inDataPointer[epNumber] +
1296:Generated_Source\PSoC5/USBFS.c ****                                    (USBFS_DMA_BYTES_PER_BURST - USBFS_DMA_BYTES_REPEAT)));
1297:Generated_Source\PSoC5/USBFS.c ****         }
1298:Generated_Source\PSoC5/USBFS.c **** 
1299:Generated_Source\PSoC5/USBFS.c ****         /* CyDmaChSetInitialTd API is optimized to initialize TD. */
1300:Generated_Source\PSoC5/USBFS.c ****         CY_DMA_CH_STRUCT_PTR[USBFS_DmaChan[epNumber]].basic_status[1u] = USBFS_DmaTd[epNumber];
1301:Generated_Source\PSoC5/USBFS.c ****     }
1302:Generated_Source\PSoC5/USBFS.c **** #endif /* (USBFS_EP_MANAGEMENT_DMA_AUTO && (USBFS_EP_DMA_AUTO_OPT == 0u)) */
1303:Generated_Source\PSoC5/USBFS.c **** #endif /* (CY_PSOC3 || CY_PSOC5) */
1304:Generated_Source\PSoC5/USBFS.c **** 
1305:Generated_Source\PSoC5/USBFS.c **** 
1306:Generated_Source\PSoC5/USBFS.c **** /*******************************************************************************
1307:Generated_Source\PSoC5/USBFS.c **** * Function Name: USBFS_LoadInEP
1308:Generated_Source\PSoC5/USBFS.c **** ****************************************************************************//**
1309:Generated_Source\PSoC5/USBFS.c **** *
1310:Generated_Source\PSoC5/USBFS.c **** *  This function performs different functionality depending on the Component’s
1311:Generated_Source\PSoC5/USBFS.c **** *  configured Endpoint Buffer Management. This parameter is defined in
1312:Generated_Source\PSoC5/USBFS.c **** *  the Descriptor Root in Component Configure window.
1313:Generated_Source\PSoC5/USBFS.c **** *
1314:Generated_Source\PSoC5/USBFS.c **** *  *Manual (Static/Dynamic Allocation):*
1315:Generated_Source\PSoC5/USBFS.c **** *  This function loads and enables the specified USB data endpoint for an IN
1316:Generated_Source\PSoC5/USBFS.c **** *  data transfer.
1317:Generated_Source\PSoC5/USBFS.c **** *
1318:Generated_Source\PSoC5/USBFS.c **** *  *DMA with Manual Buffer Management:*
1319:Generated_Source\PSoC5/USBFS.c **** *  Configures DMA for a data transfer from system RAM to endpoint buffer.
1320:Generated_Source\PSoC5/USBFS.c **** *  Generates request for a transfer.
1321:Generated_Source\PSoC5/USBFS.c **** *
1322:Generated_Source\PSoC5/USBFS.c **** *  *DMA with Automatic Buffer Management:*
1323:Generated_Source\PSoC5/USBFS.c **** *  Configures DMA. This is required only once, so it is done only when parameter
1324:Generated_Source\PSoC5/USBFS.c **** *  pData is not NULL. When the pData pointer is NULL, the function skips this
1325:Generated_Source\PSoC5/USBFS.c **** *  task. Sets Data ready status: This generates the first DMA transfer and
1326:Generated_Source\PSoC5/USBFS.c **** *  prepares data in endpoint buffer.
1327:Generated_Source\PSoC5/USBFS.c **** *
1328:Generated_Source\PSoC5/USBFS.c **** *  \param epNumber Contains the data endpoint number.
1329:Generated_Source\PSoC5/USBFS.c **** *            Valid values are between 1 and 8.
1330:Generated_Source\PSoC5/USBFS.c **** *  \param *pData A pointer to a data array from which the data for the endpoint space
1331:Generated_Source\PSoC5/USBFS.c **** *          is loaded.
1332:Generated_Source\PSoC5/USBFS.c **** *  \param length The number of bytes to transfer from the array and then send as
1333:Generated_Source\PSoC5/USBFS.c **** *          a result of an IN request. Valid values are between 0 and 512
1334:Generated_Source\PSoC5/USBFS.c **** *          (1023 for DMA with Automatic Buffer Management mode). The value 512
1335:Generated_Source\PSoC5/USBFS.c **** *          is applicable if only one endpoint is used.
1336:Generated_Source\PSoC5/USBFS.c **** *
1337:Generated_Source\PSoC5/USBFS.c **** *
1338:Generated_Source\PSoC5/USBFS.c **** * \reentrant
1339:Generated_Source\PSoC5/USBFS.c **** *  No.
1340:Generated_Source\PSoC5/USBFS.c **** *
1341:Generated_Source\PSoC5/USBFS.c **** *******************************************************************************/
ARM GAS  C:\Users\CALEBC~1\AppData\Local\Temp\ccUZyw0h.s 			page 47


1342:Generated_Source\PSoC5/USBFS.c **** void USBFS_LoadInEP(uint8 epNumber, const uint8 pData[], uint16 length)
1343:Generated_Source\PSoC5/USBFS.c ****                                                                         
1344:Generated_Source\PSoC5/USBFS.c **** {
 1276              		.loc 1 1344 0
 1277              		.cfi_startproc
 1278              		@ args = 0, pretend = 0, frame = 8
 1279              		@ frame_needed = 1, uses_anonymous_args = 0
 1280 0000 B0B5     		push	{r4, r5, r7, lr}
 1281              		.cfi_def_cfa_offset 16
 1282              		.cfi_offset 4, -16
 1283              		.cfi_offset 5, -12
 1284              		.cfi_offset 7, -8
 1285              		.cfi_offset 14, -4
 1286 0002 82B0     		sub	sp, sp, #8
 1287              		.cfi_def_cfa_offset 24
 1288 0004 00AF     		add	r7, sp, #0
 1289              		.cfi_def_cfa_register 7
 1290 0006 0346     		mov	r3, r0
 1291 0008 3960     		str	r1, [r7]
 1292 000a FB71     		strb	r3, [r7, #7]
 1293 000c 1346     		mov	r3, r2	@ movhi
 1294 000e BB80     		strh	r3, [r7, #4]	@ movhi
1345:Generated_Source\PSoC5/USBFS.c ****     if ((epNumber > USBFS_EP0) && (epNumber < USBFS_MAX_EP))
 1295              		.loc 1 1345 0
 1296 0010 FB79     		ldrb	r3, [r7, #7]	@ zero_extendqisi2
 1297 0012 002B     		cmp	r3, #0
 1298 0014 00F0B280 		beq	.L77
 1299              		.loc 1 1345 0 is_stmt 0 discriminator 1
 1300 0018 FB79     		ldrb	r3, [r7, #7]	@ zero_extendqisi2
 1301 001a 082B     		cmp	r3, #8
 1302 001c 00F2AE80 		bhi	.L77
1346:Generated_Source\PSoC5/USBFS.c ****     {
1347:Generated_Source\PSoC5/USBFS.c ****     #if (!USBFS_EP_MANAGEMENT_DMA_AUTO)
1348:Generated_Source\PSoC5/USBFS.c ****         /* Limit length to available buffer USB IP buffer size.*/
1349:Generated_Source\PSoC5/USBFS.c ****         if (length > (USBFS_EPX_DATA_BUF_MAX - USBFS_EP[epNumber].buffOffset))
 1303              		.loc 1 1349 0 is_stmt 1
 1304 0020 B988     		ldrh	r1, [r7, #4]
 1305 0022 FA79     		ldrb	r2, [r7, #7]	@ zero_extendqisi2
 1306 0024 5748     		ldr	r0, .L78
 1307 0026 1346     		mov	r3, r2
 1308 0028 5B00     		lsls	r3, r3, #1
 1309 002a 1344     		add	r3, r3, r2
 1310 002c 9B00     		lsls	r3, r3, #2
 1311 002e 0344     		add	r3, r3, r0
 1312 0030 0633     		adds	r3, r3, #6
 1313 0032 1B88     		ldrh	r3, [r3]	@ movhi
 1314 0034 9BB2     		uxth	r3, r3
 1315 0036 C3F50073 		rsb	r3, r3, #512
 1316 003a 9942     		cmp	r1, r3
 1317 003c 0CD9     		bls	.L74
1350:Generated_Source\PSoC5/USBFS.c ****         {
1351:Generated_Source\PSoC5/USBFS.c ****             length = USBFS_EPX_DATA_BUF_MAX - USBFS_EP[epNumber].buffOffset;
 1318              		.loc 1 1351 0
 1319 003e FA79     		ldrb	r2, [r7, #7]	@ zero_extendqisi2
 1320 0040 5049     		ldr	r1, .L78
 1321 0042 1346     		mov	r3, r2
 1322 0044 5B00     		lsls	r3, r3, #1
ARM GAS  C:\Users\CALEBC~1\AppData\Local\Temp\ccUZyw0h.s 			page 48


 1323 0046 1344     		add	r3, r3, r2
 1324 0048 9B00     		lsls	r3, r3, #2
 1325 004a 0B44     		add	r3, r3, r1
 1326 004c 0633     		adds	r3, r3, #6
 1327 004e 1B88     		ldrh	r3, [r3]	@ movhi
 1328 0050 9BB2     		uxth	r3, r3
 1329 0052 C3F50073 		rsb	r3, r3, #512
 1330 0056 BB80     		strh	r3, [r7, #4]	@ movhi
 1331              	.L74:
1352:Generated_Source\PSoC5/USBFS.c ****         }
1353:Generated_Source\PSoC5/USBFS.c ****     #endif /* (!USBFS_EP_MANAGEMENT_DMA_AUTO) */
1354:Generated_Source\PSoC5/USBFS.c **** 
1355:Generated_Source\PSoC5/USBFS.c ****         /* Set count and data toggle. */
1356:Generated_Source\PSoC5/USBFS.c ****         USBFS_SIE_EP_BASE.sieEp[epNumber].epCnt0 = (uint8) HI8(length) | USBFS_EP[epNumber].epToggl
 1332              		.loc 1 1356 0
 1333 0058 4B4C     		ldr	r4, .L78+4
 1334 005a F979     		ldrb	r1, [r7, #7]	@ zero_extendqisi2
 1335 005c BB88     		ldrh	r3, [r7, #4]
 1336 005e 1B0A     		lsrs	r3, r3, #8
 1337 0060 9BB2     		uxth	r3, r3
 1338 0062 D8B2     		uxtb	r0, r3
 1339 0064 FA79     		ldrb	r2, [r7, #7]	@ zero_extendqisi2
 1340 0066 474D     		ldr	r5, .L78
 1341 0068 1346     		mov	r3, r2
 1342 006a 5B00     		lsls	r3, r3, #1
 1343 006c 1344     		add	r3, r3, r2
 1344 006e 9B00     		lsls	r3, r3, #2
 1345 0070 2B44     		add	r3, r3, r5
 1346 0072 0333     		adds	r3, r3, #3
 1347 0074 1B78     		ldrb	r3, [r3]
 1348 0076 DBB2     		uxtb	r3, r3
 1349 0078 0343     		orrs	r3, r3, r0
 1350 007a DAB2     		uxtb	r2, r3
 1351 007c 0B01     		lsls	r3, r1, #4
 1352 007e 2344     		add	r3, r3, r4
 1353 0080 1A70     		strb	r2, [r3]
1357:Generated_Source\PSoC5/USBFS.c ****         USBFS_SIE_EP_BASE.sieEp[epNumber].epCnt1 = (uint8) LO8(length);
 1354              		.loc 1 1357 0
 1355 0082 414A     		ldr	r2, .L78+4
 1356 0084 FB79     		ldrb	r3, [r7, #7]	@ zero_extendqisi2
 1357 0086 B988     		ldrh	r1, [r7, #4]	@ movhi
 1358 0088 C9B2     		uxtb	r1, r1
 1359 008a 1B01     		lsls	r3, r3, #4
 1360 008c 1344     		add	r3, r3, r2
 1361 008e 0133     		adds	r3, r3, #1
 1362 0090 0A46     		mov	r2, r1
 1363 0092 1A70     		strb	r2, [r3]
1358:Generated_Source\PSoC5/USBFS.c **** 
1359:Generated_Source\PSoC5/USBFS.c ****     #if (USBFS_EP_MANAGEMENT_MANUAL)
1360:Generated_Source\PSoC5/USBFS.c ****         if (NULL != pData)
1361:Generated_Source\PSoC5/USBFS.c ****         {
1362:Generated_Source\PSoC5/USBFS.c **** 			/* Copy data using arbiter data register. */
1363:Generated_Source\PSoC5/USBFS.c ****             uint16 i;
1364:Generated_Source\PSoC5/USBFS.c ****             for (i = 0u; i < length; ++i)
1365:Generated_Source\PSoC5/USBFS.c ****             {
1366:Generated_Source\PSoC5/USBFS.c ****                 USBFS_ARB_EP_BASE.arbEp[epNumber].rwDr = pData[i];
1367:Generated_Source\PSoC5/USBFS.c ****             }
ARM GAS  C:\Users\CALEBC~1\AppData\Local\Temp\ccUZyw0h.s 			page 49


1368:Generated_Source\PSoC5/USBFS.c ****         }
1369:Generated_Source\PSoC5/USBFS.c **** 
1370:Generated_Source\PSoC5/USBFS.c ****         /* IN endpoint buffer is full - read to be read. */
1371:Generated_Source\PSoC5/USBFS.c ****         USBFS_EP[epNumber].apiEpState = USBFS_NO_EVENT_PENDING;
1372:Generated_Source\PSoC5/USBFS.c **** 
1373:Generated_Source\PSoC5/USBFS.c ****         /* Arm IN endpoint. */
1374:Generated_Source\PSoC5/USBFS.c ****         USBFS_SIE_EP_BASE.sieEp[epNumber].epCr0 = USBFS_EP[epNumber].epMode;
1375:Generated_Source\PSoC5/USBFS.c **** 
1376:Generated_Source\PSoC5/USBFS.c ****     #else
1377:Generated_Source\PSoC5/USBFS.c **** 
1378:Generated_Source\PSoC5/USBFS.c ****         #if (CY_PSOC3 || CY_PSOC5LP)
1379:Generated_Source\PSoC5/USBFS.c ****             /* Initialize DMA if it was not initialized. */
1380:Generated_Source\PSoC5/USBFS.c ****             if (DMA_INVALID_TD == USBFS_DmaTd[epNumber])
 1364              		.loc 1 1380 0
 1365 0094 FB79     		ldrb	r3, [r7, #7]	@ zero_extendqisi2
 1366 0096 3D4A     		ldr	r2, .L78+8
 1367 0098 D35C     		ldrb	r3, [r2, r3]	@ zero_extendqisi2
 1368 009a FF2B     		cmp	r3, #255
 1369 009c 04D1     		bne	.L75
1381:Generated_Source\PSoC5/USBFS.c ****             {
1382:Generated_Source\PSoC5/USBFS.c ****                 USBFS_InitEP_DMA(epNumber, pData);
 1370              		.loc 1 1382 0
 1371 009e FB79     		ldrb	r3, [r7, #7]	@ zero_extendqisi2
 1372 00a0 3968     		ldr	r1, [r7]
 1373 00a2 1846     		mov	r0, r3
 1374 00a4 FFF7FEFF 		bl	USBFS_InitEP_DMA
 1375              	.L75:
1383:Generated_Source\PSoC5/USBFS.c ****             }
1384:Generated_Source\PSoC5/USBFS.c ****         #endif /* (CY_PSOC3 || CY_PSOC5LP) */
1385:Generated_Source\PSoC5/USBFS.c **** 
1386:Generated_Source\PSoC5/USBFS.c ****         #if (USBFS_EP_MANAGEMENT_DMA_MANUAL)
1387:Generated_Source\PSoC5/USBFS.c ****             /* IN endpoint buffer will be fully loaded by DMA shortly. */
1388:Generated_Source\PSoC5/USBFS.c ****             USBFS_EP[epNumber].apiEpState = USBFS_NO_EVENT_PENDING;
 1376              		.loc 1 1388 0
 1377 00a8 FA79     		ldrb	r2, [r7, #7]	@ zero_extendqisi2
 1378 00aa 3649     		ldr	r1, .L78
 1379 00ac 1346     		mov	r3, r2
 1380 00ae 5B00     		lsls	r3, r3, #1
 1381 00b0 1344     		add	r3, r3, r2
 1382 00b2 9B00     		lsls	r3, r3, #2
 1383 00b4 0B44     		add	r3, r3, r1
 1384 00b6 0133     		adds	r3, r3, #1
 1385 00b8 0022     		movs	r2, #0
 1386 00ba 1A70     		strb	r2, [r3]
1389:Generated_Source\PSoC5/USBFS.c **** 
1390:Generated_Source\PSoC5/USBFS.c ****             if ((pData != NULL) && (length > 0u))
 1387              		.loc 1 1390 0
 1388 00bc 3B68     		ldr	r3, [r7]
 1389 00be 002B     		cmp	r3, #0
 1390 00c0 4CD0     		beq	.L76
 1391              		.loc 1 1390 0 is_stmt 0 discriminator 1
 1392 00c2 BB88     		ldrh	r3, [r7, #4]
 1393 00c4 002B     		cmp	r3, #0
 1394 00c6 49D0     		beq	.L76
1391:Generated_Source\PSoC5/USBFS.c ****             {
1392:Generated_Source\PSoC5/USBFS.c ****             #if (CY_PSOC4)
1393:Generated_Source\PSoC5/USBFS.c ****                 uint32 channelNum = (uint32) USBFS_DmaChan[epNumber];
ARM GAS  C:\Users\CALEBC~1\AppData\Local\Temp\ccUZyw0h.s 			page 50


1394:Generated_Source\PSoC5/USBFS.c **** 
1395:Generated_Source\PSoC5/USBFS.c ****                 /* Disable DMA channel: start configuration. */
1396:Generated_Source\PSoC5/USBFS.c ****                 USBFS_CyDmaChDisable(channelNum);
1397:Generated_Source\PSoC5/USBFS.c **** 
1398:Generated_Source\PSoC5/USBFS.c ****                 /* Configure source and destination. */
1399:Generated_Source\PSoC5/USBFS.c ****                 USBFS_CyDmaSetSrcAddress(channelNum, USBFS_DMA_DESCR0, (void*) pData);
1400:Generated_Source\PSoC5/USBFS.c ****                 USBFS_CyDmaSetDstAddress(channelNum, USBFS_DMA_DESCR0, (void*) &USBFS_ARB_EP_BASE.a
1401:Generated_Source\PSoC5/USBFS.c **** 
1402:Generated_Source\PSoC5/USBFS.c ****                 /* Configure DMA descriptor. */
1403:Generated_Source\PSoC5/USBFS.c ****                 --length;
1404:Generated_Source\PSoC5/USBFS.c ****                 USBFS_CyDmaSetConfiguration(channelNum, USBFS_DMA_DESCR0, USBFS_DMA_COMMON_CFG | le
1405:Generated_Source\PSoC5/USBFS.c ****                                                         CYDMA_BYTE | CYDMA_ELEMENT_WORD | CYDMA_INC
1406:Generated_Source\PSoC5/USBFS.c **** 
1407:Generated_Source\PSoC5/USBFS.c ****                 /* Validate descriptor to execute on following DMA request. */
1408:Generated_Source\PSoC5/USBFS.c ****                 USBFS_CyDmaValidateDescriptor(channelNum, USBFS_DMA_DESCR0);
1409:Generated_Source\PSoC5/USBFS.c **** 
1410:Generated_Source\PSoC5/USBFS.c ****                 /* Enable DMA channel: configuration complete. */
1411:Generated_Source\PSoC5/USBFS.c ****                 USBFS_CyDmaChEnable(channelNum);
1412:Generated_Source\PSoC5/USBFS.c ****             #else
1413:Generated_Source\PSoC5/USBFS.c ****                 /* Configure DMA to transfer data. */
1414:Generated_Source\PSoC5/USBFS.c ****                 (void) CyDmaChDisable(USBFS_DmaChan[epNumber]);
 1395              		.loc 1 1414 0 is_stmt 1
 1396 00c8 FB79     		ldrb	r3, [r7, #7]	@ zero_extendqisi2
 1397 00ca 314A     		ldr	r2, .L78+12
 1398 00cc D35C     		ldrb	r3, [r2, r3]	@ zero_extendqisi2
 1399 00ce 1846     		mov	r0, r3
 1400 00d0 FFF7FEFF 		bl	CyDmaChDisable
1415:Generated_Source\PSoC5/USBFS.c ****                 (void) CyDmaTdSetConfiguration(USBFS_DmaTd[epNumber], length, CY_DMA_DISABLE_TD, TD
 1401              		.loc 1 1415 0
 1402 00d4 FB79     		ldrb	r3, [r7, #7]	@ zero_extendqisi2
 1403 00d6 2D4A     		ldr	r2, .L78+8
 1404 00d8 D05C     		ldrb	r0, [r2, r3]	@ zero_extendqisi2
 1405 00da B988     		ldrh	r1, [r7, #4]
 1406 00dc 1123     		movs	r3, #17
 1407 00de FE22     		movs	r2, #254
 1408 00e0 FFF7FEFF 		bl	CyDmaTdSetConfiguration
1416:Generated_Source\PSoC5/USBFS.c ****                 (void) CyDmaTdSetAddress(USBFS_DmaTd[epNumber], LO16((uint32) pData), LO16((uint32)
 1409              		.loc 1 1416 0
 1410 00e4 FB79     		ldrb	r3, [r7, #7]	@ zero_extendqisi2
 1411 00e6 294A     		ldr	r2, .L78+8
 1412 00e8 D05C     		ldrb	r0, [r2, r3]	@ zero_extendqisi2
 1413 00ea 3B68     		ldr	r3, [r7]
 1414 00ec 99B2     		uxth	r1, r3
 1415 00ee FB79     		ldrb	r3, [r7, #7]	@ zero_extendqisi2
 1416 00f0 1B01     		lsls	r3, r3, #4
 1417 00f2 03F10802 		add	r2, r3, #8
 1418 00f6 274B     		ldr	r3, .L78+16
 1419 00f8 1344     		add	r3, r3, r2
 1420 00fa 9BB2     		uxth	r3, r3
 1421 00fc 1A46     		mov	r2, r3
 1422 00fe FFF7FEFF 		bl	CyDmaTdSetAddress
1417:Generated_Source\PSoC5/USBFS.c **** 
1418:Generated_Source\PSoC5/USBFS.c ****                 /* Enable DMA channel. */
1419:Generated_Source\PSoC5/USBFS.c ****                 (void) CyDmaChSetInitialTd(USBFS_DmaChan[epNumber], USBFS_DmaTd[epNumber]);
 1423              		.loc 1 1419 0
 1424 0102 FB79     		ldrb	r3, [r7, #7]	@ zero_extendqisi2
 1425 0104 224A     		ldr	r2, .L78+12
ARM GAS  C:\Users\CALEBC~1\AppData\Local\Temp\ccUZyw0h.s 			page 51


 1426 0106 D05C     		ldrb	r0, [r2, r3]	@ zero_extendqisi2
 1427 0108 FB79     		ldrb	r3, [r7, #7]	@ zero_extendqisi2
 1428 010a 204A     		ldr	r2, .L78+8
 1429 010c D35C     		ldrb	r3, [r2, r3]	@ zero_extendqisi2
 1430 010e 1946     		mov	r1, r3
 1431 0110 FFF7FEFF 		bl	CyDmaChSetInitialTd
1420:Generated_Source\PSoC5/USBFS.c ****                 (void) CyDmaChEnable(USBFS_DmaChan[epNumber], 1u);
 1432              		.loc 1 1420 0
 1433 0114 FB79     		ldrb	r3, [r7, #7]	@ zero_extendqisi2
 1434 0116 1E4A     		ldr	r2, .L78+12
 1435 0118 D35C     		ldrb	r3, [r2, r3]	@ zero_extendqisi2
 1436 011a 0121     		movs	r1, #1
 1437 011c 1846     		mov	r0, r3
 1438 011e FFF7FEFF 		bl	CyDmaChEnable
1421:Generated_Source\PSoC5/USBFS.c ****             #endif /* (CY_PSOC4) */
1422:Generated_Source\PSoC5/USBFS.c **** 
1423:Generated_Source\PSoC5/USBFS.c ****                 /* Generate DMA request. */
1424:Generated_Source\PSoC5/USBFS.c ****                 USBFS_ARB_EP_BASE.arbEp[epNumber].epCfg |=  (uint8)  USBFS_ARB_EPX_CFG_DMA_REQ;
 1439              		.loc 1 1424 0
 1440 0122 1C49     		ldr	r1, .L78+16
 1441 0124 FB79     		ldrb	r3, [r7, #7]	@ zero_extendqisi2
 1442 0126 1B48     		ldr	r0, .L78+16
 1443 0128 FA79     		ldrb	r2, [r7, #7]	@ zero_extendqisi2
 1444 012a 1201     		lsls	r2, r2, #4
 1445 012c 0244     		add	r2, r2, r0
 1446 012e 1278     		ldrb	r2, [r2]
 1447 0130 D2B2     		uxtb	r2, r2
 1448 0132 42F00202 		orr	r2, r2, #2
 1449 0136 D2B2     		uxtb	r2, r2
 1450 0138 1B01     		lsls	r3, r3, #4
 1451 013a 0B44     		add	r3, r3, r1
 1452 013c 1A70     		strb	r2, [r3]
1425:Generated_Source\PSoC5/USBFS.c ****                 USBFS_ARB_EP_BASE.arbEp[epNumber].epCfg &=  (uint8) ~USBFS_ARB_EPX_CFG_DMA_REQ;
 1453              		.loc 1 1425 0
 1454 013e 1549     		ldr	r1, .L78+16
 1455 0140 FB79     		ldrb	r3, [r7, #7]	@ zero_extendqisi2
 1456 0142 1448     		ldr	r0, .L78+16
 1457 0144 FA79     		ldrb	r2, [r7, #7]	@ zero_extendqisi2
 1458 0146 1201     		lsls	r2, r2, #4
 1459 0148 0244     		add	r2, r2, r0
 1460 014a 1278     		ldrb	r2, [r2]
 1461 014c D2B2     		uxtb	r2, r2
 1462 014e 22F00202 		bic	r2, r2, #2
 1463 0152 D2B2     		uxtb	r2, r2
 1464 0154 1B01     		lsls	r3, r3, #4
 1465 0156 0B44     		add	r3, r3, r1
 1466 0158 1A70     		strb	r2, [r3]
1426:Generated_Source\PSoC5/USBFS.c **** 
1427:Generated_Source\PSoC5/USBFS.c ****                 /* IN endpoint will be armed in ARB_ISR(source: IN_BUF_FULL) after first DMA transf
1428:Generated_Source\PSoC5/USBFS.c ****             }
1429:Generated_Source\PSoC5/USBFS.c ****             else
1430:Generated_Source\PSoC5/USBFS.c ****             {
1431:Generated_Source\PSoC5/USBFS.c ****                 /* When zero-length packet: arm IN endpoint directly. */
1432:Generated_Source\PSoC5/USBFS.c ****                 USBFS_SIE_EP_BASE.sieEp[epNumber].epCr0 = USBFS_EP[epNumber].epMode;
1433:Generated_Source\PSoC5/USBFS.c ****             }
1434:Generated_Source\PSoC5/USBFS.c ****         #endif /* (USBFS_EP_MANAGEMENT_DMA_MANUAL) */
1435:Generated_Source\PSoC5/USBFS.c **** 
ARM GAS  C:\Users\CALEBC~1\AppData\Local\Temp\ccUZyw0h.s 			page 52


1436:Generated_Source\PSoC5/USBFS.c ****         #if (USBFS_EP_MANAGEMENT_DMA_AUTO)
1437:Generated_Source\PSoC5/USBFS.c ****             if (pData != NULL)
1438:Generated_Source\PSoC5/USBFS.c ****             {
1439:Generated_Source\PSoC5/USBFS.c ****             #if (CY_PSOC4)
1440:Generated_Source\PSoC5/USBFS.c ****                 uint32 channelNum = (uint32) USBFS_DmaChan[epNumber];
1441:Generated_Source\PSoC5/USBFS.c **** 
1442:Generated_Source\PSoC5/USBFS.c ****                 /* Store address of buffer. */
1443:Generated_Source\PSoC5/USBFS.c ****                 USBFS_DmaEpBufferAddrBackup[epNumber] = (uint32) pData;
1444:Generated_Source\PSoC5/USBFS.c **** 
1445:Generated_Source\PSoC5/USBFS.c ****                 /* Disable DMA channel: start configuration. */
1446:Generated_Source\PSoC5/USBFS.c ****                 USBFS_CyDmaChDisable(channelNum);
1447:Generated_Source\PSoC5/USBFS.c **** 
1448:Generated_Source\PSoC5/USBFS.c ****                 /* Set destination address. */
1449:Generated_Source\PSoC5/USBFS.c ****                 USBFS_CyDmaSetDstAddress(channelNum, USBFS_DMA_DESCR0, (void*) &USBFS_ARB_EP_BASE.a
1450:Generated_Source\PSoC5/USBFS.c ****                 USBFS_CyDmaSetDstAddress(channelNum, USBFS_DMA_DESCR1, (void*) &USBFS_ARB_EP_BASE.a
1451:Generated_Source\PSoC5/USBFS.c **** 
1452:Generated_Source\PSoC5/USBFS.c ****                 /* Configure DMA descriptor. */
1453:Generated_Source\PSoC5/USBFS.c ****                 USBFS_CyDmaSetConfiguration(channelNum, USBFS_DMA_DESCR0, USBFS_DMA_COMMON_CFG  |
1454:Generated_Source\PSoC5/USBFS.c ****                                                         CYDMA_BYTE | CYDMA_ELEMENT_WORD | CYDMA_INC
1455:Generated_Source\PSoC5/USBFS.c **** 
1456:Generated_Source\PSoC5/USBFS.c ****                 /* Configure DMA descriptor. */
1457:Generated_Source\PSoC5/USBFS.c ****                 USBFS_CyDmaSetConfiguration(channelNum, USBFS_DMA_DESCR1, USBFS_DMA_COMMON_CFG  |
1458:Generated_Source\PSoC5/USBFS.c ****                                                         CYDMA_BYTE | CYDMA_ELEMENT_WORD | CYDMA_INC
1459:Generated_Source\PSoC5/USBFS.c **** 
1460:Generated_Source\PSoC5/USBFS.c ****                 /* Enable interrupt from DMA channel. */
1461:Generated_Source\PSoC5/USBFS.c ****                 USBFS_CyDmaSetInterruptMask(channelNum);
1462:Generated_Source\PSoC5/USBFS.c **** 
1463:Generated_Source\PSoC5/USBFS.c **** 
1464:Generated_Source\PSoC5/USBFS.c ****                 /* Enable DMA channel: configuration complete. */
1465:Generated_Source\PSoC5/USBFS.c ****                 USBFS_CyDmaChEnable(channelNum);
1466:Generated_Source\PSoC5/USBFS.c **** 
1467:Generated_Source\PSoC5/USBFS.c ****             #else
1468:Generated_Source\PSoC5/USBFS.c ****                 (void) CyDmaChDisable(USBFS_DmaChan[epNumber]);
1469:Generated_Source\PSoC5/USBFS.c **** 
1470:Generated_Source\PSoC5/USBFS.c ****                 #if (USBFS_EP_DMA_AUTO_OPT == 0u)
1471:Generated_Source\PSoC5/USBFS.c ****                     USBFS_inLength[epNumber] = length;
1472:Generated_Source\PSoC5/USBFS.c ****                     USBFS_inDataPointer[epNumber] = pData;
1473:Generated_Source\PSoC5/USBFS.c **** 
1474:Generated_Source\PSoC5/USBFS.c ****                     /* Configure DMA to send data only for first burst */
1475:Generated_Source\PSoC5/USBFS.c ****                     (void) CyDmaTdSetConfiguration(USBFS_DmaTd[epNumber],
1476:Generated_Source\PSoC5/USBFS.c ****                         (length > USBFS_DMA_BYTES_PER_BURST) ? USBFS_DMA_BYTES_PER_BURST : length,
1477:Generated_Source\PSoC5/USBFS.c ****                         USBFS_DmaNextTd[epNumber], TD_TERMIN_EN | TD_INC_SRC_ADR);
1478:Generated_Source\PSoC5/USBFS.c ****                     (void) CyDmaTdSetAddress(USBFS_DmaTd[epNumber], LO16((uint32) pData),
1479:Generated_Source\PSoC5/USBFS.c ****                                                                                LO16((uint32) &USBFS
1480:Generated_Source\PSoC5/USBFS.c **** 
1481:Generated_Source\PSoC5/USBFS.c ****                     /* The second TD will be executed only when the first one fails.
1482:Generated_Source\PSoC5/USBFS.c ****                     *  The intention of this TD is to generate NRQ interrupt
1483:Generated_Source\PSoC5/USBFS.c ****                     *  and repeat 2 last bytes of the first burst.
1484:Generated_Source\PSoC5/USBFS.c ****                     */
1485:Generated_Source\PSoC5/USBFS.c ****                     (void) CyDmaTdSetConfiguration(USBFS_DmaNextTd[epNumber], 1u,
1486:Generated_Source\PSoC5/USBFS.c ****                                                    USBFS_DmaNextTd[epNumber],
1487:Generated_Source\PSoC5/USBFS.c ****                                                    USBFS_epX_TD_TERMOUT_EN[epNumber]);
1488:Generated_Source\PSoC5/USBFS.c **** 
1489:Generated_Source\PSoC5/USBFS.c ****                     /* Configure DmaNextTd to clear Data Ready status. */
1490:Generated_Source\PSoC5/USBFS.c ****                     (void) CyDmaTdSetAddress(USBFS_DmaNextTd[epNumber], LO16((uint32) &clearInDataR
1491:Generated_Source\PSoC5/USBFS.c ****                                                                                    LO16((uint32) &U
1492:Generated_Source\PSoC5/USBFS.c ****                 #else
ARM GAS  C:\Users\CALEBC~1\AppData\Local\Temp\ccUZyw0h.s 			page 53


1493:Generated_Source\PSoC5/USBFS.c ****                     /* Configure DMA to send all data. */
1494:Generated_Source\PSoC5/USBFS.c ****                     (void) CyDmaTdSetConfiguration(USBFS_DmaTd[epNumber], length,
1495:Generated_Source\PSoC5/USBFS.c ****                                                    USBFS_DmaTd[epNumber], TD_TERMIN_EN | TD_INC_SRC
1496:Generated_Source\PSoC5/USBFS.c ****                     (void) CyDmaTdSetAddress(USBFS_DmaTd[epNumber], LO16((uint32) pData),
1497:Generated_Source\PSoC5/USBFS.c ****                                                                                LO16((uint32) &USBFS
1498:Generated_Source\PSoC5/USBFS.c ****                 #endif /* (USBFS_EP_DMA_AUTO_OPT == 0u) */
1499:Generated_Source\PSoC5/USBFS.c **** 
1500:Generated_Source\PSoC5/USBFS.c ****                 /* Clear any potential pending DMA requests before starting DMA channel to transfer
1501:Generated_Source\PSoC5/USBFS.c ****                 (void) CyDmaClearPendingDrq(USBFS_DmaChan[epNumber]);
1502:Generated_Source\PSoC5/USBFS.c ****                 /* Enable DMA. */
1503:Generated_Source\PSoC5/USBFS.c ****                 (void) CyDmaChSetInitialTd(USBFS_DmaChan[epNumber], USBFS_DmaTd[epNumber]);
1504:Generated_Source\PSoC5/USBFS.c ****                 (void) CyDmaChEnable(USBFS_DmaChan[epNumber], 1u);
1505:Generated_Source\PSoC5/USBFS.c ****             #endif /* (CY_PSOC4) */
1506:Generated_Source\PSoC5/USBFS.c ****             }
1507:Generated_Source\PSoC5/USBFS.c ****             else
1508:Generated_Source\PSoC5/USBFS.c ****             {
1509:Generated_Source\PSoC5/USBFS.c ****                 /* IN endpoint buffer (32 bytes) will shortly be preloaded by DMA. */
1510:Generated_Source\PSoC5/USBFS.c ****                 USBFS_EP[epNumber].apiEpState = USBFS_NO_EVENT_PENDING;
1511:Generated_Source\PSoC5/USBFS.c **** 
1512:Generated_Source\PSoC5/USBFS.c ****                 if (length > 0u)
1513:Generated_Source\PSoC5/USBFS.c ****                 {
1514:Generated_Source\PSoC5/USBFS.c ****                 #if (CY_PSOC4)
1515:Generated_Source\PSoC5/USBFS.c ****                     uint32 lengthDescr0, lengthDescr1;
1516:Generated_Source\PSoC5/USBFS.c ****                     uint32 channelNum = (uint32) USBFS_DmaChan[epNumber];
1517:Generated_Source\PSoC5/USBFS.c **** 
1518:Generated_Source\PSoC5/USBFS.c ****                     /* Get number of full bursts. */
1519:Generated_Source\PSoC5/USBFS.c ****                     USBFS_DmaEpBurstCnt[epNumber] = (uint8) (length / USBFS_DMA_BYTES_PER_BURST);
1520:Generated_Source\PSoC5/USBFS.c **** 
1521:Generated_Source\PSoC5/USBFS.c ****                     /* Get number of elements in the last burst. */
1522:Generated_Source\PSoC5/USBFS.c ****                     USBFS_DmaEpLastBurstEl[epNumber] = (uint8) (length % USBFS_DMA_BYTES_PER_BURST)
1523:Generated_Source\PSoC5/USBFS.c **** 
1524:Generated_Source\PSoC5/USBFS.c ****                     /* Get total number of bursts. */
1525:Generated_Source\PSoC5/USBFS.c ****                     USBFS_DmaEpBurstCnt[epNumber] += (0u != USBFS_DmaEpLastBurstEl[epNumber]) ? 1u 
1526:Generated_Source\PSoC5/USBFS.c **** 
1527:Generated_Source\PSoC5/USBFS.c ****                     /* Adjust number of data elements transferred in last burst. */
1528:Generated_Source\PSoC5/USBFS.c ****                     USBFS_DmaEpLastBurstEl[epNumber] = (0u != USBFS_DmaEpLastBurstEl[epNumber]) ?
1529:Generated_Source\PSoC5/USBFS.c ****                                                                           (USBFS_DmaEpLastBurstEl[e
1530:Generated_Source\PSoC5/USBFS.c ****                                                                           (USBFS_DMA_BYTES_PER_BURS
1531:Generated_Source\PSoC5/USBFS.c **** 
1532:Generated_Source\PSoC5/USBFS.c ****                     /* Get number of data elements to transfer for descriptor 0 and 1. */
1533:Generated_Source\PSoC5/USBFS.c ****                     lengthDescr0 = (1u == USBFS_DmaEpBurstCnt[epNumber]) ? USBFS_DmaEpLastBurstEl[e
1534:Generated_Source\PSoC5/USBFS.c ****                     lengthDescr1 = (2u == USBFS_DmaEpBurstCnt[epNumber]) ? USBFS_DmaEpLastBurstEl[e
1535:Generated_Source\PSoC5/USBFS.c **** 
1536:Generated_Source\PSoC5/USBFS.c **** 
1537:Generated_Source\PSoC5/USBFS.c ****                     /* Mark which descriptor is last one to execute. */
1538:Generated_Source\PSoC5/USBFS.c ****                     USBFS_DmaEpLastBurstEl[epNumber] |= (0u != (USBFS_DmaEpBurstCnt[epNumber] & 0x1
1539:Generated_Source\PSoC5/USBFS.c ****                                                                             USBFS_DMA_DESCR0_MASK :
1540:Generated_Source\PSoC5/USBFS.c **** 
1541:Generated_Source\PSoC5/USBFS.c ****                     /* Restore DMA settings for current transfer. */
1542:Generated_Source\PSoC5/USBFS.c ****                     USBFS_CyDmaChDisable(channelNum);
1543:Generated_Source\PSoC5/USBFS.c **** 
1544:Generated_Source\PSoC5/USBFS.c ****                     /* Restore destination address for input endpoint. */
1545:Generated_Source\PSoC5/USBFS.c ****                     USBFS_CyDmaSetSrcAddress(channelNum, USBFS_DMA_DESCR0, (void*) ((uint32) USBFS_
1546:Generated_Source\PSoC5/USBFS.c ****                     USBFS_CyDmaSetSrcAddress(channelNum, USBFS_DMA_DESCR1, (void*) ((uint32) USBFS_
1547:Generated_Source\PSoC5/USBFS.c ****                                                                                                    
1548:Generated_Source\PSoC5/USBFS.c **** 
1549:Generated_Source\PSoC5/USBFS.c ****                     /* Set number of elements to transfer. */
ARM GAS  C:\Users\CALEBC~1\AppData\Local\Temp\ccUZyw0h.s 			page 54


1550:Generated_Source\PSoC5/USBFS.c ****                     USBFS_CyDmaSetNumDataElements(channelNum, USBFS_DMA_DESCR0, lengthDescr0);
1551:Generated_Source\PSoC5/USBFS.c ****                     USBFS_CyDmaSetNumDataElements(channelNum, USBFS_DMA_DESCR1, lengthDescr1);
1552:Generated_Source\PSoC5/USBFS.c **** 
1553:Generated_Source\PSoC5/USBFS.c ****                     /* Validate descriptor 0 and command to start with it. */
1554:Generated_Source\PSoC5/USBFS.c ****                     USBFS_CyDmaValidateDescriptor(channelNum, USBFS_DMA_DESCR0);
1555:Generated_Source\PSoC5/USBFS.c ****                     USBFS_CyDmaSetDescriptor0Next(channelNum);
1556:Generated_Source\PSoC5/USBFS.c **** 
1557:Generated_Source\PSoC5/USBFS.c ****                     /* Validate descriptor 1. */
1558:Generated_Source\PSoC5/USBFS.c ****                     if (USBFS_DmaEpBurstCnt[epNumber] > 1u)
1559:Generated_Source\PSoC5/USBFS.c ****                     {
1560:Generated_Source\PSoC5/USBFS.c ****                         USBFS_CyDmaValidateDescriptor(channelNum, USBFS_DMA_DESCR1); 
1561:Generated_Source\PSoC5/USBFS.c ****                     }                   
1562:Generated_Source\PSoC5/USBFS.c **** 
1563:Generated_Source\PSoC5/USBFS.c ****                     /* Adjust burst counter taking to account: 2 valid descriptors and interrupt tr
1564:Generated_Source\PSoC5/USBFS.c ****                     USBFS_DmaEpBurstCnt[epNumber] = USBFS_DMA_GET_BURST_CNT(USBFS_DmaEpBurstCnt[epN
1565:Generated_Source\PSoC5/USBFS.c **** 
1566:Generated_Source\PSoC5/USBFS.c ****                     /* Enable DMA channel: configuration complete. */
1567:Generated_Source\PSoC5/USBFS.c ****                     USBFS_CyDmaChEnable(channelNum);
1568:Generated_Source\PSoC5/USBFS.c **** 
1569:Generated_Source\PSoC5/USBFS.c ****                 #elif (USBFS_EP_DMA_AUTO_OPT == 0u)
1570:Generated_Source\PSoC5/USBFS.c ****                     USBFS_inLength[epNumber]  = length;
1571:Generated_Source\PSoC5/USBFS.c ****                     USBFS_inBufFull[epNumber] = 0u;
1572:Generated_Source\PSoC5/USBFS.c **** 
1573:Generated_Source\PSoC5/USBFS.c ****                     (void) CyDmaChDisable(USBFS_DmaChan[epNumber]);
1574:Generated_Source\PSoC5/USBFS.c ****                     /* Configure DMA to send data only for first burst. */
1575:Generated_Source\PSoC5/USBFS.c ****                     (void) CyDmaTdSetConfiguration(
1576:Generated_Source\PSoC5/USBFS.c ****                         USBFS_DmaTd[epNumber], (length > USBFS_DMA_BYTES_PER_BURST) ?
1577:Generated_Source\PSoC5/USBFS.c ****                         USBFS_DMA_BYTES_PER_BURST : length,
1578:Generated_Source\PSoC5/USBFS.c ****                         USBFS_DmaNextTd[epNumber], TD_TERMIN_EN | TD_INC_SRC_ADR );
1579:Generated_Source\PSoC5/USBFS.c ****                     (void) CyDmaTdSetAddress(USBFS_DmaTd[epNumber], LO16((uint32)  USBFS_inDataPoin
1580:Generated_Source\PSoC5/USBFS.c ****                                                                                LO16((uint32) &USBFS
1581:Generated_Source\PSoC5/USBFS.c ****                     /* Clear Any potential pending DMA requests before starting DMA channel to tran
1582:Generated_Source\PSoC5/USBFS.c ****                     (void) CyDmaClearPendingDrq(USBFS_DmaChan[epNumber]);
1583:Generated_Source\PSoC5/USBFS.c ****                     /* Enable DMA. */
1584:Generated_Source\PSoC5/USBFS.c ****                     (void) CyDmaChSetInitialTd(USBFS_DmaChan[epNumber], USBFS_DmaTd[epNumber]);
1585:Generated_Source\PSoC5/USBFS.c ****                     (void) CyDmaChEnable(USBFS_DmaChan[epNumber], 1u);
1586:Generated_Source\PSoC5/USBFS.c ****                 #endif /* (CY_PSOC4) */
1587:Generated_Source\PSoC5/USBFS.c **** 
1588:Generated_Source\PSoC5/USBFS.c ****                 #if !defined (USBFS_MANUAL_IN_EP_ARM)
1589:Generated_Source\PSoC5/USBFS.c ****                     /* Set IN data ready to generate DMA request to load data into endpoint buffer.
1590:Generated_Source\PSoC5/USBFS.c ****                     USBFS_ARB_EP_BASE.arbEp[epNumber].epCfg |= USBFS_ARB_EPX_CFG_IN_DATA_RDY;
1591:Generated_Source\PSoC5/USBFS.c ****                 #endif  /* (USBFS_MANUAL_IN_EP_ARM) */
1592:Generated_Source\PSoC5/USBFS.c **** 
1593:Generated_Source\PSoC5/USBFS.c ****                     /* IN endpoint will be armed in ARB_ISR(source: IN_BUF_FULL) after first DMA tr
1594:Generated_Source\PSoC5/USBFS.c ****                 }
1595:Generated_Source\PSoC5/USBFS.c ****                 else
1596:Generated_Source\PSoC5/USBFS.c ****                 {
1597:Generated_Source\PSoC5/USBFS.c ****                     /* When zero-length packet: arm IN endpoint directly. */
1598:Generated_Source\PSoC5/USBFS.c ****                     USBFS_SIE_EP_BASE.sieEp[epNumber].epCr0 = USBFS_EP[epNumber].epMode;
1599:Generated_Source\PSoC5/USBFS.c ****                 }
1600:Generated_Source\PSoC5/USBFS.c ****             }
1601:Generated_Source\PSoC5/USBFS.c ****         #endif /* (USBFS_EP_MANAGEMENT_DMA_AUTO) */
1602:Generated_Source\PSoC5/USBFS.c ****     #endif /* (USBFS_EP_MANAGEMENT_MANUAL) */
1603:Generated_Source\PSoC5/USBFS.c ****     }
1604:Generated_Source\PSoC5/USBFS.c **** }
 1467              		.loc 1 1604 0
 1468 015a 0FE0     		b	.L77
ARM GAS  C:\Users\CALEBC~1\AppData\Local\Temp\ccUZyw0h.s 			page 55


 1469              	.L76:
1432:Generated_Source\PSoC5/USBFS.c ****             }
 1470              		.loc 1 1432 0
 1471 015c 0A48     		ldr	r0, .L78+4
 1472 015e F979     		ldrb	r1, [r7, #7]	@ zero_extendqisi2
 1473 0160 FA79     		ldrb	r2, [r7, #7]	@ zero_extendqisi2
 1474 0162 084C     		ldr	r4, .L78
 1475 0164 1346     		mov	r3, r2
 1476 0166 5B00     		lsls	r3, r3, #1
 1477 0168 1344     		add	r3, r3, r2
 1478 016a 9B00     		lsls	r3, r3, #2
 1479 016c 2344     		add	r3, r3, r4
 1480 016e 0533     		adds	r3, r3, #5
 1481 0170 1B78     		ldrb	r3, [r3]
 1482 0172 DAB2     		uxtb	r2, r3
 1483 0174 0B01     		lsls	r3, r1, #4
 1484 0176 0344     		add	r3, r3, r0
 1485 0178 0233     		adds	r3, r3, #2
 1486 017a 1A70     		strb	r2, [r3]
 1487              	.L77:
 1488              		.loc 1 1604 0
 1489 017c 00BF     		nop
 1490 017e 0837     		adds	r7, r7, #8
 1491              		.cfi_def_cfa_offset 16
 1492 0180 BD46     		mov	sp, r7
 1493              		.cfi_def_cfa_register 13
 1494              		@ sp needed
 1495 0182 B0BD     		pop	{r4, r5, r7, pc}
 1496              	.L79:
 1497              		.align	2
 1498              	.L78:
 1499 0184 00000000 		.word	USBFS_EP
 1500 0188 FC5F0040 		.word	1073766396
 1501 018c 00000000 		.word	USBFS_DmaTd
 1502 0190 00000000 		.word	USBFS_DmaChan
 1503 0194 70600040 		.word	1073766512
 1504              		.cfi_endproc
 1505              	.LFE13:
 1506              		.size	USBFS_LoadInEP, .-USBFS_LoadInEP
 1507              		.section	.text.USBFS_ReadOutEP,"ax",%progbits
 1508              		.align	2
 1509              		.global	USBFS_ReadOutEP
 1510              		.thumb
 1511              		.thumb_func
 1512              		.type	USBFS_ReadOutEP, %function
 1513              	USBFS_ReadOutEP:
 1514              	.LFB14:
1605:Generated_Source\PSoC5/USBFS.c **** 
1606:Generated_Source\PSoC5/USBFS.c **** 
1607:Generated_Source\PSoC5/USBFS.c **** /*******************************************************************************
1608:Generated_Source\PSoC5/USBFS.c **** * Function Name: USBFS_ReadOutEP
1609:Generated_Source\PSoC5/USBFS.c **** ****************************************************************************//**
1610:Generated_Source\PSoC5/USBFS.c **** *
1611:Generated_Source\PSoC5/USBFS.c **** *   This function performs different functionality depending on the Component’s
1612:Generated_Source\PSoC5/USBFS.c **** *   configured Endpoint Buffer Management. This parameter is defined in the
1613:Generated_Source\PSoC5/USBFS.c **** *   Descriptor Root in Component Configure window.
1614:Generated_Source\PSoC5/USBFS.c **** *
ARM GAS  C:\Users\CALEBC~1\AppData\Local\Temp\ccUZyw0h.s 			page 56


1615:Generated_Source\PSoC5/USBFS.c **** *   *Manual (Static/Dynamic Allocation):*
1616:Generated_Source\PSoC5/USBFS.c **** *   This function moves the specified number of bytes from endpoint buffer to
1617:Generated_Source\PSoC5/USBFS.c **** *   system RAM. The number of bytes actually transferred from endpoint buffer to
1618:Generated_Source\PSoC5/USBFS.c **** *   system RAM is the lesser of the actual number of bytes sent by the host or
1619:Generated_Source\PSoC5/USBFS.c **** *   the number of bytes requested by the length parameter.
1620:Generated_Source\PSoC5/USBFS.c **** *
1621:Generated_Source\PSoC5/USBFS.c **** *   *DMA with Manual Buffer Management:*
1622:Generated_Source\PSoC5/USBFS.c **** *   Configure DMA to transfer data from endpoint buffer to system RAM. Generate
1623:Generated_Source\PSoC5/USBFS.c **** *   a DMA request. The firmware must wait until the DMA completes the data
1624:Generated_Source\PSoC5/USBFS.c **** *   transfer after calling the USBFS_ReadOutEP() API. For example,
1625:Generated_Source\PSoC5/USBFS.c **** *   by checking EPstate:
1626:Generated_Source\PSoC5/USBFS.c **** *
1627:Generated_Source\PSoC5/USBFS.c **** *   \snippet /USBFS_sut_02.cydsn/main.c checking EPstatey
1628:Generated_Source\PSoC5/USBFS.c **** *
1629:Generated_Source\PSoC5/USBFS.c **** *   The USBFS_EnableOutEP() has to be called to allow host to write data into
1630:Generated_Source\PSoC5/USBFS.c **** *   the endpoint buffer after DMA has completed transfer data from OUT endpoint
1631:Generated_Source\PSoC5/USBFS.c **** *   buffer to SRAM.
1632:Generated_Source\PSoC5/USBFS.c **** *
1633:Generated_Source\PSoC5/USBFS.c **** *   *DMA with Automatic Buffer Management:*
1634:Generated_Source\PSoC5/USBFS.c **** *   Configure DMA. This is required only once and automatically generates DMA
1635:Generated_Source\PSoC5/USBFS.c **** *   requests as data arrives
1636:Generated_Source\PSoC5/USBFS.c **** *
1637:Generated_Source\PSoC5/USBFS.c **** *  \param epNumber: Contains the data endpoint number.
1638:Generated_Source\PSoC5/USBFS.c **** *            Valid values are between 1 and 8.
1639:Generated_Source\PSoC5/USBFS.c **** *  \param pData: A pointer to a data array from which the data for the endpoint
1640:Generated_Source\PSoC5/USBFS.c **** *         space is loaded.
1641:Generated_Source\PSoC5/USBFS.c **** *  \param length: The number of bytes to transfer from the USB Out endpoint and
1642:Generated_Source\PSoC5/USBFS.c **** *          loads it into data array. Valid values are between 0 and 1023. The
1643:Generated_Source\PSoC5/USBFS.c **** *          function moves fewer than the requested number of bytes if the host
1644:Generated_Source\PSoC5/USBFS.c **** *          sends fewer bytes than requested.
1645:Generated_Source\PSoC5/USBFS.c **** *
1646:Generated_Source\PSoC5/USBFS.c **** * \return
1647:Generated_Source\PSoC5/USBFS.c **** *  Number of bytes received, 0 for an invalid endpoint.
1648:Generated_Source\PSoC5/USBFS.c **** *
1649:Generated_Source\PSoC5/USBFS.c **** * \reentrant
1650:Generated_Source\PSoC5/USBFS.c **** *  No.
1651:Generated_Source\PSoC5/USBFS.c **** *
1652:Generated_Source\PSoC5/USBFS.c **** *******************************************************************************/
1653:Generated_Source\PSoC5/USBFS.c **** uint16 USBFS_ReadOutEP(uint8 epNumber, uint8 pData[], uint16 length)
1654:Generated_Source\PSoC5/USBFS.c ****                                                                         
1655:Generated_Source\PSoC5/USBFS.c **** {
 1515              		.loc 1 1655 0
 1516              		.cfi_startproc
 1517              		@ args = 0, pretend = 0, frame = 8
 1518              		@ frame_needed = 1, uses_anonymous_args = 0
 1519 0000 80B5     		push	{r7, lr}
 1520              		.cfi_def_cfa_offset 8
 1521              		.cfi_offset 7, -8
 1522              		.cfi_offset 14, -4
 1523 0002 82B0     		sub	sp, sp, #8
 1524              		.cfi_def_cfa_offset 16
 1525 0004 00AF     		add	r7, sp, #0
 1526              		.cfi_def_cfa_register 7
 1527 0006 0346     		mov	r3, r0
 1528 0008 3960     		str	r1, [r7]
 1529 000a FB71     		strb	r3, [r7, #7]
 1530 000c 1346     		mov	r3, r2	@ movhi
ARM GAS  C:\Users\CALEBC~1\AppData\Local\Temp\ccUZyw0h.s 			page 57


 1531 000e BB80     		strh	r3, [r7, #4]	@ movhi
1656:Generated_Source\PSoC5/USBFS.c ****     if ((pData != NULL) && (epNumber > USBFS_EP0) && (epNumber < USBFS_MAX_EP))
 1532              		.loc 1 1656 0
 1533 0010 3B68     		ldr	r3, [r7]
 1534 0012 002B     		cmp	r3, #0
 1535 0014 6AD0     		beq	.L81
 1536              		.loc 1 1656 0 is_stmt 0 discriminator 1
 1537 0016 FB79     		ldrb	r3, [r7, #7]	@ zero_extendqisi2
 1538 0018 002B     		cmp	r3, #0
 1539 001a 67D0     		beq	.L81
 1540              		.loc 1 1656 0 discriminator 2
 1541 001c FB79     		ldrb	r3, [r7, #7]	@ zero_extendqisi2
 1542 001e 082B     		cmp	r3, #8
 1543 0020 64D8     		bhi	.L81
1657:Generated_Source\PSoC5/USBFS.c ****     {
1658:Generated_Source\PSoC5/USBFS.c ****     #if (!USBFS_EP_MANAGEMENT_DMA_AUTO)
1659:Generated_Source\PSoC5/USBFS.c ****         /* Adjust requested length to available data. */
1660:Generated_Source\PSoC5/USBFS.c ****         length = (length > USBFS_GetEPCount(epNumber)) ? USBFS_GetEPCount(epNumber) : length;
 1544              		.loc 1 1660 0 is_stmt 1
 1545 0022 FB79     		ldrb	r3, [r7, #7]	@ zero_extendqisi2
 1546 0024 1846     		mov	r0, r3
 1547 0026 FFF7FEFF 		bl	USBFS_GetEPCount
 1548 002a 0346     		mov	r3, r0
 1549 002c 1A46     		mov	r2, r3
 1550 002e BB88     		ldrh	r3, [r7, #4]
 1551 0030 9342     		cmp	r3, r2
 1552 0032 05D9     		bls	.L82
 1553              		.loc 1 1660 0 is_stmt 0 discriminator 1
 1554 0034 FB79     		ldrb	r3, [r7, #7]	@ zero_extendqisi2
 1555 0036 1846     		mov	r0, r3
 1556 0038 FFF7FEFF 		bl	USBFS_GetEPCount
 1557 003c 0346     		mov	r3, r0
 1558 003e 00E0     		b	.L83
 1559              	.L82:
 1560              		.loc 1 1660 0 discriminator 2
 1561 0040 BB88     		ldrh	r3, [r7, #4]
 1562              	.L83:
 1563              		.loc 1 1660 0 discriminator 4
 1564 0042 BB80     		strh	r3, [r7, #4]	@ movhi
1661:Generated_Source\PSoC5/USBFS.c ****     #endif /* (!USBFS_EP_MANAGEMENT_DMA_AUTO) */
1662:Generated_Source\PSoC5/USBFS.c **** 
1663:Generated_Source\PSoC5/USBFS.c ****     #if (USBFS_EP_MANAGEMENT_MANUAL)
1664:Generated_Source\PSoC5/USBFS.c ****         {
1665:Generated_Source\PSoC5/USBFS.c ****             /* Copy data using arbiter data register. */
1666:Generated_Source\PSoC5/USBFS.c ****             uint16 i;
1667:Generated_Source\PSoC5/USBFS.c ****             for (i = 0u; i < length; ++i)
1668:Generated_Source\PSoC5/USBFS.c ****             {
1669:Generated_Source\PSoC5/USBFS.c ****                 pData[i] = (uint8) USBFS_ARB_EP_BASE.arbEp[epNumber].rwDr;
1670:Generated_Source\PSoC5/USBFS.c ****             }
1671:Generated_Source\PSoC5/USBFS.c ****         }
1672:Generated_Source\PSoC5/USBFS.c **** 
1673:Generated_Source\PSoC5/USBFS.c ****         /* Arm OUT endpoint after data has been copied from endpoint buffer. */
1674:Generated_Source\PSoC5/USBFS.c ****         USBFS_EnableOutEP(epNumber);
1675:Generated_Source\PSoC5/USBFS.c ****     #else
1676:Generated_Source\PSoC5/USBFS.c **** 
1677:Generated_Source\PSoC5/USBFS.c ****         #if (CY_PSOC3 || CY_PSOC5LP)
1678:Generated_Source\PSoC5/USBFS.c ****             /* Initialize DMA if it was not initialized. */
ARM GAS  C:\Users\CALEBC~1\AppData\Local\Temp\ccUZyw0h.s 			page 58


1679:Generated_Source\PSoC5/USBFS.c ****             if (DMA_INVALID_TD == USBFS_DmaTd[epNumber])
 1565              		.loc 1 1679 0 is_stmt 1 discriminator 4
 1566 0044 FB79     		ldrb	r3, [r7, #7]	@ zero_extendqisi2
 1567 0046 2D4A     		ldr	r2, .L87
 1568 0048 D35C     		ldrb	r3, [r2, r3]	@ zero_extendqisi2
 1569 004a FF2B     		cmp	r3, #255
 1570 004c 04D1     		bne	.L84
1680:Generated_Source\PSoC5/USBFS.c ****             {
1681:Generated_Source\PSoC5/USBFS.c ****                 USBFS_InitEP_DMA(epNumber, pData);
 1571              		.loc 1 1681 0
 1572 004e FB79     		ldrb	r3, [r7, #7]	@ zero_extendqisi2
 1573 0050 3968     		ldr	r1, [r7]
 1574 0052 1846     		mov	r0, r3
 1575 0054 FFF7FEFF 		bl	USBFS_InitEP_DMA
 1576              	.L84:
1682:Generated_Source\PSoC5/USBFS.c ****             }
1683:Generated_Source\PSoC5/USBFS.c ****         #endif /* (CY_PSOC3 || CY_PSOC5LP) */
1684:Generated_Source\PSoC5/USBFS.c **** 
1685:Generated_Source\PSoC5/USBFS.c ****         #if (USBFS_EP_MANAGEMENT_DMA_MANUAL)
1686:Generated_Source\PSoC5/USBFS.c ****         #if (CY_PSOC4)
1687:Generated_Source\PSoC5/USBFS.c ****         {
1688:Generated_Source\PSoC5/USBFS.c ****             uint32 channelNum = (uint32) USBFS_DmaChan[epNumber];
1689:Generated_Source\PSoC5/USBFS.c **** 
1690:Generated_Source\PSoC5/USBFS.c ****             /* Disable DMA channel: start configuration. */
1691:Generated_Source\PSoC5/USBFS.c ****             USBFS_CyDmaChDisable(channelNum);
1692:Generated_Source\PSoC5/USBFS.c **** 
1693:Generated_Source\PSoC5/USBFS.c ****             /* Configure source and destination. */
1694:Generated_Source\PSoC5/USBFS.c ****             USBFS_CyDmaSetSrcAddress(channelNum, USBFS_DMA_DESCR0, (void*) &USBFS_ARB_EP_BASE.arbEp
1695:Generated_Source\PSoC5/USBFS.c ****             USBFS_CyDmaSetDstAddress(channelNum, USBFS_DMA_DESCR0, (void*) pData);
1696:Generated_Source\PSoC5/USBFS.c **** 
1697:Generated_Source\PSoC5/USBFS.c ****             /* Configure DMA descriptor. */
1698:Generated_Source\PSoC5/USBFS.c ****             USBFS_CyDmaSetConfiguration(channelNum, USBFS_DMA_DESCR0, USBFS_DMA_COMMON_CFG | (uint1
1699:Generated_Source\PSoC5/USBFS.c ****                                                     CYDMA_BYTE | CYDMA_WORD_ELEMENT | CYDMA_INC_DST
1700:Generated_Source\PSoC5/USBFS.c **** 
1701:Generated_Source\PSoC5/USBFS.c ****             /* Validate descriptor to execute on following DMA request. */
1702:Generated_Source\PSoC5/USBFS.c ****             USBFS_CyDmaValidateDescriptor(channelNum, USBFS_DMA_DESCR0);
1703:Generated_Source\PSoC5/USBFS.c **** 
1704:Generated_Source\PSoC5/USBFS.c ****             /* Enable DMA channel: configuration complete. */
1705:Generated_Source\PSoC5/USBFS.c ****             USBFS_CyDmaChEnable(channelNum);
1706:Generated_Source\PSoC5/USBFS.c ****         }
1707:Generated_Source\PSoC5/USBFS.c ****         #else
1708:Generated_Source\PSoC5/USBFS.c ****             /* Configure DMA to transfer data. */
1709:Generated_Source\PSoC5/USBFS.c ****             (void) CyDmaChDisable(USBFS_DmaChan[epNumber]);
 1577              		.loc 1 1709 0
 1578 0058 FB79     		ldrb	r3, [r7, #7]	@ zero_extendqisi2
 1579 005a 294A     		ldr	r2, .L87+4
 1580 005c D35C     		ldrb	r3, [r2, r3]	@ zero_extendqisi2
 1581 005e 1846     		mov	r0, r3
 1582 0060 FFF7FEFF 		bl	CyDmaChDisable
1710:Generated_Source\PSoC5/USBFS.c ****             (void) CyDmaTdSetConfiguration(USBFS_DmaTd[epNumber], length, CY_DMA_DISABLE_TD, TD_TER
 1583              		.loc 1 1710 0
 1584 0064 FB79     		ldrb	r3, [r7, #7]	@ zero_extendqisi2
 1585 0066 254A     		ldr	r2, .L87
 1586 0068 D05C     		ldrb	r0, [r2, r3]	@ zero_extendqisi2
 1587 006a B988     		ldrh	r1, [r7, #4]
 1588 006c 1223     		movs	r3, #18
 1589 006e FE22     		movs	r2, #254
ARM GAS  C:\Users\CALEBC~1\AppData\Local\Temp\ccUZyw0h.s 			page 59


 1590 0070 FFF7FEFF 		bl	CyDmaTdSetConfiguration
1711:Generated_Source\PSoC5/USBFS.c ****             (void) CyDmaTdSetAddress(USBFS_DmaTd[epNumber], LO16((uint32) &USBFS_ARB_EP_BASE.arbEp[
 1591              		.loc 1 1711 0
 1592 0074 FB79     		ldrb	r3, [r7, #7]	@ zero_extendqisi2
 1593 0076 214A     		ldr	r2, .L87
 1594 0078 D05C     		ldrb	r0, [r2, r3]	@ zero_extendqisi2
 1595 007a FB79     		ldrb	r3, [r7, #7]	@ zero_extendqisi2
 1596 007c 1B01     		lsls	r3, r3, #4
 1597 007e 03F10802 		add	r2, r3, #8
 1598 0082 204B     		ldr	r3, .L87+8
 1599 0084 1344     		add	r3, r3, r2
 1600 0086 9BB2     		uxth	r3, r3
 1601 0088 3A68     		ldr	r2, [r7]
 1602 008a 92B2     		uxth	r2, r2
 1603 008c 1946     		mov	r1, r3
 1604 008e FFF7FEFF 		bl	CyDmaTdSetAddress
1712:Generated_Source\PSoC5/USBFS.c **** 
1713:Generated_Source\PSoC5/USBFS.c ****             /* Enable DMA channel. */
1714:Generated_Source\PSoC5/USBFS.c ****             (void) CyDmaChSetInitialTd(USBFS_DmaChan[epNumber], USBFS_DmaTd[epNumber]);
 1605              		.loc 1 1714 0
 1606 0092 FB79     		ldrb	r3, [r7, #7]	@ zero_extendqisi2
 1607 0094 1A4A     		ldr	r2, .L87+4
 1608 0096 D05C     		ldrb	r0, [r2, r3]	@ zero_extendqisi2
 1609 0098 FB79     		ldrb	r3, [r7, #7]	@ zero_extendqisi2
 1610 009a 184A     		ldr	r2, .L87
 1611 009c D35C     		ldrb	r3, [r2, r3]	@ zero_extendqisi2
 1612 009e 1946     		mov	r1, r3
 1613 00a0 FFF7FEFF 		bl	CyDmaChSetInitialTd
1715:Generated_Source\PSoC5/USBFS.c ****             (void) CyDmaChEnable(USBFS_DmaChan[epNumber], 1u);
 1614              		.loc 1 1715 0
 1615 00a4 FB79     		ldrb	r3, [r7, #7]	@ zero_extendqisi2
 1616 00a6 164A     		ldr	r2, .L87+4
 1617 00a8 D35C     		ldrb	r3, [r2, r3]	@ zero_extendqisi2
 1618 00aa 0121     		movs	r1, #1
 1619 00ac 1846     		mov	r0, r3
 1620 00ae FFF7FEFF 		bl	CyDmaChEnable
1716:Generated_Source\PSoC5/USBFS.c ****         #endif /* (CY_PSOC4) */
1717:Generated_Source\PSoC5/USBFS.c **** 
1718:Generated_Source\PSoC5/USBFS.c ****             /* Generate DMA request. */
1719:Generated_Source\PSoC5/USBFS.c ****             USBFS_ARB_EP_BASE.arbEp[epNumber].epCfg |=  (uint8)  USBFS_ARB_EPX_CFG_DMA_REQ;
 1621              		.loc 1 1719 0
 1622 00b2 1449     		ldr	r1, .L87+8
 1623 00b4 FB79     		ldrb	r3, [r7, #7]	@ zero_extendqisi2
 1624 00b6 1348     		ldr	r0, .L87+8
 1625 00b8 FA79     		ldrb	r2, [r7, #7]	@ zero_extendqisi2
 1626 00ba 1201     		lsls	r2, r2, #4
 1627 00bc 0244     		add	r2, r2, r0
 1628 00be 1278     		ldrb	r2, [r2]
 1629 00c0 D2B2     		uxtb	r2, r2
 1630 00c2 42F00202 		orr	r2, r2, #2
 1631 00c6 D2B2     		uxtb	r2, r2
 1632 00c8 1B01     		lsls	r3, r3, #4
 1633 00ca 0B44     		add	r3, r3, r1
 1634 00cc 1A70     		strb	r2, [r3]
1720:Generated_Source\PSoC5/USBFS.c ****             USBFS_ARB_EP_BASE.arbEp[epNumber].epCfg &=  (uint8) ~USBFS_ARB_EPX_CFG_DMA_REQ;
 1635              		.loc 1 1720 0
 1636 00ce 0D49     		ldr	r1, .L87+8
ARM GAS  C:\Users\CALEBC~1\AppData\Local\Temp\ccUZyw0h.s 			page 60


 1637 00d0 FB79     		ldrb	r3, [r7, #7]	@ zero_extendqisi2
 1638 00d2 0C48     		ldr	r0, .L87+8
 1639 00d4 FA79     		ldrb	r2, [r7, #7]	@ zero_extendqisi2
 1640 00d6 1201     		lsls	r2, r2, #4
 1641 00d8 0244     		add	r2, r2, r0
 1642 00da 1278     		ldrb	r2, [r2]
 1643 00dc D2B2     		uxtb	r2, r2
 1644 00de 22F00202 		bic	r2, r2, #2
 1645 00e2 D2B2     		uxtb	r2, r2
 1646 00e4 1B01     		lsls	r3, r3, #4
 1647 00e6 0B44     		add	r3, r3, r1
 1648 00e8 1A70     		strb	r2, [r3]
 1649 00ea 01E0     		b	.L85
 1650              	.L81:
1721:Generated_Source\PSoC5/USBFS.c **** 
1722:Generated_Source\PSoC5/USBFS.c ****             /* OUT endpoint has to be armed again by user when DMA transfers have been completed.
1723:Generated_Source\PSoC5/USBFS.c ****             * NO_EVENT_PENDING: notifies that data has been copied from endpoint buffer.
1724:Generated_Source\PSoC5/USBFS.c ****             */
1725:Generated_Source\PSoC5/USBFS.c **** 
1726:Generated_Source\PSoC5/USBFS.c ****         #endif /* (USBFS_EP_MANAGEMENT_DMA_MANUAL) */
1727:Generated_Source\PSoC5/USBFS.c **** 
1728:Generated_Source\PSoC5/USBFS.c ****         #if (USBFS_EP_MANAGEMENT_DMA_AUTO)
1729:Generated_Source\PSoC5/USBFS.c ****         #if (CY_PSOC4)
1730:Generated_Source\PSoC5/USBFS.c ****         {
1731:Generated_Source\PSoC5/USBFS.c ****             uint32 channelNum = (uint32) USBFS_DmaChan[epNumber];
1732:Generated_Source\PSoC5/USBFS.c ****             uint32 lengthDescr0, lengthDescr1;
1733:Generated_Source\PSoC5/USBFS.c **** 
1734:Generated_Source\PSoC5/USBFS.c ****             /* Get number of full bursts. */
1735:Generated_Source\PSoC5/USBFS.c ****             USBFS_DmaEpBurstCnt[epNumber] = (uint8) (length / USBFS_DMA_BYTES_PER_BURST);
1736:Generated_Source\PSoC5/USBFS.c **** 
1737:Generated_Source\PSoC5/USBFS.c ****             /* Get number of elements in the last burst. */
1738:Generated_Source\PSoC5/USBFS.c ****             USBFS_DmaEpLastBurstEl[epNumber] = (uint8) (length % USBFS_DMA_BYTES_PER_BURST);
1739:Generated_Source\PSoC5/USBFS.c **** 
1740:Generated_Source\PSoC5/USBFS.c ****             /* Get total number of bursts. */
1741:Generated_Source\PSoC5/USBFS.c ****             USBFS_DmaEpBurstCnt[epNumber] += (0u != USBFS_DmaEpLastBurstEl[epNumber]) ? 1u : 0u;
1742:Generated_Source\PSoC5/USBFS.c **** 
1743:Generated_Source\PSoC5/USBFS.c ****             /* Adjust number of the data elements transfered in last burst. */
1744:Generated_Source\PSoC5/USBFS.c ****             USBFS_DmaEpLastBurstEl[epNumber] = (0u != USBFS_DmaEpLastBurstEl[epNumber]) ?
1745:Generated_Source\PSoC5/USBFS.c ****                                                                   (USBFS_DmaEpLastBurstEl[epNumber]
1746:Generated_Source\PSoC5/USBFS.c ****                                                                   (USBFS_DMA_BYTES_PER_BURST - 1u);
1747:Generated_Source\PSoC5/USBFS.c **** 
1748:Generated_Source\PSoC5/USBFS.c ****             /* Get number of data elements to transfer for descriptor 0 and 1. */
1749:Generated_Source\PSoC5/USBFS.c ****             lengthDescr0 = (1u == USBFS_DmaEpBurstCnt[epNumber]) ? USBFS_DmaEpLastBurstEl[epNumber]
1750:Generated_Source\PSoC5/USBFS.c ****             lengthDescr1 = (2u == USBFS_DmaEpBurstCnt[epNumber]) ? USBFS_DmaEpLastBurstEl[epNumber]
1751:Generated_Source\PSoC5/USBFS.c **** 
1752:Generated_Source\PSoC5/USBFS.c ****             /* Mark if revert number of data elements in descriptor after transfer completion. */
1753:Generated_Source\PSoC5/USBFS.c ****             USBFS_DmaEpLastBurstEl[epNumber] |= (USBFS_DmaEpBurstCnt[epNumber] > 2u) ? USBFS_DMA_DE
1754:Generated_Source\PSoC5/USBFS.c **** 
1755:Generated_Source\PSoC5/USBFS.c ****             /* Mark last descriptor to be executed. */
1756:Generated_Source\PSoC5/USBFS.c ****             USBFS_DmaEpLastBurstEl[epNumber] |= (0u != (USBFS_DmaEpBurstCnt[epNumber] & 0x1u)) ?
1757:Generated_Source\PSoC5/USBFS.c ****                                                                     USBFS_DMA_DESCR0_MASK : USBFS_D
1758:Generated_Source\PSoC5/USBFS.c **** 
1759:Generated_Source\PSoC5/USBFS.c ****             /* Store address of buffer and burst counter for endpoint. */
1760:Generated_Source\PSoC5/USBFS.c ****             USBFS_DmaEpBufferAddrBackup[epNumber] = (uint32) pData;
1761:Generated_Source\PSoC5/USBFS.c ****             USBFS_DmaEpBurstCntBackup[epNumber]   = USBFS_DmaEpBurstCnt[epNumber];
1762:Generated_Source\PSoC5/USBFS.c **** 
1763:Generated_Source\PSoC5/USBFS.c ****             /* Adjust burst counter taking to account: 2 valid descriptors and interrupt trigger af
ARM GAS  C:\Users\CALEBC~1\AppData\Local\Temp\ccUZyw0h.s 			page 61


1764:Generated_Source\PSoC5/USBFS.c ****             USBFS_DmaEpBurstCnt[epNumber] = USBFS_DMA_GET_BURST_CNT(USBFS_DmaEpBurstCnt[epNumber]);
1765:Generated_Source\PSoC5/USBFS.c **** 
1766:Generated_Source\PSoC5/USBFS.c ****             /* Disable DMA channel: start configuration. */
1767:Generated_Source\PSoC5/USBFS.c ****             USBFS_CyDmaChDisable(channelNum);
1768:Generated_Source\PSoC5/USBFS.c **** 
1769:Generated_Source\PSoC5/USBFS.c ****             /* Set destination address. */
1770:Generated_Source\PSoC5/USBFS.c ****             USBFS_CyDmaSetSrcAddress(channelNum, USBFS_DMA_DESCR0, (void*) &USBFS_ARB_EP_BASE.arbEp
1771:Generated_Source\PSoC5/USBFS.c ****             USBFS_CyDmaSetSrcAddress(channelNum, USBFS_DMA_DESCR1, (void*) &USBFS_ARB_EP_BASE.arbEp
1772:Generated_Source\PSoC5/USBFS.c **** 
1773:Generated_Source\PSoC5/USBFS.c ****             USBFS_CyDmaSetDstAddress(channelNum, USBFS_DMA_DESCR0, (void*) ((uint32) pData));
1774:Generated_Source\PSoC5/USBFS.c ****             USBFS_CyDmaSetDstAddress(channelNum, USBFS_DMA_DESCR1, (void*) ((uint32) pData + USBFS_
1775:Generated_Source\PSoC5/USBFS.c **** 
1776:Generated_Source\PSoC5/USBFS.c ****             /* Configure DMA descriptor. */
1777:Generated_Source\PSoC5/USBFS.c ****             USBFS_CyDmaSetConfiguration(channelNum, USBFS_DMA_DESCR0, USBFS_DMA_COMMON_CFG  | lengt
1778:Generated_Source\PSoC5/USBFS.c ****                                                     CYDMA_BYTE | CYDMA_WORD_ELEMENT | CYDMA_INC_DST
1779:Generated_Source\PSoC5/USBFS.c **** 
1780:Generated_Source\PSoC5/USBFS.c ****             /* Configure DMA descriptor. */
1781:Generated_Source\PSoC5/USBFS.c ****             USBFS_CyDmaSetConfiguration(channelNum, USBFS_DMA_DESCR1, USBFS_DMA_COMMON_CFG  | lengt
1782:Generated_Source\PSoC5/USBFS.c ****                                                     CYDMA_BYTE | CYDMA_WORD_ELEMENT | CYDMA_INC_DST
1783:Generated_Source\PSoC5/USBFS.c **** 
1784:Generated_Source\PSoC5/USBFS.c ****             /* Enable interrupt from DMA channel. */
1785:Generated_Source\PSoC5/USBFS.c ****             USBFS_CyDmaSetInterruptMask(channelNum);
1786:Generated_Source\PSoC5/USBFS.c **** 
1787:Generated_Source\PSoC5/USBFS.c ****             /* Validate DMA descriptor 0 and 1. */
1788:Generated_Source\PSoC5/USBFS.c ****             USBFS_CyDmaValidateDescriptor(channelNum, USBFS_DMA_DESCR0);
1789:Generated_Source\PSoC5/USBFS.c **** 
1790:Generated_Source\PSoC5/USBFS.c ****             if (USBFS_DmaEpBurstCntBackup[epNumber] > 1u)
1791:Generated_Source\PSoC5/USBFS.c ****             {
1792:Generated_Source\PSoC5/USBFS.c ****                 USBFS_CyDmaValidateDescriptor(channelNum, USBFS_DMA_DESCR1);
1793:Generated_Source\PSoC5/USBFS.c ****             }
1794:Generated_Source\PSoC5/USBFS.c **** 
1795:Generated_Source\PSoC5/USBFS.c ****             /* Enable DMA channel: configuration complete. */
1796:Generated_Source\PSoC5/USBFS.c ****             USBFS_CyDmaChEnable(channelNum);
1797:Generated_Source\PSoC5/USBFS.c ****         }
1798:Generated_Source\PSoC5/USBFS.c ****         #else
1799:Generated_Source\PSoC5/USBFS.c ****             (void) CyDmaChDisable(USBFS_DmaChan[epNumber]);
1800:Generated_Source\PSoC5/USBFS.c ****             (void) CyDmaTdSetConfiguration(USBFS_DmaTd[epNumber], length,  USBFS_DmaTd[epNumber], T
1801:Generated_Source\PSoC5/USBFS.c ****             (void) CyDmaTdSetAddress(USBFS_DmaTd[epNumber], LO16((uint32) &USBFS_ARB_EP_BASE.arbEp[
1802:Generated_Source\PSoC5/USBFS.c **** 
1803:Generated_Source\PSoC5/USBFS.c ****             /* Clear Any potential pending DMA requests before starting DMA channel to transfer dat
1804:Generated_Source\PSoC5/USBFS.c ****             (void) CyDmaClearPendingDrq(USBFS_DmaChan[epNumber]);
1805:Generated_Source\PSoC5/USBFS.c **** 
1806:Generated_Source\PSoC5/USBFS.c ****             /* Enable DMA channel. */
1807:Generated_Source\PSoC5/USBFS.c ****             (void) CyDmaChSetInitialTd(USBFS_DmaChan[epNumber], USBFS_DmaTd[epNumber]);
1808:Generated_Source\PSoC5/USBFS.c ****             (void) CyDmaChEnable(USBFS_DmaChan[epNumber], 1u);
1809:Generated_Source\PSoC5/USBFS.c ****         #endif /* (CY_PSOC4) */
1810:Generated_Source\PSoC5/USBFS.c **** 
1811:Generated_Source\PSoC5/USBFS.c ****             /* OUT endpoint has to be armed again by user when DMA transfers have been completed.
1812:Generated_Source\PSoC5/USBFS.c ****             * NO_EVENT_PENDING: notifies that data has been copied from endpoint buffer.
1813:Generated_Source\PSoC5/USBFS.c ****             */
1814:Generated_Source\PSoC5/USBFS.c **** 
1815:Generated_Source\PSoC5/USBFS.c ****         #endif /* (USBFS_EP_MANAGEMENT_DMA_AUTO) */
1816:Generated_Source\PSoC5/USBFS.c ****     #endif /* (USBFS_EP_MANAGEMENT_MANUAL) */
1817:Generated_Source\PSoC5/USBFS.c ****     }
1818:Generated_Source\PSoC5/USBFS.c ****     else
1819:Generated_Source\PSoC5/USBFS.c ****     {
1820:Generated_Source\PSoC5/USBFS.c ****         length = 0u;
ARM GAS  C:\Users\CALEBC~1\AppData\Local\Temp\ccUZyw0h.s 			page 62


 1651              		.loc 1 1820 0
 1652 00ec 0023     		movs	r3, #0
 1653 00ee BB80     		strh	r3, [r7, #4]	@ movhi
 1654              	.L85:
1821:Generated_Source\PSoC5/USBFS.c ****     }
1822:Generated_Source\PSoC5/USBFS.c **** 
1823:Generated_Source\PSoC5/USBFS.c ****     return (length);
 1655              		.loc 1 1823 0
 1656 00f0 BB88     		ldrh	r3, [r7, #4]
1824:Generated_Source\PSoC5/USBFS.c **** }
 1657              		.loc 1 1824 0
 1658 00f2 1846     		mov	r0, r3
 1659 00f4 0837     		adds	r7, r7, #8
 1660              		.cfi_def_cfa_offset 8
 1661 00f6 BD46     		mov	sp, r7
 1662              		.cfi_def_cfa_register 13
 1663              		@ sp needed
 1664 00f8 80BD     		pop	{r7, pc}
 1665              	.L88:
 1666 00fa 00BF     		.align	2
 1667              	.L87:
 1668 00fc 00000000 		.word	USBFS_DmaTd
 1669 0100 00000000 		.word	USBFS_DmaChan
 1670 0104 70600040 		.word	1073766512
 1671              		.cfi_endproc
 1672              	.LFE14:
 1673              		.size	USBFS_ReadOutEP, .-USBFS_ReadOutEP
 1674              		.section	.text.USBFS_EnableOutEP,"ax",%progbits
 1675              		.align	2
 1676              		.global	USBFS_EnableOutEP
 1677              		.thumb
 1678              		.thumb_func
 1679              		.type	USBFS_EnableOutEP, %function
 1680              	USBFS_EnableOutEP:
 1681              	.LFB15:
1825:Generated_Source\PSoC5/USBFS.c **** 
1826:Generated_Source\PSoC5/USBFS.c **** 
1827:Generated_Source\PSoC5/USBFS.c **** #if (USBFS_16BITS_EP_ACCESS_ENABLE)
1828:Generated_Source\PSoC5/USBFS.c **** /*******************************************************************************
1829:Generated_Source\PSoC5/USBFS.c **** * Function Name: USBFS_LoadInEP16
1830:Generated_Source\PSoC5/USBFS.c **** ****************************************************************************//**
1831:Generated_Source\PSoC5/USBFS.c **** *
1832:Generated_Source\PSoC5/USBFS.c **** *  This function performs different functionality depending on the Component’s
1833:Generated_Source\PSoC5/USBFS.c **** *  configured Endpoint Buffer Management. This parameter is defined in
1834:Generated_Source\PSoC5/USBFS.c **** *  the Descriptor Root in Component Configure window.
1835:Generated_Source\PSoC5/USBFS.c **** *
1836:Generated_Source\PSoC5/USBFS.c **** *  *Manual (Static/Dynamic Allocation):*
1837:Generated_Source\PSoC5/USBFS.c **** *  This function loads and enables the specified USB data endpoint for an IN
1838:Generated_Source\PSoC5/USBFS.c **** *  data transfer.
1839:Generated_Source\PSoC5/USBFS.c **** *
1840:Generated_Source\PSoC5/USBFS.c **** *  *DMA with Manual Buffer Management:*
1841:Generated_Source\PSoC5/USBFS.c **** *  Configures DMA for a data transfer from system RAM to endpoint buffer.
1842:Generated_Source\PSoC5/USBFS.c **** *  Generates request for a transfer.
1843:Generated_Source\PSoC5/USBFS.c **** *
1844:Generated_Source\PSoC5/USBFS.c **** *  *DMA with Automatic Buffer Management:*
1845:Generated_Source\PSoC5/USBFS.c **** *  Configures DMA. This is required only once, so it is done only when parameter
1846:Generated_Source\PSoC5/USBFS.c **** *  pData is not NULL. When the pData pointer is NULL, the function skips this
ARM GAS  C:\Users\CALEBC~1\AppData\Local\Temp\ccUZyw0h.s 			page 63


1847:Generated_Source\PSoC5/USBFS.c **** *  task. Sets Data ready status: This generates the first DMA transfer and
1848:Generated_Source\PSoC5/USBFS.c **** *  prepares data in endpoint buffer.
1849:Generated_Source\PSoC5/USBFS.c **** *
1850:Generated_Source\PSoC5/USBFS.c **** *  \param epNumber Contains the data endpoint number.
1851:Generated_Source\PSoC5/USBFS.c **** *        Valid values are between 1 and 8.
1852:Generated_Source\PSoC5/USBFS.c **** *  \param *pData A pointer to a data array from which the data for the endpoint
1853:Generated_Source\PSoC5/USBFS.c **** *        space is loaded. It shall be ensured that this pointer address is even
1854:Generated_Source\PSoC5/USBFS.c **** *        to ensure the 16-bit transfer is aligned to even address. Else, a hard
1855:Generated_Source\PSoC5/USBFS.c **** *        fault condition can occur.
1856:Generated_Source\PSoC5/USBFS.c **** *  \param length The number of bytes to transfer from the array and then send as
1857:Generated_Source\PSoC5/USBFS.c **** *        a result of an IN request. Valid values are between 0 and 512 (1023 for
1858:Generated_Source\PSoC5/USBFS.c **** *        DMA with Automatic Buffer Management mode). The value 512 is applicable
1859:Generated_Source\PSoC5/USBFS.c **** *        if only one endpoint is used.
1860:Generated_Source\PSoC5/USBFS.c **** *
1861:Generated_Source\PSoC5/USBFS.c **** * \reentrant
1862:Generated_Source\PSoC5/USBFS.c **** *  No.
1863:Generated_Source\PSoC5/USBFS.c **** *
1864:Generated_Source\PSoC5/USBFS.c **** *******************************************************************************/
1865:Generated_Source\PSoC5/USBFS.c **** void USBFS_LoadInEP16(uint8 epNumber, const uint8 pData[], uint16 length)
1866:Generated_Source\PSoC5/USBFS.c **** {
1867:Generated_Source\PSoC5/USBFS.c ****     /* Check array alignment on half-word boundary. */
1868:Generated_Source\PSoC5/USBFS.c ****     CYASSERT(0u == (((uint32) pData) & 0x01u));
1869:Generated_Source\PSoC5/USBFS.c **** 
1870:Generated_Source\PSoC5/USBFS.c ****     if ((epNumber > USBFS_EP0) && (epNumber < USBFS_MAX_EP))
1871:Generated_Source\PSoC5/USBFS.c ****     {
1872:Generated_Source\PSoC5/USBFS.c ****     #if (!USBFS_EP_MANAGEMENT_DMA_AUTO)
1873:Generated_Source\PSoC5/USBFS.c ****         /* Limit length to available buffer USB IP buffer size. */
1874:Generated_Source\PSoC5/USBFS.c ****         if (length > (USBFS_EPX_DATA_BUF_MAX - USBFS_EP[epNumber].buffOffset))
1875:Generated_Source\PSoC5/USBFS.c ****         {
1876:Generated_Source\PSoC5/USBFS.c ****             length = USBFS_EPX_DATA_BUF_MAX - USBFS_EP[epNumber].buffOffset;
1877:Generated_Source\PSoC5/USBFS.c ****         }
1878:Generated_Source\PSoC5/USBFS.c ****     #endif /* (!USBFS_EP_MANAGEMENT_DMA_AUTO) */
1879:Generated_Source\PSoC5/USBFS.c **** 
1880:Generated_Source\PSoC5/USBFS.c ****         /* Set count and data toggle. */
1881:Generated_Source\PSoC5/USBFS.c ****         USBFS_SIE_EP_BASE.sieEp[epNumber].epCnt0 = (uint32) HI8(length) | USBFS_EP[epNumber].epTogg
1882:Generated_Source\PSoC5/USBFS.c ****         USBFS_SIE_EP_BASE.sieEp[epNumber].epCnt1 = (uint32) LO8(length);
1883:Generated_Source\PSoC5/USBFS.c **** 
1884:Generated_Source\PSoC5/USBFS.c ****         /* Adjust requested length: 2 bytes are handled at one data register access. */
1885:Generated_Source\PSoC5/USBFS.c ****         length += (length & 0x01u);
1886:Generated_Source\PSoC5/USBFS.c **** 
1887:Generated_Source\PSoC5/USBFS.c ****     #if (USBFS_EP_MANAGEMENT_MANUAL)
1888:Generated_Source\PSoC5/USBFS.c ****         if (NULL != pData)
1889:Generated_Source\PSoC5/USBFS.c ****         {
1890:Generated_Source\PSoC5/USBFS.c ****             /* Convert uint8 array to uint16. */
1891:Generated_Source\PSoC5/USBFS.c ****             const uint16 *dataBuf = (uint16 *) pData;
1892:Generated_Source\PSoC5/USBFS.c **** 
1893:Generated_Source\PSoC5/USBFS.c ****             /* Copy data using 16-bits arbiter data register. */
1894:Generated_Source\PSoC5/USBFS.c ****             uint16 i;
1895:Generated_Source\PSoC5/USBFS.c ****             for (i = 0u; i < (length >> 1u); ++i)
1896:Generated_Source\PSoC5/USBFS.c ****             {
1897:Generated_Source\PSoC5/USBFS.c ****                 USBFS_ARB_EP16_BASE.arbEp[epNumber].rwDr16 = dataBuf[i];
1898:Generated_Source\PSoC5/USBFS.c ****             }
1899:Generated_Source\PSoC5/USBFS.c ****         }
1900:Generated_Source\PSoC5/USBFS.c **** 
1901:Generated_Source\PSoC5/USBFS.c ****         /* IN endpoint buffer is full - read to be read. */
1902:Generated_Source\PSoC5/USBFS.c ****         USBFS_EP[epNumber].apiEpState = USBFS_NO_EVENT_PENDING;
1903:Generated_Source\PSoC5/USBFS.c **** 
ARM GAS  C:\Users\CALEBC~1\AppData\Local\Temp\ccUZyw0h.s 			page 64


1904:Generated_Source\PSoC5/USBFS.c ****         /* Arm IN endpoint. */
1905:Generated_Source\PSoC5/USBFS.c ****         USBFS_SIE_EP_BASE.sieEp[epNumber].epCr0 = USBFS_EP[epNumber].epMode;
1906:Generated_Source\PSoC5/USBFS.c **** 
1907:Generated_Source\PSoC5/USBFS.c ****     #else
1908:Generated_Source\PSoC5/USBFS.c **** 
1909:Generated_Source\PSoC5/USBFS.c ****         #if (USBFS_EP_MANAGEMENT_DMA_MANUAL)
1910:Generated_Source\PSoC5/USBFS.c ****             /* IN endpoint buffer will be fully loaded by DMA shortly. */
1911:Generated_Source\PSoC5/USBFS.c ****             USBFS_EP[epNumber].apiEpState = USBFS_NO_EVENT_PENDING;
1912:Generated_Source\PSoC5/USBFS.c **** 
1913:Generated_Source\PSoC5/USBFS.c ****             if ((pData != NULL) && (length > 0u))
1914:Generated_Source\PSoC5/USBFS.c ****             {
1915:Generated_Source\PSoC5/USBFS.c ****                 uint32 channelNum = (uint32) USBFS_DmaChan[epNumber];
1916:Generated_Source\PSoC5/USBFS.c **** 
1917:Generated_Source\PSoC5/USBFS.c ****                 /* Disable DMA channel: start configuration. */
1918:Generated_Source\PSoC5/USBFS.c ****                 USBFS_CyDmaChDisable(channelNum);
1919:Generated_Source\PSoC5/USBFS.c **** 
1920:Generated_Source\PSoC5/USBFS.c ****                 /* Configure source and destination. */
1921:Generated_Source\PSoC5/USBFS.c ****                 USBFS_CyDmaSetSrcAddress(channelNum, USBFS_DMA_DESCR0, (void*) pData);
1922:Generated_Source\PSoC5/USBFS.c ****                 USBFS_CyDmaSetDstAddress(channelNum, USBFS_DMA_DESCR0, (void*) &USBFS_ARB_EP16_BASE
1923:Generated_Source\PSoC5/USBFS.c **** 
1924:Generated_Source\PSoC5/USBFS.c ****                 /* Configure DMA descriptor. */
1925:Generated_Source\PSoC5/USBFS.c ****                 length = (length >> 1u) - 1u;
1926:Generated_Source\PSoC5/USBFS.c ****                 USBFS_CyDmaSetConfiguration(channelNum, USBFS_DMA_DESCR0, USBFS_DMA_COMMON_CFG | le
1927:Generated_Source\PSoC5/USBFS.c ****                                                         CYDMA_HALFWORD | CYDMA_ELEMENT_WORD | CYDMA
1928:Generated_Source\PSoC5/USBFS.c **** 
1929:Generated_Source\PSoC5/USBFS.c ****                 /* Validate descriptor to execute on following DMA request. */
1930:Generated_Source\PSoC5/USBFS.c ****                 USBFS_CyDmaValidateDescriptor(channelNum, USBFS_DMA_DESCR0);
1931:Generated_Source\PSoC5/USBFS.c **** 
1932:Generated_Source\PSoC5/USBFS.c ****                 /* Enable DMA channel: configuration complete. */
1933:Generated_Source\PSoC5/USBFS.c ****                 USBFS_CyDmaChEnable(channelNum);
1934:Generated_Source\PSoC5/USBFS.c **** 
1935:Generated_Source\PSoC5/USBFS.c ****                 /* Generate DMA request. */
1936:Generated_Source\PSoC5/USBFS.c ****                 USBFS_ARB_EP_BASE.arbEp[epNumber].epCfg |=  (uint32)  USBFS_ARB_EPX_CFG_DMA_REQ;
1937:Generated_Source\PSoC5/USBFS.c ****                 USBFS_ARB_EP_BASE.arbEp[epNumber].epCfg &=  (uint32) ~USBFS_ARB_EPX_CFG_DMA_REQ;
1938:Generated_Source\PSoC5/USBFS.c **** 
1939:Generated_Source\PSoC5/USBFS.c ****                 /* IN endpoint will be armed in ARB_ISR(source: IN_BUF_FULL) after first DMA transf
1940:Generated_Source\PSoC5/USBFS.c ****             }
1941:Generated_Source\PSoC5/USBFS.c ****             else
1942:Generated_Source\PSoC5/USBFS.c ****             {
1943:Generated_Source\PSoC5/USBFS.c ****                 /* When zero-length packet: arm IN endpoint directly. */
1944:Generated_Source\PSoC5/USBFS.c ****                 USBFS_SIE_EP_BASE.sieEp[epNumber].epCr0 = USBFS_EP[epNumber].epMode;
1945:Generated_Source\PSoC5/USBFS.c ****             }
1946:Generated_Source\PSoC5/USBFS.c ****         #endif /* (USBFS_EP_MANAGEMENT_DMA_MANUAL) */
1947:Generated_Source\PSoC5/USBFS.c **** 
1948:Generated_Source\PSoC5/USBFS.c ****         #if (USBFS_EP_MANAGEMENT_DMA_AUTO)
1949:Generated_Source\PSoC5/USBFS.c ****             if (pData != NULL)
1950:Generated_Source\PSoC5/USBFS.c ****             {
1951:Generated_Source\PSoC5/USBFS.c ****                 uint32 channelNum = (uint32) USBFS_DmaChan[epNumber];
1952:Generated_Source\PSoC5/USBFS.c **** 
1953:Generated_Source\PSoC5/USBFS.c ****                 /* Store address of buffer. */
1954:Generated_Source\PSoC5/USBFS.c ****                 USBFS_DmaEpBufferAddrBackup[epNumber] = (uint32) pData;
1955:Generated_Source\PSoC5/USBFS.c **** 
1956:Generated_Source\PSoC5/USBFS.c ****                 /* Disable DMA channel: start configuration. */
1957:Generated_Source\PSoC5/USBFS.c ****                 USBFS_CyDmaChDisable(channelNum);
1958:Generated_Source\PSoC5/USBFS.c **** 
1959:Generated_Source\PSoC5/USBFS.c ****                 /* Set destination address. */
1960:Generated_Source\PSoC5/USBFS.c ****                 USBFS_CyDmaSetDstAddress(channelNum, USBFS_DMA_DESCR0, (void*) &USBFS_ARB_EP16_BASE
ARM GAS  C:\Users\CALEBC~1\AppData\Local\Temp\ccUZyw0h.s 			page 65


1961:Generated_Source\PSoC5/USBFS.c ****                 USBFS_CyDmaSetDstAddress(channelNum, USBFS_DMA_DESCR1, (void*) &USBFS_ARB_EP16_BASE
1962:Generated_Source\PSoC5/USBFS.c **** 
1963:Generated_Source\PSoC5/USBFS.c ****                 /* Configure DMA descriptor. */
1964:Generated_Source\PSoC5/USBFS.c ****                 USBFS_CyDmaSetConfiguration(channelNum, USBFS_DMA_DESCR0, USBFS_DMA_COMMON_CFG  |
1965:Generated_Source\PSoC5/USBFS.c ****                                                         CYDMA_HALFWORD | CYDMA_ELEMENT_WORD | CYDMA
1966:Generated_Source\PSoC5/USBFS.c **** 
1967:Generated_Source\PSoC5/USBFS.c ****                 /* Configure DMA descriptor. */
1968:Generated_Source\PSoC5/USBFS.c ****                 USBFS_CyDmaSetConfiguration(channelNum, USBFS_DMA_DESCR1, USBFS_DMA_COMMON_CFG  |
1969:Generated_Source\PSoC5/USBFS.c ****                                                         CYDMA_HALFWORD | CYDMA_ELEMENT_WORD | CYDMA
1970:Generated_Source\PSoC5/USBFS.c **** 
1971:Generated_Source\PSoC5/USBFS.c ****                 /* Enable interrupt from DMA channel. */
1972:Generated_Source\PSoC5/USBFS.c ****                 USBFS_CyDmaSetInterruptMask(channelNum);
1973:Generated_Source\PSoC5/USBFS.c **** 
1974:Generated_Source\PSoC5/USBFS.c ****                 /* Enable DMA channel: configuration complete. */
1975:Generated_Source\PSoC5/USBFS.c ****                 USBFS_CyDmaChEnable(channelNum);
1976:Generated_Source\PSoC5/USBFS.c ****             }
1977:Generated_Source\PSoC5/USBFS.c ****             else
1978:Generated_Source\PSoC5/USBFS.c ****             {
1979:Generated_Source\PSoC5/USBFS.c ****                 /* IN endpoint buffer (32 bytes) will shortly be preloaded by DMA. */
1980:Generated_Source\PSoC5/USBFS.c ****                 USBFS_EP[epNumber].apiEpState = USBFS_NO_EVENT_PENDING;
1981:Generated_Source\PSoC5/USBFS.c **** 
1982:Generated_Source\PSoC5/USBFS.c ****                 if (length > 0u)
1983:Generated_Source\PSoC5/USBFS.c ****                 {
1984:Generated_Source\PSoC5/USBFS.c ****                     uint32 lengthDescr0, lengthDescr1;
1985:Generated_Source\PSoC5/USBFS.c ****                     uint32 channelNum = (uint32) USBFS_DmaChan[epNumber];
1986:Generated_Source\PSoC5/USBFS.c **** 
1987:Generated_Source\PSoC5/USBFS.c ****                     /* Get number of full bursts. */
1988:Generated_Source\PSoC5/USBFS.c ****                     USBFS_DmaEpBurstCnt[epNumber] = (uint8) (length / USBFS_DMA_BYTES_PER_BURST);
1989:Generated_Source\PSoC5/USBFS.c **** 
1990:Generated_Source\PSoC5/USBFS.c ****                     /* Get number of elements in the last burst. */
1991:Generated_Source\PSoC5/USBFS.c ****                     USBFS_DmaEpLastBurstEl[epNumber] = (uint8) (length % USBFS_DMA_BYTES_PER_BURST)
1992:Generated_Source\PSoC5/USBFS.c **** 
1993:Generated_Source\PSoC5/USBFS.c ****                     /* Get total number of bursts. */
1994:Generated_Source\PSoC5/USBFS.c ****                     USBFS_DmaEpBurstCnt[epNumber] += (0u != USBFS_DmaEpLastBurstEl[epNumber]) ? 1u 
1995:Generated_Source\PSoC5/USBFS.c **** 
1996:Generated_Source\PSoC5/USBFS.c ****                     /* Adjust number of data elements transferred in last burst. */
1997:Generated_Source\PSoC5/USBFS.c ****                     USBFS_DmaEpLastBurstEl[epNumber] = (0u != USBFS_DmaEpLastBurstEl[epNumber]) ?
1998:Generated_Source\PSoC5/USBFS.c ****                                                                           ((USBFS_DmaEpLastBurstEl[
1999:Generated_Source\PSoC5/USBFS.c ****                                                                            (USBFS_DMA_HALFWORDS_PER
2000:Generated_Source\PSoC5/USBFS.c **** 
2001:Generated_Source\PSoC5/USBFS.c ****                     /* Get number of data elements to transfer for descriptor 0 and 1. */
2002:Generated_Source\PSoC5/USBFS.c ****                     lengthDescr0 = (1u == USBFS_DmaEpBurstCnt[epNumber]) ? USBFS_DmaEpLastBurstEl[e
2003:Generated_Source\PSoC5/USBFS.c ****                     lengthDescr1 = (2u == USBFS_DmaEpBurstCnt[epNumber]) ? USBFS_DmaEpLastBurstEl[e
2004:Generated_Source\PSoC5/USBFS.c **** 
2005:Generated_Source\PSoC5/USBFS.c ****                     /* Mark which descriptor is last one to execute. */
2006:Generated_Source\PSoC5/USBFS.c ****                     USBFS_DmaEpLastBurstEl[epNumber] |= (0u != (USBFS_DmaEpBurstCnt[epNumber] & 0x1
2007:Generated_Source\PSoC5/USBFS.c ****                                                                             USBFS_DMA_DESCR0_MASK :
2008:Generated_Source\PSoC5/USBFS.c **** 
2009:Generated_Source\PSoC5/USBFS.c ****                     /* Restore DMA settings for current transfer. */
2010:Generated_Source\PSoC5/USBFS.c ****                     USBFS_CyDmaChDisable(channelNum);
2011:Generated_Source\PSoC5/USBFS.c **** 
2012:Generated_Source\PSoC5/USBFS.c ****                     /* Restore destination address for input endpoint. */
2013:Generated_Source\PSoC5/USBFS.c ****                     USBFS_CyDmaSetSrcAddress(channelNum, USBFS_DMA_DESCR0, (void*) ((uint32) USBFS_
2014:Generated_Source\PSoC5/USBFS.c ****                     USBFS_CyDmaSetSrcAddress(channelNum, USBFS_DMA_DESCR1, (void*) ((uint32) USBFS_
2015:Generated_Source\PSoC5/USBFS.c ****                                                                                                    
2016:Generated_Source\PSoC5/USBFS.c **** 
2017:Generated_Source\PSoC5/USBFS.c ****                     /* Set number of elements to transfer. */
ARM GAS  C:\Users\CALEBC~1\AppData\Local\Temp\ccUZyw0h.s 			page 66


2018:Generated_Source\PSoC5/USBFS.c ****                     USBFS_CyDmaSetNumDataElements(channelNum, USBFS_DMA_DESCR0, lengthDescr0);
2019:Generated_Source\PSoC5/USBFS.c ****                     USBFS_CyDmaSetNumDataElements(channelNum, USBFS_DMA_DESCR1, lengthDescr1);
2020:Generated_Source\PSoC5/USBFS.c **** 
2021:Generated_Source\PSoC5/USBFS.c ****                     /* Validate descriptor 0 and command to start with it. */
2022:Generated_Source\PSoC5/USBFS.c ****                     USBFS_CyDmaValidateDescriptor(channelNum, USBFS_DMA_DESCR0);
2023:Generated_Source\PSoC5/USBFS.c ****                     USBFS_CyDmaSetDescriptor0Next(channelNum);
2024:Generated_Source\PSoC5/USBFS.c **** 
2025:Generated_Source\PSoC5/USBFS.c ****                     /* Validate descriptor 1. */
2026:Generated_Source\PSoC5/USBFS.c ****                     if (USBFS_DmaEpBurstCnt[epNumber] > 1u)
2027:Generated_Source\PSoC5/USBFS.c ****                     {
2028:Generated_Source\PSoC5/USBFS.c ****                         USBFS_CyDmaValidateDescriptor(channelNum, USBFS_DMA_DESCR1);
2029:Generated_Source\PSoC5/USBFS.c ****                     }
2030:Generated_Source\PSoC5/USBFS.c **** 
2031:Generated_Source\PSoC5/USBFS.c ****                     /* Adjust burst counter taking to account: 2 valid descriptors and interrupt tr
2032:Generated_Source\PSoC5/USBFS.c ****                     USBFS_DmaEpBurstCnt[epNumber] = USBFS_DMA_GET_BURST_CNT(USBFS_DmaEpBurstCnt[epN
2033:Generated_Source\PSoC5/USBFS.c **** 
2034:Generated_Source\PSoC5/USBFS.c ****                     /* Enable DMA channel: configuration complete. */
2035:Generated_Source\PSoC5/USBFS.c ****                     USBFS_CyDmaChEnable(channelNum);
2036:Generated_Source\PSoC5/USBFS.c **** 
2037:Generated_Source\PSoC5/USBFS.c ****                 #if !defined (USBFS_MANUAL_IN_EP_ARM)
2038:Generated_Source\PSoC5/USBFS.c ****                     /* Set IN data ready to generate DMA request to load data into endpoint buffer.
2039:Generated_Source\PSoC5/USBFS.c ****                     USBFS_ARB_EP_BASE.arbEp[epNumber].epCfg |= USBFS_ARB_EPX_CFG_IN_DATA_RDY;
2040:Generated_Source\PSoC5/USBFS.c ****                 #endif  /* (USBFS_MANUAL_IN_EP_ARM) */
2041:Generated_Source\PSoC5/USBFS.c **** 
2042:Generated_Source\PSoC5/USBFS.c ****                     /* IN endpoint will be armed in ARB_ISR(source: IN_BUF_FULL) after first DMA tr
2043:Generated_Source\PSoC5/USBFS.c ****                 }
2044:Generated_Source\PSoC5/USBFS.c ****                 else
2045:Generated_Source\PSoC5/USBFS.c ****                 {
2046:Generated_Source\PSoC5/USBFS.c ****                     /* When zero-length packet: arm IN endpoint directly. */
2047:Generated_Source\PSoC5/USBFS.c ****                     USBFS_SIE_EP_BASE.sieEp[epNumber].epCr0 = USBFS_EP[epNumber].epMode;
2048:Generated_Source\PSoC5/USBFS.c ****                 }
2049:Generated_Source\PSoC5/USBFS.c ****             }
2050:Generated_Source\PSoC5/USBFS.c ****         #endif /* (USBFS_EP_MANAGEMENT_DMA_AUTO) */
2051:Generated_Source\PSoC5/USBFS.c ****     #endif /* (USBFS_EP_MANAGEMENT_MANUAL) */
2052:Generated_Source\PSoC5/USBFS.c ****     }
2053:Generated_Source\PSoC5/USBFS.c **** }
2054:Generated_Source\PSoC5/USBFS.c **** 
2055:Generated_Source\PSoC5/USBFS.c **** 
2056:Generated_Source\PSoC5/USBFS.c **** /*******************************************************************************
2057:Generated_Source\PSoC5/USBFS.c **** * Function Name: USBFS_ReadOutEP16
2058:Generated_Source\PSoC5/USBFS.c **** ****************************************************************************//**
2059:Generated_Source\PSoC5/USBFS.c **** *
2060:Generated_Source\PSoC5/USBFS.c **** *   This function performs different functionality depending on the Component’s
2061:Generated_Source\PSoC5/USBFS.c **** *   configured Endpoint Buffer Management. This parameter is defined in the
2062:Generated_Source\PSoC5/USBFS.c **** *   Descriptor Root in Component Configure window.
2063:Generated_Source\PSoC5/USBFS.c **** *
2064:Generated_Source\PSoC5/USBFS.c **** *   *Manual (Static/Dynamic Allocation):*
2065:Generated_Source\PSoC5/USBFS.c **** *   This function moves the specified number of bytes from endpoint buffer to
2066:Generated_Source\PSoC5/USBFS.c **** *   system RAM. The number of bytes actually transferred from endpoint buffer to
2067:Generated_Source\PSoC5/USBFS.c **** *   system RAM is the lesser of the actual number of bytes sent by the host or
2068:Generated_Source\PSoC5/USBFS.c **** *   the number of bytes requested by the length parameter.
2069:Generated_Source\PSoC5/USBFS.c **** *
2070:Generated_Source\PSoC5/USBFS.c **** *   *DMA with Manual Buffer Management:*
2071:Generated_Source\PSoC5/USBFS.c **** *   Configure DMA to transfer data from endpoint buffer to system RAM. Generate
2072:Generated_Source\PSoC5/USBFS.c **** *   a DMA request. The firmware must wait until the DMA completes the data
2073:Generated_Source\PSoC5/USBFS.c **** *   transfer after calling the USBFS_ReadOutEP() API. For example,
2074:Generated_Source\PSoC5/USBFS.c **** *   by checking EPstate:
ARM GAS  C:\Users\CALEBC~1\AppData\Local\Temp\ccUZyw0h.s 			page 67


2075:Generated_Source\PSoC5/USBFS.c **** *
2076:Generated_Source\PSoC5/USBFS.c **** *   \snippet /USBFS_sut_02.cydsn/main.c checking EPstatey
2077:Generated_Source\PSoC5/USBFS.c **** *
2078:Generated_Source\PSoC5/USBFS.c **** *   The USBFS_EnableOutEP() has to be called to allow host to write data into
2079:Generated_Source\PSoC5/USBFS.c **** *   the endpoint buffer after DMA has completed transfer data from OUT endpoint
2080:Generated_Source\PSoC5/USBFS.c **** *   buffer to SRAM.
2081:Generated_Source\PSoC5/USBFS.c **** *
2082:Generated_Source\PSoC5/USBFS.c **** *   *DMA with Automatic Buffer Management:*
2083:Generated_Source\PSoC5/USBFS.c **** *   Configure DMA. This is required only once and automatically generates DMA
2084:Generated_Source\PSoC5/USBFS.c **** *   requests as data arrives
2085:Generated_Source\PSoC5/USBFS.c **** *
2086:Generated_Source\PSoC5/USBFS.c **** *  \param epNumber: Contains the data endpoint number.
2087:Generated_Source\PSoC5/USBFS.c **** *         Valid values are between 1 and 8.
2088:Generated_Source\PSoC5/USBFS.c **** *  \param pData: A pointer to a data array into which the data for the endpoint
2089:Generated_Source\PSoC5/USBFS.c **** *         space is copied. It shall be ensured that this pointer address is
2090:Generated_Source\PSoC5/USBFS.c **** *         even to ensure the 16-bit transfer is aligned to even address. Else,
2091:Generated_Source\PSoC5/USBFS.c **** *         a hard fault condition can occur.
2092:Generated_Source\PSoC5/USBFS.c **** *  \param length: The number of bytes to transfer from the USB Out endpoint and
2093:Generated_Source\PSoC5/USBFS.c **** *         loads it into data array. Valid values are between 0 and 1023. The
2094:Generated_Source\PSoC5/USBFS.c **** *         function moves fewer than the requested number of bytes if the host
2095:Generated_Source\PSoC5/USBFS.c **** *         sends fewer bytes than requested.
2096:Generated_Source\PSoC5/USBFS.c **** *
2097:Generated_Source\PSoC5/USBFS.c **** * \return
2098:Generated_Source\PSoC5/USBFS.c **** *  Number of bytes received, 0 for an invalid endpoint.
2099:Generated_Source\PSoC5/USBFS.c **** *
2100:Generated_Source\PSoC5/USBFS.c **** * \reentrant
2101:Generated_Source\PSoC5/USBFS.c **** *  No.
2102:Generated_Source\PSoC5/USBFS.c **** *
2103:Generated_Source\PSoC5/USBFS.c **** *******************************************************************************/
2104:Generated_Source\PSoC5/USBFS.c **** uint16 USBFS_ReadOutEP16(uint8 epNumber, uint8 pData[], uint16 length)
2105:Generated_Source\PSoC5/USBFS.c **** {
2106:Generated_Source\PSoC5/USBFS.c ****     uint32 adjLength;
2107:Generated_Source\PSoC5/USBFS.c **** 
2108:Generated_Source\PSoC5/USBFS.c ****     /* Check array alignment on half-word boundary */
2109:Generated_Source\PSoC5/USBFS.c ****     CYASSERT(0u == (((uint32) pData) & 0x01u));
2110:Generated_Source\PSoC5/USBFS.c **** 
2111:Generated_Source\PSoC5/USBFS.c ****     if ((pData != NULL) && (epNumber > USBFS_EP0) && (epNumber < USBFS_MAX_EP))
2112:Generated_Source\PSoC5/USBFS.c ****     {
2113:Generated_Source\PSoC5/USBFS.c ****     #if (!USBFS_EP_MANAGEMENT_DMA_AUTO)
2114:Generated_Source\PSoC5/USBFS.c ****         /* Adjust requested length to available data. */
2115:Generated_Source\PSoC5/USBFS.c ****         length = (length > USBFS_GetEPCount(epNumber)) ? USBFS_GetEPCount(epNumber) : length;
2116:Generated_Source\PSoC5/USBFS.c ****     #endif /* (!USBFS_EP_MANAGEMENT_DMA_AUTO) */
2117:Generated_Source\PSoC5/USBFS.c **** 
2118:Generated_Source\PSoC5/USBFS.c ****     /* Adjust requested length: 2 bytes are handled at one data register access. */
2119:Generated_Source\PSoC5/USBFS.c ****     adjLength =  length + ((uint32)length & 1u);
2120:Generated_Source\PSoC5/USBFS.c **** 
2121:Generated_Source\PSoC5/USBFS.c ****     #if (USBFS_EP_MANAGEMENT_MANUAL)
2122:Generated_Source\PSoC5/USBFS.c ****         {
2123:Generated_Source\PSoC5/USBFS.c ****             /* Convert uint8 array to uint16. */
2124:Generated_Source\PSoC5/USBFS.c ****             uint16 *dataBuf = (uint16 *) pData;
2125:Generated_Source\PSoC5/USBFS.c **** 
2126:Generated_Source\PSoC5/USBFS.c ****             /* Copy data using 16-bits arbiter data register. */
2127:Generated_Source\PSoC5/USBFS.c ****             uint16 i;
2128:Generated_Source\PSoC5/USBFS.c ****             for (i = 0u; i < (adjLength >> 1u); ++i)
2129:Generated_Source\PSoC5/USBFS.c ****             {
2130:Generated_Source\PSoC5/USBFS.c ****                 dataBuf[i] = (uint16) USBFS_ARB_EP16_BASE.arbEp[epNumber].rwDr16;
2131:Generated_Source\PSoC5/USBFS.c ****             }
ARM GAS  C:\Users\CALEBC~1\AppData\Local\Temp\ccUZyw0h.s 			page 68


2132:Generated_Source\PSoC5/USBFS.c ****         }
2133:Generated_Source\PSoC5/USBFS.c **** 
2134:Generated_Source\PSoC5/USBFS.c ****         /* Arm OUT endpoint after data has been read from endpoint buffer. */
2135:Generated_Source\PSoC5/USBFS.c ****         USBFS_EnableOutEP(epNumber);
2136:Generated_Source\PSoC5/USBFS.c ****     #else
2137:Generated_Source\PSoC5/USBFS.c **** 
2138:Generated_Source\PSoC5/USBFS.c ****         #if (USBFS_EP_MANAGEMENT_DMA_MANUAL)
2139:Generated_Source\PSoC5/USBFS.c ****         {
2140:Generated_Source\PSoC5/USBFS.c ****             uint32 channelNum = (uint32) USBFS_DmaChan[epNumber];
2141:Generated_Source\PSoC5/USBFS.c **** 
2142:Generated_Source\PSoC5/USBFS.c ****             /* Disable DMA channel: start configuration. */
2143:Generated_Source\PSoC5/USBFS.c ****             USBFS_CyDmaChDisable(channelNum);
2144:Generated_Source\PSoC5/USBFS.c **** 
2145:Generated_Source\PSoC5/USBFS.c ****             /* Configure source and destination. */
2146:Generated_Source\PSoC5/USBFS.c ****             USBFS_CyDmaSetSrcAddress(channelNum, USBFS_DMA_DESCR0, (void*) &USBFS_ARB_EP16_BASE.arb
2147:Generated_Source\PSoC5/USBFS.c ****             USBFS_CyDmaSetDstAddress(channelNum, USBFS_DMA_DESCR0, (void*) pData);
2148:Generated_Source\PSoC5/USBFS.c **** 
2149:Generated_Source\PSoC5/USBFS.c ****             /* Configure DMA descriptor. */
2150:Generated_Source\PSoC5/USBFS.c ****             USBFS_CyDmaSetConfiguration(channelNum, USBFS_DMA_DESCR0, USBFS_DMA_COMMON_CFG | (uint1
2151:Generated_Source\PSoC5/USBFS.c ****                                                     CYDMA_HALFWORD | CYDMA_WORD_ELEMENT | CYDMA_INC
2152:Generated_Source\PSoC5/USBFS.c **** 
2153:Generated_Source\PSoC5/USBFS.c ****             /* Validate descriptor to execute on following DMA request. */
2154:Generated_Source\PSoC5/USBFS.c ****             USBFS_CyDmaValidateDescriptor(channelNum, USBFS_DMA_DESCR0);
2155:Generated_Source\PSoC5/USBFS.c **** 
2156:Generated_Source\PSoC5/USBFS.c ****             /* Enable DMA channel: configuration complete. */
2157:Generated_Source\PSoC5/USBFS.c ****             USBFS_CyDmaChEnable(channelNum);
2158:Generated_Source\PSoC5/USBFS.c **** 
2159:Generated_Source\PSoC5/USBFS.c ****             /* Generate DMA request. */
2160:Generated_Source\PSoC5/USBFS.c ****             USBFS_ARB_EP_BASE.arbEp[epNumber].epCfg |=  (uint32)  USBFS_ARB_EPX_CFG_DMA_REQ;
2161:Generated_Source\PSoC5/USBFS.c ****             USBFS_ARB_EP_BASE.arbEp[epNumber].epCfg &=  (uint32) ~USBFS_ARB_EPX_CFG_DMA_REQ;
2162:Generated_Source\PSoC5/USBFS.c **** 
2163:Generated_Source\PSoC5/USBFS.c ****             /* OUT endpoint has to be armed again by user when DMA transfers have been completed.
2164:Generated_Source\PSoC5/USBFS.c ****             * NO_EVENT_PENDING: notifies that data has been copied from endpoint buffer.
2165:Generated_Source\PSoC5/USBFS.c ****             */
2166:Generated_Source\PSoC5/USBFS.c ****         }
2167:Generated_Source\PSoC5/USBFS.c ****         #endif /* (USBFS_EP_MANAGEMENT_DMA_MANUAL) */
2168:Generated_Source\PSoC5/USBFS.c **** 
2169:Generated_Source\PSoC5/USBFS.c ****         #if (USBFS_EP_MANAGEMENT_DMA_AUTO)
2170:Generated_Source\PSoC5/USBFS.c ****         {
2171:Generated_Source\PSoC5/USBFS.c ****             uint32 lengthDescr0, lengthDescr1;
2172:Generated_Source\PSoC5/USBFS.c ****             uint32 channelNum = (uint32) USBFS_DmaChan[epNumber];
2173:Generated_Source\PSoC5/USBFS.c **** 
2174:Generated_Source\PSoC5/USBFS.c ****             /* Get number of full bursts. */
2175:Generated_Source\PSoC5/USBFS.c ****             USBFS_DmaEpBurstCnt[epNumber] = (uint8) (adjLength / USBFS_DMA_BYTES_PER_BURST);
2176:Generated_Source\PSoC5/USBFS.c **** 
2177:Generated_Source\PSoC5/USBFS.c ****             /* Get number of elements in last burst. */
2178:Generated_Source\PSoC5/USBFS.c ****             USBFS_DmaEpLastBurstEl[epNumber] = (uint8) (adjLength % USBFS_DMA_BYTES_PER_BURST);
2179:Generated_Source\PSoC5/USBFS.c **** 
2180:Generated_Source\PSoC5/USBFS.c ****             /* Get total number of bursts. */
2181:Generated_Source\PSoC5/USBFS.c ****             USBFS_DmaEpBurstCnt[epNumber] += (0u != USBFS_DmaEpLastBurstEl[epNumber]) ? 1u : 0u;
2182:Generated_Source\PSoC5/USBFS.c **** 
2183:Generated_Source\PSoC5/USBFS.c ****             /* Adjust number of data elements transferred in last burst. */
2184:Generated_Source\PSoC5/USBFS.c ****             USBFS_DmaEpLastBurstEl[epNumber] = (0u != USBFS_DmaEpLastBurstEl[epNumber]) ?
2185:Generated_Source\PSoC5/USBFS.c ****                                                                   ((USBFS_DmaEpLastBurstEl[epNumber
2186:Generated_Source\PSoC5/USBFS.c ****                                                                    (USBFS_DMA_HALFWORDS_PER_BURST -
2187:Generated_Source\PSoC5/USBFS.c **** 
2188:Generated_Source\PSoC5/USBFS.c ****             /* Get number of data elements to transfer for descriptor 0 and 1. */
ARM GAS  C:\Users\CALEBC~1\AppData\Local\Temp\ccUZyw0h.s 			page 69


2189:Generated_Source\PSoC5/USBFS.c ****             lengthDescr0 = (1u == USBFS_DmaEpBurstCnt[epNumber]) ? USBFS_DmaEpLastBurstEl[epNumber]
2190:Generated_Source\PSoC5/USBFS.c ****             lengthDescr1 = (2u == USBFS_DmaEpBurstCnt[epNumber]) ? USBFS_DmaEpLastBurstEl[epNumber]
2191:Generated_Source\PSoC5/USBFS.c **** 
2192:Generated_Source\PSoC5/USBFS.c ****             /* Mark last descriptor to be executed. */
2193:Generated_Source\PSoC5/USBFS.c ****             USBFS_DmaEpLastBurstEl[epNumber] |= (0u != (USBFS_DmaEpBurstCnt[epNumber] & 0x1u)) ?
2194:Generated_Source\PSoC5/USBFS.c ****                                                                     USBFS_DMA_DESCR0_MASK : USBFS_D
2195:Generated_Source\PSoC5/USBFS.c **** 
