ARM GAS  C:\Users\CALEBC~1\AppData\Local\Temp\ccxZVyoW.s 			page 1


   1              		.syntax unified
   2              		.cpu cortex-m3
   3              		.fpu softvfp
   4              		.eabi_attribute 20, 1
   5              		.eabi_attribute 21, 1
   6              		.eabi_attribute 23, 3
   7              		.eabi_attribute 24, 1
   8              		.eabi_attribute 25, 1
   9              		.eabi_attribute 26, 1
  10              		.eabi_attribute 30, 6
  11              		.eabi_attribute 34, 1
  12              		.eabi_attribute 18, 4
  13              		.thumb
  14              		.syntax unified
  15              		.file	"USBFS_std.c"
  16              		.text
  17              	.Ltext0:
  18              		.cfi_sections	.debug_frame
  19              		.section	.text.USBFS_HandleStandardRqst,"ax",%progbits
  20              		.align	2
  21              		.global	USBFS_HandleStandardRqst
  22              		.thumb
  23              		.thumb_func
  24              		.type	USBFS_HandleStandardRqst, %function
  25              	USBFS_HandleStandardRqst:
  26              	.LFB0:
  27              		.file 1 "Generated_Source\\PSoC5\\USBFS_std.c"
   1:Generated_Source\PSoC5/USBFS_std.c **** /***************************************************************************//**
   2:Generated_Source\PSoC5/USBFS_std.c **** * \file USBFS_std.c
   3:Generated_Source\PSoC5/USBFS_std.c **** * \version 3.10
   4:Generated_Source\PSoC5/USBFS_std.c **** *
   5:Generated_Source\PSoC5/USBFS_std.c **** * \brief
   6:Generated_Source\PSoC5/USBFS_std.c **** *  This file contains the USB Standard request handler.
   7:Generated_Source\PSoC5/USBFS_std.c **** *
   8:Generated_Source\PSoC5/USBFS_std.c **** ********************************************************************************
   9:Generated_Source\PSoC5/USBFS_std.c **** * \copyright
  10:Generated_Source\PSoC5/USBFS_std.c **** * Copyright 2008-2016, Cypress Semiconductor Corporation.  All rights reserved.
  11:Generated_Source\PSoC5/USBFS_std.c **** * You may use this file only in accordance with the license, terms, conditions,
  12:Generated_Source\PSoC5/USBFS_std.c **** * disclaimers, and limitations in the end user license agreement accompanying
  13:Generated_Source\PSoC5/USBFS_std.c **** * the software package with which this file was provided.
  14:Generated_Source\PSoC5/USBFS_std.c **** *******************************************************************************/
  15:Generated_Source\PSoC5/USBFS_std.c **** 
  16:Generated_Source\PSoC5/USBFS_std.c **** #include "USBFS_pvt.h"
  17:Generated_Source\PSoC5/USBFS_std.c **** 
  18:Generated_Source\PSoC5/USBFS_std.c **** /***************************************
  19:Generated_Source\PSoC5/USBFS_std.c **** *   Static data allocation
  20:Generated_Source\PSoC5/USBFS_std.c **** ***************************************/
  21:Generated_Source\PSoC5/USBFS_std.c **** 
  22:Generated_Source\PSoC5/USBFS_std.c **** #if defined(USBFS_ENABLE_FWSN_STRING)
  23:Generated_Source\PSoC5/USBFS_std.c ****     static volatile uint8* USBFS_fwSerialNumberStringDescriptor;
  24:Generated_Source\PSoC5/USBFS_std.c ****     static volatile uint8  USBFS_snStringConfirm = USBFS_FALSE;
  25:Generated_Source\PSoC5/USBFS_std.c **** #endif  /* (USBFS_ENABLE_FWSN_STRING) */
  26:Generated_Source\PSoC5/USBFS_std.c **** 
  27:Generated_Source\PSoC5/USBFS_std.c **** #if defined(USBFS_ENABLE_FWSN_STRING)
  28:Generated_Source\PSoC5/USBFS_std.c ****     /***************************************************************************
  29:Generated_Source\PSoC5/USBFS_std.c ****     * Function Name: USBFS_SerialNumString
  30:Generated_Source\PSoC5/USBFS_std.c ****     ************************************************************************//**
ARM GAS  C:\Users\CALEBC~1\AppData\Local\Temp\ccxZVyoW.s 			page 2


  31:Generated_Source\PSoC5/USBFS_std.c ****     *
  32:Generated_Source\PSoC5/USBFS_std.c ****     *  This function is available only when the User Call Back option in the 
  33:Generated_Source\PSoC5/USBFS_std.c ****     *  Serial Number String descriptor properties is selected. Application 
  34:Generated_Source\PSoC5/USBFS_std.c ****     *  firmware can provide the source of the USB device serial number string 
  35:Generated_Source\PSoC5/USBFS_std.c ****     *  descriptor during run time. The default string is used if the application 
  36:Generated_Source\PSoC5/USBFS_std.c ****     *  firmware does not use this function or sets the wrong string descriptor.
  37:Generated_Source\PSoC5/USBFS_std.c ****     *
  38:Generated_Source\PSoC5/USBFS_std.c ****     *  \param snString:  Pointer to the user-defined string descriptor. The 
  39:Generated_Source\PSoC5/USBFS_std.c ****     *  string descriptor should meet the Universal Serial Bus Specification 
  40:Generated_Source\PSoC5/USBFS_std.c ****     *  revision 2.0 chapter 9.6.7
  41:Generated_Source\PSoC5/USBFS_std.c ****     *  Offset|Size|Value|Description
  42:Generated_Source\PSoC5/USBFS_std.c ****     *  ------|----|------|---------------------------------
  43:Generated_Source\PSoC5/USBFS_std.c ****     *  0     |1   |N     |Size of this descriptor in bytes
  44:Generated_Source\PSoC5/USBFS_std.c ****     *  1     |1   |0x03  |STRING Descriptor Type
  45:Generated_Source\PSoC5/USBFS_std.c ****     *  2     |N-2 |Number|UNICODE encoded string
  46:Generated_Source\PSoC5/USBFS_std.c ****     *  
  47:Generated_Source\PSoC5/USBFS_std.c ****     * *For example:* uint8 snString[16]={0x0E,0x03,'F',0,'W',0,'S',0,'N',0,'0',0,'1',0};
  48:Generated_Source\PSoC5/USBFS_std.c ****     *
  49:Generated_Source\PSoC5/USBFS_std.c ****     * \reentrant
  50:Generated_Source\PSoC5/USBFS_std.c ****     *  No.
  51:Generated_Source\PSoC5/USBFS_std.c ****     *
  52:Generated_Source\PSoC5/USBFS_std.c ****     ***************************************************************************/
  53:Generated_Source\PSoC5/USBFS_std.c ****     void  USBFS_SerialNumString(uint8 snString[]) 
  54:Generated_Source\PSoC5/USBFS_std.c ****     {
  55:Generated_Source\PSoC5/USBFS_std.c ****         USBFS_snStringConfirm = USBFS_FALSE;
  56:Generated_Source\PSoC5/USBFS_std.c ****         
  57:Generated_Source\PSoC5/USBFS_std.c ****         if (snString != NULL)
  58:Generated_Source\PSoC5/USBFS_std.c ****         {
  59:Generated_Source\PSoC5/USBFS_std.c ****             /* Check descriptor validation */
  60:Generated_Source\PSoC5/USBFS_std.c ****             if ((snString[0u] > 1u) && (snString[1u] == USBFS_DESCR_STRING))
  61:Generated_Source\PSoC5/USBFS_std.c ****             {
  62:Generated_Source\PSoC5/USBFS_std.c ****                 USBFS_fwSerialNumberStringDescriptor = snString;
  63:Generated_Source\PSoC5/USBFS_std.c ****                 USBFS_snStringConfirm = USBFS_TRUE;
  64:Generated_Source\PSoC5/USBFS_std.c ****             }
  65:Generated_Source\PSoC5/USBFS_std.c ****         }
  66:Generated_Source\PSoC5/USBFS_std.c ****     }
  67:Generated_Source\PSoC5/USBFS_std.c **** #endif  /* USBFS_ENABLE_FWSN_STRING */
  68:Generated_Source\PSoC5/USBFS_std.c **** 
  69:Generated_Source\PSoC5/USBFS_std.c **** 
  70:Generated_Source\PSoC5/USBFS_std.c **** /*******************************************************************************
  71:Generated_Source\PSoC5/USBFS_std.c **** * Function Name: USBFS_HandleStandardRqst
  72:Generated_Source\PSoC5/USBFS_std.c **** ****************************************************************************//**
  73:Generated_Source\PSoC5/USBFS_std.c **** *
  74:Generated_Source\PSoC5/USBFS_std.c **** *  This Routine dispatches standard requests
  75:Generated_Source\PSoC5/USBFS_std.c **** *
  76:Generated_Source\PSoC5/USBFS_std.c **** *
  77:Generated_Source\PSoC5/USBFS_std.c **** * \return
  78:Generated_Source\PSoC5/USBFS_std.c **** *  TRUE if request handled.
  79:Generated_Source\PSoC5/USBFS_std.c **** *
  80:Generated_Source\PSoC5/USBFS_std.c **** * \reentrant
  81:Generated_Source\PSoC5/USBFS_std.c **** *  No.
  82:Generated_Source\PSoC5/USBFS_std.c **** *
  83:Generated_Source\PSoC5/USBFS_std.c **** *******************************************************************************/
  84:Generated_Source\PSoC5/USBFS_std.c **** uint8 USBFS_HandleStandardRqst(void) 
  85:Generated_Source\PSoC5/USBFS_std.c **** {
  28              		.loc 1 85 0
  29              		.cfi_startproc
ARM GAS  C:\Users\CALEBC~1\AppData\Local\Temp\ccxZVyoW.s 			page 3


  30              		@ args = 0, pretend = 0, frame = 24
  31              		@ frame_needed = 1, uses_anonymous_args = 0
  32 0000 80B5     		push	{r7, lr}
  33              		.cfi_def_cfa_offset 8
  34              		.cfi_offset 7, -8
  35              		.cfi_offset 14, -4
  36 0002 86B0     		sub	sp, sp, #24
  37              		.cfi_def_cfa_offset 32
  38 0004 00AF     		add	r7, sp, #0
  39              		.cfi_def_cfa_register 7
  86:Generated_Source\PSoC5/USBFS_std.c ****     uint8 requestHandled = USBFS_FALSE;
  40              		.loc 1 86 0
  41 0006 0023     		movs	r3, #0
  42 0008 FB75     		strb	r3, [r7, #23]
  87:Generated_Source\PSoC5/USBFS_std.c ****     uint8 interfaceNumber;
  88:Generated_Source\PSoC5/USBFS_std.c ****     uint8 configurationN;
  89:Generated_Source\PSoC5/USBFS_std.c ****     uint8 bmRequestType = USBFS_bmRequestTypeReg;
  43              		.loc 1 89 0
  44 000a 9D4B     		ldr	r3, .L68
  45 000c 1B78     		ldrb	r3, [r3]
  46 000e FB71     		strb	r3, [r7, #7]
  90:Generated_Source\PSoC5/USBFS_std.c **** 
  91:Generated_Source\PSoC5/USBFS_std.c **** #if defined(USBFS_ENABLE_STRINGS)
  92:Generated_Source\PSoC5/USBFS_std.c ****     volatile uint8 *pStr = 0u;
  47              		.loc 1 92 0
  48 0010 0023     		movs	r3, #0
  49 0012 3B61     		str	r3, [r7, #16]
  93:Generated_Source\PSoC5/USBFS_std.c ****     #if defined(USBFS_ENABLE_DESCRIPTOR_STRINGS)
  94:Generated_Source\PSoC5/USBFS_std.c ****         uint8 nStr;
  95:Generated_Source\PSoC5/USBFS_std.c ****         uint8 descrLength;
  96:Generated_Source\PSoC5/USBFS_std.c ****     #endif /* (USBFS_ENABLE_DESCRIPTOR_STRINGS) */
  97:Generated_Source\PSoC5/USBFS_std.c **** #endif /* (USBFS_ENABLE_STRINGS) */
  98:Generated_Source\PSoC5/USBFS_std.c ****     
  99:Generated_Source\PSoC5/USBFS_std.c ****     static volatile uint8 USBFS_tBuffer[USBFS_STATUS_LENGTH_MAX];
 100:Generated_Source\PSoC5/USBFS_std.c ****     const T_USBFS_LUT CYCODE *pTmp;
 101:Generated_Source\PSoC5/USBFS_std.c **** 
 102:Generated_Source\PSoC5/USBFS_std.c ****     USBFS_currentTD.count = 0u;
  50              		.loc 1 102 0
  51 0014 9B4B     		ldr	r3, .L68+4
  52 0016 0022     		movs	r2, #0
  53 0018 1A80     		strh	r2, [r3]	@ movhi
 103:Generated_Source\PSoC5/USBFS_std.c **** 
 104:Generated_Source\PSoC5/USBFS_std.c ****     if (USBFS_RQST_DIR_D2H == (bmRequestType & USBFS_RQST_DIR_MASK))
  54              		.loc 1 104 0
  55 001a 97F90730 		ldrsb	r3, [r7, #7]
  56 001e 002B     		cmp	r3, #0
  57 0020 80F20481 		bge	.L2
 105:Generated_Source\PSoC5/USBFS_std.c ****     {
 106:Generated_Source\PSoC5/USBFS_std.c ****         /* Control Read */
 107:Generated_Source\PSoC5/USBFS_std.c ****         switch (USBFS_bRequestReg)
  58              		.loc 1 107 0
  59 0024 964B     		ldr	r3, .L68
  60 0026 5B78     		ldrb	r3, [r3, #1]
  61 0028 DBB2     		uxtb	r3, r3
  62 002a 0A2B     		cmp	r3, #10
  63 002c 00F21B82 		bhi	.L57
  64 0030 01A2     		adr	r2, .L5
ARM GAS  C:\Users\CALEBC~1\AppData\Local\Temp\ccxZVyoW.s 			page 4


  65 0032 52F823F0 		ldr	pc, [r2, r3, lsl #2]
  66 0036 00BF     		.p2align 2
  67              	.L5:
  68 0038 83010000 		.word	.L4+1
  69 003c 67040000 		.word	.L57+1
  70 0040 67040000 		.word	.L57+1
  71 0044 67040000 		.word	.L57+1
  72 0048 67040000 		.word	.L57+1
  73 004c 67040000 		.word	.L57+1
  74 0050 65000000 		.word	.L6+1
  75 0054 67040000 		.word	.L57+1
  76 0058 F7010000 		.word	.L7+1
  77 005c 67040000 		.word	.L57+1
  78 0060 0D020000 		.word	.L8+1
  79              		.p2align 1
  80              	.L6:
 108:Generated_Source\PSoC5/USBFS_std.c ****         {
 109:Generated_Source\PSoC5/USBFS_std.c ****             case USBFS_GET_DESCRIPTOR:
 110:Generated_Source\PSoC5/USBFS_std.c ****                 if (USBFS_DESCR_DEVICE ==USBFS_wValueHiReg)
  81              		.loc 1 110 0
  82 0064 864B     		ldr	r3, .L68
  83 0066 DB78     		ldrb	r3, [r3, #3]
  84 0068 DBB2     		uxtb	r3, r3
  85 006a 012B     		cmp	r3, #1
  86 006c 0ED1     		bne	.L9
 111:Generated_Source\PSoC5/USBFS_std.c ****                 {
 112:Generated_Source\PSoC5/USBFS_std.c ****                     pTmp = USBFS_GetDeviceTablePtr();
  87              		.loc 1 112 0
  88 006e FFF7FEFF 		bl	USBFS_GetDeviceTablePtr
  89 0072 B860     		str	r0, [r7, #8]
 113:Generated_Source\PSoC5/USBFS_std.c ****                     USBFS_currentTD.pData = (volatile uint8 *)pTmp->p_list;
  90              		.loc 1 113 0
  91 0074 BB68     		ldr	r3, [r7, #8]
  92 0076 5B68     		ldr	r3, [r3, #4]
  93 0078 824A     		ldr	r2, .L68+4
  94 007a 5360     		str	r3, [r2, #4]
 114:Generated_Source\PSoC5/USBFS_std.c ****                     USBFS_currentTD.count = USBFS_DEVICE_DESCR_LENGTH;
  95              		.loc 1 114 0
  96 007c 814B     		ldr	r3, .L68+4
  97 007e 1222     		movs	r2, #18
  98 0080 1A80     		strh	r2, [r3]	@ movhi
 115:Generated_Source\PSoC5/USBFS_std.c ****                     
 116:Generated_Source\PSoC5/USBFS_std.c ****                     requestHandled  = USBFS_InitControlRead();
  99              		.loc 1 116 0
 100 0082 FFF7FEFF 		bl	USBFS_InitControlRead
 101 0086 0346     		mov	r3, r0
 102 0088 FB75     		strb	r3, [r7, #23]
 117:Generated_Source\PSoC5/USBFS_std.c ****                 }
 118:Generated_Source\PSoC5/USBFS_std.c ****                 else if (USBFS_DESCR_CONFIG == USBFS_wValueHiReg)
 119:Generated_Source\PSoC5/USBFS_std.c ****                 {
 120:Generated_Source\PSoC5/USBFS_std.c ****                     pTmp = USBFS_GetConfigTablePtr((uint8) USBFS_wValueLoReg);
 121:Generated_Source\PSoC5/USBFS_std.c ****                     
 122:Generated_Source\PSoC5/USBFS_std.c ****                     /* Verify that requested descriptor exists */
 123:Generated_Source\PSoC5/USBFS_std.c ****                     if (pTmp != NULL)
 124:Generated_Source\PSoC5/USBFS_std.c ****                     {
 125:Generated_Source\PSoC5/USBFS_std.c ****                         USBFS_currentTD.pData = (volatile uint8 *)pTmp->p_list;
 126:Generated_Source\PSoC5/USBFS_std.c ****                         USBFS_currentTD.count = (uint16)((uint16)(USBFS_currentTD.pData)[USBFS_CONF
ARM GAS  C:\Users\CALEBC~1\AppData\Local\Temp\ccxZVyoW.s 			page 5


 127:Generated_Source\PSoC5/USBFS_std.c ****                                                                             (USBFS_currentTD.pData)
 128:Generated_Source\PSoC5/USBFS_std.c ****                         requestHandled  = USBFS_InitControlRead();
 129:Generated_Source\PSoC5/USBFS_std.c ****                     }
 130:Generated_Source\PSoC5/USBFS_std.c ****                 }
 131:Generated_Source\PSoC5/USBFS_std.c ****                 
 132:Generated_Source\PSoC5/USBFS_std.c ****             #if(USBFS_BOS_ENABLE)
 133:Generated_Source\PSoC5/USBFS_std.c ****                 else if (USBFS_DESCR_BOS == USBFS_wValueHiReg)
 134:Generated_Source\PSoC5/USBFS_std.c ****                 {
 135:Generated_Source\PSoC5/USBFS_std.c ****                     pTmp = USBFS_GetBOSPtr();
 136:Generated_Source\PSoC5/USBFS_std.c ****                     
 137:Generated_Source\PSoC5/USBFS_std.c ****                     /* Verify that requested descriptor exists */
 138:Generated_Source\PSoC5/USBFS_std.c ****                     if (pTmp != NULL)
 139:Generated_Source\PSoC5/USBFS_std.c ****                     {
 140:Generated_Source\PSoC5/USBFS_std.c ****                         USBFS_currentTD.pData = (volatile uint8 *)pTmp;
 141:Generated_Source\PSoC5/USBFS_std.c ****                         USBFS_currentTD.count = ((uint16)((uint16)(USBFS_currentTD.pData)[USBFS_BOS
 142:Generated_Source\PSoC5/USBFS_std.c ****                                                                              (USBFS_currentTD.pData
 143:Generated_Source\PSoC5/USBFS_std.c ****                         requestHandled  = USBFS_InitControlRead();
 144:Generated_Source\PSoC5/USBFS_std.c ****                     }
 145:Generated_Source\PSoC5/USBFS_std.c ****                 }
 146:Generated_Source\PSoC5/USBFS_std.c ****             #endif /*(USBFS_BOS_ENABLE)*/
 147:Generated_Source\PSoC5/USBFS_std.c ****             
 148:Generated_Source\PSoC5/USBFS_std.c ****             #if defined(USBFS_ENABLE_STRINGS)
 149:Generated_Source\PSoC5/USBFS_std.c ****                 else if (USBFS_DESCR_STRING == USBFS_wValueHiReg)
 150:Generated_Source\PSoC5/USBFS_std.c ****                 {
 151:Generated_Source\PSoC5/USBFS_std.c ****                 /* Descriptor Strings */
 152:Generated_Source\PSoC5/USBFS_std.c ****                 #if defined(USBFS_ENABLE_DESCRIPTOR_STRINGS)
 153:Generated_Source\PSoC5/USBFS_std.c ****                     nStr = 0u;
 154:Generated_Source\PSoC5/USBFS_std.c ****                     pStr = (volatile uint8 *) &USBFS_STRING_DESCRIPTORS[0u];
 155:Generated_Source\PSoC5/USBFS_std.c ****                     
 156:Generated_Source\PSoC5/USBFS_std.c ****                     while ((USBFS_wValueLoReg > nStr) && (*pStr != 0u))
 157:Generated_Source\PSoC5/USBFS_std.c ****                     {
 158:Generated_Source\PSoC5/USBFS_std.c ****                         /* Read descriptor length from 1st byte */
 159:Generated_Source\PSoC5/USBFS_std.c ****                         descrLength = *pStr;
 160:Generated_Source\PSoC5/USBFS_std.c ****                         /* Move to next string descriptor */
 161:Generated_Source\PSoC5/USBFS_std.c ****                         pStr = &pStr[descrLength];
 162:Generated_Source\PSoC5/USBFS_std.c ****                         nStr++;
 163:Generated_Source\PSoC5/USBFS_std.c ****                     }
 164:Generated_Source\PSoC5/USBFS_std.c ****                 #endif /* (USBFS_ENABLE_DESCRIPTOR_STRINGS) */
 165:Generated_Source\PSoC5/USBFS_std.c ****                 
 166:Generated_Source\PSoC5/USBFS_std.c ****                 /* Microsoft OS String */
 167:Generated_Source\PSoC5/USBFS_std.c ****                 #if defined(USBFS_ENABLE_MSOS_STRING)
 168:Generated_Source\PSoC5/USBFS_std.c ****                     if (USBFS_STRING_MSOS == USBFS_wValueLoReg)
 169:Generated_Source\PSoC5/USBFS_std.c ****                     {
 170:Generated_Source\PSoC5/USBFS_std.c ****                         pStr = (volatile uint8 *)& USBFS_MSOS_DESCRIPTOR[0u];
 171:Generated_Source\PSoC5/USBFS_std.c ****                     }
 172:Generated_Source\PSoC5/USBFS_std.c ****                 #endif /* (USBFS_ENABLE_MSOS_STRING) */
 173:Generated_Source\PSoC5/USBFS_std.c ****                 
 174:Generated_Source\PSoC5/USBFS_std.c ****                 /* SN string */
 175:Generated_Source\PSoC5/USBFS_std.c ****                 #if defined(USBFS_ENABLE_SN_STRING)
 176:Generated_Source\PSoC5/USBFS_std.c ****                     if ((USBFS_wValueLoReg != 0u) && 
 177:Generated_Source\PSoC5/USBFS_std.c ****                         (USBFS_wValueLoReg == USBFS_DEVICE0_DESCR[USBFS_DEVICE_DESCR_SN_SHIFT]))
 178:Generated_Source\PSoC5/USBFS_std.c ****                     {
 179:Generated_Source\PSoC5/USBFS_std.c ****                     #if defined(USBFS_ENABLE_IDSN_STRING)
 180:Generated_Source\PSoC5/USBFS_std.c ****                         /* Read DIE ID and generate string descriptor in RAM */
 181:Generated_Source\PSoC5/USBFS_std.c ****                         USBFS_ReadDieID(USBFS_idSerialNumberStringDescriptor);
 182:Generated_Source\PSoC5/USBFS_std.c ****                         pStr = USBFS_idSerialNumberStringDescriptor;
 183:Generated_Source\PSoC5/USBFS_std.c ****                     #elif defined(USBFS_ENABLE_FWSN_STRING)
ARM GAS  C:\Users\CALEBC~1\AppData\Local\Temp\ccxZVyoW.s 			page 6


 184:Generated_Source\PSoC5/USBFS_std.c ****                         
 185:Generated_Source\PSoC5/USBFS_std.c ****                         if(USBFS_snStringConfirm != USBFS_FALSE)
 186:Generated_Source\PSoC5/USBFS_std.c ****                         {
 187:Generated_Source\PSoC5/USBFS_std.c ****                             pStr = USBFS_fwSerialNumberStringDescriptor;
 188:Generated_Source\PSoC5/USBFS_std.c ****                         }
 189:Generated_Source\PSoC5/USBFS_std.c ****                         else
 190:Generated_Source\PSoC5/USBFS_std.c ****                         {
 191:Generated_Source\PSoC5/USBFS_std.c ****                             pStr = (volatile uint8 *)&USBFS_SN_STRING_DESCRIPTOR[0u];
 192:Generated_Source\PSoC5/USBFS_std.c ****                         }
 193:Generated_Source\PSoC5/USBFS_std.c ****                     #else
 194:Generated_Source\PSoC5/USBFS_std.c ****                         pStr = (volatile uint8 *)&USBFS_SN_STRING_DESCRIPTOR[0u];
 195:Generated_Source\PSoC5/USBFS_std.c ****                     #endif  /* (USBFS_ENABLE_IDSN_STRING) */
 196:Generated_Source\PSoC5/USBFS_std.c ****                     }
 197:Generated_Source\PSoC5/USBFS_std.c ****                 #endif /* (USBFS_ENABLE_SN_STRING) */
 198:Generated_Source\PSoC5/USBFS_std.c ****                 
 199:Generated_Source\PSoC5/USBFS_std.c ****                     if (*pStr != 0u)
 200:Generated_Source\PSoC5/USBFS_std.c ****                     {
 201:Generated_Source\PSoC5/USBFS_std.c ****                         USBFS_currentTD.count = *pStr;
 202:Generated_Source\PSoC5/USBFS_std.c ****                         USBFS_currentTD.pData = pStr;
 203:Generated_Source\PSoC5/USBFS_std.c ****                         requestHandled  = USBFS_InitControlRead();
 204:Generated_Source\PSoC5/USBFS_std.c ****                     }
 205:Generated_Source\PSoC5/USBFS_std.c ****                 }
 206:Generated_Source\PSoC5/USBFS_std.c ****             #endif /*  USBFS_ENABLE_STRINGS */
 207:Generated_Source\PSoC5/USBFS_std.c ****                 else
 208:Generated_Source\PSoC5/USBFS_std.c ****                 {
 209:Generated_Source\PSoC5/USBFS_std.c ****                     requestHandled = USBFS_DispatchClassRqst();
 210:Generated_Source\PSoC5/USBFS_std.c ****                 }
 211:Generated_Source\PSoC5/USBFS_std.c ****                 break;
 103              		.loc 1 211 0
 104 008a EEE1     		b	.L58
 105              	.L9:
 118:Generated_Source\PSoC5/USBFS_std.c ****                 {
 106              		.loc 1 118 0
 107 008c 7C4B     		ldr	r3, .L68
 108 008e DB78     		ldrb	r3, [r3, #3]
 109 0090 DBB2     		uxtb	r3, r3
 110 0092 022B     		cmp	r3, #2
 111 0094 25D1     		bne	.L11
 120:Generated_Source\PSoC5/USBFS_std.c ****                     
 112              		.loc 1 120 0
 113 0096 7A4B     		ldr	r3, .L68
 114 0098 9B78     		ldrb	r3, [r3, #2]
 115 009a DBB2     		uxtb	r3, r3
 116 009c 1846     		mov	r0, r3
 117 009e FFF7FEFF 		bl	USBFS_GetConfigTablePtr
 118 00a2 B860     		str	r0, [r7, #8]
 123:Generated_Source\PSoC5/USBFS_std.c ****                     {
 119              		.loc 1 123 0
 120 00a4 BB68     		ldr	r3, [r7, #8]
 121 00a6 002B     		cmp	r3, #0
 122 00a8 00F0DF81 		beq	.L58
 125:Generated_Source\PSoC5/USBFS_std.c ****                         USBFS_currentTD.count = (uint16)((uint16)(USBFS_currentTD.pData)[USBFS_CONF
 123              		.loc 1 125 0
 124 00ac BB68     		ldr	r3, [r7, #8]
 125 00ae 5B68     		ldr	r3, [r3, #4]
 126 00b0 744A     		ldr	r2, .L68+4
 127 00b2 5360     		str	r3, [r2, #4]
ARM GAS  C:\Users\CALEBC~1\AppData\Local\Temp\ccxZVyoW.s 			page 7


 126:Generated_Source\PSoC5/USBFS_std.c ****                                                                             (USBFS_currentTD.pData)
 128              		.loc 1 126 0
 129 00b4 734B     		ldr	r3, .L68+4
 130 00b6 5B68     		ldr	r3, [r3, #4]
 131 00b8 0333     		adds	r3, r3, #3
 132 00ba 1B78     		ldrb	r3, [r3]
 133 00bc DBB2     		uxtb	r3, r3
 134 00be 9BB2     		uxth	r3, r3
 135 00c0 1B02     		lsls	r3, r3, #8
 136 00c2 9AB2     		uxth	r2, r3
 127:Generated_Source\PSoC5/USBFS_std.c ****                         requestHandled  = USBFS_InitControlRead();
 137              		.loc 1 127 0
 138 00c4 6F4B     		ldr	r3, .L68+4
 139 00c6 5B68     		ldr	r3, [r3, #4]
 140 00c8 0233     		adds	r3, r3, #2
 141 00ca 1B78     		ldrb	r3, [r3]
 142 00cc DBB2     		uxtb	r3, r3
 126:Generated_Source\PSoC5/USBFS_std.c ****                                                                             (USBFS_currentTD.pData)
 143              		.loc 1 126 0
 144 00ce 9BB2     		uxth	r3, r3
 145 00d0 1343     		orrs	r3, r3, r2
 146 00d2 9AB2     		uxth	r2, r3
 147 00d4 6B4B     		ldr	r3, .L68+4
 148 00d6 1A80     		strh	r2, [r3]	@ movhi
 128:Generated_Source\PSoC5/USBFS_std.c ****                     }
 149              		.loc 1 128 0
 150 00d8 FFF7FEFF 		bl	USBFS_InitControlRead
 151 00dc 0346     		mov	r3, r0
 152 00de FB75     		strb	r3, [r7, #23]
 153              		.loc 1 211 0
 154 00e0 C3E1     		b	.L58
 155              	.L11:
 149:Generated_Source\PSoC5/USBFS_std.c ****                 {
 156              		.loc 1 149 0
 157 00e2 674B     		ldr	r3, .L68
 158 00e4 DB78     		ldrb	r3, [r3, #3]
 159 00e6 DBB2     		uxtb	r3, r3
 160 00e8 032B     		cmp	r3, #3
 161 00ea 45D1     		bne	.L13
 153:Generated_Source\PSoC5/USBFS_std.c ****                     pStr = (volatile uint8 *) &USBFS_STRING_DESCRIPTORS[0u];
 162              		.loc 1 153 0
 163 00ec 0023     		movs	r3, #0
 164 00ee FB73     		strb	r3, [r7, #15]
 154:Generated_Source\PSoC5/USBFS_std.c ****                     
 165              		.loc 1 154 0
 166 00f0 654B     		ldr	r3, .L68+8
 167 00f2 3B61     		str	r3, [r7, #16]
 156:Generated_Source\PSoC5/USBFS_std.c ****                     {
 168              		.loc 1 156 0
 169 00f4 09E0     		b	.L14
 170              	.L16:
 159:Generated_Source\PSoC5/USBFS_std.c ****                         /* Move to next string descriptor */
 171              		.loc 1 159 0
 172 00f6 3B69     		ldr	r3, [r7, #16]
 173 00f8 1B78     		ldrb	r3, [r3]
 174 00fa BB71     		strb	r3, [r7, #6]
 161:Generated_Source\PSoC5/USBFS_std.c ****                         nStr++;
ARM GAS  C:\Users\CALEBC~1\AppData\Local\Temp\ccxZVyoW.s 			page 8


 175              		.loc 1 161 0
 176 00fc BB79     		ldrb	r3, [r7, #6]	@ zero_extendqisi2
 177 00fe 3A69     		ldr	r2, [r7, #16]
 178 0100 1344     		add	r3, r3, r2
 179 0102 3B61     		str	r3, [r7, #16]
 162:Generated_Source\PSoC5/USBFS_std.c ****                     }
 180              		.loc 1 162 0
 181 0104 FB7B     		ldrb	r3, [r7, #15]	@ zero_extendqisi2
 182 0106 0133     		adds	r3, r3, #1
 183 0108 FB73     		strb	r3, [r7, #15]
 184              	.L14:
 156:Generated_Source\PSoC5/USBFS_std.c ****                     {
 185              		.loc 1 156 0
 186 010a 5D4B     		ldr	r3, .L68
 187 010c 9B78     		ldrb	r3, [r3, #2]
 188 010e DBB2     		uxtb	r3, r3
 189 0110 FA7B     		ldrb	r2, [r7, #15]	@ zero_extendqisi2
 190 0112 9A42     		cmp	r2, r3
 191 0114 04D2     		bcs	.L15
 156:Generated_Source\PSoC5/USBFS_std.c ****                     {
 192              		.loc 1 156 0 is_stmt 0 discriminator 1
 193 0116 3B69     		ldr	r3, [r7, #16]
 194 0118 1B78     		ldrb	r3, [r3]
 195 011a DBB2     		uxtb	r3, r3
 196 011c 002B     		cmp	r3, #0
 197 011e EAD1     		bne	.L16
 198              	.L15:
 168:Generated_Source\PSoC5/USBFS_std.c ****                     {
 199              		.loc 1 168 0 is_stmt 1
 200 0120 574B     		ldr	r3, .L68
 201 0122 9B78     		ldrb	r3, [r3, #2]
 202 0124 DBB2     		uxtb	r3, r3
 203 0126 EE2B     		cmp	r3, #238
 204 0128 01D1     		bne	.L17
 170:Generated_Source\PSoC5/USBFS_std.c ****                     }
 205              		.loc 1 170 0
 206 012a 584B     		ldr	r3, .L68+12
 207 012c 3B61     		str	r3, [r7, #16]
 208              	.L17:
 176:Generated_Source\PSoC5/USBFS_std.c ****                         (USBFS_wValueLoReg == USBFS_DEVICE0_DESCR[USBFS_DEVICE_DESCR_SN_SHIFT]))
 209              		.loc 1 176 0
 210 012e 544B     		ldr	r3, .L68
 211 0130 9B78     		ldrb	r3, [r3, #2]
 212 0132 DBB2     		uxtb	r3, r3
 213 0134 002B     		cmp	r3, #0
 214 0136 0BD0     		beq	.L18
 177:Generated_Source\PSoC5/USBFS_std.c ****                     {
 215              		.loc 1 177 0 discriminator 1
 216 0138 514B     		ldr	r3, .L68
 217 013a 9B78     		ldrb	r3, [r3, #2]
 218 013c DAB2     		uxtb	r2, r3
 219 013e 544B     		ldr	r3, .L68+16
 220 0140 1B7C     		ldrb	r3, [r3, #16]	@ zero_extendqisi2
 176:Generated_Source\PSoC5/USBFS_std.c ****                         (USBFS_wValueLoReg == USBFS_DEVICE0_DESCR[USBFS_DEVICE_DESCR_SN_SHIFT]))
 221              		.loc 1 176 0 discriminator 1
 222 0142 9A42     		cmp	r2, r3
 223 0144 04D1     		bne	.L18
ARM GAS  C:\Users\CALEBC~1\AppData\Local\Temp\ccxZVyoW.s 			page 9


 181:Generated_Source\PSoC5/USBFS_std.c ****                         pStr = USBFS_idSerialNumberStringDescriptor;
 224              		.loc 1 181 0
 225 0146 5348     		ldr	r0, .L68+20
 226 0148 FFF7FEFF 		bl	USBFS_ReadDieID
 182:Generated_Source\PSoC5/USBFS_std.c ****                     #elif defined(USBFS_ENABLE_FWSN_STRING)
 227              		.loc 1 182 0
 228 014c 514B     		ldr	r3, .L68+20
 229 014e 3B61     		str	r3, [r7, #16]
 230              	.L18:
 199:Generated_Source\PSoC5/USBFS_std.c ****                     {
 231              		.loc 1 199 0
 232 0150 3B69     		ldr	r3, [r7, #16]
 233 0152 1B78     		ldrb	r3, [r3]
 234 0154 DBB2     		uxtb	r3, r3
 235 0156 002B     		cmp	r3, #0
 236 0158 00F08781 		beq	.L58
 201:Generated_Source\PSoC5/USBFS_std.c ****                         USBFS_currentTD.pData = pStr;
 237              		.loc 1 201 0
 238 015c 3B69     		ldr	r3, [r7, #16]
 239 015e 1B78     		ldrb	r3, [r3]
 240 0160 DBB2     		uxtb	r3, r3
 241 0162 9AB2     		uxth	r2, r3
 242 0164 474B     		ldr	r3, .L68+4
 243 0166 1A80     		strh	r2, [r3]	@ movhi
 202:Generated_Source\PSoC5/USBFS_std.c ****                         requestHandled  = USBFS_InitControlRead();
 244              		.loc 1 202 0
 245 0168 464A     		ldr	r2, .L68+4
 246 016a 3B69     		ldr	r3, [r7, #16]
 247 016c 5360     		str	r3, [r2, #4]
 203:Generated_Source\PSoC5/USBFS_std.c ****                     }
 248              		.loc 1 203 0
 249 016e FFF7FEFF 		bl	USBFS_InitControlRead
 250 0172 0346     		mov	r3, r0
 251 0174 FB75     		strb	r3, [r7, #23]
 252              		.loc 1 211 0
 253 0176 78E1     		b	.L58
 254              	.L13:
 209:Generated_Source\PSoC5/USBFS_std.c ****                 }
 255              		.loc 1 209 0
 256 0178 FFF7FEFF 		bl	USBFS_DispatchClassRqst
 257 017c 0346     		mov	r3, r0
 258 017e FB75     		strb	r3, [r7, #23]
 259              		.loc 1 211 0
 260 0180 73E1     		b	.L58
 261              	.L4:
 212:Generated_Source\PSoC5/USBFS_std.c ****                 
 213:Generated_Source\PSoC5/USBFS_std.c ****             case USBFS_GET_STATUS:
 214:Generated_Source\PSoC5/USBFS_std.c ****                 switch (bmRequestType & USBFS_RQST_RCPT_MASK)
 262              		.loc 1 214 0
 263 0182 FB79     		ldrb	r3, [r7, #7]	@ zero_extendqisi2
 264 0184 03F00303 		and	r3, r3, #3
 265 0188 002B     		cmp	r3, #0
 266 018a 20D0     		beq	.L22
 267 018c 022B     		cmp	r3, #2
 268 018e 00D0     		beq	.L23
 215:Generated_Source\PSoC5/USBFS_std.c ****                 {
 216:Generated_Source\PSoC5/USBFS_std.c ****                     case USBFS_RQST_RCPT_EP:
ARM GAS  C:\Users\CALEBC~1\AppData\Local\Temp\ccxZVyoW.s 			page 10


 217:Generated_Source\PSoC5/USBFS_std.c ****                         USBFS_currentTD.count = USBFS_EP_STATUS_LENGTH;
 218:Generated_Source\PSoC5/USBFS_std.c ****                         USBFS_tBuffer[0u]     = USBFS_EP[USBFS_wIndexLoReg & USBFS_DIR_UNUSED].hwEp
 219:Generated_Source\PSoC5/USBFS_std.c ****                         USBFS_tBuffer[1u]     = 0u;
 220:Generated_Source\PSoC5/USBFS_std.c ****                         USBFS_currentTD.pData = &USBFS_tBuffer[0u];
 221:Generated_Source\PSoC5/USBFS_std.c ****                         
 222:Generated_Source\PSoC5/USBFS_std.c ****                         requestHandled  = USBFS_InitControlRead();
 223:Generated_Source\PSoC5/USBFS_std.c ****                         break;
 224:Generated_Source\PSoC5/USBFS_std.c ****                     case USBFS_RQST_RCPT_DEV:
 225:Generated_Source\PSoC5/USBFS_std.c ****                         USBFS_currentTD.count = USBFS_DEVICE_STATUS_LENGTH;
 226:Generated_Source\PSoC5/USBFS_std.c ****                         USBFS_tBuffer[0u]     = USBFS_deviceStatus;
 227:Generated_Source\PSoC5/USBFS_std.c ****                         USBFS_tBuffer[1u]     = 0u;
 228:Generated_Source\PSoC5/USBFS_std.c ****                         USBFS_currentTD.pData = &USBFS_tBuffer[0u];
 229:Generated_Source\PSoC5/USBFS_std.c ****                         
 230:Generated_Source\PSoC5/USBFS_std.c ****                         requestHandled  = USBFS_InitControlRead();
 231:Generated_Source\PSoC5/USBFS_std.c ****                         break;
 232:Generated_Source\PSoC5/USBFS_std.c ****                     default:    /* requestHandled is initialized as FALSE by default */
 233:Generated_Source\PSoC5/USBFS_std.c ****                         break;
 269              		.loc 1 233 0
 270 0190 30E0     		b	.L24
 271              	.L23:
 217:Generated_Source\PSoC5/USBFS_std.c ****                         USBFS_tBuffer[0u]     = USBFS_EP[USBFS_wIndexLoReg & USBFS_DIR_UNUSED].hwEp
 272              		.loc 1 217 0
 273 0192 3C4B     		ldr	r3, .L68+4
 274 0194 0222     		movs	r2, #2
 275 0196 1A80     		strh	r2, [r3]	@ movhi
 218:Generated_Source\PSoC5/USBFS_std.c ****                         USBFS_tBuffer[1u]     = 0u;
 276              		.loc 1 218 0
 277 0198 394B     		ldr	r3, .L68
 278 019a 1B79     		ldrb	r3, [r3, #4]
 279 019c DBB2     		uxtb	r3, r3
 280 019e 03F07F02 		and	r2, r3, #127
 281 01a2 3D49     		ldr	r1, .L68+24
 282 01a4 1346     		mov	r3, r2
 283 01a6 5B00     		lsls	r3, r3, #1
 284 01a8 1344     		add	r3, r3, r2
 285 01aa 9B00     		lsls	r3, r3, #2
 286 01ac 0B44     		add	r3, r3, r1
 287 01ae 0233     		adds	r3, r3, #2
 288 01b0 1B78     		ldrb	r3, [r3]
 289 01b2 DAB2     		uxtb	r2, r3
 290 01b4 394B     		ldr	r3, .L68+28
 291 01b6 1A70     		strb	r2, [r3]
 219:Generated_Source\PSoC5/USBFS_std.c ****                         USBFS_currentTD.pData = &USBFS_tBuffer[0u];
 292              		.loc 1 219 0
 293 01b8 384B     		ldr	r3, .L68+28
 294 01ba 0022     		movs	r2, #0
 295 01bc 5A70     		strb	r2, [r3, #1]
 220:Generated_Source\PSoC5/USBFS_std.c ****                         
 296              		.loc 1 220 0
 297 01be 314B     		ldr	r3, .L68+4
 298 01c0 364A     		ldr	r2, .L68+28
 299 01c2 5A60     		str	r2, [r3, #4]
 222:Generated_Source\PSoC5/USBFS_std.c ****                         break;
 300              		.loc 1 222 0
 301 01c4 FFF7FEFF 		bl	USBFS_InitControlRead
 302 01c8 0346     		mov	r3, r0
 303 01ca FB75     		strb	r3, [r7, #23]
ARM GAS  C:\Users\CALEBC~1\AppData\Local\Temp\ccxZVyoW.s 			page 11


 223:Generated_Source\PSoC5/USBFS_std.c ****                     case USBFS_RQST_RCPT_DEV:
 304              		.loc 1 223 0
 305 01cc 12E0     		b	.L24
 306              	.L22:
 225:Generated_Source\PSoC5/USBFS_std.c ****                         USBFS_tBuffer[0u]     = USBFS_deviceStatus;
 307              		.loc 1 225 0
 308 01ce 2D4B     		ldr	r3, .L68+4
 309 01d0 0222     		movs	r2, #2
 310 01d2 1A80     		strh	r2, [r3]	@ movhi
 226:Generated_Source\PSoC5/USBFS_std.c ****                         USBFS_tBuffer[1u]     = 0u;
 311              		.loc 1 226 0
 312 01d4 324B     		ldr	r3, .L68+32
 313 01d6 1B78     		ldrb	r3, [r3]
 314 01d8 DAB2     		uxtb	r2, r3
 315 01da 304B     		ldr	r3, .L68+28
 316 01dc 1A70     		strb	r2, [r3]
 227:Generated_Source\PSoC5/USBFS_std.c ****                         USBFS_currentTD.pData = &USBFS_tBuffer[0u];
 317              		.loc 1 227 0
 318 01de 2F4B     		ldr	r3, .L68+28
 319 01e0 0022     		movs	r2, #0
 320 01e2 5A70     		strb	r2, [r3, #1]
 228:Generated_Source\PSoC5/USBFS_std.c ****                         
 321              		.loc 1 228 0
 322 01e4 274B     		ldr	r3, .L68+4
 323 01e6 2D4A     		ldr	r2, .L68+28
 324 01e8 5A60     		str	r2, [r3, #4]
 230:Generated_Source\PSoC5/USBFS_std.c ****                         break;
 325              		.loc 1 230 0
 326 01ea FFF7FEFF 		bl	USBFS_InitControlRead
 327 01ee 0346     		mov	r3, r0
 328 01f0 FB75     		strb	r3, [r7, #23]
 231:Generated_Source\PSoC5/USBFS_std.c ****                     default:    /* requestHandled is initialized as FALSE by default */
 329              		.loc 1 231 0
 330 01f2 00BF     		nop
 331              	.L24:
 234:Generated_Source\PSoC5/USBFS_std.c ****                 }
 235:Generated_Source\PSoC5/USBFS_std.c ****                 break;
 332              		.loc 1 235 0 discriminator 4
 333 01f4 40E1     		b	.L25
 334              	.L7:
 236:Generated_Source\PSoC5/USBFS_std.c ****                 
 237:Generated_Source\PSoC5/USBFS_std.c ****             case USBFS_GET_CONFIGURATION:
 238:Generated_Source\PSoC5/USBFS_std.c ****                 USBFS_currentTD.count = 1u;
 335              		.loc 1 238 0
 336 01f6 234B     		ldr	r3, .L68+4
 337 01f8 0122     		movs	r2, #1
 338 01fa 1A80     		strh	r2, [r3]	@ movhi
 239:Generated_Source\PSoC5/USBFS_std.c ****                 USBFS_currentTD.pData = (volatile uint8 *) &USBFS_configuration;
 339              		.loc 1 239 0
 340 01fc 214B     		ldr	r3, .L68+4
 341 01fe 294A     		ldr	r2, .L68+36
 342 0200 5A60     		str	r2, [r3, #4]
 240:Generated_Source\PSoC5/USBFS_std.c ****                 requestHandled  = USBFS_InitControlRead();
 343              		.loc 1 240 0
 344 0202 FFF7FEFF 		bl	USBFS_InitControlRead
 345 0206 0346     		mov	r3, r0
 346 0208 FB75     		strb	r3, [r7, #23]
ARM GAS  C:\Users\CALEBC~1\AppData\Local\Temp\ccxZVyoW.s 			page 12


 241:Generated_Source\PSoC5/USBFS_std.c ****                 break;
 347              		.loc 1 241 0
 348 020a 35E1     		b	.L25
 349              	.L8:
 242:Generated_Source\PSoC5/USBFS_std.c ****                 
 243:Generated_Source\PSoC5/USBFS_std.c ****             case USBFS_GET_INTERFACE:
 244:Generated_Source\PSoC5/USBFS_std.c ****                 USBFS_currentTD.count = 1u;
 350              		.loc 1 244 0
 351 020c 1D4B     		ldr	r3, .L68+4
 352 020e 0122     		movs	r2, #1
 353 0210 1A80     		strh	r2, [r3]	@ movhi
 245:Generated_Source\PSoC5/USBFS_std.c ****                 USBFS_currentTD.pData = (volatile uint8 *) &USBFS_interfaceSetting[USBFS_wIndexLoRe
 354              		.loc 1 245 0
 355 0212 1B4B     		ldr	r3, .L68
 356 0214 1B79     		ldrb	r3, [r3, #4]
 357 0216 DBB2     		uxtb	r3, r3
 358 0218 1A46     		mov	r2, r3
 359 021a 234B     		ldr	r3, .L68+40
 360 021c 1344     		add	r3, r3, r2
 361 021e 194A     		ldr	r2, .L68+4
 362 0220 5360     		str	r3, [r2, #4]
 246:Generated_Source\PSoC5/USBFS_std.c ****                 requestHandled  = USBFS_InitControlRead();
 363              		.loc 1 246 0
 364 0222 FFF7FEFF 		bl	USBFS_InitControlRead
 365 0226 0346     		mov	r3, r0
 366 0228 FB75     		strb	r3, [r7, #23]
 247:Generated_Source\PSoC5/USBFS_std.c ****                 break;
 367              		.loc 1 247 0
 368 022a 25E1     		b	.L25
 369              	.L2:
 248:Generated_Source\PSoC5/USBFS_std.c ****                 
 249:Generated_Source\PSoC5/USBFS_std.c ****             default: /* requestHandled is initialized as FALSE by default */
 250:Generated_Source\PSoC5/USBFS_std.c ****                 break;
 251:Generated_Source\PSoC5/USBFS_std.c ****         }
 252:Generated_Source\PSoC5/USBFS_std.c ****     }
 253:Generated_Source\PSoC5/USBFS_std.c ****     else
 254:Generated_Source\PSoC5/USBFS_std.c ****     {
 255:Generated_Source\PSoC5/USBFS_std.c ****         /* Control Write */
 256:Generated_Source\PSoC5/USBFS_std.c ****         switch (USBFS_bRequestReg)
 370              		.loc 1 256 0
 371 022c 144B     		ldr	r3, .L68
 372 022e 5B78     		ldrb	r3, [r3, #1]
 373 0230 DBB2     		uxtb	r3, r3
 374 0232 013B     		subs	r3, r3, #1
 375 0234 0A2B     		cmp	r3, #10
 376 0236 00F21A81 		bhi	.L59
 377 023a 01A2     		adr	r2, .L28
 378 023c 52F823F0 		ldr	pc, [r2, r3, lsl #2]
 379              		.p2align 2
 380              	.L28:
 381 0240 4B030000 		.word	.L27+1
 382 0244 6F040000 		.word	.L59+1
 383 0248 D9030000 		.word	.L29+1
 384 024c 6F040000 		.word	.L59+1
 385 0250 6D020000 		.word	.L30+1
 386 0254 6F040000 		.word	.L59+1
 387 0258 6F040000 		.word	.L59+1
ARM GAS  C:\Users\CALEBC~1\AppData\Local\Temp\ccxZVyoW.s 			page 13


 388 025c 6F040000 		.word	.L59+1
 389 0260 B1020000 		.word	.L31+1
 390 0264 6F040000 		.word	.L59+1
 391 0268 07030000 		.word	.L32+1
 392              		.p2align 1
 393              	.L30:
 257:Generated_Source\PSoC5/USBFS_std.c ****         {
 258:Generated_Source\PSoC5/USBFS_std.c ****             case USBFS_SET_ADDRESS:
 259:Generated_Source\PSoC5/USBFS_std.c ****                 /* Store address to be set in USBFS_NoDataControlStatusStage(). */
 260:Generated_Source\PSoC5/USBFS_std.c ****                 USBFS_deviceAddress = (uint8) USBFS_wValueLoReg;
 394              		.loc 1 260 0
 395 026c 044B     		ldr	r3, .L68
 396 026e 9B78     		ldrb	r3, [r3, #2]
 397 0270 DAB2     		uxtb	r2, r3
 398 0272 0E4B     		ldr	r3, .L68+44
 399 0274 1A70     		strb	r2, [r3]
 261:Generated_Source\PSoC5/USBFS_std.c ****                 requestHandled = USBFS_InitNoDataControlTransfer();
 400              		.loc 1 261 0
 401 0276 FFF7FEFF 		bl	USBFS_InitNoDataControlTransfer
 402 027a 0346     		mov	r3, r0
 403 027c FB75     		strb	r3, [r7, #23]
 262:Generated_Source\PSoC5/USBFS_std.c ****                 break;
 404              		.loc 1 262 0
 405 027e FBE0     		b	.L25
 406              	.L69:
 407              		.align	2
 408              	.L68:
 409 0280 00600040 		.word	1073766400
 410 0284 00000000 		.word	USBFS_currentTD
 411 0288 00000000 		.word	USBFS_STRING_DESCRIPTORS
 412 028c 00000000 		.word	USBFS_MSOS_DESCRIPTOR
 413 0290 00000000 		.word	USBFS_DEVICE0_DESCR
 414 0294 00000000 		.word	USBFS_idSerialNumberStringDescriptor
 415 0298 00000000 		.word	USBFS_EP
 416 029c 00000000 		.word	USBFS_tBuffer.5306
 417 02a0 00000000 		.word	USBFS_deviceStatus
 418 02a4 00000000 		.word	USBFS_configuration
 419 02a8 00000000 		.word	USBFS_interfaceSetting
 420 02ac 00000000 		.word	USBFS_deviceAddress
 421              	.L31:
 263:Generated_Source\PSoC5/USBFS_std.c ****                 
 264:Generated_Source\PSoC5/USBFS_std.c ****             case USBFS_SET_CONFIGURATION:
 265:Generated_Source\PSoC5/USBFS_std.c ****                 configurationN = USBFS_wValueLoReg;
 422              		.loc 1 265 0
 423 02b0 744B     		ldr	r3, .L70
 424 02b2 9B78     		ldrb	r3, [r3, #2]
 425 02b4 7B71     		strb	r3, [r7, #5]
 266:Generated_Source\PSoC5/USBFS_std.c ****                 
 267:Generated_Source\PSoC5/USBFS_std.c ****                 /* Verify that configuration descriptor exists */
 268:Generated_Source\PSoC5/USBFS_std.c ****                 if(configurationN > 0u)
 426              		.loc 1 268 0
 427 02b6 7B79     		ldrb	r3, [r7, #5]	@ zero_extendqisi2
 428 02b8 002B     		cmp	r3, #0
 429 02ba 06D0     		beq	.L33
 269:Generated_Source\PSoC5/USBFS_std.c ****                 {
 270:Generated_Source\PSoC5/USBFS_std.c ****                     pTmp = USBFS_GetConfigTablePtr((uint8) configurationN - 1u);
 430              		.loc 1 270 0
ARM GAS  C:\Users\CALEBC~1\AppData\Local\Temp\ccxZVyoW.s 			page 14


 431 02bc 7B79     		ldrb	r3, [r7, #5]
 432 02be 013B     		subs	r3, r3, #1
 433 02c0 DBB2     		uxtb	r3, r3
 434 02c2 1846     		mov	r0, r3
 435 02c4 FFF7FEFF 		bl	USBFS_GetConfigTablePtr
 436 02c8 B860     		str	r0, [r7, #8]
 437              	.L33:
 271:Generated_Source\PSoC5/USBFS_std.c ****                 }
 272:Generated_Source\PSoC5/USBFS_std.c ****                 
 273:Generated_Source\PSoC5/USBFS_std.c ****                 /* Responds with a Request Error when configuration number is invalid */
 274:Generated_Source\PSoC5/USBFS_std.c ****                 if (((configurationN > 0u) && (pTmp != NULL)) || (configurationN == 0u))
 438              		.loc 1 274 0
 439 02ca 7B79     		ldrb	r3, [r7, #5]	@ zero_extendqisi2
 440 02cc 002B     		cmp	r3, #0
 441 02ce 02D0     		beq	.L34
 442              		.loc 1 274 0 is_stmt 0 discriminator 1
 443 02d0 BB68     		ldr	r3, [r7, #8]
 444 02d2 002B     		cmp	r3, #0
 445 02d4 03D1     		bne	.L35
 446              	.L34:
 447              		.loc 1 274 0 discriminator 3
 448 02d6 7B79     		ldrb	r3, [r7, #5]	@ zero_extendqisi2
 449 02d8 002B     		cmp	r3, #0
 450 02da 40F0CA80 		bne	.L60
 451              	.L35:
 275:Generated_Source\PSoC5/USBFS_std.c ****                 {
 276:Generated_Source\PSoC5/USBFS_std.c ****                     /* Set new configuration if it has been changed */
 277:Generated_Source\PSoC5/USBFS_std.c ****                     if(configurationN != USBFS_configuration)
 452              		.loc 1 277 0 is_stmt 1
 453 02de 6A4B     		ldr	r3, .L70+4
 454 02e0 1B78     		ldrb	r3, [r3]
 455 02e2 DBB2     		uxtb	r3, r3
 456 02e4 7A79     		ldrb	r2, [r7, #5]	@ zero_extendqisi2
 457 02e6 9A42     		cmp	r2, r3
 458 02e8 08D0     		beq	.L37
 278:Generated_Source\PSoC5/USBFS_std.c ****                     {
 279:Generated_Source\PSoC5/USBFS_std.c ****                         USBFS_configuration = (uint8) configurationN;
 459              		.loc 1 279 0
 460 02ea 674A     		ldr	r2, .L70+4
 461 02ec 7B79     		ldrb	r3, [r7, #5]
 462 02ee 1370     		strb	r3, [r2]
 280:Generated_Source\PSoC5/USBFS_std.c ****                         USBFS_configurationChanged = USBFS_TRUE;
 463              		.loc 1 280 0
 464 02f0 664B     		ldr	r3, .L70+8
 465 02f2 0122     		movs	r2, #1
 466 02f4 1A70     		strb	r2, [r3]
 281:Generated_Source\PSoC5/USBFS_std.c ****                         USBFS_Config(USBFS_TRUE);
 467              		.loc 1 281 0
 468 02f6 0120     		movs	r0, #1
 469 02f8 FFF7FEFF 		bl	USBFS_Config
 470              	.L37:
 282:Generated_Source\PSoC5/USBFS_std.c ****                     }
 283:Generated_Source\PSoC5/USBFS_std.c ****                     requestHandled = USBFS_InitNoDataControlTransfer();
 471              		.loc 1 283 0
 472 02fc FFF7FEFF 		bl	USBFS_InitNoDataControlTransfer
 473 0300 0346     		mov	r3, r0
 474 0302 FB75     		strb	r3, [r7, #23]
ARM GAS  C:\Users\CALEBC~1\AppData\Local\Temp\ccxZVyoW.s 			page 15


 284:Generated_Source\PSoC5/USBFS_std.c ****                 }
 285:Generated_Source\PSoC5/USBFS_std.c ****                 break;
 475              		.loc 1 285 0
 476 0304 B5E0     		b	.L60
 477              	.L32:
 286:Generated_Source\PSoC5/USBFS_std.c ****                 
 287:Generated_Source\PSoC5/USBFS_std.c ****             case USBFS_SET_INTERFACE:
 288:Generated_Source\PSoC5/USBFS_std.c ****                 if (0u != USBFS_ValidateAlternateSetting())
 478              		.loc 1 288 0
 479 0306 FFF7FEFF 		bl	USBFS_ValidateAlternateSetting
 480 030a 0346     		mov	r3, r0
 481 030c 002B     		cmp	r3, #0
 482 030e 00F0B280 		beq	.L61
 289:Generated_Source\PSoC5/USBFS_std.c ****                 {
 290:Generated_Source\PSoC5/USBFS_std.c ****                     /* Get interface number from the request. */
 291:Generated_Source\PSoC5/USBFS_std.c ****                     interfaceNumber = USBFS_wIndexLoReg;
 483              		.loc 1 291 0
 484 0312 5C4B     		ldr	r3, .L70
 485 0314 1B79     		ldrb	r3, [r3, #4]
 486 0316 3B71     		strb	r3, [r7, #4]
 292:Generated_Source\PSoC5/USBFS_std.c ****                     USBFS_interfaceNumber = (uint8) USBFS_wIndexLoReg;
 487              		.loc 1 292 0
 488 0318 5A4B     		ldr	r3, .L70
 489 031a 1B79     		ldrb	r3, [r3, #4]
 490 031c DAB2     		uxtb	r2, r3
 491 031e 5C4B     		ldr	r3, .L70+12
 492 0320 1A70     		strb	r2, [r3]
 293:Generated_Source\PSoC5/USBFS_std.c ****                      
 294:Generated_Source\PSoC5/USBFS_std.c ****                     /* Check if alternate settings is changed for interface. */
 295:Generated_Source\PSoC5/USBFS_std.c ****                     if (USBFS_interfaceSettingLast[interfaceNumber] != USBFS_interfaceSetting[inter
 493              		.loc 1 295 0
 494 0322 3B79     		ldrb	r3, [r7, #4]	@ zero_extendqisi2
 495 0324 5B4A     		ldr	r2, .L70+16
 496 0326 D35C     		ldrb	r3, [r2, r3]
 497 0328 DAB2     		uxtb	r2, r3
 498 032a 3B79     		ldrb	r3, [r7, #4]	@ zero_extendqisi2
 499 032c 5A49     		ldr	r1, .L70+20
 500 032e CB5C     		ldrb	r3, [r1, r3]
 501 0330 DBB2     		uxtb	r3, r3
 502 0332 9A42     		cmp	r2, r3
 503 0334 04D0     		beq	.L39
 296:Generated_Source\PSoC5/USBFS_std.c ****                     {
 297:Generated_Source\PSoC5/USBFS_std.c ****                         USBFS_configurationChanged = USBFS_TRUE;
 504              		.loc 1 297 0
 505 0336 554B     		ldr	r3, .L70+8
 506 0338 0122     		movs	r2, #1
 507 033a 1A70     		strb	r2, [r3]
 298:Generated_Source\PSoC5/USBFS_std.c ****                     
 299:Generated_Source\PSoC5/USBFS_std.c ****                         /* Change alternate setting for the endpoints. */
 300:Generated_Source\PSoC5/USBFS_std.c ****                     #if (USBFS_EP_MANAGEMENT_MANUAL && USBFS_EP_ALLOC_DYNAMIC)
 301:Generated_Source\PSoC5/USBFS_std.c ****                         USBFS_Config(USBFS_FALSE);
 302:Generated_Source\PSoC5/USBFS_std.c ****                     #else
 303:Generated_Source\PSoC5/USBFS_std.c ****                         USBFS_ConfigAltChanged();
 508              		.loc 1 303 0
 509 033c FFF7FEFF 		bl	USBFS_ConfigAltChanged
 510              	.L39:
 304:Generated_Source\PSoC5/USBFS_std.c ****                     #endif /* (USBFS_EP_MANAGEMENT_MANUAL && USBFS_EP_ALLOC_DYNAMIC) */
ARM GAS  C:\Users\CALEBC~1\AppData\Local\Temp\ccxZVyoW.s 			page 16


 305:Generated_Source\PSoC5/USBFS_std.c ****                     }
 306:Generated_Source\PSoC5/USBFS_std.c ****                     
 307:Generated_Source\PSoC5/USBFS_std.c ****                     requestHandled = USBFS_InitNoDataControlTransfer();
 511              		.loc 1 307 0
 512 0340 FFF7FEFF 		bl	USBFS_InitNoDataControlTransfer
 513 0344 0346     		mov	r3, r0
 514 0346 FB75     		strb	r3, [r7, #23]
 308:Generated_Source\PSoC5/USBFS_std.c ****                 }
 309:Generated_Source\PSoC5/USBFS_std.c ****                 break;
 515              		.loc 1 309 0
 516 0348 95E0     		b	.L61
 517              	.L27:
 310:Generated_Source\PSoC5/USBFS_std.c ****                 
 311:Generated_Source\PSoC5/USBFS_std.c ****             case USBFS_CLEAR_FEATURE:
 312:Generated_Source\PSoC5/USBFS_std.c ****                 switch (bmRequestType & USBFS_RQST_RCPT_MASK)
 518              		.loc 1 312 0
 519 034a FB79     		ldrb	r3, [r7, #7]	@ zero_extendqisi2
 520 034c 03F00303 		and	r3, r3, #3
 521 0350 012B     		cmp	r3, #1
 522 0352 20D0     		beq	.L41
 523 0354 012B     		cmp	r3, #1
 524 0356 0CD3     		bcc	.L42
 525 0358 022B     		cmp	r3, #2
 526 035a 00D0     		beq	.L43
 313:Generated_Source\PSoC5/USBFS_std.c ****                 {
 314:Generated_Source\PSoC5/USBFS_std.c ****                     case USBFS_RQST_RCPT_EP:
 315:Generated_Source\PSoC5/USBFS_std.c ****                         if (USBFS_wValueLoReg == USBFS_ENDPOINT_HALT)
 316:Generated_Source\PSoC5/USBFS_std.c ****                         {
 317:Generated_Source\PSoC5/USBFS_std.c ****                             requestHandled = USBFS_ClearEndpointHalt();
 318:Generated_Source\PSoC5/USBFS_std.c ****                         }
 319:Generated_Source\PSoC5/USBFS_std.c ****                         break;
 320:Generated_Source\PSoC5/USBFS_std.c ****                     case USBFS_RQST_RCPT_DEV:
 321:Generated_Source\PSoC5/USBFS_std.c ****                         /* Clear device REMOTE_WAKEUP */
 322:Generated_Source\PSoC5/USBFS_std.c ****                         if (USBFS_wValueLoReg == USBFS_DEVICE_REMOTE_WAKEUP)
 323:Generated_Source\PSoC5/USBFS_std.c ****                         {
 324:Generated_Source\PSoC5/USBFS_std.c ****                             USBFS_deviceStatus &= (uint8)~USBFS_DEVICE_STATUS_REMOTE_WAKEUP;
 325:Generated_Source\PSoC5/USBFS_std.c ****                             requestHandled = USBFS_InitNoDataControlTransfer();
 326:Generated_Source\PSoC5/USBFS_std.c ****                         }
 327:Generated_Source\PSoC5/USBFS_std.c ****                         break;
 328:Generated_Source\PSoC5/USBFS_std.c ****                     case USBFS_RQST_RCPT_IFC:
 329:Generated_Source\PSoC5/USBFS_std.c ****                         /* Validate interfaceNumber */
 330:Generated_Source\PSoC5/USBFS_std.c ****                         if (USBFS_wIndexLoReg < USBFS_MAX_INTERFACES_NUMBER)
 331:Generated_Source\PSoC5/USBFS_std.c ****                         {
 332:Generated_Source\PSoC5/USBFS_std.c ****                             USBFS_interfaceStatus[USBFS_wIndexLoReg] &= (uint8) ~USBFS_wValueLoReg;
 333:Generated_Source\PSoC5/USBFS_std.c ****                             requestHandled = USBFS_InitNoDataControlTransfer();
 334:Generated_Source\PSoC5/USBFS_std.c ****                         }
 335:Generated_Source\PSoC5/USBFS_std.c ****                         break;
 336:Generated_Source\PSoC5/USBFS_std.c ****                     default:    /* requestHandled is initialized as FALSE by default */
 337:Generated_Source\PSoC5/USBFS_std.c ****                         break;
 527              		.loc 1 337 0
 528 035c 3BE0     		b	.L45
 529              	.L43:
 315:Generated_Source\PSoC5/USBFS_std.c ****                         {
 530              		.loc 1 315 0
 531 035e 494B     		ldr	r3, .L70
 532 0360 9B78     		ldrb	r3, [r3, #2]
 533 0362 DBB2     		uxtb	r3, r3
ARM GAS  C:\Users\CALEBC~1\AppData\Local\Temp\ccxZVyoW.s 			page 17


 534 0364 002B     		cmp	r3, #0
 535 0366 31D1     		bne	.L62
 317:Generated_Source\PSoC5/USBFS_std.c ****                         }
 536              		.loc 1 317 0
 537 0368 FFF7FEFF 		bl	USBFS_ClearEndpointHalt
 538 036c 0346     		mov	r3, r0
 539 036e FB75     		strb	r3, [r7, #23]
 319:Generated_Source\PSoC5/USBFS_std.c ****                     case USBFS_RQST_RCPT_DEV:
 540              		.loc 1 319 0
 541 0370 2CE0     		b	.L62
 542              	.L42:
 322:Generated_Source\PSoC5/USBFS_std.c ****                         {
 543              		.loc 1 322 0
 544 0372 444B     		ldr	r3, .L70
 545 0374 9B78     		ldrb	r3, [r3, #2]
 546 0376 DBB2     		uxtb	r3, r3
 547 0378 012B     		cmp	r3, #1
 548 037a 29D1     		bne	.L63
 324:Generated_Source\PSoC5/USBFS_std.c ****                             requestHandled = USBFS_InitNoDataControlTransfer();
 549              		.loc 1 324 0
 550 037c 474B     		ldr	r3, .L70+24
 551 037e 1B78     		ldrb	r3, [r3]
 552 0380 DBB2     		uxtb	r3, r3
 553 0382 23F00203 		bic	r3, r3, #2
 554 0386 DAB2     		uxtb	r2, r3
 555 0388 444B     		ldr	r3, .L70+24
 556 038a 1A70     		strb	r2, [r3]
 325:Generated_Source\PSoC5/USBFS_std.c ****                         }
 557              		.loc 1 325 0
 558 038c FFF7FEFF 		bl	USBFS_InitNoDataControlTransfer
 559 0390 0346     		mov	r3, r0
 560 0392 FB75     		strb	r3, [r7, #23]
 327:Generated_Source\PSoC5/USBFS_std.c ****                     case USBFS_RQST_RCPT_IFC:
 561              		.loc 1 327 0
 562 0394 1CE0     		b	.L63
 563              	.L41:
 330:Generated_Source\PSoC5/USBFS_std.c ****                         {
 564              		.loc 1 330 0
 565 0396 3B4B     		ldr	r3, .L70
 566 0398 1B79     		ldrb	r3, [r3, #4]
 567 039a DBB2     		uxtb	r3, r3
 568 039c 002B     		cmp	r3, #0
 569 039e 19D1     		bne	.L64
 332:Generated_Source\PSoC5/USBFS_std.c ****                             requestHandled = USBFS_InitNoDataControlTransfer();
 570              		.loc 1 332 0
 571 03a0 384B     		ldr	r3, .L70
 572 03a2 9B78     		ldrb	r3, [r3, #2]
 573 03a4 DBB2     		uxtb	r3, r3
 574 03a6 DB43     		mvns	r3, r3
 575 03a8 DBB2     		uxtb	r3, r3
 576 03aa 364A     		ldr	r2, .L70
 577 03ac 1279     		ldrb	r2, [r2, #4]
 578 03ae D2B2     		uxtb	r2, r2
 579 03b0 1146     		mov	r1, r2
 580 03b2 1046     		mov	r0, r2
 581 03b4 3A4A     		ldr	r2, .L70+28
 582 03b6 125C     		ldrb	r2, [r2, r0]
ARM GAS  C:\Users\CALEBC~1\AppData\Local\Temp\ccxZVyoW.s 			page 18


 583 03b8 D2B2     		uxtb	r2, r2
 584 03ba 1340     		ands	r3, r3, r2
 585 03bc DAB2     		uxtb	r2, r3
 586 03be 384B     		ldr	r3, .L70+28
 587 03c0 5A54     		strb	r2, [r3, r1]
 333:Generated_Source\PSoC5/USBFS_std.c ****                         }
 588              		.loc 1 333 0
 589 03c2 FFF7FEFF 		bl	USBFS_InitNoDataControlTransfer
 590 03c6 0346     		mov	r3, r0
 591 03c8 FB75     		strb	r3, [r7, #23]
 335:Generated_Source\PSoC5/USBFS_std.c ****                     default:    /* requestHandled is initialized as FALSE by default */
 592              		.loc 1 335 0
 593 03ca 03E0     		b	.L64
 594              	.L62:
 319:Generated_Source\PSoC5/USBFS_std.c ****                     case USBFS_RQST_RCPT_DEV:
 595              		.loc 1 319 0
 596 03cc 00BF     		nop
 597 03ce 53E0     		b	.L25
 598              	.L63:
 327:Generated_Source\PSoC5/USBFS_std.c ****                     case USBFS_RQST_RCPT_IFC:
 599              		.loc 1 327 0
 600 03d0 00BF     		nop
 601 03d2 51E0     		b	.L25
 602              	.L64:
 335:Generated_Source\PSoC5/USBFS_std.c ****                     default:    /* requestHandled is initialized as FALSE by default */
 603              		.loc 1 335 0
 604 03d4 00BF     		nop
 605              	.L45:
 338:Generated_Source\PSoC5/USBFS_std.c ****                 }
 339:Generated_Source\PSoC5/USBFS_std.c ****                 break;
 606              		.loc 1 339 0 discriminator 7
 607 03d6 4FE0     		b	.L25
 608              	.L29:
 340:Generated_Source\PSoC5/USBFS_std.c ****                 
 341:Generated_Source\PSoC5/USBFS_std.c ****             case USBFS_SET_FEATURE:
 342:Generated_Source\PSoC5/USBFS_std.c ****                 switch (bmRequestType & USBFS_RQST_RCPT_MASK)
 609              		.loc 1 342 0
 610 03d8 FB79     		ldrb	r3, [r7, #7]	@ zero_extendqisi2
 611 03da 03F00303 		and	r3, r3, #3
 612 03de 012B     		cmp	r3, #1
 613 03e0 20D0     		beq	.L49
 614 03e2 012B     		cmp	r3, #1
 615 03e4 0CD3     		bcc	.L50
 616 03e6 022B     		cmp	r3, #2
 617 03e8 00D0     		beq	.L51
 343:Generated_Source\PSoC5/USBFS_std.c ****                 {
 344:Generated_Source\PSoC5/USBFS_std.c ****                     case USBFS_RQST_RCPT_EP:
 345:Generated_Source\PSoC5/USBFS_std.c ****                         if (USBFS_wValueLoReg == USBFS_ENDPOINT_HALT)
 346:Generated_Source\PSoC5/USBFS_std.c ****                         {
 347:Generated_Source\PSoC5/USBFS_std.c ****                             requestHandled = USBFS_SetEndpointHalt();
 348:Generated_Source\PSoC5/USBFS_std.c ****                         }
 349:Generated_Source\PSoC5/USBFS_std.c ****                         break;
 350:Generated_Source\PSoC5/USBFS_std.c ****                         
 351:Generated_Source\PSoC5/USBFS_std.c ****                     case USBFS_RQST_RCPT_DEV:
 352:Generated_Source\PSoC5/USBFS_std.c ****                         /* Set device REMOTE_WAKEUP */
 353:Generated_Source\PSoC5/USBFS_std.c ****                         if (USBFS_wValueLoReg == USBFS_DEVICE_REMOTE_WAKEUP)
 354:Generated_Source\PSoC5/USBFS_std.c ****                         {
ARM GAS  C:\Users\CALEBC~1\AppData\Local\Temp\ccxZVyoW.s 			page 19


 355:Generated_Source\PSoC5/USBFS_std.c ****                             USBFS_deviceStatus |= USBFS_DEVICE_STATUS_REMOTE_WAKEUP;
 356:Generated_Source\PSoC5/USBFS_std.c ****                             requestHandled = USBFS_InitNoDataControlTransfer();
 357:Generated_Source\PSoC5/USBFS_std.c ****                         }
 358:Generated_Source\PSoC5/USBFS_std.c ****                         break;
 359:Generated_Source\PSoC5/USBFS_std.c ****                         
 360:Generated_Source\PSoC5/USBFS_std.c ****                     case USBFS_RQST_RCPT_IFC:
 361:Generated_Source\PSoC5/USBFS_std.c ****                         /* Validate interfaceNumber */
 362:Generated_Source\PSoC5/USBFS_std.c ****                         if (USBFS_wIndexLoReg < USBFS_MAX_INTERFACES_NUMBER)
 363:Generated_Source\PSoC5/USBFS_std.c ****                         {
 364:Generated_Source\PSoC5/USBFS_std.c ****                             USBFS_interfaceStatus[USBFS_wIndexLoReg] &= (uint8) ~USBFS_wValueLoReg;
 365:Generated_Source\PSoC5/USBFS_std.c ****                             requestHandled = USBFS_InitNoDataControlTransfer();
 366:Generated_Source\PSoC5/USBFS_std.c ****                         }
 367:Generated_Source\PSoC5/USBFS_std.c ****                         break;
 368:Generated_Source\PSoC5/USBFS_std.c ****                     
 369:Generated_Source\PSoC5/USBFS_std.c ****                     default:    /* requestHandled is initialized as FALSE by default */
 370:Generated_Source\PSoC5/USBFS_std.c ****                         break;
 618              		.loc 1 370 0
 619 03ea 3BE0     		b	.L53
 620              	.L51:
 345:Generated_Source\PSoC5/USBFS_std.c ****                         {
 621              		.loc 1 345 0
 622 03ec 254B     		ldr	r3, .L70
 623 03ee 9B78     		ldrb	r3, [r3, #2]
 624 03f0 DBB2     		uxtb	r3, r3
 625 03f2 002B     		cmp	r3, #0
 626 03f4 31D1     		bne	.L65
 347:Generated_Source\PSoC5/USBFS_std.c ****                         }
 627              		.loc 1 347 0
 628 03f6 FFF7FEFF 		bl	USBFS_SetEndpointHalt
 629 03fa 0346     		mov	r3, r0
 630 03fc FB75     		strb	r3, [r7, #23]
 349:Generated_Source\PSoC5/USBFS_std.c ****                         
 631              		.loc 1 349 0
 632 03fe 2CE0     		b	.L65
 633              	.L50:
 353:Generated_Source\PSoC5/USBFS_std.c ****                         {
 634              		.loc 1 353 0
 635 0400 204B     		ldr	r3, .L70
 636 0402 9B78     		ldrb	r3, [r3, #2]
 637 0404 DBB2     		uxtb	r3, r3
 638 0406 012B     		cmp	r3, #1
 639 0408 29D1     		bne	.L66
 355:Generated_Source\PSoC5/USBFS_std.c ****                             requestHandled = USBFS_InitNoDataControlTransfer();
 640              		.loc 1 355 0
 641 040a 244B     		ldr	r3, .L70+24
 642 040c 1B78     		ldrb	r3, [r3]
 643 040e DBB2     		uxtb	r3, r3
 644 0410 43F00203 		orr	r3, r3, #2
 645 0414 DAB2     		uxtb	r2, r3
 646 0416 214B     		ldr	r3, .L70+24
 647 0418 1A70     		strb	r2, [r3]
 356:Generated_Source\PSoC5/USBFS_std.c ****                         }
 648              		.loc 1 356 0
 649 041a FFF7FEFF 		bl	USBFS_InitNoDataControlTransfer
 650 041e 0346     		mov	r3, r0
 651 0420 FB75     		strb	r3, [r7, #23]
 358:Generated_Source\PSoC5/USBFS_std.c ****                         
ARM GAS  C:\Users\CALEBC~1\AppData\Local\Temp\ccxZVyoW.s 			page 20


 652              		.loc 1 358 0
 653 0422 1CE0     		b	.L66
 654              	.L49:
 362:Generated_Source\PSoC5/USBFS_std.c ****                         {
 655              		.loc 1 362 0
 656 0424 174B     		ldr	r3, .L70
 657 0426 1B79     		ldrb	r3, [r3, #4]
 658 0428 DBB2     		uxtb	r3, r3
 659 042a 002B     		cmp	r3, #0
 660 042c 19D1     		bne	.L67
 364:Generated_Source\PSoC5/USBFS_std.c ****                             requestHandled = USBFS_InitNoDataControlTransfer();
 661              		.loc 1 364 0
 662 042e 154B     		ldr	r3, .L70
 663 0430 9B78     		ldrb	r3, [r3, #2]
 664 0432 DBB2     		uxtb	r3, r3
 665 0434 DB43     		mvns	r3, r3
 666 0436 DBB2     		uxtb	r3, r3
 667 0438 124A     		ldr	r2, .L70
 668 043a 1279     		ldrb	r2, [r2, #4]
 669 043c D2B2     		uxtb	r2, r2
 670 043e 1146     		mov	r1, r2
 671 0440 1046     		mov	r0, r2
 672 0442 174A     		ldr	r2, .L70+28
 673 0444 125C     		ldrb	r2, [r2, r0]
 674 0446 D2B2     		uxtb	r2, r2
 675 0448 1340     		ands	r3, r3, r2
 676 044a DAB2     		uxtb	r2, r3
 677 044c 144B     		ldr	r3, .L70+28
 678 044e 5A54     		strb	r2, [r3, r1]
 365:Generated_Source\PSoC5/USBFS_std.c ****                         }
 679              		.loc 1 365 0
 680 0450 FFF7FEFF 		bl	USBFS_InitNoDataControlTransfer
 681 0454 0346     		mov	r3, r0
 682 0456 FB75     		strb	r3, [r7, #23]
 367:Generated_Source\PSoC5/USBFS_std.c ****                     
 683              		.loc 1 367 0
 684 0458 03E0     		b	.L67
 685              	.L65:
 349:Generated_Source\PSoC5/USBFS_std.c ****                         
 686              		.loc 1 349 0
 687 045a 00BF     		nop
 688 045c 0CE0     		b	.L25
 689              	.L66:
 358:Generated_Source\PSoC5/USBFS_std.c ****                         
 690              		.loc 1 358 0
 691 045e 00BF     		nop
 692 0460 0AE0     		b	.L25
 693              	.L67:
 367:Generated_Source\PSoC5/USBFS_std.c ****                     
 694              		.loc 1 367 0
 695 0462 00BF     		nop
 696              	.L53:
 371:Generated_Source\PSoC5/USBFS_std.c ****                 }
 372:Generated_Source\PSoC5/USBFS_std.c ****                 break;
 697              		.loc 1 372 0 discriminator 11
 698 0464 08E0     		b	.L25
 699              	.L57:
ARM GAS  C:\Users\CALEBC~1\AppData\Local\Temp\ccxZVyoW.s 			page 21


 250:Generated_Source\PSoC5/USBFS_std.c ****         }
 700              		.loc 1 250 0
 701 0466 00BF     		nop
 702 0468 06E0     		b	.L25
 703              	.L58:
 211:Generated_Source\PSoC5/USBFS_std.c ****                 
 704              		.loc 1 211 0
 705 046a 00BF     		nop
 706 046c 04E0     		b	.L25
 707              	.L59:
 373:Generated_Source\PSoC5/USBFS_std.c ****                 
 374:Generated_Source\PSoC5/USBFS_std.c ****             default:    /* requestHandled is initialized as FALSE by default */
 375:Generated_Source\PSoC5/USBFS_std.c ****                 break;
 708              		.loc 1 375 0
 709 046e 00BF     		nop
 710 0470 02E0     		b	.L25
 711              	.L60:
 285:Generated_Source\PSoC5/USBFS_std.c ****                 
 712              		.loc 1 285 0
 713 0472 00BF     		nop
 714 0474 00E0     		b	.L25
 715              	.L61:
 309:Generated_Source\PSoC5/USBFS_std.c ****                 
 716              		.loc 1 309 0
 717 0476 00BF     		nop
 718              	.L25:
 376:Generated_Source\PSoC5/USBFS_std.c ****         }
 377:Generated_Source\PSoC5/USBFS_std.c ****     }
 378:Generated_Source\PSoC5/USBFS_std.c ****     
 379:Generated_Source\PSoC5/USBFS_std.c ****     return (requestHandled);
 719              		.loc 1 379 0
 720 0478 FB7D     		ldrb	r3, [r7, #23]	@ zero_extendqisi2
 380:Generated_Source\PSoC5/USBFS_std.c **** }
 721              		.loc 1 380 0
 722 047a 1846     		mov	r0, r3
 723 047c 1837     		adds	r7, r7, #24
 724              		.cfi_def_cfa_offset 8
 725 047e BD46     		mov	sp, r7
 726              		.cfi_def_cfa_register 13
 727              		@ sp needed
 728 0480 80BD     		pop	{r7, pc}
 729              	.L71:
 730 0482 00BF     		.align	2
 731              	.L70:
 732 0484 00600040 		.word	1073766400
 733 0488 00000000 		.word	USBFS_configuration
 734 048c 00000000 		.word	USBFS_configurationChanged
 735 0490 00000000 		.word	USBFS_interfaceNumber
 736 0494 00000000 		.word	USBFS_interfaceSettingLast
 737 0498 00000000 		.word	USBFS_interfaceSetting
 738 049c 00000000 		.word	USBFS_deviceStatus
 739 04a0 00000000 		.word	USBFS_interfaceStatus
 740              		.cfi_endproc
 741              	.LFE0:
 742              		.size	USBFS_HandleStandardRqst, .-USBFS_HandleStandardRqst
 743              		.section	.rodata
 744              		.align	2
ARM GAS  C:\Users\CALEBC~1\AppData\Local\Temp\ccxZVyoW.s 			page 22


 745              	.LC0:
 746 0000 30313233 		.ascii	"0123456789ABCDEF\000"
 746      34353637 
 746      38394142 
 746      43444546 
 746      00
 747              		.section	.text.USBFS_ReadDieID,"ax",%progbits
 748              		.align	2
 749              		.global	USBFS_ReadDieID
 750              		.thumb
 751              		.thumb_func
 752              		.type	USBFS_ReadDieID, %function
 753              	USBFS_ReadDieID:
 754              	.LFB1:
 381:Generated_Source\PSoC5/USBFS_std.c **** 
 382:Generated_Source\PSoC5/USBFS_std.c **** 
 383:Generated_Source\PSoC5/USBFS_std.c **** #if defined(USBFS_ENABLE_IDSN_STRING)
 384:Generated_Source\PSoC5/USBFS_std.c ****     /***************************************************************************
 385:Generated_Source\PSoC5/USBFS_std.c ****     * Function Name: USBFS_ReadDieID
 386:Generated_Source\PSoC5/USBFS_std.c ****     ************************************************************************//**
 387:Generated_Source\PSoC5/USBFS_std.c ****     *
 388:Generated_Source\PSoC5/USBFS_std.c ****     *  This routine read Die ID and generate Serial Number string descriptor.
 389:Generated_Source\PSoC5/USBFS_std.c ****     *
 390:Generated_Source\PSoC5/USBFS_std.c ****     *  \param descr:  pointer on string descriptor. This string size has to be equal or
 391:Generated_Source\PSoC5/USBFS_std.c ****     *          greater than USBFS_IDSN_DESCR_LENGTH.
 392:Generated_Source\PSoC5/USBFS_std.c ****     *
 393:Generated_Source\PSoC5/USBFS_std.c ****     *
 394:Generated_Source\PSoC5/USBFS_std.c ****     * \reentrant
 395:Generated_Source\PSoC5/USBFS_std.c ****     *  No.
 396:Generated_Source\PSoC5/USBFS_std.c ****     *
 397:Generated_Source\PSoC5/USBFS_std.c ****     ***************************************************************************/
 398:Generated_Source\PSoC5/USBFS_std.c ****     void USBFS_ReadDieID(uint8 descr[]) 
 399:Generated_Source\PSoC5/USBFS_std.c ****     {
 755              		.loc 1 399 0
 756              		.cfi_startproc
 757              		@ args = 0, pretend = 0, frame = 40
 758              		@ frame_needed = 1, uses_anonymous_args = 0
 759 0000 B0B5     		push	{r4, r5, r7, lr}
 760              		.cfi_def_cfa_offset 16
 761              		.cfi_offset 4, -16
 762              		.cfi_offset 5, -12
 763              		.cfi_offset 7, -8
 764              		.cfi_offset 14, -4
 765 0002 8AB0     		sub	sp, sp, #40
 766              		.cfi_def_cfa_offset 56
 767 0004 00AF     		add	r7, sp, #0
 768              		.cfi_def_cfa_register 7
 769 0006 7860     		str	r0, [r7, #4]
 400:Generated_Source\PSoC5/USBFS_std.c ****         const char8 CYCODE hex[] = "0123456789ABCDEF";
 770              		.loc 1 400 0
 771 0008 324B     		ldr	r3, .L77
 772 000a 07F11404 		add	r4, r7, #20
 773 000e 1D46     		mov	r5, r3
 774 0010 0FCD     		ldmia	r5!, {r0, r1, r2, r3}
 775 0012 0FC4     		stmia	r4!, {r0, r1, r2, r3}
 776 0014 2B68     		ldr	r3, [r5]
 777 0016 2370     		strb	r3, [r4]
ARM GAS  C:\Users\CALEBC~1\AppData\Local\Temp\ccxZVyoW.s 			page 23


 401:Generated_Source\PSoC5/USBFS_std.c ****         uint8 i;
 402:Generated_Source\PSoC5/USBFS_std.c ****         uint8 j = 0u;
 778              		.loc 1 402 0
 779 0018 0023     		movs	r3, #0
 780 001a 87F82630 		strb	r3, [r7, #38]
 403:Generated_Source\PSoC5/USBFS_std.c ****         uint8 uniqueId[8u];
 404:Generated_Source\PSoC5/USBFS_std.c **** 
 405:Generated_Source\PSoC5/USBFS_std.c ****         if (NULL != descr)
 781              		.loc 1 405 0
 782 001e 7B68     		ldr	r3, [r7, #4]
 783 0020 002B     		cmp	r3, #0
 784 0022 52D0     		beq	.L76
 406:Generated_Source\PSoC5/USBFS_std.c ****         {
 407:Generated_Source\PSoC5/USBFS_std.c ****             /* Initialize descriptor header. */
 408:Generated_Source\PSoC5/USBFS_std.c ****             descr[0u] = USBFS_IDSN_DESCR_LENGTH;
 785              		.loc 1 408 0
 786 0024 7B68     		ldr	r3, [r7, #4]
 787 0026 2222     		movs	r2, #34
 788 0028 1A70     		strb	r2, [r3]
 409:Generated_Source\PSoC5/USBFS_std.c ****             descr[1u] = USBFS_DESCR_STRING;
 789              		.loc 1 409 0
 790 002a 7B68     		ldr	r3, [r7, #4]
 791 002c 0133     		adds	r3, r3, #1
 792 002e 0322     		movs	r2, #3
 793 0030 1A70     		strb	r2, [r3]
 410:Generated_Source\PSoC5/USBFS_std.c ****             
 411:Generated_Source\PSoC5/USBFS_std.c ****             /* Unique ID size is 8 bytes. */
 412:Generated_Source\PSoC5/USBFS_std.c ****             CyGetUniqueId((uint32 *) uniqueId);
 794              		.loc 1 412 0
 795 0032 07F10C03 		add	r3, r7, #12
 796 0036 1846     		mov	r0, r3
 797 0038 FFF7FEFF 		bl	CyGetUniqueId
 413:Generated_Source\PSoC5/USBFS_std.c **** 
 414:Generated_Source\PSoC5/USBFS_std.c ****             /* Fill descriptor with unique device ID. */
 415:Generated_Source\PSoC5/USBFS_std.c ****             for (i = 2u; i < USBFS_IDSN_DESCR_LENGTH; i += 4u)
 798              		.loc 1 415 0
 799 003c 0223     		movs	r3, #2
 800 003e 87F82730 		strb	r3, [r7, #39]
 801 0042 3EE0     		b	.L74
 802              	.L75:
 416:Generated_Source\PSoC5/USBFS_std.c ****             {
 417:Generated_Source\PSoC5/USBFS_std.c ****                 descr[i]      = (uint8) hex[(uniqueId[j] >> 4u)];
 803              		.loc 1 417 0 discriminator 3
 804 0044 97F82730 		ldrb	r3, [r7, #39]	@ zero_extendqisi2
 805 0048 7A68     		ldr	r2, [r7, #4]
 806 004a 1344     		add	r3, r3, r2
 807 004c 97F82620 		ldrb	r2, [r7, #38]	@ zero_extendqisi2
 808 0050 07F12801 		add	r1, r7, #40
 809 0054 0A44     		add	r2, r2, r1
 810 0056 12F81C2C 		ldrb	r2, [r2, #-28]	@ zero_extendqisi2
 811 005a 1209     		lsrs	r2, r2, #4
 812 005c D2B2     		uxtb	r2, r2
 813 005e 07F12801 		add	r1, r7, #40
 814 0062 0A44     		add	r2, r2, r1
 815 0064 12F8142C 		ldrb	r2, [r2, #-20]	@ zero_extendqisi2
 816 0068 1A70     		strb	r2, [r3]
 418:Generated_Source\PSoC5/USBFS_std.c ****                 descr[i + 1u] = 0u;
ARM GAS  C:\Users\CALEBC~1\AppData\Local\Temp\ccxZVyoW.s 			page 24


 817              		.loc 1 418 0 discriminator 3
 818 006a 97F82730 		ldrb	r3, [r7, #39]	@ zero_extendqisi2
 819 006e 0133     		adds	r3, r3, #1
 820 0070 7A68     		ldr	r2, [r7, #4]
 821 0072 1344     		add	r3, r3, r2
 822 0074 0022     		movs	r2, #0
 823 0076 1A70     		strb	r2, [r3]
 419:Generated_Source\PSoC5/USBFS_std.c ****                 descr[i + 2u] = (uint8) hex[(uniqueId[j] & 0x0Fu)];
 824              		.loc 1 419 0 discriminator 3
 825 0078 97F82730 		ldrb	r3, [r7, #39]	@ zero_extendqisi2
 826 007c 0233     		adds	r3, r3, #2
 827 007e 7A68     		ldr	r2, [r7, #4]
 828 0080 1344     		add	r3, r3, r2
 829 0082 97F82620 		ldrb	r2, [r7, #38]	@ zero_extendqisi2
 830 0086 07F12801 		add	r1, r7, #40
 831 008a 0A44     		add	r2, r2, r1
 832 008c 12F81C2C 		ldrb	r2, [r2, #-28]	@ zero_extendqisi2
 833 0090 02F00F02 		and	r2, r2, #15
 834 0094 07F12801 		add	r1, r7, #40
 835 0098 0A44     		add	r2, r2, r1
 836 009a 12F8142C 		ldrb	r2, [r2, #-20]	@ zero_extendqisi2
 837 009e 1A70     		strb	r2, [r3]
 420:Generated_Source\PSoC5/USBFS_std.c ****                 descr[i + 3u] = 0u;
 838              		.loc 1 420 0 discriminator 3
 839 00a0 97F82730 		ldrb	r3, [r7, #39]	@ zero_extendqisi2
 840 00a4 0333     		adds	r3, r3, #3
 841 00a6 7A68     		ldr	r2, [r7, #4]
 842 00a8 1344     		add	r3, r3, r2
 843 00aa 0022     		movs	r2, #0
 844 00ac 1A70     		strb	r2, [r3]
 421:Generated_Source\PSoC5/USBFS_std.c ****                 ++j;
 845              		.loc 1 421 0 discriminator 3
 846 00ae 97F82630 		ldrb	r3, [r7, #38]
 847 00b2 0133     		adds	r3, r3, #1
 848 00b4 87F82630 		strb	r3, [r7, #38]
 415:Generated_Source\PSoC5/USBFS_std.c ****             {
 849              		.loc 1 415 0 discriminator 3
 850 00b8 97F82730 		ldrb	r3, [r7, #39]
 851 00bc 0433     		adds	r3, r3, #4
 852 00be 87F82730 		strb	r3, [r7, #39]
 853              	.L74:
 415:Generated_Source\PSoC5/USBFS_std.c ****             {
 854              		.loc 1 415 0 is_stmt 0 discriminator 1
 855 00c2 97F82730 		ldrb	r3, [r7, #39]	@ zero_extendqisi2
 856 00c6 212B     		cmp	r3, #33
 857 00c8 BCD9     		bls	.L75
 858              	.L76:
 422:Generated_Source\PSoC5/USBFS_std.c ****             }
 423:Generated_Source\PSoC5/USBFS_std.c ****         }
 424:Generated_Source\PSoC5/USBFS_std.c ****     }
 859              		.loc 1 424 0 is_stmt 1
 860 00ca 00BF     		nop
 861 00cc 2837     		adds	r7, r7, #40
 862              		.cfi_def_cfa_offset 16
 863 00ce BD46     		mov	sp, r7
 864              		.cfi_def_cfa_register 13
 865              		@ sp needed
ARM GAS  C:\Users\CALEBC~1\AppData\Local\Temp\ccxZVyoW.s 			page 25


 866 00d0 B0BD     		pop	{r4, r5, r7, pc}
 867              	.L78:
 868 00d2 00BF     		.align	2
 869              	.L77:
 870 00d4 00000000 		.word	.LC0
 871              		.cfi_endproc
 872              	.LFE1:
 873              		.size	USBFS_ReadDieID, .-USBFS_ReadDieID
 874              		.section	.text.USBFS_ConfigReg,"ax",%progbits
 875              		.align	2
 876              		.global	USBFS_ConfigReg
 877              		.thumb
 878              		.thumb_func
 879              		.type	USBFS_ConfigReg, %function
 880              	USBFS_ConfigReg:
 881              	.LFB2:
 425:Generated_Source\PSoC5/USBFS_std.c **** #endif /* (USBFS_ENABLE_IDSN_STRING) */
 426:Generated_Source\PSoC5/USBFS_std.c **** 
 427:Generated_Source\PSoC5/USBFS_std.c **** 
 428:Generated_Source\PSoC5/USBFS_std.c **** /*******************************************************************************
 429:Generated_Source\PSoC5/USBFS_std.c **** * Function Name: USBFS_ConfigReg
 430:Generated_Source\PSoC5/USBFS_std.c **** ****************************************************************************//**
 431:Generated_Source\PSoC5/USBFS_std.c **** *
 432:Generated_Source\PSoC5/USBFS_std.c **** *  This routine configures hardware registers from the variables.
 433:Generated_Source\PSoC5/USBFS_std.c **** *  It is called from USBFS_Config() function and from RestoreConfig
 434:Generated_Source\PSoC5/USBFS_std.c **** *  after Wakeup.
 435:Generated_Source\PSoC5/USBFS_std.c **** *
 436:Generated_Source\PSoC5/USBFS_std.c **** *******************************************************************************/
 437:Generated_Source\PSoC5/USBFS_std.c **** void USBFS_ConfigReg(void) 
 438:Generated_Source\PSoC5/USBFS_std.c **** {
 882              		.loc 1 438 0
 883              		.cfi_startproc
 884              		@ args = 0, pretend = 0, frame = 8
 885              		@ frame_needed = 1, uses_anonymous_args = 0
 886              		@ link register save eliminated.
 887 0000 90B4     		push	{r4, r7}
 888              		.cfi_def_cfa_offset 8
 889              		.cfi_offset 4, -8
 890              		.cfi_offset 7, -4
 891 0002 82B0     		sub	sp, sp, #8
 892              		.cfi_def_cfa_offset 16
 893 0004 00AF     		add	r7, sp, #0
 894              		.cfi_def_cfa_register 7
 439:Generated_Source\PSoC5/USBFS_std.c ****     uint8 ep;
 440:Generated_Source\PSoC5/USBFS_std.c **** 
 441:Generated_Source\PSoC5/USBFS_std.c **** #if (USBFS_EP_MANAGEMENT_DMA_AUTO)
 442:Generated_Source\PSoC5/USBFS_std.c ****     uint8 epType = 0u;
 443:Generated_Source\PSoC5/USBFS_std.c **** #endif /* (USBFS_EP_MANAGEMENT_DMA_AUTO) */
 444:Generated_Source\PSoC5/USBFS_std.c **** 
 445:Generated_Source\PSoC5/USBFS_std.c ****     /* Go thought all endpoints and set hardware configuration */
 446:Generated_Source\PSoC5/USBFS_std.c ****     for (ep = USBFS_EP1; ep < USBFS_MAX_EP; ++ep)
 895              		.loc 1 446 0
 896 0006 0123     		movs	r3, #1
 897 0008 FB71     		strb	r3, [r7, #7]
 898 000a 87E0     		b	.L80
 899              	.L85:
 447:Generated_Source\PSoC5/USBFS_std.c ****     {
ARM GAS  C:\Users\CALEBC~1\AppData\Local\Temp\ccxZVyoW.s 			page 26


 448:Generated_Source\PSoC5/USBFS_std.c ****         USBFS_ARB_EP_BASE.arbEp[ep].epCfg = USBFS_ARB_EPX_CFG_DEFAULT;
 900              		.loc 1 448 0
 901 000c 494A     		ldr	r2, .L86
 902 000e FB79     		ldrb	r3, [r7, #7]	@ zero_extendqisi2
 903 0010 1B01     		lsls	r3, r3, #4
 904 0012 1344     		add	r3, r3, r2
 905 0014 0C22     		movs	r2, #12
 906 0016 1A70     		strb	r2, [r3]
 449:Generated_Source\PSoC5/USBFS_std.c ****         
 450:Generated_Source\PSoC5/USBFS_std.c ****     #if (USBFS_EP_MANAGEMENT_DMA)
 451:Generated_Source\PSoC5/USBFS_std.c ****         /* Enable arbiter endpoint interrupt sources */
 452:Generated_Source\PSoC5/USBFS_std.c ****         USBFS_ARB_EP_BASE.arbEp[ep].epIntEn = USBFS_ARB_EPX_INT_MASK;
 907              		.loc 1 452 0
 908 0018 464A     		ldr	r2, .L86
 909 001a FB79     		ldrb	r3, [r7, #7]	@ zero_extendqisi2
 910 001c 1B01     		lsls	r3, r3, #4
 911 001e 1344     		add	r3, r3, r2
 912 0020 0133     		adds	r3, r3, #1
 913 0022 1F22     		movs	r2, #31
 914 0024 1A70     		strb	r2, [r3]
 453:Generated_Source\PSoC5/USBFS_std.c ****     #endif /* (USBFS_EP_MANAGEMENT_DMA) */
 454:Generated_Source\PSoC5/USBFS_std.c ****     
 455:Generated_Source\PSoC5/USBFS_std.c ****         if (USBFS_EP[ep].epMode != USBFS_MODE_DISABLE)
 915              		.loc 1 455 0
 916 0026 FA79     		ldrb	r2, [r7, #7]	@ zero_extendqisi2
 917 0028 4349     		ldr	r1, .L86+4
 918 002a 1346     		mov	r3, r2
 919 002c 5B00     		lsls	r3, r3, #1
 920 002e 1344     		add	r3, r3, r2
 921 0030 9B00     		lsls	r3, r3, #2
 922 0032 0B44     		add	r3, r3, r1
 923 0034 0533     		adds	r3, r3, #5
 924 0036 1B78     		ldrb	r3, [r3]
 925 0038 DBB2     		uxtb	r3, r3
 926 003a 002B     		cmp	r3, #0
 927 003c 1CD0     		beq	.L81
 456:Generated_Source\PSoC5/USBFS_std.c ****         {
 457:Generated_Source\PSoC5/USBFS_std.c ****             if (0u != (USBFS_EP[ep].addr & USBFS_DIR_IN))
 928              		.loc 1 457 0
 929 003e FA79     		ldrb	r2, [r7, #7]	@ zero_extendqisi2
 930 0040 3D49     		ldr	r1, .L86+4
 931 0042 1346     		mov	r3, r2
 932 0044 5B00     		lsls	r3, r3, #1
 933 0046 1344     		add	r3, r3, r2
 934 0048 9B00     		lsls	r3, r3, #2
 935 004a 0B44     		add	r3, r3, r1
 936 004c 0433     		adds	r3, r3, #4
 937 004e 1B78     		ldrb	r3, [r3]
 938 0050 DBB2     		uxtb	r3, r3
 939 0052 5BB2     		sxtb	r3, r3
 940 0054 002B     		cmp	r3, #0
 941 0056 07DA     		bge	.L82
 458:Generated_Source\PSoC5/USBFS_std.c ****             {
 459:Generated_Source\PSoC5/USBFS_std.c ****                 USBFS_SIE_EP_BASE.sieEp[ep].epCr0 = USBFS_MODE_NAK_IN;
 942              		.loc 1 459 0
 943 0058 384A     		ldr	r2, .L86+8
 944 005a FB79     		ldrb	r3, [r7, #7]	@ zero_extendqisi2
ARM GAS  C:\Users\CALEBC~1\AppData\Local\Temp\ccxZVyoW.s 			page 27


 945 005c 1B01     		lsls	r3, r3, #4
 946 005e 1344     		add	r3, r3, r2
 947 0060 0233     		adds	r3, r3, #2
 948 0062 0C22     		movs	r2, #12
 949 0064 1A70     		strb	r2, [r3]
 950 0066 0EE0     		b	.L84
 951              	.L82:
 460:Generated_Source\PSoC5/USBFS_std.c ****                 
 461:Generated_Source\PSoC5/USBFS_std.c ****             #if (USBFS_EP_MANAGEMENT_DMA_AUTO && CY_PSOC4)
 462:Generated_Source\PSoC5/USBFS_std.c ****                 /* Clear DMA_TERMIN for IN endpoint. */
 463:Generated_Source\PSoC5/USBFS_std.c ****                 USBFS_ARB_EP_BASE.arbEp[ep].epIntEn &= (uint32) ~USBFS_ARB_EPX_INT_DMA_TERMIN;
 464:Generated_Source\PSoC5/USBFS_std.c ****             #endif /* (USBFS_EP_MANAGEMENT_DMA_AUTO && CY_PSOC4) */
 465:Generated_Source\PSoC5/USBFS_std.c ****             }
 466:Generated_Source\PSoC5/USBFS_std.c ****             else
 467:Generated_Source\PSoC5/USBFS_std.c ****             {
 468:Generated_Source\PSoC5/USBFS_std.c ****                 USBFS_SIE_EP_BASE.sieEp[ep].epCr0 = USBFS_MODE_NAK_OUT;
 952              		.loc 1 468 0
 953 0068 344A     		ldr	r2, .L86+8
 954 006a FB79     		ldrb	r3, [r7, #7]	@ zero_extendqisi2
 955 006c 1B01     		lsls	r3, r3, #4
 956 006e 1344     		add	r3, r3, r2
 957 0070 0233     		adds	r3, r3, #2
 958 0072 0822     		movs	r2, #8
 959 0074 1A70     		strb	r2, [r3]
 960 0076 06E0     		b	.L84
 961              	.L81:
 469:Generated_Source\PSoC5/USBFS_std.c **** 
 470:Generated_Source\PSoC5/USBFS_std.c ****             #if (USBFS_EP_MANAGEMENT_DMA_AUTO)
 471:Generated_Source\PSoC5/USBFS_std.c ****                 /* (CY_PSOC4): DMA_TERMIN for OUT endpoint is set above. */
 472:Generated_Source\PSoC5/USBFS_std.c ****                 
 473:Generated_Source\PSoC5/USBFS_std.c ****                 /* Prepare endpoint type mask. */
 474:Generated_Source\PSoC5/USBFS_std.c ****                 epType |= (uint8) (0x01u << (ep - USBFS_EP1));
 475:Generated_Source\PSoC5/USBFS_std.c ****             #endif /* (USBFS_EP_MANAGEMENT_DMA_AUTO) */
 476:Generated_Source\PSoC5/USBFS_std.c ****             }
 477:Generated_Source\PSoC5/USBFS_std.c ****         }
 478:Generated_Source\PSoC5/USBFS_std.c ****         else
 479:Generated_Source\PSoC5/USBFS_std.c ****         {
 480:Generated_Source\PSoC5/USBFS_std.c ****             USBFS_SIE_EP_BASE.sieEp[ep].epCr0 = USBFS_MODE_STALL_DATA_EP;
 962              		.loc 1 480 0
 963 0078 304A     		ldr	r2, .L86+8
 964 007a FB79     		ldrb	r3, [r7, #7]	@ zero_extendqisi2
 965 007c 1B01     		lsls	r3, r3, #4
 966 007e 1344     		add	r3, r3, r2
 967 0080 0233     		adds	r3, r3, #2
 968 0082 8022     		movs	r2, #128
 969 0084 1A70     		strb	r2, [r3]
 970              	.L84:
 481:Generated_Source\PSoC5/USBFS_std.c ****         }
 482:Generated_Source\PSoC5/USBFS_std.c ****         
 483:Generated_Source\PSoC5/USBFS_std.c ****     #if (!USBFS_EP_MANAGEMENT_DMA_AUTO)
 484:Generated_Source\PSoC5/USBFS_std.c ****         #if (CY_PSOC4)
 485:Generated_Source\PSoC5/USBFS_std.c ****             USBFS_ARB_EP16_BASE.arbEp[ep].rwRa16  = (uint32) USBFS_EP[ep].buffOffset;
 486:Generated_Source\PSoC5/USBFS_std.c ****             USBFS_ARB_EP16_BASE.arbEp[ep].rwWa16  = (uint32) USBFS_EP[ep].buffOffset;
 487:Generated_Source\PSoC5/USBFS_std.c ****         #else
 488:Generated_Source\PSoC5/USBFS_std.c ****             USBFS_ARB_EP_BASE.arbEp[ep].rwRa    = LO8(USBFS_EP[ep].buffOffset);
 971              		.loc 1 488 0 discriminator 2
 972 0086 2B48     		ldr	r0, .L86
ARM GAS  C:\Users\CALEBC~1\AppData\Local\Temp\ccxZVyoW.s 			page 28


 973 0088 F979     		ldrb	r1, [r7, #7]	@ zero_extendqisi2
 974 008a FA79     		ldrb	r2, [r7, #7]	@ zero_extendqisi2
 975 008c 2A4C     		ldr	r4, .L86+4
 976 008e 1346     		mov	r3, r2
 977 0090 5B00     		lsls	r3, r3, #1
 978 0092 1344     		add	r3, r3, r2
 979 0094 9B00     		lsls	r3, r3, #2
 980 0096 2344     		add	r3, r3, r4
 981 0098 0633     		adds	r3, r3, #6
 982 009a 1B88     		ldrh	r3, [r3]	@ movhi
 983 009c 9BB2     		uxth	r3, r3
 984 009e DAB2     		uxtb	r2, r3
 985 00a0 0B01     		lsls	r3, r1, #4
 986 00a2 0344     		add	r3, r3, r0
 987 00a4 0633     		adds	r3, r3, #6
 988 00a6 1A70     		strb	r2, [r3]
 489:Generated_Source\PSoC5/USBFS_std.c ****             USBFS_ARB_EP_BASE.arbEp[ep].rwRaMsb = HI8(USBFS_EP[ep].buffOffset);
 989              		.loc 1 489 0 discriminator 2
 990 00a8 2248     		ldr	r0, .L86
 991 00aa F979     		ldrb	r1, [r7, #7]	@ zero_extendqisi2
 992 00ac FA79     		ldrb	r2, [r7, #7]	@ zero_extendqisi2
 993 00ae 224C     		ldr	r4, .L86+4
 994 00b0 1346     		mov	r3, r2
 995 00b2 5B00     		lsls	r3, r3, #1
 996 00b4 1344     		add	r3, r3, r2
 997 00b6 9B00     		lsls	r3, r3, #2
 998 00b8 2344     		add	r3, r3, r4
 999 00ba 0633     		adds	r3, r3, #6
 1000 00bc 1B88     		ldrh	r3, [r3]	@ movhi
 1001 00be 9BB2     		uxth	r3, r3
 1002 00c0 1B0A     		lsrs	r3, r3, #8
 1003 00c2 9BB2     		uxth	r3, r3
 1004 00c4 DAB2     		uxtb	r2, r3
 1005 00c6 0B01     		lsls	r3, r1, #4
 1006 00c8 0344     		add	r3, r3, r0
 1007 00ca 0733     		adds	r3, r3, #7
 1008 00cc 1A70     		strb	r2, [r3]
 490:Generated_Source\PSoC5/USBFS_std.c ****             USBFS_ARB_EP_BASE.arbEp[ep].rwWa    = LO8(USBFS_EP[ep].buffOffset);
 1009              		.loc 1 490 0 discriminator 2
 1010 00ce 1948     		ldr	r0, .L86
 1011 00d0 F979     		ldrb	r1, [r7, #7]	@ zero_extendqisi2
 1012 00d2 FA79     		ldrb	r2, [r7, #7]	@ zero_extendqisi2
 1013 00d4 184C     		ldr	r4, .L86+4
 1014 00d6 1346     		mov	r3, r2
 1015 00d8 5B00     		lsls	r3, r3, #1
 1016 00da 1344     		add	r3, r3, r2
 1017 00dc 9B00     		lsls	r3, r3, #2
 1018 00de 2344     		add	r3, r3, r4
 1019 00e0 0633     		adds	r3, r3, #6
 1020 00e2 1B88     		ldrh	r3, [r3]	@ movhi
 1021 00e4 9BB2     		uxth	r3, r3
 1022 00e6 DAB2     		uxtb	r2, r3
 1023 00e8 0B01     		lsls	r3, r1, #4
 1024 00ea 0344     		add	r3, r3, r0
 1025 00ec 0433     		adds	r3, r3, #4
 1026 00ee 1A70     		strb	r2, [r3]
 491:Generated_Source\PSoC5/USBFS_std.c ****             USBFS_ARB_EP_BASE.arbEp[ep].rwWaMsb = HI8(USBFS_EP[ep].buffOffset);
ARM GAS  C:\Users\CALEBC~1\AppData\Local\Temp\ccxZVyoW.s 			page 29


 1027              		.loc 1 491 0 discriminator 2
 1028 00f0 1048     		ldr	r0, .L86
 1029 00f2 F979     		ldrb	r1, [r7, #7]	@ zero_extendqisi2
 1030 00f4 FA79     		ldrb	r2, [r7, #7]	@ zero_extendqisi2
 1031 00f6 104C     		ldr	r4, .L86+4
 1032 00f8 1346     		mov	r3, r2
 1033 00fa 5B00     		lsls	r3, r3, #1
 1034 00fc 1344     		add	r3, r3, r2
 1035 00fe 9B00     		lsls	r3, r3, #2
 1036 0100 2344     		add	r3, r3, r4
 1037 0102 0633     		adds	r3, r3, #6
 1038 0104 1B88     		ldrh	r3, [r3]	@ movhi
 1039 0106 9BB2     		uxth	r3, r3
 1040 0108 1B0A     		lsrs	r3, r3, #8
 1041 010a 9BB2     		uxth	r3, r3
 1042 010c DAB2     		uxtb	r2, r3
 1043 010e 0B01     		lsls	r3, r1, #4
 1044 0110 0344     		add	r3, r3, r0
 1045 0112 0533     		adds	r3, r3, #5
 1046 0114 1A70     		strb	r2, [r3]
 446:Generated_Source\PSoC5/USBFS_std.c ****     {
 1047              		.loc 1 446 0 discriminator 2
 1048 0116 FB79     		ldrb	r3, [r7, #7]
 1049 0118 0133     		adds	r3, r3, #1
 1050 011a FB71     		strb	r3, [r7, #7]
 1051              	.L80:
 446:Generated_Source\PSoC5/USBFS_std.c ****     {
 1052              		.loc 1 446 0 is_stmt 0 discriminator 1
 1053 011c FB79     		ldrb	r3, [r7, #7]	@ zero_extendqisi2
 1054 011e 082B     		cmp	r3, #8
 1055 0120 7FF674AF 		bls	.L85
 492:Generated_Source\PSoC5/USBFS_std.c ****         #endif /* (CY_PSOC4) */
 493:Generated_Source\PSoC5/USBFS_std.c ****     #endif /* (!USBFS_EP_MANAGEMENT_DMA_AUTO) */
 494:Generated_Source\PSoC5/USBFS_std.c ****     }
 495:Generated_Source\PSoC5/USBFS_std.c **** 
 496:Generated_Source\PSoC5/USBFS_std.c **** #if (USBFS_EP_MANAGEMENT_DMA_AUTO)
 497:Generated_Source\PSoC5/USBFS_std.c ****      /* BUF_SIZE depend on DMA_THRESS value:0x55-32 bytes  0x44-16 bytes 0x33-8 bytes 0x22-4 bytes 
 498:Generated_Source\PSoC5/USBFS_std.c ****     USBFS_BUF_SIZE_REG = USBFS_DMA_BUF_SIZE;
 499:Generated_Source\PSoC5/USBFS_std.c **** 
 500:Generated_Source\PSoC5/USBFS_std.c ****     /* Configure DMA burst threshold */
 501:Generated_Source\PSoC5/USBFS_std.c **** #if (CY_PSOC4)
 502:Generated_Source\PSoC5/USBFS_std.c ****     USBFS_DMA_THRES16_REG   = USBFS_DMA_BYTES_PER_BURST;
 503:Generated_Source\PSoC5/USBFS_std.c **** #else
 504:Generated_Source\PSoC5/USBFS_std.c ****     USBFS_DMA_THRES_REG     = USBFS_DMA_BYTES_PER_BURST;
 505:Generated_Source\PSoC5/USBFS_std.c ****     USBFS_DMA_THRES_MSB_REG = 0u;
 506:Generated_Source\PSoC5/USBFS_std.c **** #endif /* (CY_PSOC4) */
 507:Generated_Source\PSoC5/USBFS_std.c ****     USBFS_EP_ACTIVE_REG = USBFS_DEFAULT_ARB_INT_EN;
 508:Generated_Source\PSoC5/USBFS_std.c ****     USBFS_EP_TYPE_REG   = epType;
 509:Generated_Source\PSoC5/USBFS_std.c ****     
 510:Generated_Source\PSoC5/USBFS_std.c ****     /* Cfg_cmp bit set to 1 once configuration is complete. */
 511:Generated_Source\PSoC5/USBFS_std.c ****     /* Lock arbiter configtuation */
 512:Generated_Source\PSoC5/USBFS_std.c ****     USBFS_ARB_CFG_REG |= (uint8)  USBFS_ARB_CFG_CFG_CMP;
 513:Generated_Source\PSoC5/USBFS_std.c ****     /* Cfg_cmp bit set to 0 during configuration of PFSUSB Registers. */
 514:Generated_Source\PSoC5/USBFS_std.c ****     USBFS_ARB_CFG_REG &= (uint8) ~USBFS_ARB_CFG_CFG_CMP;
 515:Generated_Source\PSoC5/USBFS_std.c **** 
 516:Generated_Source\PSoC5/USBFS_std.c **** #endif /* (USBFS_EP_MANAGEMENT_DMA_AUTO) */
 517:Generated_Source\PSoC5/USBFS_std.c **** 
ARM GAS  C:\Users\CALEBC~1\AppData\Local\Temp\ccxZVyoW.s 			page 30


 518:Generated_Source\PSoC5/USBFS_std.c ****     /* Enable interrupt SIE interurpt source from EP0-EP1 */
 519:Generated_Source\PSoC5/USBFS_std.c ****     USBFS_SIE_EP_INT_EN_REG = (uint8) USBFS_DEFAULT_SIE_EP_INT_EN;
 1056              		.loc 1 519 0 is_stmt 1
 1057 0124 064B     		ldr	r3, .L86+12
 1058 0126 FF22     		movs	r2, #255
 1059 0128 1A70     		strb	r2, [r3]
 520:Generated_Source\PSoC5/USBFS_std.c **** }
 1060              		.loc 1 520 0
 1061 012a 00BF     		nop
 1062 012c 0837     		adds	r7, r7, #8
 1063              		.cfi_def_cfa_offset 8
 1064 012e BD46     		mov	sp, r7
 1065              		.cfi_def_cfa_register 13
 1066              		@ sp needed
 1067 0130 90BC     		pop	{r4, r7}
 1068              		.cfi_restore 7
 1069              		.cfi_restore 4
 1070              		.cfi_def_cfa_offset 0
 1071 0132 7047     		bx	lr
 1072              	.L87:
 1073              		.align	2
 1074              	.L86:
 1075 0134 70600040 		.word	1073766512
 1076 0138 00000000 		.word	USBFS_EP
 1077 013c FC5F0040 		.word	1073766396
 1078 0140 0A600040 		.word	1073766410
 1079              		.cfi_endproc
 1080              	.LFE2:
 1081              		.size	USBFS_ConfigReg, .-USBFS_ConfigReg
 1082              		.section	.text.USBFS_EpStateInit,"ax",%progbits
 1083              		.align	2
 1084              		.global	USBFS_EpStateInit
 1085              		.thumb
 1086              		.thumb_func
 1087              		.type	USBFS_EpStateInit, %function
 1088              	USBFS_EpStateInit:
 1089              	.LFB3:
 521:Generated_Source\PSoC5/USBFS_std.c **** 
 522:Generated_Source\PSoC5/USBFS_std.c **** 
 523:Generated_Source\PSoC5/USBFS_std.c **** /*******************************************************************************
 524:Generated_Source\PSoC5/USBFS_std.c **** * Function Name: USBFS_EpStateInit
 525:Generated_Source\PSoC5/USBFS_std.c **** ****************************************************************************//**
 526:Generated_Source\PSoC5/USBFS_std.c **** *
 527:Generated_Source\PSoC5/USBFS_std.c **** *  This routine initialize state of Data end points based of its type: 
 528:Generated_Source\PSoC5/USBFS_std.c **** *   IN  - USBFS_IN_BUFFER_EMPTY (USBFS_EVENT_PENDING)
 529:Generated_Source\PSoC5/USBFS_std.c **** *   OUT - USBFS_OUT_BUFFER_EMPTY (USBFS_NO_EVENT_PENDING)
 530:Generated_Source\PSoC5/USBFS_std.c **** *
 531:Generated_Source\PSoC5/USBFS_std.c **** *******************************************************************************/
 532:Generated_Source\PSoC5/USBFS_std.c **** void USBFS_EpStateInit(void) 
 533:Generated_Source\PSoC5/USBFS_std.c **** {
 1090              		.loc 1 533 0
 1091              		.cfi_startproc
 1092              		@ args = 0, pretend = 0, frame = 8
 1093              		@ frame_needed = 1, uses_anonymous_args = 0
 1094              		@ link register save eliminated.
 1095 0000 80B4     		push	{r7}
 1096              		.cfi_def_cfa_offset 4
ARM GAS  C:\Users\CALEBC~1\AppData\Local\Temp\ccxZVyoW.s 			page 31


 1097              		.cfi_offset 7, -4
 1098 0002 83B0     		sub	sp, sp, #12
 1099              		.cfi_def_cfa_offset 16
 1100 0004 00AF     		add	r7, sp, #0
 1101              		.cfi_def_cfa_register 7
 534:Generated_Source\PSoC5/USBFS_std.c ****     uint8 i;
 535:Generated_Source\PSoC5/USBFS_std.c **** 
 536:Generated_Source\PSoC5/USBFS_std.c ****     for (i = USBFS_EP1; i < USBFS_MAX_EP; i++)
 1102              		.loc 1 536 0
 1103 0006 0123     		movs	r3, #1
 1104 0008 FB71     		strb	r3, [r7, #7]
 1105 000a 24E0     		b	.L89
 1106              	.L92:
 537:Generated_Source\PSoC5/USBFS_std.c ****     { 
 538:Generated_Source\PSoC5/USBFS_std.c ****         if (0u != (USBFS_EP[i].addr & USBFS_DIR_IN))
 1107              		.loc 1 538 0
 1108 000c FA79     		ldrb	r2, [r7, #7]	@ zero_extendqisi2
 1109 000e 1649     		ldr	r1, .L93
 1110 0010 1346     		mov	r3, r2
 1111 0012 5B00     		lsls	r3, r3, #1
 1112 0014 1344     		add	r3, r3, r2
 1113 0016 9B00     		lsls	r3, r3, #2
 1114 0018 0B44     		add	r3, r3, r1
 1115 001a 0433     		adds	r3, r3, #4
 1116 001c 1B78     		ldrb	r3, [r3]
 1117 001e DBB2     		uxtb	r3, r3
 1118 0020 5BB2     		sxtb	r3, r3
 1119 0022 002B     		cmp	r3, #0
 1120 0024 0ADA     		bge	.L90
 539:Generated_Source\PSoC5/USBFS_std.c ****         {
 540:Generated_Source\PSoC5/USBFS_std.c ****             /* IN Endpoint */
 541:Generated_Source\PSoC5/USBFS_std.c ****             USBFS_EP[i].apiEpState = USBFS_EVENT_PENDING;
 1121              		.loc 1 541 0
 1122 0026 FA79     		ldrb	r2, [r7, #7]	@ zero_extendqisi2
 1123 0028 0F49     		ldr	r1, .L93
 1124 002a 1346     		mov	r3, r2
 1125 002c 5B00     		lsls	r3, r3, #1
 1126 002e 1344     		add	r3, r3, r2
 1127 0030 9B00     		lsls	r3, r3, #2
 1128 0032 0B44     		add	r3, r3, r1
 1129 0034 0133     		adds	r3, r3, #1
 1130 0036 0122     		movs	r2, #1
 1131 0038 1A70     		strb	r2, [r3]
 1132 003a 09E0     		b	.L91
 1133              	.L90:
 542:Generated_Source\PSoC5/USBFS_std.c ****         }
 543:Generated_Source\PSoC5/USBFS_std.c ****         else
 544:Generated_Source\PSoC5/USBFS_std.c ****         {
 545:Generated_Source\PSoC5/USBFS_std.c ****             /* OUT Endpoint */
 546:Generated_Source\PSoC5/USBFS_std.c ****             USBFS_EP[i].apiEpState = USBFS_NO_EVENT_PENDING;
 1134              		.loc 1 546 0
 1135 003c FA79     		ldrb	r2, [r7, #7]	@ zero_extendqisi2
 1136 003e 0A49     		ldr	r1, .L93
 1137 0040 1346     		mov	r3, r2
 1138 0042 5B00     		lsls	r3, r3, #1
 1139 0044 1344     		add	r3, r3, r2
 1140 0046 9B00     		lsls	r3, r3, #2
ARM GAS  C:\Users\CALEBC~1\AppData\Local\Temp\ccxZVyoW.s 			page 32


 1141 0048 0B44     		add	r3, r3, r1
 1142 004a 0133     		adds	r3, r3, #1
 1143 004c 0022     		movs	r2, #0
 1144 004e 1A70     		strb	r2, [r3]
 1145              	.L91:
 536:Generated_Source\PSoC5/USBFS_std.c ****     { 
 1146              		.loc 1 536 0 discriminator 2
 1147 0050 FB79     		ldrb	r3, [r7, #7]	@ zero_extendqisi2
 1148 0052 0133     		adds	r3, r3, #1
 1149 0054 FB71     		strb	r3, [r7, #7]
 1150              	.L89:
 536:Generated_Source\PSoC5/USBFS_std.c ****     { 
 1151              		.loc 1 536 0 is_stmt 0 discriminator 1
 1152 0056 FB79     		ldrb	r3, [r7, #7]	@ zero_extendqisi2
 1153 0058 082B     		cmp	r3, #8
 1154 005a D7D9     		bls	.L92
 547:Generated_Source\PSoC5/USBFS_std.c ****         }
 548:Generated_Source\PSoC5/USBFS_std.c ****     }
 549:Generated_Source\PSoC5/USBFS_std.c ****                     
 550:Generated_Source\PSoC5/USBFS_std.c **** }
 1155              		.loc 1 550 0 is_stmt 1
 1156 005c 00BF     		nop
 1157 005e 0C37     		adds	r7, r7, #12
 1158              		.cfi_def_cfa_offset 4
 1159 0060 BD46     		mov	sp, r7
 1160              		.cfi_def_cfa_register 13
 1161              		@ sp needed
 1162 0062 80BC     		pop	{r7}
 1163              		.cfi_restore 7
 1164              		.cfi_def_cfa_offset 0
 1165 0064 7047     		bx	lr
 1166              	.L94:
 1167 0066 00BF     		.align	2
 1168              	.L93:
 1169 0068 00000000 		.word	USBFS_EP
 1170              		.cfi_endproc
 1171              	.LFE3:
 1172              		.size	USBFS_EpStateInit, .-USBFS_EpStateInit
 1173              		.section	.text.USBFS_Config,"ax",%progbits
 1174              		.align	2
 1175              		.global	USBFS_Config
 1176              		.thumb
 1177              		.thumb_func
 1178              		.type	USBFS_Config, %function
 1179              	USBFS_Config:
 1180              	.LFB4:
 551:Generated_Source\PSoC5/USBFS_std.c **** 
 552:Generated_Source\PSoC5/USBFS_std.c **** 
 553:Generated_Source\PSoC5/USBFS_std.c **** /*******************************************************************************
 554:Generated_Source\PSoC5/USBFS_std.c **** * Function Name: USBFS_Config
 555:Generated_Source\PSoC5/USBFS_std.c **** ****************************************************************************//**
 556:Generated_Source\PSoC5/USBFS_std.c **** *
 557:Generated_Source\PSoC5/USBFS_std.c **** *  This routine configures endpoints for the entire configuration by scanning
 558:Generated_Source\PSoC5/USBFS_std.c **** *  the configuration descriptor.
 559:Generated_Source\PSoC5/USBFS_std.c **** *
 560:Generated_Source\PSoC5/USBFS_std.c **** *  \param clearAltSetting: It configures the bAlternateSetting 0 for each interface.
 561:Generated_Source\PSoC5/USBFS_std.c **** *
ARM GAS  C:\Users\CALEBC~1\AppData\Local\Temp\ccxZVyoW.s 			page 33


 562:Generated_Source\PSoC5/USBFS_std.c **** * USBFS_interfaceClass - Initialized class array for each interface.
 563:Generated_Source\PSoC5/USBFS_std.c **** *   It is used for handling Class specific requests depend on interface class.
 564:Generated_Source\PSoC5/USBFS_std.c **** *   Different classes in multiple Alternate settings does not supported.
 565:Generated_Source\PSoC5/USBFS_std.c **** *
 566:Generated_Source\PSoC5/USBFS_std.c **** * \reentrant
 567:Generated_Source\PSoC5/USBFS_std.c **** *  No.
 568:Generated_Source\PSoC5/USBFS_std.c **** *
 569:Generated_Source\PSoC5/USBFS_std.c **** *******************************************************************************/
 570:Generated_Source\PSoC5/USBFS_std.c **** void USBFS_Config(uint8 clearAltSetting) 
 571:Generated_Source\PSoC5/USBFS_std.c **** {
 1181              		.loc 1 571 0
 1182              		.cfi_startproc
 1183              		@ args = 0, pretend = 0, frame = 32
 1184              		@ frame_needed = 1, uses_anonymous_args = 0
 1185 0000 80B5     		push	{r7, lr}
 1186              		.cfi_def_cfa_offset 8
 1187              		.cfi_offset 7, -8
 1188              		.cfi_offset 14, -4
 1189 0002 88B0     		sub	sp, sp, #32
 1190              		.cfi_def_cfa_offset 40
 1191 0004 00AF     		add	r7, sp, #0
 1192              		.cfi_def_cfa_register 7
 1193 0006 0346     		mov	r3, r0
 1194 0008 FB71     		strb	r3, [r7, #7]
 572:Generated_Source\PSoC5/USBFS_std.c ****     uint8 ep;
 573:Generated_Source\PSoC5/USBFS_std.c ****     uint8 curEp;
 574:Generated_Source\PSoC5/USBFS_std.c ****     uint8 i;
 575:Generated_Source\PSoC5/USBFS_std.c ****     uint8 epType;
 576:Generated_Source\PSoC5/USBFS_std.c ****     const uint8 *pDescr;
 577:Generated_Source\PSoC5/USBFS_std.c ****     
 578:Generated_Source\PSoC5/USBFS_std.c ****     #if (!USBFS_EP_MANAGEMENT_DMA_AUTO)
 579:Generated_Source\PSoC5/USBFS_std.c ****         uint16 buffCount = 0u;
 1195              		.loc 1 579 0
 1196 000a 0023     		movs	r3, #0
 1197 000c 7B83     		strh	r3, [r7, #26]	@ movhi
 580:Generated_Source\PSoC5/USBFS_std.c ****     #endif /* (!USBFS_EP_MANAGEMENT_DMA_AUTO) */
 581:Generated_Source\PSoC5/USBFS_std.c **** 
 582:Generated_Source\PSoC5/USBFS_std.c ****     const T_USBFS_LUT CYCODE *pTmp;
 583:Generated_Source\PSoC5/USBFS_std.c ****     const T_USBFS_EP_SETTINGS_BLOCK CYCODE *pEP;
 584:Generated_Source\PSoC5/USBFS_std.c **** 
 585:Generated_Source\PSoC5/USBFS_std.c ****     /* Clear endpoints settings */
 586:Generated_Source\PSoC5/USBFS_std.c ****     for (ep = 0u; ep < USBFS_MAX_EP; ++ep)
 1198              		.loc 1 586 0
 1199 000e 0023     		movs	r3, #0
 1200 0010 FB77     		strb	r3, [r7, #31]
 1201 0012 47E0     		b	.L96
 1202              	.L97:
 587:Generated_Source\PSoC5/USBFS_std.c ****     {
 588:Generated_Source\PSoC5/USBFS_std.c ****         USBFS_EP[ep].attrib     = 0u;
 1203              		.loc 1 588 0 discriminator 3
 1204 0014 FA7F     		ldrb	r2, [r7, #31]	@ zero_extendqisi2
 1205 0016 A949     		ldr	r1, .L120
 1206 0018 1346     		mov	r3, r2
 1207 001a 5B00     		lsls	r3, r3, #1
 1208 001c 1344     		add	r3, r3, r2
 1209 001e 9B00     		lsls	r3, r3, #2
 1210 0020 0B44     		add	r3, r3, r1
ARM GAS  C:\Users\CALEBC~1\AppData\Local\Temp\ccxZVyoW.s 			page 34


 1211 0022 0022     		movs	r2, #0
 1212 0024 1A70     		strb	r2, [r3]
 589:Generated_Source\PSoC5/USBFS_std.c ****         USBFS_EP[ep].hwEpState  = 0u;
 1213              		.loc 1 589 0 discriminator 3
 1214 0026 FA7F     		ldrb	r2, [r7, #31]	@ zero_extendqisi2
 1215 0028 A449     		ldr	r1, .L120
 1216 002a 1346     		mov	r3, r2
 1217 002c 5B00     		lsls	r3, r3, #1
 1218 002e 1344     		add	r3, r3, r2
 1219 0030 9B00     		lsls	r3, r3, #2
 1220 0032 0B44     		add	r3, r3, r1
 1221 0034 0233     		adds	r3, r3, #2
 1222 0036 0022     		movs	r2, #0
 1223 0038 1A70     		strb	r2, [r3]
 590:Generated_Source\PSoC5/USBFS_std.c ****         USBFS_EP[ep].epToggle   = 0u;
 1224              		.loc 1 590 0 discriminator 3
 1225 003a FA7F     		ldrb	r2, [r7, #31]	@ zero_extendqisi2
 1226 003c 9F49     		ldr	r1, .L120
 1227 003e 1346     		mov	r3, r2
 1228 0040 5B00     		lsls	r3, r3, #1
 1229 0042 1344     		add	r3, r3, r2
 1230 0044 9B00     		lsls	r3, r3, #2
 1231 0046 0B44     		add	r3, r3, r1
 1232 0048 0333     		adds	r3, r3, #3
 1233 004a 0022     		movs	r2, #0
 1234 004c 1A70     		strb	r2, [r3]
 591:Generated_Source\PSoC5/USBFS_std.c ****         USBFS_EP[ep].bufferSize = 0u;
 1235              		.loc 1 591 0 discriminator 3
 1236 004e FA7F     		ldrb	r2, [r7, #31]	@ zero_extendqisi2
 1237 0050 9A49     		ldr	r1, .L120
 1238 0052 1346     		mov	r3, r2
 1239 0054 5B00     		lsls	r3, r3, #1
 1240 0056 1344     		add	r3, r3, r2
 1241 0058 9B00     		lsls	r3, r3, #2
 1242 005a 0B44     		add	r3, r3, r1
 1243 005c 0833     		adds	r3, r3, #8
 1244 005e 0022     		movs	r2, #0
 1245 0060 1A80     		strh	r2, [r3]	@ movhi
 592:Generated_Source\PSoC5/USBFS_std.c ****         USBFS_EP[ep].interface  = 0u;
 1246              		.loc 1 592 0 discriminator 3
 1247 0062 FA7F     		ldrb	r2, [r7, #31]	@ zero_extendqisi2
 1248 0064 9549     		ldr	r1, .L120
 1249 0066 1346     		mov	r3, r2
 1250 0068 5B00     		lsls	r3, r3, #1
 1251 006a 1344     		add	r3, r3, r2
 1252 006c 9B00     		lsls	r3, r3, #2
 1253 006e 0B44     		add	r3, r3, r1
 1254 0070 0A33     		adds	r3, r3, #10
 1255 0072 0022     		movs	r2, #0
 1256 0074 1A70     		strb	r2, [r3]
 593:Generated_Source\PSoC5/USBFS_std.c ****         USBFS_EP[ep].apiEpState = USBFS_NO_EVENT_PENDING;
 1257              		.loc 1 593 0 discriminator 3
 1258 0076 FA7F     		ldrb	r2, [r7, #31]	@ zero_extendqisi2
 1259 0078 9049     		ldr	r1, .L120
 1260 007a 1346     		mov	r3, r2
 1261 007c 5B00     		lsls	r3, r3, #1
 1262 007e 1344     		add	r3, r3, r2
ARM GAS  C:\Users\CALEBC~1\AppData\Local\Temp\ccxZVyoW.s 			page 35


 1263 0080 9B00     		lsls	r3, r3, #2
 1264 0082 0B44     		add	r3, r3, r1
 1265 0084 0133     		adds	r3, r3, #1
 1266 0086 0022     		movs	r2, #0
 1267 0088 1A70     		strb	r2, [r3]
 594:Generated_Source\PSoC5/USBFS_std.c ****         USBFS_EP[ep].epMode     = USBFS_MODE_DISABLE;   
 1268              		.loc 1 594 0 discriminator 3
 1269 008a FA7F     		ldrb	r2, [r7, #31]	@ zero_extendqisi2
 1270 008c 8B49     		ldr	r1, .L120
 1271 008e 1346     		mov	r3, r2
 1272 0090 5B00     		lsls	r3, r3, #1
 1273 0092 1344     		add	r3, r3, r2
 1274 0094 9B00     		lsls	r3, r3, #2
 1275 0096 0B44     		add	r3, r3, r1
 1276 0098 0533     		adds	r3, r3, #5
 1277 009a 0022     		movs	r2, #0
 1278 009c 1A70     		strb	r2, [r3]
 586:Generated_Source\PSoC5/USBFS_std.c ****     {
 1279              		.loc 1 586 0 discriminator 3
 1280 009e FB7F     		ldrb	r3, [r7, #31]
 1281 00a0 0133     		adds	r3, r3, #1
 1282 00a2 FB77     		strb	r3, [r7, #31]
 1283              	.L96:
 586:Generated_Source\PSoC5/USBFS_std.c ****     {
 1284              		.loc 1 586 0 is_stmt 0 discriminator 1
 1285 00a4 FB7F     		ldrb	r3, [r7, #31]	@ zero_extendqisi2
 1286 00a6 082B     		cmp	r3, #8
 1287 00a8 B4D9     		bls	.L97
 595:Generated_Source\PSoC5/USBFS_std.c ****     }
 596:Generated_Source\PSoC5/USBFS_std.c **** 
 597:Generated_Source\PSoC5/USBFS_std.c ****     /* Clear Alternate settings for all interfaces. */
 598:Generated_Source\PSoC5/USBFS_std.c ****     if (0u != clearAltSetting)
 1288              		.loc 1 598 0 is_stmt 1
 1289 00aa FB79     		ldrb	r3, [r7, #7]	@ zero_extendqisi2
 1290 00ac 002B     		cmp	r3, #0
 1291 00ae 10D0     		beq	.L98
 599:Generated_Source\PSoC5/USBFS_std.c ****     {
 600:Generated_Source\PSoC5/USBFS_std.c ****         for (i = 0u; i < USBFS_MAX_INTERFACES_NUMBER; ++i)
 1292              		.loc 1 600 0
 1293 00b0 0023     		movs	r3, #0
 1294 00b2 7B77     		strb	r3, [r7, #29]
 1295 00b4 0AE0     		b	.L99
 1296              	.L100:
 601:Generated_Source\PSoC5/USBFS_std.c ****         {
 602:Generated_Source\PSoC5/USBFS_std.c ****             USBFS_interfaceSetting[i]     = 0u;
 1297              		.loc 1 602 0 discriminator 3
 1298 00b6 7B7F     		ldrb	r3, [r7, #29]	@ zero_extendqisi2
 1299 00b8 814A     		ldr	r2, .L120+4
 1300 00ba 0021     		movs	r1, #0
 1301 00bc D154     		strb	r1, [r2, r3]
 603:Generated_Source\PSoC5/USBFS_std.c ****             USBFS_interfaceSettingLast[i] = 0u;
 1302              		.loc 1 603 0 discriminator 3
 1303 00be 7B7F     		ldrb	r3, [r7, #29]	@ zero_extendqisi2
 1304 00c0 804A     		ldr	r2, .L120+8
 1305 00c2 0021     		movs	r1, #0
 1306 00c4 D154     		strb	r1, [r2, r3]
 600:Generated_Source\PSoC5/USBFS_std.c ****         {
ARM GAS  C:\Users\CALEBC~1\AppData\Local\Temp\ccxZVyoW.s 			page 36


 1307              		.loc 1 600 0 discriminator 3
 1308 00c6 7B7F     		ldrb	r3, [r7, #29]
 1309 00c8 0133     		adds	r3, r3, #1
 1310 00ca 7B77     		strb	r3, [r7, #29]
 1311              	.L99:
 600:Generated_Source\PSoC5/USBFS_std.c ****         {
 1312              		.loc 1 600 0 is_stmt 0 discriminator 1
 1313 00cc 7B7F     		ldrb	r3, [r7, #29]	@ zero_extendqisi2
 1314 00ce 002B     		cmp	r3, #0
 1315 00d0 F1D0     		beq	.L100
 1316              	.L98:
 604:Generated_Source\PSoC5/USBFS_std.c ****         }
 605:Generated_Source\PSoC5/USBFS_std.c ****     }
 606:Generated_Source\PSoC5/USBFS_std.c **** 
 607:Generated_Source\PSoC5/USBFS_std.c ****     /* Init Endpoints and Device Status if configured */
 608:Generated_Source\PSoC5/USBFS_std.c ****     if (USBFS_configuration > 0u)
 1317              		.loc 1 608 0 is_stmt 1
 1318 00d2 7D4B     		ldr	r3, .L120+12
 1319 00d4 1B78     		ldrb	r3, [r3]
 1320 00d6 DBB2     		uxtb	r3, r3
 1321 00d8 002B     		cmp	r3, #0
 1322 00da 00F02181 		beq	.L119
 609:Generated_Source\PSoC5/USBFS_std.c ****     {
 610:Generated_Source\PSoC5/USBFS_std.c ****         #if defined(USBFS_ENABLE_CDC_CLASS)
 611:Generated_Source\PSoC5/USBFS_std.c ****             uint8 cdcComNums = 0u;
 612:Generated_Source\PSoC5/USBFS_std.c ****         #endif  /* (USBFS_ENABLE_CDC_CLASS) */  
 613:Generated_Source\PSoC5/USBFS_std.c **** 
 614:Generated_Source\PSoC5/USBFS_std.c ****         pTmp = USBFS_GetConfigTablePtr(USBFS_configuration - 1u);
 1323              		.loc 1 614 0
 1324 00de 7A4B     		ldr	r3, .L120+12
 1325 00e0 1B78     		ldrb	r3, [r3]
 1326 00e2 DBB2     		uxtb	r3, r3
 1327 00e4 013B     		subs	r3, r3, #1
 1328 00e6 DBB2     		uxtb	r3, r3
 1329 00e8 1846     		mov	r0, r3
 1330 00ea FFF7FEFF 		bl	USBFS_GetConfigTablePtr
 1331 00ee 3861     		str	r0, [r7, #16]
 615:Generated_Source\PSoC5/USBFS_std.c ****         
 616:Generated_Source\PSoC5/USBFS_std.c ****         /* Set Power status for current configuration */
 617:Generated_Source\PSoC5/USBFS_std.c ****         pDescr = (const uint8 *)pTmp->p_list;
 1332              		.loc 1 617 0
 1333 00f0 3B69     		ldr	r3, [r7, #16]
 1334 00f2 5B68     		ldr	r3, [r3, #4]
 1335 00f4 FB60     		str	r3, [r7, #12]
 618:Generated_Source\PSoC5/USBFS_std.c ****         if ((pDescr[USBFS_CONFIG_DESCR_ATTRIB] & USBFS_CONFIG_DESCR_ATTRIB_SELF_POWERED) != 0u)
 1336              		.loc 1 618 0
 1337 00f6 FB68     		ldr	r3, [r7, #12]
 1338 00f8 0733     		adds	r3, r3, #7
 1339 00fa 1B78     		ldrb	r3, [r3]	@ zero_extendqisi2
 1340 00fc 03F04003 		and	r3, r3, #64
 1341 0100 002B     		cmp	r3, #0
 1342 0102 08D0     		beq	.L102
 619:Generated_Source\PSoC5/USBFS_std.c ****         {
 620:Generated_Source\PSoC5/USBFS_std.c ****             USBFS_deviceStatus |= (uint8)  USBFS_DEVICE_STATUS_SELF_POWERED;
 1343              		.loc 1 620 0
 1344 0104 714B     		ldr	r3, .L120+16
 1345 0106 1B78     		ldrb	r3, [r3]
ARM GAS  C:\Users\CALEBC~1\AppData\Local\Temp\ccxZVyoW.s 			page 37


 1346 0108 DBB2     		uxtb	r3, r3
 1347 010a 43F00103 		orr	r3, r3, #1
 1348 010e DAB2     		uxtb	r2, r3
 1349 0110 6E4B     		ldr	r3, .L120+16
 1350 0112 1A70     		strb	r2, [r3]
 1351 0114 07E0     		b	.L103
 1352              	.L102:
 621:Generated_Source\PSoC5/USBFS_std.c ****         }
 622:Generated_Source\PSoC5/USBFS_std.c ****         else
 623:Generated_Source\PSoC5/USBFS_std.c ****         {
 624:Generated_Source\PSoC5/USBFS_std.c ****             USBFS_deviceStatus &= (uint8) ~USBFS_DEVICE_STATUS_SELF_POWERED;
 1353              		.loc 1 624 0
 1354 0116 6D4B     		ldr	r3, .L120+16
 1355 0118 1B78     		ldrb	r3, [r3]
 1356 011a DBB2     		uxtb	r3, r3
 1357 011c 23F00103 		bic	r3, r3, #1
 1358 0120 DAB2     		uxtb	r2, r3
 1359 0122 6A4B     		ldr	r3, .L120+16
 1360 0124 1A70     		strb	r2, [r3]
 1361              	.L103:
 625:Generated_Source\PSoC5/USBFS_std.c ****         }
 626:Generated_Source\PSoC5/USBFS_std.c ****         
 627:Generated_Source\PSoC5/USBFS_std.c ****         /* Move to next element */
 628:Generated_Source\PSoC5/USBFS_std.c ****         pTmp = &pTmp[1u];
 1362              		.loc 1 628 0
 1363 0126 3B69     		ldr	r3, [r7, #16]
 1364 0128 0833     		adds	r3, r3, #8
 1365 012a 3B61     		str	r3, [r7, #16]
 629:Generated_Source\PSoC5/USBFS_std.c ****         ep = pTmp->c;  /* For this table, c is the number of endpoints configurations  */
 1366              		.loc 1 629 0
 1367 012c 3B69     		ldr	r3, [r7, #16]
 1368 012e 1B78     		ldrb	r3, [r3]
 1369 0130 FB77     		strb	r3, [r7, #31]
 630:Generated_Source\PSoC5/USBFS_std.c **** 
 631:Generated_Source\PSoC5/USBFS_std.c ****         #if (USBFS_EP_MANAGEMENT_MANUAL && USBFS_EP_ALLOC_DYNAMIC)
 632:Generated_Source\PSoC5/USBFS_std.c ****             /* Configure for dynamic EP memory allocation */
 633:Generated_Source\PSoC5/USBFS_std.c ****             /* p_list points the endpoint setting table. */
 634:Generated_Source\PSoC5/USBFS_std.c ****             pEP = (T_USBFS_EP_SETTINGS_BLOCK *) pTmp->p_list;
 635:Generated_Source\PSoC5/USBFS_std.c ****             
 636:Generated_Source\PSoC5/USBFS_std.c ****             for (i = 0u; i < ep; i++)
 637:Generated_Source\PSoC5/USBFS_std.c ****             {     
 638:Generated_Source\PSoC5/USBFS_std.c ****                 /* Compare current Alternate setting with EP Alt */
 639:Generated_Source\PSoC5/USBFS_std.c ****                 if (USBFS_interfaceSetting[pEP->interface] == pEP->altSetting)
 640:Generated_Source\PSoC5/USBFS_std.c ****                 {                                                          
 641:Generated_Source\PSoC5/USBFS_std.c ****                     curEp  = pEP->addr & USBFS_DIR_UNUSED;
 642:Generated_Source\PSoC5/USBFS_std.c ****                     epType = pEP->attributes & USBFS_EP_TYPE_MASK;
 643:Generated_Source\PSoC5/USBFS_std.c ****                     
 644:Generated_Source\PSoC5/USBFS_std.c ****                     USBFS_EP[curEp].addr       = pEP->addr;
 645:Generated_Source\PSoC5/USBFS_std.c ****                     USBFS_EP[curEp].attrib     = pEP->attributes;
 646:Generated_Source\PSoC5/USBFS_std.c ****                     USBFS_EP[curEp].bufferSize = pEP->bufferSize;
 647:Generated_Source\PSoC5/USBFS_std.c **** 
 648:Generated_Source\PSoC5/USBFS_std.c ****                     if (0u != (pEP->addr & USBFS_DIR_IN))
 649:Generated_Source\PSoC5/USBFS_std.c ****                     {
 650:Generated_Source\PSoC5/USBFS_std.c ****                         /* IN Endpoint */
 651:Generated_Source\PSoC5/USBFS_std.c ****                         USBFS_EP[curEp].epMode     = USBFS_GET_ACTIVE_IN_EP_CR0_MODE(epType);
 652:Generated_Source\PSoC5/USBFS_std.c ****                         USBFS_EP[curEp].apiEpState = USBFS_EVENT_PENDING;
 653:Generated_Source\PSoC5/USBFS_std.c ****                     
ARM GAS  C:\Users\CALEBC~1\AppData\Local\Temp\ccxZVyoW.s 			page 38


 654:Generated_Source\PSoC5/USBFS_std.c ****                     #if (defined(USBFS_ENABLE_MIDI_STREAMING) && (USBFS_MIDI_IN_BUFF_SIZE > 0))
 655:Generated_Source\PSoC5/USBFS_std.c ****                         if ((pEP->bMisc == USBFS_CLASS_AUDIO) && (epType == USBFS_EP_TYPE_BULK))
 656:Generated_Source\PSoC5/USBFS_std.c ****                         {
 657:Generated_Source\PSoC5/USBFS_std.c ****                             USBFS_midi_in_ep = curEp;
 658:Generated_Source\PSoC5/USBFS_std.c ****                         }
 659:Generated_Source\PSoC5/USBFS_std.c ****                     #endif  /* (USBFS_ENABLE_MIDI_STREAMING) */
 660:Generated_Source\PSoC5/USBFS_std.c ****                     }
 661:Generated_Source\PSoC5/USBFS_std.c ****                     else
 662:Generated_Source\PSoC5/USBFS_std.c ****                     {
 663:Generated_Source\PSoC5/USBFS_std.c ****                         /* OUT Endpoint */
 664:Generated_Source\PSoC5/USBFS_std.c ****                         USBFS_EP[curEp].epMode     = USBFS_GET_ACTIVE_OUT_EP_CR0_MODE(epType);
 665:Generated_Source\PSoC5/USBFS_std.c ****                         USBFS_EP[curEp].apiEpState = USBFS_NO_EVENT_PENDING;
 666:Generated_Source\PSoC5/USBFS_std.c ****                         
 667:Generated_Source\PSoC5/USBFS_std.c ****                     #if (defined(USBFS_ENABLE_MIDI_STREAMING) && (USBFS_MIDI_OUT_BUFF_SIZE > 0))
 668:Generated_Source\PSoC5/USBFS_std.c ****                         if ((pEP->bMisc == USBFS_CLASS_AUDIO) && (epType == USBFS_EP_TYPE_BULK))
 669:Generated_Source\PSoC5/USBFS_std.c ****                         {
 670:Generated_Source\PSoC5/USBFS_std.c ****                             USBFS_midi_out_ep = curEp;
 671:Generated_Source\PSoC5/USBFS_std.c ****                         }
 672:Generated_Source\PSoC5/USBFS_std.c ****                     #endif  /* (USBFS_ENABLE_MIDI_STREAMING) */
 673:Generated_Source\PSoC5/USBFS_std.c ****                     }
 674:Generated_Source\PSoC5/USBFS_std.c **** 
 675:Generated_Source\PSoC5/USBFS_std.c ****                 #if(defined (USBFS_ENABLE_CDC_CLASS))
 676:Generated_Source\PSoC5/USBFS_std.c ****                     if((pEP->bMisc == USBFS_CLASS_CDC_DATA) ||(pEP->bMisc == USBFS_CLASS_CDC))
 677:Generated_Source\PSoC5/USBFS_std.c ****                     {
 678:Generated_Source\PSoC5/USBFS_std.c ****                         cdcComNums = USBFS_Cdc_EpInit(pEP, curEp, cdcComNums);
 679:Generated_Source\PSoC5/USBFS_std.c ****                     }
 680:Generated_Source\PSoC5/USBFS_std.c ****                 #endif  /* (USBFS_ENABLE_CDC_CLASS) */
 681:Generated_Source\PSoC5/USBFS_std.c ****                 }
 682:Generated_Source\PSoC5/USBFS_std.c ****                 
 683:Generated_Source\PSoC5/USBFS_std.c ****                 pEP = &pEP[1u];
 684:Generated_Source\PSoC5/USBFS_std.c ****             }
 685:Generated_Source\PSoC5/USBFS_std.c ****             
 686:Generated_Source\PSoC5/USBFS_std.c ****         #else
 687:Generated_Source\PSoC5/USBFS_std.c ****             for (i = USBFS_EP1; i < USBFS_MAX_EP; ++i)
 1370              		.loc 1 687 0
 1371 0132 0123     		movs	r3, #1
 1372 0134 7B77     		strb	r3, [r7, #29]
 1373 0136 94E0     		b	.L104
 1374              	.L114:
 688:Generated_Source\PSoC5/USBFS_std.c ****             {
 689:Generated_Source\PSoC5/USBFS_std.c ****                 /* p_list points the endpoint setting table. */
 690:Generated_Source\PSoC5/USBFS_std.c ****                 pEP = (const T_USBFS_EP_SETTINGS_BLOCK CYCODE *) pTmp->p_list;
 1375              		.loc 1 690 0
 1376 0138 3B69     		ldr	r3, [r7, #16]
 1377 013a 5B68     		ldr	r3, [r3, #4]
 1378 013c 7B61     		str	r3, [r7, #20]
 691:Generated_Source\PSoC5/USBFS_std.c ****                 /* Find max length for each EP and select it (length could be different in differen
 692:Generated_Source\PSoC5/USBFS_std.c ****                 /* but other settings should be correct with regards to Interface alt Setting */
 693:Generated_Source\PSoC5/USBFS_std.c ****                 
 694:Generated_Source\PSoC5/USBFS_std.c ****                 for (curEp = 0u; curEp < ep; ++curEp)
 1379              		.loc 1 694 0
 1380 013e 0023     		movs	r3, #0
 1381 0140 BB77     		strb	r3, [r7, #30]
 1382 0142 86E0     		b	.L105
 1383              	.L113:
 695:Generated_Source\PSoC5/USBFS_std.c ****                 {
 696:Generated_Source\PSoC5/USBFS_std.c ****                     if (i == (pEP->addr & USBFS_DIR_UNUSED))
ARM GAS  C:\Users\CALEBC~1\AppData\Local\Temp\ccxZVyoW.s 			page 39


 1384              		.loc 1 696 0
 1385 0144 7A7F     		ldrb	r2, [r7, #29]	@ zero_extendqisi2
 1386 0146 7B69     		ldr	r3, [r7, #20]
 1387 0148 9B78     		ldrb	r3, [r3, #2]	@ zero_extendqisi2
 1388 014a 03F07F03 		and	r3, r3, #127
 1389 014e 9A42     		cmp	r2, r3
 1390 0150 79D1     		bne	.L106
 697:Generated_Source\PSoC5/USBFS_std.c ****                     {
 698:Generated_Source\PSoC5/USBFS_std.c ****                         /* Compare endpoint buffers size with current size to find greater. */
 699:Generated_Source\PSoC5/USBFS_std.c ****                         if (USBFS_EP[i].bufferSize < pEP->bufferSize)
 1391              		.loc 1 699 0
 1392 0152 7A7F     		ldrb	r2, [r7, #29]	@ zero_extendqisi2
 1393 0154 5949     		ldr	r1, .L120
 1394 0156 1346     		mov	r3, r2
 1395 0158 5B00     		lsls	r3, r3, #1
 1396 015a 1344     		add	r3, r3, r2
 1397 015c 9B00     		lsls	r3, r3, #2
 1398 015e 0B44     		add	r3, r3, r1
 1399 0160 0833     		adds	r3, r3, #8
 1400 0162 1B88     		ldrh	r3, [r3]	@ movhi
 1401 0164 9AB2     		uxth	r2, r3
 1402 0166 7B69     		ldr	r3, [r7, #20]
 1403 0168 9B88     		ldrh	r3, [r3, #4]
 1404 016a 9A42     		cmp	r2, r3
 1405 016c 0BD2     		bcs	.L107
 700:Generated_Source\PSoC5/USBFS_std.c ****                         {
 701:Generated_Source\PSoC5/USBFS_std.c ****                             USBFS_EP[i].bufferSize = pEP->bufferSize;
 1406              		.loc 1 701 0
 1407 016e 7A7F     		ldrb	r2, [r7, #29]	@ zero_extendqisi2
 1408 0170 7B69     		ldr	r3, [r7, #20]
 1409 0172 9888     		ldrh	r0, [r3, #4]
 1410 0174 5149     		ldr	r1, .L120
 1411 0176 1346     		mov	r3, r2
 1412 0178 5B00     		lsls	r3, r3, #1
 1413 017a 1344     		add	r3, r3, r2
 1414 017c 9B00     		lsls	r3, r3, #2
 1415 017e 0B44     		add	r3, r3, r1
 1416 0180 0833     		adds	r3, r3, #8
 1417 0182 0246     		mov	r2, r0	@ movhi
 1418 0184 1A80     		strh	r2, [r3]	@ movhi
 1419              	.L107:
 702:Generated_Source\PSoC5/USBFS_std.c ****                         }
 703:Generated_Source\PSoC5/USBFS_std.c ****                         
 704:Generated_Source\PSoC5/USBFS_std.c ****                         /* Compare current Alternate setting with EP Alt */
 705:Generated_Source\PSoC5/USBFS_std.c ****                         if (USBFS_interfaceSetting[pEP->interface] == pEP->altSetting)
 1420              		.loc 1 705 0
 1421 0186 7B69     		ldr	r3, [r7, #20]
 1422 0188 1B78     		ldrb	r3, [r3]	@ zero_extendqisi2
 1423 018a 1A46     		mov	r2, r3
 1424 018c 4C4B     		ldr	r3, .L120+4
 1425 018e 9B5C     		ldrb	r3, [r3, r2]
 1426 0190 DAB2     		uxtb	r2, r3
 1427 0192 7B69     		ldr	r3, [r7, #20]
 1428 0194 5B78     		ldrb	r3, [r3, #1]	@ zero_extendqisi2
 1429 0196 9A42     		cmp	r2, r3
 1430 0198 55D1     		bne	.L106
 706:Generated_Source\PSoC5/USBFS_std.c ****                         {                            
ARM GAS  C:\Users\CALEBC~1\AppData\Local\Temp\ccxZVyoW.s 			page 40


 707:Generated_Source\PSoC5/USBFS_std.c ****                             USBFS_EP[i].addr = pEP->addr;
 1431              		.loc 1 707 0
 1432 019a 7A7F     		ldrb	r2, [r7, #29]	@ zero_extendqisi2
 1433 019c 7B69     		ldr	r3, [r7, #20]
 1434 019e 9878     		ldrb	r0, [r3, #2]	@ zero_extendqisi2
 1435 01a0 4649     		ldr	r1, .L120
 1436 01a2 1346     		mov	r3, r2
 1437 01a4 5B00     		lsls	r3, r3, #1
 1438 01a6 1344     		add	r3, r3, r2
 1439 01a8 9B00     		lsls	r3, r3, #2
 1440 01aa 0B44     		add	r3, r3, r1
 1441 01ac 0433     		adds	r3, r3, #4
 1442 01ae 0246     		mov	r2, r0
 1443 01b0 1A70     		strb	r2, [r3]
 708:Generated_Source\PSoC5/USBFS_std.c ****                             USBFS_EP[i].attrib = pEP->attributes;
 1444              		.loc 1 708 0
 1445 01b2 7A7F     		ldrb	r2, [r7, #29]	@ zero_extendqisi2
 1446 01b4 7B69     		ldr	r3, [r7, #20]
 1447 01b6 D878     		ldrb	r0, [r3, #3]	@ zero_extendqisi2
 1448 01b8 4049     		ldr	r1, .L120
 1449 01ba 1346     		mov	r3, r2
 1450 01bc 5B00     		lsls	r3, r3, #1
 1451 01be 1344     		add	r3, r3, r2
 1452 01c0 9B00     		lsls	r3, r3, #2
 1453 01c2 0B44     		add	r3, r3, r1
 1454 01c4 0246     		mov	r2, r0
 1455 01c6 1A70     		strb	r2, [r3]
 709:Generated_Source\PSoC5/USBFS_std.c ****                             
 710:Generated_Source\PSoC5/USBFS_std.c ****                             epType = pEP->attributes & USBFS_EP_TYPE_MASK;
 1456              		.loc 1 710 0
 1457 01c8 7B69     		ldr	r3, [r7, #20]
 1458 01ca DB78     		ldrb	r3, [r3, #3]	@ zero_extendqisi2
 1459 01cc 03F00303 		and	r3, r3, #3
 1460 01d0 FB72     		strb	r3, [r7, #11]
 711:Generated_Source\PSoC5/USBFS_std.c ****                             
 712:Generated_Source\PSoC5/USBFS_std.c ****                             if (0u != (pEP->addr & USBFS_DIR_IN))
 1461              		.loc 1 712 0
 1462 01d2 7B69     		ldr	r3, [r7, #20]
 1463 01d4 9B78     		ldrb	r3, [r3, #2]	@ zero_extendqisi2
 1464 01d6 5BB2     		sxtb	r3, r3
 1465 01d8 002B     		cmp	r3, #0
 1466 01da 1ADA     		bge	.L108
 713:Generated_Source\PSoC5/USBFS_std.c ****                             {
 714:Generated_Source\PSoC5/USBFS_std.c ****                                 /* IN Endpoint */
 715:Generated_Source\PSoC5/USBFS_std.c ****                                 USBFS_EP[i].epMode     = USBFS_GET_ACTIVE_IN_EP_CR0_MODE(epType);
 1467              		.loc 1 715 0
 1468 01dc 7A7F     		ldrb	r2, [r7, #29]	@ zero_extendqisi2
 1469 01de FB7A     		ldrb	r3, [r7, #11]	@ zero_extendqisi2
 1470 01e0 012B     		cmp	r3, #1
 1471 01e2 01D1     		bne	.L109
 1472              		.loc 1 715 0 is_stmt 0 discriminator 1
 1473 01e4 0720     		movs	r0, #7
 1474 01e6 00E0     		b	.L110
 1475              	.L109:
 1476              		.loc 1 715 0 discriminator 2
 1477 01e8 0D20     		movs	r0, #13
 1478              	.L110:
ARM GAS  C:\Users\CALEBC~1\AppData\Local\Temp\ccxZVyoW.s 			page 41


 1479              		.loc 1 715 0 discriminator 4
 1480 01ea 3449     		ldr	r1, .L120
 1481 01ec 1346     		mov	r3, r2
 1482 01ee 5B00     		lsls	r3, r3, #1
 1483 01f0 1344     		add	r3, r3, r2
 1484 01f2 9B00     		lsls	r3, r3, #2
 1485 01f4 0B44     		add	r3, r3, r1
 1486 01f6 0533     		adds	r3, r3, #5
 1487 01f8 0246     		mov	r2, r0
 1488 01fa 1A70     		strb	r2, [r3]
 716:Generated_Source\PSoC5/USBFS_std.c ****                                 USBFS_EP[i].apiEpState = USBFS_EVENT_PENDING;
 1489              		.loc 1 716 0 is_stmt 1 discriminator 4
 1490 01fc 7A7F     		ldrb	r2, [r7, #29]	@ zero_extendqisi2
 1491 01fe 2F49     		ldr	r1, .L120
 1492 0200 1346     		mov	r3, r2
 1493 0202 5B00     		lsls	r3, r3, #1
 1494 0204 1344     		add	r3, r3, r2
 1495 0206 9B00     		lsls	r3, r3, #2
 1496 0208 0B44     		add	r3, r3, r1
 1497 020a 0133     		adds	r3, r3, #1
 1498 020c 0122     		movs	r2, #1
 1499 020e 1A70     		strb	r2, [r3]
 1500 0210 19E0     		b	.L106
 1501              	.L108:
 717:Generated_Source\PSoC5/USBFS_std.c ****                                 
 718:Generated_Source\PSoC5/USBFS_std.c ****                             #if (defined(USBFS_ENABLE_MIDI_STREAMING) && (USBFS_MIDI_IN_BUFF_SIZE >
 719:Generated_Source\PSoC5/USBFS_std.c ****                                 if ((pEP->bMisc == USBFS_CLASS_AUDIO) && (epType == USBFS_EP_TYPE_B
 720:Generated_Source\PSoC5/USBFS_std.c ****                                 {
 721:Generated_Source\PSoC5/USBFS_std.c ****                                     USBFS_midi_in_ep = i;
 722:Generated_Source\PSoC5/USBFS_std.c ****                                 }
 723:Generated_Source\PSoC5/USBFS_std.c ****                             #endif  /* (USBFS_ENABLE_MIDI_STREAMING) */
 724:Generated_Source\PSoC5/USBFS_std.c ****                             }
 725:Generated_Source\PSoC5/USBFS_std.c ****                             else
 726:Generated_Source\PSoC5/USBFS_std.c ****                             {
 727:Generated_Source\PSoC5/USBFS_std.c ****                                 /* OUT Endpoint */
 728:Generated_Source\PSoC5/USBFS_std.c ****                                 USBFS_EP[i].epMode     = USBFS_GET_ACTIVE_OUT_EP_CR0_MODE(epType);
 1502              		.loc 1 728 0
 1503 0212 7A7F     		ldrb	r2, [r7, #29]	@ zero_extendqisi2
 1504 0214 FB7A     		ldrb	r3, [r7, #11]	@ zero_extendqisi2
 1505 0216 012B     		cmp	r3, #1
 1506 0218 01D1     		bne	.L111
 1507              		.loc 1 728 0 is_stmt 0 discriminator 1
 1508 021a 0520     		movs	r0, #5
 1509 021c 00E0     		b	.L112
 1510              	.L111:
 1511              		.loc 1 728 0 discriminator 2
 1512 021e 0920     		movs	r0, #9
 1513              	.L112:
 1514              		.loc 1 728 0 discriminator 4
 1515 0220 2649     		ldr	r1, .L120
 1516 0222 1346     		mov	r3, r2
 1517 0224 5B00     		lsls	r3, r3, #1
 1518 0226 1344     		add	r3, r3, r2
 1519 0228 9B00     		lsls	r3, r3, #2
 1520 022a 0B44     		add	r3, r3, r1
 1521 022c 0533     		adds	r3, r3, #5
 1522 022e 0246     		mov	r2, r0
ARM GAS  C:\Users\CALEBC~1\AppData\Local\Temp\ccxZVyoW.s 			page 42


 1523 0230 1A70     		strb	r2, [r3]
 729:Generated_Source\PSoC5/USBFS_std.c ****                                 USBFS_EP[i].apiEpState = USBFS_NO_EVENT_PENDING;
 1524              		.loc 1 729 0 is_stmt 1 discriminator 4
 1525 0232 7A7F     		ldrb	r2, [r7, #29]	@ zero_extendqisi2
 1526 0234 2149     		ldr	r1, .L120
 1527 0236 1346     		mov	r3, r2
 1528 0238 5B00     		lsls	r3, r3, #1
 1529 023a 1344     		add	r3, r3, r2
 1530 023c 9B00     		lsls	r3, r3, #2
 1531 023e 0B44     		add	r3, r3, r1
 1532 0240 0133     		adds	r3, r3, #1
 1533 0242 0022     		movs	r2, #0
 1534 0244 1A70     		strb	r2, [r3]
 1535              	.L106:
 730:Generated_Source\PSoC5/USBFS_std.c ****                                 
 731:Generated_Source\PSoC5/USBFS_std.c ****                             #if (defined(USBFS_ENABLE_MIDI_STREAMING) && (USBFS_MIDI_OUT_BUFF_SIZE 
 732:Generated_Source\PSoC5/USBFS_std.c ****                                 if ((pEP->bMisc == USBFS_CLASS_AUDIO) && (epType == USBFS_EP_TYPE_B
 733:Generated_Source\PSoC5/USBFS_std.c ****                                 {
 734:Generated_Source\PSoC5/USBFS_std.c ****                                     USBFS_midi_out_ep = i;
 735:Generated_Source\PSoC5/USBFS_std.c ****                                 }
 736:Generated_Source\PSoC5/USBFS_std.c ****                             #endif  /* (USBFS_ENABLE_MIDI_STREAMING) */
 737:Generated_Source\PSoC5/USBFS_std.c ****                             }
 738:Generated_Source\PSoC5/USBFS_std.c **** 
 739:Generated_Source\PSoC5/USBFS_std.c ****                         #if (defined(USBFS_ENABLE_CDC_CLASS))
 740:Generated_Source\PSoC5/USBFS_std.c ****                             if((pEP->bMisc == USBFS_CLASS_CDC_DATA) ||(pEP->bMisc == USBFS_CLASS_CD
 741:Generated_Source\PSoC5/USBFS_std.c ****                             {
 742:Generated_Source\PSoC5/USBFS_std.c ****                                 cdcComNums = USBFS_Cdc_EpInit(pEP, i, cdcComNums);
 743:Generated_Source\PSoC5/USBFS_std.c ****                             }
 744:Generated_Source\PSoC5/USBFS_std.c ****                         #endif  /* (USBFS_ENABLE_CDC_CLASS) */
 745:Generated_Source\PSoC5/USBFS_std.c **** 
 746:Generated_Source\PSoC5/USBFS_std.c ****                             #if (USBFS_EP_MANAGEMENT_DMA_AUTO)
 747:Generated_Source\PSoC5/USBFS_std.c ****                                 break;  /* Use first EP setting in Auto memory management */
 748:Generated_Source\PSoC5/USBFS_std.c ****                             #endif /* (USBFS_EP_MANAGEMENT_DMA_AUTO) */
 749:Generated_Source\PSoC5/USBFS_std.c ****                         }
 750:Generated_Source\PSoC5/USBFS_std.c ****                     }
 751:Generated_Source\PSoC5/USBFS_std.c ****                     
 752:Generated_Source\PSoC5/USBFS_std.c ****                     pEP = &pEP[1u];
 1536              		.loc 1 752 0 discriminator 2
 1537 0246 7B69     		ldr	r3, [r7, #20]
 1538 0248 0833     		adds	r3, r3, #8
 1539 024a 7B61     		str	r3, [r7, #20]
 694:Generated_Source\PSoC5/USBFS_std.c ****                 {
 1540              		.loc 1 694 0 discriminator 2
 1541 024c BB7F     		ldrb	r3, [r7, #30]
 1542 024e 0133     		adds	r3, r3, #1
 1543 0250 BB77     		strb	r3, [r7, #30]
 1544              	.L105:
 694:Generated_Source\PSoC5/USBFS_std.c ****                 {
 1545              		.loc 1 694 0 is_stmt 0 discriminator 1
 1546 0252 BA7F     		ldrb	r2, [r7, #30]	@ zero_extendqisi2
 1547 0254 FB7F     		ldrb	r3, [r7, #31]	@ zero_extendqisi2
 1548 0256 9A42     		cmp	r2, r3
 1549 0258 FFF474AF 		bcc	.L113
 687:Generated_Source\PSoC5/USBFS_std.c ****             {
 1550              		.loc 1 687 0 is_stmt 1 discriminator 2
 1551 025c 7B7F     		ldrb	r3, [r7, #29]
 1552 025e 0133     		adds	r3, r3, #1
ARM GAS  C:\Users\CALEBC~1\AppData\Local\Temp\ccxZVyoW.s 			page 43


 1553 0260 7B77     		strb	r3, [r7, #29]
 1554              	.L104:
 687:Generated_Source\PSoC5/USBFS_std.c ****             {
 1555              		.loc 1 687 0 is_stmt 0 discriminator 1
 1556 0262 7B7F     		ldrb	r3, [r7, #29]	@ zero_extendqisi2
 1557 0264 082B     		cmp	r3, #8
 1558 0266 7FF667AF 		bls	.L114
 753:Generated_Source\PSoC5/USBFS_std.c ****                 }
 754:Generated_Source\PSoC5/USBFS_std.c ****             }
 755:Generated_Source\PSoC5/USBFS_std.c ****         #endif /*  (USBFS_EP_MANAGEMENT_MANUAL && USBFS_EP_ALLOC_DYNAMIC) */
 756:Generated_Source\PSoC5/USBFS_std.c **** 
 757:Generated_Source\PSoC5/USBFS_std.c ****         /* Init class array for each interface and interface number for each EP.
 758:Generated_Source\PSoC5/USBFS_std.c ****         *  It is used for handling Class specific requests directed to either an
 759:Generated_Source\PSoC5/USBFS_std.c ****         *  interface or the endpoint.
 760:Generated_Source\PSoC5/USBFS_std.c ****         */
 761:Generated_Source\PSoC5/USBFS_std.c ****         /* p_list points the endpoint setting table. */
 762:Generated_Source\PSoC5/USBFS_std.c ****         pEP = (const T_USBFS_EP_SETTINGS_BLOCK CYCODE *) pTmp->p_list;
 1559              		.loc 1 762 0 is_stmt 1
 1560 026a 3B69     		ldr	r3, [r7, #16]
 1561 026c 5B68     		ldr	r3, [r3, #4]
 1562 026e 7B61     		str	r3, [r7, #20]
 763:Generated_Source\PSoC5/USBFS_std.c ****         for (i = 0u; i < ep; i++)
 1563              		.loc 1 763 0
 1564 0270 0023     		movs	r3, #0
 1565 0272 7B77     		strb	r3, [r7, #29]
 1566 0274 14E0     		b	.L115
 1567              	.L116:
 764:Generated_Source\PSoC5/USBFS_std.c ****         {
 765:Generated_Source\PSoC5/USBFS_std.c ****             /* Configure interface number for each EP */
 766:Generated_Source\PSoC5/USBFS_std.c ****             USBFS_EP[pEP->addr & USBFS_DIR_UNUSED].interface = pEP->interface;
 1568              		.loc 1 766 0 discriminator 3
 1569 0276 7B69     		ldr	r3, [r7, #20]
 1570 0278 9B78     		ldrb	r3, [r3, #2]	@ zero_extendqisi2
 1571 027a 03F07F02 		and	r2, r3, #127
 1572 027e 7B69     		ldr	r3, [r7, #20]
 1573 0280 1878     		ldrb	r0, [r3]	@ zero_extendqisi2
 1574 0282 0E49     		ldr	r1, .L120
 1575 0284 1346     		mov	r3, r2
 1576 0286 5B00     		lsls	r3, r3, #1
 1577 0288 1344     		add	r3, r3, r2
 1578 028a 9B00     		lsls	r3, r3, #2
 1579 028c 0B44     		add	r3, r3, r1
 1580 028e 0A33     		adds	r3, r3, #10
 1581 0290 0246     		mov	r2, r0
 1582 0292 1A70     		strb	r2, [r3]
 767:Generated_Source\PSoC5/USBFS_std.c ****             pEP = &pEP[1u];
 1583              		.loc 1 767 0 discriminator 3
 1584 0294 7B69     		ldr	r3, [r7, #20]
 1585 0296 0833     		adds	r3, r3, #8
 1586 0298 7B61     		str	r3, [r7, #20]
 763:Generated_Source\PSoC5/USBFS_std.c ****         for (i = 0u; i < ep; i++)
 1587              		.loc 1 763 0 discriminator 3
 1588 029a 7B7F     		ldrb	r3, [r7, #29]	@ zero_extendqisi2
 1589 029c 0133     		adds	r3, r3, #1
 1590 029e 7B77     		strb	r3, [r7, #29]
 1591              	.L115:
 763:Generated_Source\PSoC5/USBFS_std.c ****         for (i = 0u; i < ep; i++)
ARM GAS  C:\Users\CALEBC~1\AppData\Local\Temp\ccxZVyoW.s 			page 44


 1592              		.loc 1 763 0 is_stmt 0 discriminator 1
 1593 02a0 7A7F     		ldrb	r2, [r7, #29]	@ zero_extendqisi2
 1594 02a2 FB7F     		ldrb	r3, [r7, #31]	@ zero_extendqisi2
 1595 02a4 9A42     		cmp	r2, r3
 1596 02a6 E6D3     		bcc	.L116
 768:Generated_Source\PSoC5/USBFS_std.c ****         }
 769:Generated_Source\PSoC5/USBFS_std.c ****         
 770:Generated_Source\PSoC5/USBFS_std.c ****         /* Init pointer on interface class table */
 771:Generated_Source\PSoC5/USBFS_std.c ****         USBFS_interfaceClass = USBFS_GetInterfaceClassTablePtr();
 1597              		.loc 1 771 0 is_stmt 1
 1598 02a8 FFF7FEFF 		bl	USBFS_GetInterfaceClassTablePtr
 1599 02ac 0246     		mov	r2, r0
 1600 02ae 084B     		ldr	r3, .L120+20
 1601 02b0 1A60     		str	r2, [r3]
 772:Generated_Source\PSoC5/USBFS_std.c ****         
 773:Generated_Source\PSoC5/USBFS_std.c ****     /* Set the endpoint buffer addresses */
 774:Generated_Source\PSoC5/USBFS_std.c ****     #if (!USBFS_EP_MANAGEMENT_DMA_AUTO)
 775:Generated_Source\PSoC5/USBFS_std.c ****         buffCount = 0u;
 1602              		.loc 1 775 0
 1603 02b2 0023     		movs	r3, #0
 1604 02b4 7B83     		strh	r3, [r7, #26]	@ movhi
 776:Generated_Source\PSoC5/USBFS_std.c ****         for (ep = USBFS_EP1; ep < USBFS_MAX_EP; ++ep)
 1605              		.loc 1 776 0
 1606 02b6 0123     		movs	r3, #1
 1607 02b8 FB77     		strb	r3, [r7, #31]
 1608 02ba 2CE0     		b	.L117
 1609              	.L121:
 1610              		.align	2
 1611              	.L120:
 1612 02bc 00000000 		.word	USBFS_EP
 1613 02c0 00000000 		.word	USBFS_interfaceSetting
 1614 02c4 00000000 		.word	USBFS_interfaceSettingLast
 1615 02c8 00000000 		.word	USBFS_configuration
 1616 02cc 00000000 		.word	USBFS_deviceStatus
 1617 02d0 00000000 		.word	USBFS_interfaceClass
 1618              	.L118:
 777:Generated_Source\PSoC5/USBFS_std.c ****         {
 778:Generated_Source\PSoC5/USBFS_std.c ****             USBFS_EP[ep].buffOffset = buffCount;        
 1619              		.loc 1 778 0 discriminator 3
 1620 02d4 FA7F     		ldrb	r2, [r7, #31]	@ zero_extendqisi2
 1621 02d6 1449     		ldr	r1, .L122
 1622 02d8 1346     		mov	r3, r2
 1623 02da 5B00     		lsls	r3, r3, #1
 1624 02dc 1344     		add	r3, r3, r2
 1625 02de 9B00     		lsls	r3, r3, #2
 1626 02e0 0B44     		add	r3, r3, r1
 1627 02e2 0633     		adds	r3, r3, #6
 1628 02e4 7A8B     		ldrh	r2, [r7, #26]	@ movhi
 1629 02e6 1A80     		strh	r2, [r3]	@ movhi
 779:Generated_Source\PSoC5/USBFS_std.c ****             buffCount += USBFS_EP[ep].bufferSize;
 1630              		.loc 1 779 0 discriminator 3
 1631 02e8 FA7F     		ldrb	r2, [r7, #31]	@ zero_extendqisi2
 1632 02ea 0F49     		ldr	r1, .L122
 1633 02ec 1346     		mov	r3, r2
 1634 02ee 5B00     		lsls	r3, r3, #1
 1635 02f0 1344     		add	r3, r3, r2
 1636 02f2 9B00     		lsls	r3, r3, #2
ARM GAS  C:\Users\CALEBC~1\AppData\Local\Temp\ccxZVyoW.s 			page 45


 1637 02f4 0B44     		add	r3, r3, r1
 1638 02f6 0833     		adds	r3, r3, #8
 1639 02f8 1B88     		ldrh	r3, [r3]	@ movhi
 1640 02fa 9AB2     		uxth	r2, r3
 1641 02fc 7B8B     		ldrh	r3, [r7, #26]	@ movhi
 1642 02fe 1344     		add	r3, r3, r2
 1643 0300 7B83     		strh	r3, [r7, #26]	@ movhi
 780:Generated_Source\PSoC5/USBFS_std.c ****             
 781:Generated_Source\PSoC5/USBFS_std.c ****         #if (USBFS_GEN_16BITS_EP_ACCESS)
 782:Generated_Source\PSoC5/USBFS_std.c ****             /* Align EP buffers to be event size to access 16-bits DR register. */
 783:Generated_Source\PSoC5/USBFS_std.c ****             buffCount += (0u != (buffCount & 0x01u)) ? 1u : 0u;
 1644              		.loc 1 783 0 discriminator 3
 1645 0302 7B8B     		ldrh	r3, [r7, #26]	@ movhi
 1646 0304 03F00103 		and	r3, r3, #1
 1647 0308 9AB2     		uxth	r2, r3
 1648 030a 7B8B     		ldrh	r3, [r7, #26]	@ movhi
 1649 030c 1344     		add	r3, r3, r2
 1650 030e 7B83     		strh	r3, [r7, #26]	@ movhi
 776:Generated_Source\PSoC5/USBFS_std.c ****         {
 1651              		.loc 1 776 0 discriminator 3
 1652 0310 FB7F     		ldrb	r3, [r7, #31]
 1653 0312 0133     		adds	r3, r3, #1
 1654 0314 FB77     		strb	r3, [r7, #31]
 1655              	.L117:
 776:Generated_Source\PSoC5/USBFS_std.c ****         {
 1656              		.loc 1 776 0 is_stmt 0 discriminator 1
 1657 0316 FB7F     		ldrb	r3, [r7, #31]	@ zero_extendqisi2
 1658 0318 082B     		cmp	r3, #8
 1659 031a DBD9     		bls	.L118
 784:Generated_Source\PSoC5/USBFS_std.c ****         #endif /* (USBFS_GEN_16BITS_EP_ACCESS) */            
 785:Generated_Source\PSoC5/USBFS_std.c ****         }
 786:Generated_Source\PSoC5/USBFS_std.c ****     #endif /* (!USBFS_EP_MANAGEMENT_DMA_AUTO) */
 787:Generated_Source\PSoC5/USBFS_std.c **** 
 788:Generated_Source\PSoC5/USBFS_std.c ****         /* Configure hardware registers */
 789:Generated_Source\PSoC5/USBFS_std.c ****         USBFS_ConfigReg();
 1660              		.loc 1 789 0 is_stmt 1
 1661 031c FFF7FEFF 		bl	USBFS_ConfigReg
 1662              	.L119:
 790:Generated_Source\PSoC5/USBFS_std.c ****     }
 791:Generated_Source\PSoC5/USBFS_std.c **** }
 1663              		.loc 1 791 0
 1664 0320 00BF     		nop
 1665 0322 2037     		adds	r7, r7, #32
 1666              		.cfi_def_cfa_offset 8
 1667 0324 BD46     		mov	sp, r7
 1668              		.cfi_def_cfa_register 13
 1669              		@ sp needed
 1670 0326 80BD     		pop	{r7, pc}
 1671              	.L123:
 1672              		.align	2
 1673              	.L122:
 1674 0328 00000000 		.word	USBFS_EP
 1675              		.cfi_endproc
 1676              	.LFE4:
 1677              		.size	USBFS_Config, .-USBFS_Config
 1678              		.section	.text.USBFS_ConfigAltChanged,"ax",%progbits
 1679              		.align	2
ARM GAS  C:\Users\CALEBC~1\AppData\Local\Temp\ccxZVyoW.s 			page 46


 1680              		.global	USBFS_ConfigAltChanged
 1681              		.thumb
 1682              		.thumb_func
 1683              		.type	USBFS_ConfigAltChanged, %function
 1684              	USBFS_ConfigAltChanged:
 1685              	.LFB5:
 792:Generated_Source\PSoC5/USBFS_std.c **** 
 793:Generated_Source\PSoC5/USBFS_std.c **** 
 794:Generated_Source\PSoC5/USBFS_std.c **** /*******************************************************************************
 795:Generated_Source\PSoC5/USBFS_std.c **** * Function Name: USBFS_ConfigAltChanged
 796:Generated_Source\PSoC5/USBFS_std.c **** ****************************************************************************//**
 797:Generated_Source\PSoC5/USBFS_std.c **** *
 798:Generated_Source\PSoC5/USBFS_std.c **** *  This routine update configuration for the required endpoints only.
 799:Generated_Source\PSoC5/USBFS_std.c **** *  It is called after SET_INTERFACE request when Static memory allocation used.
 800:Generated_Source\PSoC5/USBFS_std.c **** *
 801:Generated_Source\PSoC5/USBFS_std.c **** * \reentrant
 802:Generated_Source\PSoC5/USBFS_std.c **** *  No.
 803:Generated_Source\PSoC5/USBFS_std.c **** *
 804:Generated_Source\PSoC5/USBFS_std.c **** *******************************************************************************/
 805:Generated_Source\PSoC5/USBFS_std.c **** void USBFS_ConfigAltChanged(void) 
 806:Generated_Source\PSoC5/USBFS_std.c **** {
 1686              		.loc 1 806 0
 1687              		.cfi_startproc
 1688              		@ args = 0, pretend = 0, frame = 16
 1689              		@ frame_needed = 1, uses_anonymous_args = 0
 1690 0000 90B5     		push	{r4, r7, lr}
 1691              		.cfi_def_cfa_offset 12
 1692              		.cfi_offset 4, -12
 1693              		.cfi_offset 7, -8
 1694              		.cfi_offset 14, -4
 1695 0002 85B0     		sub	sp, sp, #20
 1696              		.cfi_def_cfa_offset 32
 1697 0004 00AF     		add	r7, sp, #0
 1698              		.cfi_def_cfa_register 7
 807:Generated_Source\PSoC5/USBFS_std.c ****     uint8 ep;
 808:Generated_Source\PSoC5/USBFS_std.c ****     uint8 curEp;
 809:Generated_Source\PSoC5/USBFS_std.c ****     uint8 epType;
 810:Generated_Source\PSoC5/USBFS_std.c ****     uint8 i;
 811:Generated_Source\PSoC5/USBFS_std.c ****     uint8 interfaceNum;
 812:Generated_Source\PSoC5/USBFS_std.c **** 
 813:Generated_Source\PSoC5/USBFS_std.c ****     const T_USBFS_LUT CYCODE *pTmp;
 814:Generated_Source\PSoC5/USBFS_std.c ****     const T_USBFS_EP_SETTINGS_BLOCK CYCODE *pEP;
 815:Generated_Source\PSoC5/USBFS_std.c **** 
 816:Generated_Source\PSoC5/USBFS_std.c ****     /* Init Endpoints and Device Status if configured */
 817:Generated_Source\PSoC5/USBFS_std.c ****     if (USBFS_configuration > 0u)
 1699              		.loc 1 817 0
 1700 0006 8F4B     		ldr	r3, .L136
 1701 0008 1B78     		ldrb	r3, [r3]
 1702 000a DBB2     		uxtb	r3, r3
 1703 000c 002B     		cmp	r3, #0
 1704 000e 00F01581 		beq	.L135
 818:Generated_Source\PSoC5/USBFS_std.c ****     {
 819:Generated_Source\PSoC5/USBFS_std.c ****         /* Get number of endpoints configurations (ep). */
 820:Generated_Source\PSoC5/USBFS_std.c ****         pTmp = USBFS_GetConfigTablePtr(USBFS_configuration - 1u);
 1705              		.loc 1 820 0
 1706 0012 8C4B     		ldr	r3, .L136
 1707 0014 1B78     		ldrb	r3, [r3]
ARM GAS  C:\Users\CALEBC~1\AppData\Local\Temp\ccxZVyoW.s 			page 47


 1708 0016 DBB2     		uxtb	r3, r3
 1709 0018 013B     		subs	r3, r3, #1
 1710 001a DBB2     		uxtb	r3, r3
 1711 001c 1846     		mov	r0, r3
 1712 001e FFF7FEFF 		bl	USBFS_GetConfigTablePtr
 1713 0022 7860     		str	r0, [r7, #4]
 821:Generated_Source\PSoC5/USBFS_std.c ****         pTmp = &pTmp[1u];
 1714              		.loc 1 821 0
 1715 0024 7B68     		ldr	r3, [r7, #4]
 1716 0026 0833     		adds	r3, r3, #8
 1717 0028 7B60     		str	r3, [r7, #4]
 822:Generated_Source\PSoC5/USBFS_std.c ****         ep = pTmp->c;
 1718              		.loc 1 822 0
 1719 002a 7B68     		ldr	r3, [r7, #4]
 1720 002c 1B78     		ldrb	r3, [r3]
 1721 002e FB70     		strb	r3, [r7, #3]
 823:Generated_Source\PSoC5/USBFS_std.c **** 
 824:Generated_Source\PSoC5/USBFS_std.c ****         /* Get pointer to endpoints setting table (pEP). */
 825:Generated_Source\PSoC5/USBFS_std.c ****         pEP = (const T_USBFS_EP_SETTINGS_BLOCK CYCODE *) pTmp->p_list;
 1722              		.loc 1 825 0
 1723 0030 7B68     		ldr	r3, [r7, #4]
 1724 0032 5B68     		ldr	r3, [r3, #4]
 1725 0034 BB60     		str	r3, [r7, #8]
 826:Generated_Source\PSoC5/USBFS_std.c ****         
 827:Generated_Source\PSoC5/USBFS_std.c ****         /* Look through all possible endpoint configurations. Find endpoints 
 828:Generated_Source\PSoC5/USBFS_std.c ****         * which belong to current interface and alternate settings for 
 829:Generated_Source\PSoC5/USBFS_std.c ****         * re-configuration.
 830:Generated_Source\PSoC5/USBFS_std.c ****         */
 831:Generated_Source\PSoC5/USBFS_std.c ****         interfaceNum = USBFS_interfaceNumber;
 1726              		.loc 1 831 0
 1727 0036 844B     		ldr	r3, .L136+4
 1728 0038 1B78     		ldrb	r3, [r3]
 1729 003a BB70     		strb	r3, [r7, #2]
 832:Generated_Source\PSoC5/USBFS_std.c ****         for (i = 0u; i < ep; i++)
 1730              		.loc 1 832 0
 1731 003c 0023     		movs	r3, #0
 1732 003e FB73     		strb	r3, [r7, #15]
 1733 0040 F7E0     		b	.L126
 1734              	.L134:
 833:Generated_Source\PSoC5/USBFS_std.c ****         {
 834:Generated_Source\PSoC5/USBFS_std.c ****             /* Find endpoints which belong to current interface and alternate settings. */
 835:Generated_Source\PSoC5/USBFS_std.c ****             if ((interfaceNum == pEP->interface) && 
 1735              		.loc 1 835 0
 1736 0042 BB68     		ldr	r3, [r7, #8]
 1737 0044 1B78     		ldrb	r3, [r3]	@ zero_extendqisi2
 1738 0046 BA78     		ldrb	r2, [r7, #2]	@ zero_extendqisi2
 1739 0048 9A42     		cmp	r2, r3
 1740 004a 40F0EC80 		bne	.L127
 836:Generated_Source\PSoC5/USBFS_std.c ****                 (USBFS_interfaceSetting[interfaceNum] == pEP->altSetting))
 1741              		.loc 1 836 0 discriminator 1
 1742 004e BB78     		ldrb	r3, [r7, #2]	@ zero_extendqisi2
 1743 0050 7E4A     		ldr	r2, .L136+8
 1744 0052 D35C     		ldrb	r3, [r2, r3]
 1745 0054 DAB2     		uxtb	r2, r3
 1746 0056 BB68     		ldr	r3, [r7, #8]
 1747 0058 5B78     		ldrb	r3, [r3, #1]	@ zero_extendqisi2
 835:Generated_Source\PSoC5/USBFS_std.c ****                 (USBFS_interfaceSetting[interfaceNum] == pEP->altSetting))
ARM GAS  C:\Users\CALEBC~1\AppData\Local\Temp\ccxZVyoW.s 			page 48


 1748              		.loc 1 835 0 discriminator 1
 1749 005a 9A42     		cmp	r2, r3
 1750 005c 40F0E380 		bne	.L127
 837:Generated_Source\PSoC5/USBFS_std.c ****             {
 838:Generated_Source\PSoC5/USBFS_std.c ****                 curEp  = ((uint8) pEP->addr & USBFS_DIR_UNUSED);
 1751              		.loc 1 838 0
 1752 0060 BB68     		ldr	r3, [r7, #8]
 1753 0062 9B78     		ldrb	r3, [r3, #2]	@ zero_extendqisi2
 1754 0064 03F07F03 		and	r3, r3, #127
 1755 0068 7B70     		strb	r3, [r7, #1]
 839:Generated_Source\PSoC5/USBFS_std.c ****                 epType = ((uint8) pEP->attributes & USBFS_EP_TYPE_MASK);
 1756              		.loc 1 839 0
 1757 006a BB68     		ldr	r3, [r7, #8]
 1758 006c DB78     		ldrb	r3, [r3, #3]	@ zero_extendqisi2
 1759 006e 03F00303 		and	r3, r3, #3
 1760 0072 3B70     		strb	r3, [r7]
 840:Generated_Source\PSoC5/USBFS_std.c ****                 
 841:Generated_Source\PSoC5/USBFS_std.c ****                 /* Change the SIE mode for the selected EP to NAK ALL */
 842:Generated_Source\PSoC5/USBFS_std.c ****                 USBFS_EP[curEp].epToggle   = 0u;
 1761              		.loc 1 842 0
 1762 0074 7A78     		ldrb	r2, [r7, #1]	@ zero_extendqisi2
 1763 0076 7649     		ldr	r1, .L136+12
 1764 0078 1346     		mov	r3, r2
 1765 007a 5B00     		lsls	r3, r3, #1
 1766 007c 1344     		add	r3, r3, r2
 1767 007e 9B00     		lsls	r3, r3, #2
 1768 0080 0B44     		add	r3, r3, r1
 1769 0082 0333     		adds	r3, r3, #3
 1770 0084 0022     		movs	r2, #0
 1771 0086 1A70     		strb	r2, [r3]
 843:Generated_Source\PSoC5/USBFS_std.c ****                 USBFS_EP[curEp].addr       = pEP->addr;
 1772              		.loc 1 843 0
 1773 0088 7A78     		ldrb	r2, [r7, #1]	@ zero_extendqisi2
 1774 008a BB68     		ldr	r3, [r7, #8]
 1775 008c 9878     		ldrb	r0, [r3, #2]	@ zero_extendqisi2
 1776 008e 7049     		ldr	r1, .L136+12
 1777 0090 1346     		mov	r3, r2
 1778 0092 5B00     		lsls	r3, r3, #1
 1779 0094 1344     		add	r3, r3, r2
 1780 0096 9B00     		lsls	r3, r3, #2
 1781 0098 0B44     		add	r3, r3, r1
 1782 009a 0433     		adds	r3, r3, #4
 1783 009c 0246     		mov	r2, r0
 1784 009e 1A70     		strb	r2, [r3]
 844:Generated_Source\PSoC5/USBFS_std.c ****                 USBFS_EP[curEp].attrib     = pEP->attributes;
 1785              		.loc 1 844 0
 1786 00a0 7A78     		ldrb	r2, [r7, #1]	@ zero_extendqisi2
 1787 00a2 BB68     		ldr	r3, [r7, #8]
 1788 00a4 D878     		ldrb	r0, [r3, #3]	@ zero_extendqisi2
 1789 00a6 6A49     		ldr	r1, .L136+12
 1790 00a8 1346     		mov	r3, r2
 1791 00aa 5B00     		lsls	r3, r3, #1
 1792 00ac 1344     		add	r3, r3, r2
 1793 00ae 9B00     		lsls	r3, r3, #2
 1794 00b0 0B44     		add	r3, r3, r1
 1795 00b2 0246     		mov	r2, r0
 1796 00b4 1A70     		strb	r2, [r3]
ARM GAS  C:\Users\CALEBC~1\AppData\Local\Temp\ccxZVyoW.s 			page 49


 845:Generated_Source\PSoC5/USBFS_std.c ****                 USBFS_EP[curEp].bufferSize = pEP->bufferSize;
 1797              		.loc 1 845 0
 1798 00b6 7A78     		ldrb	r2, [r7, #1]	@ zero_extendqisi2
 1799 00b8 BB68     		ldr	r3, [r7, #8]
 1800 00ba 9888     		ldrh	r0, [r3, #4]
 1801 00bc 6449     		ldr	r1, .L136+12
 1802 00be 1346     		mov	r3, r2
 1803 00c0 5B00     		lsls	r3, r3, #1
 1804 00c2 1344     		add	r3, r3, r2
 1805 00c4 9B00     		lsls	r3, r3, #2
 1806 00c6 0B44     		add	r3, r3, r1
 1807 00c8 0833     		adds	r3, r3, #8
 1808 00ca 0246     		mov	r2, r0	@ movhi
 1809 00cc 1A80     		strh	r2, [r3]	@ movhi
 846:Generated_Source\PSoC5/USBFS_std.c **** 
 847:Generated_Source\PSoC5/USBFS_std.c ****                 if (0u != (pEP->addr & USBFS_DIR_IN))
 1810              		.loc 1 847 0
 1811 00ce BB68     		ldr	r3, [r7, #8]
 1812 00d0 9B78     		ldrb	r3, [r3, #2]	@ zero_extendqisi2
 1813 00d2 5BB2     		sxtb	r3, r3
 1814 00d4 002B     		cmp	r3, #0
 1815 00d6 1ADA     		bge	.L128
 848:Generated_Source\PSoC5/USBFS_std.c ****                 {
 849:Generated_Source\PSoC5/USBFS_std.c ****                     /* IN Endpoint */
 850:Generated_Source\PSoC5/USBFS_std.c ****                     USBFS_EP[curEp].epMode     = USBFS_GET_ACTIVE_IN_EP_CR0_MODE(epType);
 1816              		.loc 1 850 0
 1817 00d8 7A78     		ldrb	r2, [r7, #1]	@ zero_extendqisi2
 1818 00da 3B78     		ldrb	r3, [r7]	@ zero_extendqisi2
 1819 00dc 012B     		cmp	r3, #1
 1820 00de 01D1     		bne	.L129
 1821              		.loc 1 850 0 is_stmt 0 discriminator 1
 1822 00e0 0720     		movs	r0, #7
 1823 00e2 00E0     		b	.L130
 1824              	.L129:
 1825              		.loc 1 850 0 discriminator 2
 1826 00e4 0D20     		movs	r0, #13
 1827              	.L130:
 1828              		.loc 1 850 0 discriminator 4
 1829 00e6 5A49     		ldr	r1, .L136+12
 1830 00e8 1346     		mov	r3, r2
 1831 00ea 5B00     		lsls	r3, r3, #1
 1832 00ec 1344     		add	r3, r3, r2
 1833 00ee 9B00     		lsls	r3, r3, #2
 1834 00f0 0B44     		add	r3, r3, r1
 1835 00f2 0533     		adds	r3, r3, #5
 1836 00f4 0246     		mov	r2, r0
 1837 00f6 1A70     		strb	r2, [r3]
 851:Generated_Source\PSoC5/USBFS_std.c ****                     USBFS_EP[curEp].apiEpState = USBFS_EVENT_PENDING;
 1838              		.loc 1 851 0 is_stmt 1 discriminator 4
 1839 00f8 7A78     		ldrb	r2, [r7, #1]	@ zero_extendqisi2
 1840 00fa 5549     		ldr	r1, .L136+12
 1841 00fc 1346     		mov	r3, r2
 1842 00fe 5B00     		lsls	r3, r3, #1
 1843 0100 1344     		add	r3, r3, r2
 1844 0102 9B00     		lsls	r3, r3, #2
 1845 0104 0B44     		add	r3, r3, r1
 1846 0106 0133     		adds	r3, r3, #1
ARM GAS  C:\Users\CALEBC~1\AppData\Local\Temp\ccxZVyoW.s 			page 50


 1847 0108 0122     		movs	r2, #1
 1848 010a 1A70     		strb	r2, [r3]
 1849 010c 19E0     		b	.L131
 1850              	.L128:
 852:Generated_Source\PSoC5/USBFS_std.c ****                 }
 853:Generated_Source\PSoC5/USBFS_std.c ****                 else
 854:Generated_Source\PSoC5/USBFS_std.c ****                 {
 855:Generated_Source\PSoC5/USBFS_std.c ****                     /* OUT Endpoint */
 856:Generated_Source\PSoC5/USBFS_std.c ****                     USBFS_EP[curEp].epMode     = USBFS_GET_ACTIVE_OUT_EP_CR0_MODE(epType);
 1851              		.loc 1 856 0
 1852 010e 7A78     		ldrb	r2, [r7, #1]	@ zero_extendqisi2
 1853 0110 3B78     		ldrb	r3, [r7]	@ zero_extendqisi2
 1854 0112 012B     		cmp	r3, #1
 1855 0114 01D1     		bne	.L132
 1856              		.loc 1 856 0 is_stmt 0 discriminator 1
 1857 0116 0520     		movs	r0, #5
 1858 0118 00E0     		b	.L133
 1859              	.L132:
 1860              		.loc 1 856 0 discriminator 2
 1861 011a 0920     		movs	r0, #9
 1862              	.L133:
 1863              		.loc 1 856 0 discriminator 4
 1864 011c 4C49     		ldr	r1, .L136+12
 1865 011e 1346     		mov	r3, r2
 1866 0120 5B00     		lsls	r3, r3, #1
 1867 0122 1344     		add	r3, r3, r2
 1868 0124 9B00     		lsls	r3, r3, #2
 1869 0126 0B44     		add	r3, r3, r1
 1870 0128 0533     		adds	r3, r3, #5
 1871 012a 0246     		mov	r2, r0
 1872 012c 1A70     		strb	r2, [r3]
 857:Generated_Source\PSoC5/USBFS_std.c ****                     USBFS_EP[curEp].apiEpState = USBFS_NO_EVENT_PENDING;
 1873              		.loc 1 857 0 is_stmt 1 discriminator 4
 1874 012e 7A78     		ldrb	r2, [r7, #1]	@ zero_extendqisi2
 1875 0130 4749     		ldr	r1, .L136+12
 1876 0132 1346     		mov	r3, r2
 1877 0134 5B00     		lsls	r3, r3, #1
 1878 0136 1344     		add	r3, r3, r2
 1879 0138 9B00     		lsls	r3, r3, #2
 1880 013a 0B44     		add	r3, r3, r1
 1881 013c 0133     		adds	r3, r3, #1
 1882 013e 0022     		movs	r2, #0
 1883 0140 1A70     		strb	r2, [r3]
 1884              	.L131:
 858:Generated_Source\PSoC5/USBFS_std.c ****                 }
 859:Generated_Source\PSoC5/USBFS_std.c ****                 
 860:Generated_Source\PSoC5/USBFS_std.c ****                 /* Make SIE to NAK any endpoint requests */
 861:Generated_Source\PSoC5/USBFS_std.c ****                 USBFS_SIE_EP_BASE.sieEp[curEp].epCr0 = USBFS_MODE_NAK_IN_OUT;
 1885              		.loc 1 861 0
 1886 0142 444A     		ldr	r2, .L136+16
 1887 0144 7B78     		ldrb	r3, [r7, #1]	@ zero_extendqisi2
 1888 0146 1B01     		lsls	r3, r3, #4
 1889 0148 1344     		add	r3, r3, r2
 1890 014a 0233     		adds	r3, r3, #2
 1891 014c 0122     		movs	r2, #1
 1892 014e 1A70     		strb	r2, [r3]
 862:Generated_Source\PSoC5/USBFS_std.c **** 
ARM GAS  C:\Users\CALEBC~1\AppData\Local\Temp\ccxZVyoW.s 			page 51


 863:Generated_Source\PSoC5/USBFS_std.c ****             #if (USBFS_EP_MANAGEMENT_DMA_AUTO)
 864:Generated_Source\PSoC5/USBFS_std.c ****                 /* Clear IN data ready. */
 865:Generated_Source\PSoC5/USBFS_std.c ****                 USBFS_ARB_EP_BASE.arbEp[curEp].epCfg &= (uint8) ~USBFS_ARB_EPX_CFG_IN_DATA_RDY;
 866:Generated_Source\PSoC5/USBFS_std.c **** 
 867:Generated_Source\PSoC5/USBFS_std.c ****                 /* Select endpoint number of reconfiguration */
 868:Generated_Source\PSoC5/USBFS_std.c ****                 USBFS_DYN_RECONFIG_REG = (uint8) ((curEp - 1u) << USBFS_DYN_RECONFIG_EP_SHIFT);
 869:Generated_Source\PSoC5/USBFS_std.c ****                 
 870:Generated_Source\PSoC5/USBFS_std.c ****                 /* Request for dynamic re-configuration of endpoint. */
 871:Generated_Source\PSoC5/USBFS_std.c ****                 USBFS_DYN_RECONFIG_REG |= USBFS_DYN_RECONFIG_ENABLE;
 872:Generated_Source\PSoC5/USBFS_std.c ****                 
 873:Generated_Source\PSoC5/USBFS_std.c ****                 /* Wait until block is ready for re-configuration */
 874:Generated_Source\PSoC5/USBFS_std.c ****                 while (0u == (USBFS_DYN_RECONFIG_REG & USBFS_DYN_RECONFIG_RDY_STS))
 875:Generated_Source\PSoC5/USBFS_std.c ****                 {
 876:Generated_Source\PSoC5/USBFS_std.c ****                 }
 877:Generated_Source\PSoC5/USBFS_std.c ****                 
 878:Generated_Source\PSoC5/USBFS_std.c ****                 /* Once DYN_RECONFIG_RDY_STS bit is set, FW can change the EP configuration. */
 879:Generated_Source\PSoC5/USBFS_std.c ****                 /* Change EP Type with new direction */
 880:Generated_Source\PSoC5/USBFS_std.c ****                 if (0u != (pEP->addr & USBFS_DIR_IN))
 881:Generated_Source\PSoC5/USBFS_std.c ****                 {
 882:Generated_Source\PSoC5/USBFS_std.c ****                     /* Set endpoint type: 0 - IN and 1 - OUT. */
 883:Generated_Source\PSoC5/USBFS_std.c ****                     USBFS_EP_TYPE_REG &= (uint8) ~(uint8)((uint8) 0x01u << (curEp - 1u));
 884:Generated_Source\PSoC5/USBFS_std.c ****                     
 885:Generated_Source\PSoC5/USBFS_std.c ****                 #if (CY_PSOC4)
 886:Generated_Source\PSoC5/USBFS_std.c ****                     /* Clear DMA_TERMIN for IN endpoint */
 887:Generated_Source\PSoC5/USBFS_std.c ****                     USBFS_ARB_EP_BASE.arbEp[curEp].epIntEn &= (uint32) ~USBFS_ARB_EPX_INT_DMA_TERMI
 888:Generated_Source\PSoC5/USBFS_std.c ****                 #endif /* (CY_PSOC4) */
 889:Generated_Source\PSoC5/USBFS_std.c ****                 }
 890:Generated_Source\PSoC5/USBFS_std.c ****                 else
 891:Generated_Source\PSoC5/USBFS_std.c ****                 {
 892:Generated_Source\PSoC5/USBFS_std.c ****                     /* Set endpoint type: 0 - IN and 1- OUT. */
 893:Generated_Source\PSoC5/USBFS_std.c ****                     USBFS_EP_TYPE_REG |= (uint8) ((uint8) 0x01u << (curEp - 1u));
 894:Generated_Source\PSoC5/USBFS_std.c ****                     
 895:Generated_Source\PSoC5/USBFS_std.c ****                 #if (CY_PSOC4)
 896:Generated_Source\PSoC5/USBFS_std.c ****                     /* Set DMA_TERMIN for OUT endpoint */
 897:Generated_Source\PSoC5/USBFS_std.c ****                     USBFS_ARB_EP_BASE.arbEp[curEp].epIntEn |= (uint32) USBFS_ARB_EPX_INT_DMA_TERMIN
 898:Generated_Source\PSoC5/USBFS_std.c ****                 #endif /* (CY_PSOC4) */
 899:Generated_Source\PSoC5/USBFS_std.c ****                 }
 900:Generated_Source\PSoC5/USBFS_std.c ****                 
 901:Generated_Source\PSoC5/USBFS_std.c ****                 /* Complete dynamic re-configuration: all endpoint related status and signals 
 902:Generated_Source\PSoC5/USBFS_std.c ****                 * are set into the default state.
 903:Generated_Source\PSoC5/USBFS_std.c ****                 */
 904:Generated_Source\PSoC5/USBFS_std.c ****                 USBFS_DYN_RECONFIG_REG &= (uint8) ~USBFS_DYN_RECONFIG_ENABLE;
 905:Generated_Source\PSoC5/USBFS_std.c **** 
 906:Generated_Source\PSoC5/USBFS_std.c ****             #else
 907:Generated_Source\PSoC5/USBFS_std.c ****                 USBFS_SIE_EP_BASE.sieEp[curEp].epCnt0 = HI8(USBFS_EP[curEp].bufferSize);
 1893              		.loc 1 907 0
 1894 0150 4048     		ldr	r0, .L136+16
 1895 0152 7978     		ldrb	r1, [r7, #1]	@ zero_extendqisi2
 1896 0154 7A78     		ldrb	r2, [r7, #1]	@ zero_extendqisi2
 1897 0156 3E4C     		ldr	r4, .L136+12
 1898 0158 1346     		mov	r3, r2
 1899 015a 5B00     		lsls	r3, r3, #1
 1900 015c 1344     		add	r3, r3, r2
 1901 015e 9B00     		lsls	r3, r3, #2
 1902 0160 2344     		add	r3, r3, r4
 1903 0162 0833     		adds	r3, r3, #8
 1904 0164 1B88     		ldrh	r3, [r3]	@ movhi
ARM GAS  C:\Users\CALEBC~1\AppData\Local\Temp\ccxZVyoW.s 			page 52


 1905 0166 9BB2     		uxth	r3, r3
 1906 0168 1B0A     		lsrs	r3, r3, #8
 1907 016a 9BB2     		uxth	r3, r3
 1908 016c DAB2     		uxtb	r2, r3
 1909 016e 0B01     		lsls	r3, r1, #4
 1910 0170 0344     		add	r3, r3, r0
 1911 0172 1A70     		strb	r2, [r3]
 908:Generated_Source\PSoC5/USBFS_std.c ****                 USBFS_SIE_EP_BASE.sieEp[curEp].epCnt1 = LO8(USBFS_EP[curEp].bufferSize);
 1912              		.loc 1 908 0
 1913 0174 3748     		ldr	r0, .L136+16
 1914 0176 7978     		ldrb	r1, [r7, #1]	@ zero_extendqisi2
 1915 0178 7A78     		ldrb	r2, [r7, #1]	@ zero_extendqisi2
 1916 017a 354C     		ldr	r4, .L136+12
 1917 017c 1346     		mov	r3, r2
 1918 017e 5B00     		lsls	r3, r3, #1
 1919 0180 1344     		add	r3, r3, r2
 1920 0182 9B00     		lsls	r3, r3, #2
 1921 0184 2344     		add	r3, r3, r4
 1922 0186 0833     		adds	r3, r3, #8
 1923 0188 1B88     		ldrh	r3, [r3]	@ movhi
 1924 018a 9BB2     		uxth	r3, r3
 1925 018c DAB2     		uxtb	r2, r3
 1926 018e 0B01     		lsls	r3, r1, #4
 1927 0190 0344     		add	r3, r3, r0
 1928 0192 0133     		adds	r3, r3, #1
 1929 0194 1A70     		strb	r2, [r3]
 909:Generated_Source\PSoC5/USBFS_std.c ****                 
 910:Generated_Source\PSoC5/USBFS_std.c ****                 #if (CY_PSOC4)
 911:Generated_Source\PSoC5/USBFS_std.c ****                     USBFS_ARB_EP16_BASE.arbEp[curEp].rwRa16  = (uint32) USBFS_EP[curEp].buffOffset;
 912:Generated_Source\PSoC5/USBFS_std.c ****                     USBFS_ARB_EP16_BASE.arbEp[curEp].rwWa16  = (uint32) USBFS_EP[curEp].buffOffset;
 913:Generated_Source\PSoC5/USBFS_std.c ****                 #else
 914:Generated_Source\PSoC5/USBFS_std.c ****                     USBFS_ARB_EP_BASE.arbEp[curEp].rwRa    = LO8(USBFS_EP[curEp].buffOffset);
 1930              		.loc 1 914 0
 1931 0196 3048     		ldr	r0, .L136+20
 1932 0198 7978     		ldrb	r1, [r7, #1]	@ zero_extendqisi2
 1933 019a 7A78     		ldrb	r2, [r7, #1]	@ zero_extendqisi2
 1934 019c 2C4C     		ldr	r4, .L136+12
 1935 019e 1346     		mov	r3, r2
 1936 01a0 5B00     		lsls	r3, r3, #1
 1937 01a2 1344     		add	r3, r3, r2
 1938 01a4 9B00     		lsls	r3, r3, #2
 1939 01a6 2344     		add	r3, r3, r4
 1940 01a8 0633     		adds	r3, r3, #6
 1941 01aa 1B88     		ldrh	r3, [r3]	@ movhi
 1942 01ac 9BB2     		uxth	r3, r3
 1943 01ae DAB2     		uxtb	r2, r3
 1944 01b0 0B01     		lsls	r3, r1, #4
 1945 01b2 0344     		add	r3, r3, r0
 1946 01b4 0633     		adds	r3, r3, #6
 1947 01b6 1A70     		strb	r2, [r3]
 915:Generated_Source\PSoC5/USBFS_std.c ****                     USBFS_ARB_EP_BASE.arbEp[curEp].rwRaMsb = HI8(USBFS_EP[curEp].buffOffset);
 1948              		.loc 1 915 0
 1949 01b8 2748     		ldr	r0, .L136+20
 1950 01ba 7978     		ldrb	r1, [r7, #1]	@ zero_extendqisi2
 1951 01bc 7A78     		ldrb	r2, [r7, #1]	@ zero_extendqisi2
 1952 01be 244C     		ldr	r4, .L136+12
 1953 01c0 1346     		mov	r3, r2
ARM GAS  C:\Users\CALEBC~1\AppData\Local\Temp\ccxZVyoW.s 			page 53


 1954 01c2 5B00     		lsls	r3, r3, #1
 1955 01c4 1344     		add	r3, r3, r2
 1956 01c6 9B00     		lsls	r3, r3, #2
 1957 01c8 2344     		add	r3, r3, r4
 1958 01ca 0633     		adds	r3, r3, #6
 1959 01cc 1B88     		ldrh	r3, [r3]	@ movhi
 1960 01ce 9BB2     		uxth	r3, r3
 1961 01d0 1B0A     		lsrs	r3, r3, #8
 1962 01d2 9BB2     		uxth	r3, r3
 1963 01d4 DAB2     		uxtb	r2, r3
 1964 01d6 0B01     		lsls	r3, r1, #4
 1965 01d8 0344     		add	r3, r3, r0
 1966 01da 0733     		adds	r3, r3, #7
 1967 01dc 1A70     		strb	r2, [r3]
 916:Generated_Source\PSoC5/USBFS_std.c ****                     USBFS_ARB_EP_BASE.arbEp[curEp].rwWa    = LO8(USBFS_EP[curEp].buffOffset);
 1968              		.loc 1 916 0
 1969 01de 1E48     		ldr	r0, .L136+20
 1970 01e0 7978     		ldrb	r1, [r7, #1]	@ zero_extendqisi2
 1971 01e2 7A78     		ldrb	r2, [r7, #1]	@ zero_extendqisi2
 1972 01e4 1A4C     		ldr	r4, .L136+12
 1973 01e6 1346     		mov	r3, r2
 1974 01e8 5B00     		lsls	r3, r3, #1
 1975 01ea 1344     		add	r3, r3, r2
 1976 01ec 9B00     		lsls	r3, r3, #2
 1977 01ee 2344     		add	r3, r3, r4
 1978 01f0 0633     		adds	r3, r3, #6
 1979 01f2 1B88     		ldrh	r3, [r3]	@ movhi
 1980 01f4 9BB2     		uxth	r3, r3
 1981 01f6 DAB2     		uxtb	r2, r3
 1982 01f8 0B01     		lsls	r3, r1, #4
 1983 01fa 0344     		add	r3, r3, r0
 1984 01fc 0433     		adds	r3, r3, #4
 1985 01fe 1A70     		strb	r2, [r3]
 917:Generated_Source\PSoC5/USBFS_std.c ****                     USBFS_ARB_EP_BASE.arbEp[curEp].rwWaMsb = HI8(USBFS_EP[curEp].buffOffset);
 1986              		.loc 1 917 0
 1987 0200 1548     		ldr	r0, .L136+20
 1988 0202 7978     		ldrb	r1, [r7, #1]	@ zero_extendqisi2
 1989 0204 7A78     		ldrb	r2, [r7, #1]	@ zero_extendqisi2
 1990 0206 124C     		ldr	r4, .L136+12
 1991 0208 1346     		mov	r3, r2
 1992 020a 5B00     		lsls	r3, r3, #1
 1993 020c 1344     		add	r3, r3, r2
 1994 020e 9B00     		lsls	r3, r3, #2
 1995 0210 2344     		add	r3, r3, r4
 1996 0212 0633     		adds	r3, r3, #6
 1997 0214 1B88     		ldrh	r3, [r3]	@ movhi
 1998 0216 9BB2     		uxth	r3, r3
 1999 0218 1B0A     		lsrs	r3, r3, #8
 2000 021a 9BB2     		uxth	r3, r3
 2001 021c DAB2     		uxtb	r2, r3
 2002 021e 0B01     		lsls	r3, r1, #4
 2003 0220 0344     		add	r3, r3, r0
 2004 0222 0533     		adds	r3, r3, #5
 2005 0224 1A70     		strb	r2, [r3]
 2006              	.L127:
 918:Generated_Source\PSoC5/USBFS_std.c ****                 #endif /* (CY_PSOC4) */                
 919:Generated_Source\PSoC5/USBFS_std.c ****             #endif /* (USBFS_EP_MANAGEMENT_DMA_AUTO) */
ARM GAS  C:\Users\CALEBC~1\AppData\Local\Temp\ccxZVyoW.s 			page 54


 920:Generated_Source\PSoC5/USBFS_std.c ****             }
 921:Generated_Source\PSoC5/USBFS_std.c ****             
 922:Generated_Source\PSoC5/USBFS_std.c ****             pEP = &pEP[1u]; /* Get next EP element */
 2007              		.loc 1 922 0 discriminator 2
 2008 0226 BB68     		ldr	r3, [r7, #8]
 2009 0228 0833     		adds	r3, r3, #8
 2010 022a BB60     		str	r3, [r7, #8]
 832:Generated_Source\PSoC5/USBFS_std.c ****         {
 2011              		.loc 1 832 0 discriminator 2
 2012 022c FB7B     		ldrb	r3, [r7, #15]	@ zero_extendqisi2
 2013 022e 0133     		adds	r3, r3, #1
 2014 0230 FB73     		strb	r3, [r7, #15]
 2015              	.L126:
 832:Generated_Source\PSoC5/USBFS_std.c ****         {
 2016              		.loc 1 832 0 is_stmt 0 discriminator 1
 2017 0232 FA7B     		ldrb	r2, [r7, #15]	@ zero_extendqisi2
 2018 0234 FB78     		ldrb	r3, [r7, #3]	@ zero_extendqisi2
 2019 0236 9A42     		cmp	r2, r3
 2020 0238 FFF403AF 		bcc	.L134
 2021              	.L135:
 923:Generated_Source\PSoC5/USBFS_std.c ****         }
 924:Generated_Source\PSoC5/USBFS_std.c ****         
 925:Generated_Source\PSoC5/USBFS_std.c ****         /* The main loop has to re-enable DMA and OUT endpoint */
 926:Generated_Source\PSoC5/USBFS_std.c ****     }
 927:Generated_Source\PSoC5/USBFS_std.c **** }
 2022              		.loc 1 927 0 is_stmt 1
 2023 023c 00BF     		nop
 2024 023e 1437     		adds	r7, r7, #20
 2025              		.cfi_def_cfa_offset 12
 2026 0240 BD46     		mov	sp, r7
 2027              		.cfi_def_cfa_register 13
 2028              		@ sp needed
 2029 0242 90BD     		pop	{r4, r7, pc}
 2030              	.L137:
 2031              		.align	2
 2032              	.L136:
 2033 0244 00000000 		.word	USBFS_configuration
 2034 0248 00000000 		.word	USBFS_interfaceNumber
 2035 024c 00000000 		.word	USBFS_interfaceSetting
 2036 0250 00000000 		.word	USBFS_EP
 2037 0254 FC5F0040 		.word	1073766396
 2038 0258 70600040 		.word	1073766512
 2039              		.cfi_endproc
 2040              	.LFE5:
 2041              		.size	USBFS_ConfigAltChanged, .-USBFS_ConfigAltChanged
 2042              		.section	.text.USBFS_GetConfigTablePtr,"ax",%progbits
 2043              		.align	2
 2044              		.global	USBFS_GetConfigTablePtr
 2045              		.thumb
 2046              		.thumb_func
 2047              		.type	USBFS_GetConfigTablePtr, %function
 2048              	USBFS_GetConfigTablePtr:
 2049              	.LFB6:
 928:Generated_Source\PSoC5/USBFS_std.c **** 
 929:Generated_Source\PSoC5/USBFS_std.c **** 
 930:Generated_Source\PSoC5/USBFS_std.c **** /*******************************************************************************
 931:Generated_Source\PSoC5/USBFS_std.c **** * Function Name: USBFS_GetConfigTablePtr
ARM GAS  C:\Users\CALEBC~1\AppData\Local\Temp\ccxZVyoW.s 			page 55


 932:Generated_Source\PSoC5/USBFS_std.c **** ****************************************************************************//**
 933:Generated_Source\PSoC5/USBFS_std.c **** *
 934:Generated_Source\PSoC5/USBFS_std.c **** *  This routine returns a pointer a configuration table entry
 935:Generated_Source\PSoC5/USBFS_std.c **** *
 936:Generated_Source\PSoC5/USBFS_std.c **** *  \param confIndex:  Configuration Index
 937:Generated_Source\PSoC5/USBFS_std.c **** *
 938:Generated_Source\PSoC5/USBFS_std.c **** * \return
 939:Generated_Source\PSoC5/USBFS_std.c **** *  Device Descriptor pointer or NULL when descriptor does not exist.
 940:Generated_Source\PSoC5/USBFS_std.c **** *
 941:Generated_Source\PSoC5/USBFS_std.c **** *******************************************************************************/
 942:Generated_Source\PSoC5/USBFS_std.c **** const T_USBFS_LUT CYCODE *USBFS_GetConfigTablePtr(uint8 confIndex)
 943:Generated_Source\PSoC5/USBFS_std.c ****                                                         
 944:Generated_Source\PSoC5/USBFS_std.c **** {
 2050              		.loc 1 944 0
 2051              		.cfi_startproc
 2052              		@ args = 0, pretend = 0, frame = 16
 2053              		@ frame_needed = 1, uses_anonymous_args = 0
 2054              		@ link register save eliminated.
 2055 0000 80B4     		push	{r7}
 2056              		.cfi_def_cfa_offset 4
 2057              		.cfi_offset 7, -4
 2058 0002 85B0     		sub	sp, sp, #20
 2059              		.cfi_def_cfa_offset 24
 2060 0004 00AF     		add	r7, sp, #0
 2061              		.cfi_def_cfa_register 7
 2062 0006 0346     		mov	r3, r0
 2063 0008 FB71     		strb	r3, [r7, #7]
 945:Generated_Source\PSoC5/USBFS_std.c ****     /* Device Table */
 946:Generated_Source\PSoC5/USBFS_std.c ****     const T_USBFS_LUT CYCODE *pTmp;
 947:Generated_Source\PSoC5/USBFS_std.c **** 
 948:Generated_Source\PSoC5/USBFS_std.c ****     pTmp = (const T_USBFS_LUT CYCODE *) USBFS_TABLE[USBFS_device].p_list;
 2064              		.loc 1 948 0
 2065 000a 0F4B     		ldr	r3, .L142
 2066 000c 1B78     		ldrb	r3, [r3]
 2067 000e DBB2     		uxtb	r3, r3
 2068 0010 0E4A     		ldr	r2, .L142+4
 2069 0012 DB00     		lsls	r3, r3, #3
 2070 0014 1344     		add	r3, r3, r2
 2071 0016 5B68     		ldr	r3, [r3, #4]
 2072 0018 FB60     		str	r3, [r7, #12]
 949:Generated_Source\PSoC5/USBFS_std.c **** 
 950:Generated_Source\PSoC5/USBFS_std.c ****     /* The first entry points to the Device Descriptor,
 951:Generated_Source\PSoC5/USBFS_std.c ****     *  the second entry point to the BOS Descriptor
 952:Generated_Source\PSoC5/USBFS_std.c ****     *  the rest configuration entries.
 953:Generated_Source\PSoC5/USBFS_std.c ****     *  Set pointer to the first Configuration Descriptor
 954:Generated_Source\PSoC5/USBFS_std.c ****     */
 955:Generated_Source\PSoC5/USBFS_std.c ****     pTmp = &pTmp[2u];
 2073              		.loc 1 955 0
 2074 001a FB68     		ldr	r3, [r7, #12]
 2075 001c 1033     		adds	r3, r3, #16
 2076 001e FB60     		str	r3, [r7, #12]
 956:Generated_Source\PSoC5/USBFS_std.c ****     /* For this table, c is the number of configuration descriptors  */
 957:Generated_Source\PSoC5/USBFS_std.c ****     if(confIndex >= pTmp->c)   /* Verify that required configuration descriptor exists */
 2077              		.loc 1 957 0
 2078 0020 FB68     		ldr	r3, [r7, #12]
 2079 0022 1B78     		ldrb	r3, [r3]	@ zero_extendqisi2
 2080 0024 FA79     		ldrb	r2, [r7, #7]	@ zero_extendqisi2
ARM GAS  C:\Users\CALEBC~1\AppData\Local\Temp\ccxZVyoW.s 			page 56


 2081 0026 9A42     		cmp	r2, r3
 2082 0028 02D3     		bcc	.L139
 958:Generated_Source\PSoC5/USBFS_std.c ****     {
 959:Generated_Source\PSoC5/USBFS_std.c ****         pTmp = (const T_USBFS_LUT CYCODE *) NULL;
 2083              		.loc 1 959 0
 2084 002a 0023     		movs	r3, #0
 2085 002c FB60     		str	r3, [r7, #12]
 2086 002e 05E0     		b	.L140
 2087              	.L139:
 960:Generated_Source\PSoC5/USBFS_std.c ****     }
 961:Generated_Source\PSoC5/USBFS_std.c ****     else
 962:Generated_Source\PSoC5/USBFS_std.c ****     {
 963:Generated_Source\PSoC5/USBFS_std.c ****         pTmp = (const T_USBFS_LUT CYCODE *) pTmp[confIndex].p_list;
 2088              		.loc 1 963 0
 2089 0030 FB79     		ldrb	r3, [r7, #7]	@ zero_extendqisi2
 2090 0032 DB00     		lsls	r3, r3, #3
 2091 0034 FA68     		ldr	r2, [r7, #12]
 2092 0036 1344     		add	r3, r3, r2
 2093 0038 5B68     		ldr	r3, [r3, #4]
 2094 003a FB60     		str	r3, [r7, #12]
 2095              	.L140:
 964:Generated_Source\PSoC5/USBFS_std.c ****     }
 965:Generated_Source\PSoC5/USBFS_std.c **** 
 966:Generated_Source\PSoC5/USBFS_std.c ****     return (pTmp);
 2096              		.loc 1 966 0
 2097 003c FB68     		ldr	r3, [r7, #12]
 967:Generated_Source\PSoC5/USBFS_std.c **** }
 2098              		.loc 1 967 0
 2099 003e 1846     		mov	r0, r3
 2100 0040 1437     		adds	r7, r7, #20
 2101              		.cfi_def_cfa_offset 4
 2102 0042 BD46     		mov	sp, r7
 2103              		.cfi_def_cfa_register 13
 2104              		@ sp needed
 2105 0044 80BC     		pop	{r7}
 2106              		.cfi_restore 7
 2107              		.cfi_def_cfa_offset 0
 2108 0046 7047     		bx	lr
 2109              	.L143:
 2110              		.align	2
 2111              	.L142:
 2112 0048 00000000 		.word	USBFS_device
 2113 004c 00000000 		.word	USBFS_TABLE
 2114              		.cfi_endproc
 2115              	.LFE6:
 2116              		.size	USBFS_GetConfigTablePtr, .-USBFS_GetConfigTablePtr
 2117              		.section	.text.USBFS_GetDeviceTablePtr,"ax",%progbits
 2118              		.align	2
 2119              		.global	USBFS_GetDeviceTablePtr
 2120              		.thumb
 2121              		.thumb_func
 2122              		.type	USBFS_GetDeviceTablePtr, %function
 2123              	USBFS_GetDeviceTablePtr:
 2124              	.LFB7:
 968:Generated_Source\PSoC5/USBFS_std.c **** 
 969:Generated_Source\PSoC5/USBFS_std.c **** 
 970:Generated_Source\PSoC5/USBFS_std.c **** #if (USBFS_BOS_ENABLE)
ARM GAS  C:\Users\CALEBC~1\AppData\Local\Temp\ccxZVyoW.s 			page 57


 971:Generated_Source\PSoC5/USBFS_std.c ****     /*******************************************************************************
 972:Generated_Source\PSoC5/USBFS_std.c ****     * Function Name: USBFS_GetBOSPtr
 973:Generated_Source\PSoC5/USBFS_std.c ****     ****************************************************************************//**
 974:Generated_Source\PSoC5/USBFS_std.c ****     *
 975:Generated_Source\PSoC5/USBFS_std.c ****     *  This routine returns a pointer a BOS table entry
 976:Generated_Source\PSoC5/USBFS_std.c ****     *
 977:Generated_Source\PSoC5/USBFS_std.c ****     *  
 978:Generated_Source\PSoC5/USBFS_std.c ****     *
 979:Generated_Source\PSoC5/USBFS_std.c ****     * \return
 980:Generated_Source\PSoC5/USBFS_std.c ****     *  BOS Descriptor pointer or NULL when descriptor does not exist.
 981:Generated_Source\PSoC5/USBFS_std.c ****     *
 982:Generated_Source\PSoC5/USBFS_std.c ****     *******************************************************************************/
 983:Generated_Source\PSoC5/USBFS_std.c ****     const T_USBFS_LUT CYCODE *USBFS_GetBOSPtr(void)
 984:Generated_Source\PSoC5/USBFS_std.c ****                                                             
 985:Generated_Source\PSoC5/USBFS_std.c ****     {
 986:Generated_Source\PSoC5/USBFS_std.c ****         /* Device Table */
 987:Generated_Source\PSoC5/USBFS_std.c ****         const T_USBFS_LUT CYCODE *pTmp;
 988:Generated_Source\PSoC5/USBFS_std.c **** 
 989:Generated_Source\PSoC5/USBFS_std.c ****         pTmp = (const T_USBFS_LUT CYCODE *) USBFS_TABLE[USBFS_device].p_list;
 990:Generated_Source\PSoC5/USBFS_std.c **** 
 991:Generated_Source\PSoC5/USBFS_std.c ****         /* The first entry points to the Device Descriptor,
 992:Generated_Source\PSoC5/USBFS_std.c ****         *  the second entry points to the BOS Descriptor
 993:Generated_Source\PSoC5/USBFS_std.c ****         */
 994:Generated_Source\PSoC5/USBFS_std.c ****         pTmp = &pTmp[1u];
 995:Generated_Source\PSoC5/USBFS_std.c ****         pTmp = (const T_USBFS_LUT CYCODE *) pTmp->p_list;
 996:Generated_Source\PSoC5/USBFS_std.c ****         return (pTmp);
 997:Generated_Source\PSoC5/USBFS_std.c ****     }
 998:Generated_Source\PSoC5/USBFS_std.c **** #endif /* (USBFS_BOS_ENABLE) */
 999:Generated_Source\PSoC5/USBFS_std.c **** 
1000:Generated_Source\PSoC5/USBFS_std.c **** 
1001:Generated_Source\PSoC5/USBFS_std.c **** /*******************************************************************************
1002:Generated_Source\PSoC5/USBFS_std.c **** * Function Name: USBFS_GetDeviceTablePtr
1003:Generated_Source\PSoC5/USBFS_std.c **** ****************************************************************************//**
1004:Generated_Source\PSoC5/USBFS_std.c **** *
1005:Generated_Source\PSoC5/USBFS_std.c **** *  This routine returns a pointer to the Device table
1006:Generated_Source\PSoC5/USBFS_std.c **** *
1007:Generated_Source\PSoC5/USBFS_std.c **** * \return
1008:Generated_Source\PSoC5/USBFS_std.c **** *  Device Table pointer
1009:Generated_Source\PSoC5/USBFS_std.c **** *
1010:Generated_Source\PSoC5/USBFS_std.c **** *******************************************************************************/
1011:Generated_Source\PSoC5/USBFS_std.c **** const T_USBFS_LUT CYCODE *USBFS_GetDeviceTablePtr(void)
1012:Generated_Source\PSoC5/USBFS_std.c ****                                                             
1013:Generated_Source\PSoC5/USBFS_std.c **** {
 2125              		.loc 1 1013 0
 2126              		.cfi_startproc
 2127              		@ args = 0, pretend = 0, frame = 0
 2128              		@ frame_needed = 1, uses_anonymous_args = 0
 2129              		@ link register save eliminated.
 2130 0000 80B4     		push	{r7}
 2131              		.cfi_def_cfa_offset 4
 2132              		.cfi_offset 7, -4
 2133 0002 00AF     		add	r7, sp, #0
 2134              		.cfi_def_cfa_register 7
1014:Generated_Source\PSoC5/USBFS_std.c ****     /* Device Table */
1015:Generated_Source\PSoC5/USBFS_std.c ****     return( (const T_USBFS_LUT CYCODE *) USBFS_TABLE[USBFS_device].p_list );
 2135              		.loc 1 1015 0
 2136 0004 054B     		ldr	r3, .L146
ARM GAS  C:\Users\CALEBC~1\AppData\Local\Temp\ccxZVyoW.s 			page 58


 2137 0006 1B78     		ldrb	r3, [r3]
 2138 0008 DBB2     		uxtb	r3, r3
 2139 000a 054A     		ldr	r2, .L146+4
 2140 000c DB00     		lsls	r3, r3, #3
 2141 000e 1344     		add	r3, r3, r2
 2142 0010 5B68     		ldr	r3, [r3, #4]
1016:Generated_Source\PSoC5/USBFS_std.c **** }
 2143              		.loc 1 1016 0
 2144 0012 1846     		mov	r0, r3
 2145 0014 BD46     		mov	sp, r7
 2146              		.cfi_def_cfa_register 13
 2147              		@ sp needed
 2148 0016 80BC     		pop	{r7}
 2149              		.cfi_restore 7
 2150              		.cfi_def_cfa_offset 0
 2151 0018 7047     		bx	lr
 2152              	.L147:
 2153 001a 00BF     		.align	2
 2154              	.L146:
 2155 001c 00000000 		.word	USBFS_device
 2156 0020 00000000 		.word	USBFS_TABLE
 2157              		.cfi_endproc
 2158              	.LFE7:
 2159              		.size	USBFS_GetDeviceTablePtr, .-USBFS_GetDeviceTablePtr
 2160              		.section	.text.USBFS_GetInterfaceClassTablePtr,"ax",%progbits
 2161              		.align	2
 2162              		.global	USBFS_GetInterfaceClassTablePtr
 2163              		.thumb
 2164              		.thumb_func
 2165              		.type	USBFS_GetInterfaceClassTablePtr, %function
 2166              	USBFS_GetInterfaceClassTablePtr:
 2167              	.LFB8:
1017:Generated_Source\PSoC5/USBFS_std.c **** 
1018:Generated_Source\PSoC5/USBFS_std.c **** 
1019:Generated_Source\PSoC5/USBFS_std.c **** /*******************************************************************************
1020:Generated_Source\PSoC5/USBFS_std.c **** * Function Name: USB_GetInterfaceClassTablePtr
1021:Generated_Source\PSoC5/USBFS_std.c **** ****************************************************************************//**
1022:Generated_Source\PSoC5/USBFS_std.c **** *
1023:Generated_Source\PSoC5/USBFS_std.c **** *  This routine returns Interface Class table pointer, which contains
1024:Generated_Source\PSoC5/USBFS_std.c **** *  the relation between interface number and interface class.
1025:Generated_Source\PSoC5/USBFS_std.c **** *
1026:Generated_Source\PSoC5/USBFS_std.c **** * \return
1027:Generated_Source\PSoC5/USBFS_std.c **** *  Interface Class table pointer.
1028:Generated_Source\PSoC5/USBFS_std.c **** *
1029:Generated_Source\PSoC5/USBFS_std.c **** *******************************************************************************/
1030:Generated_Source\PSoC5/USBFS_std.c **** const uint8 CYCODE *USBFS_GetInterfaceClassTablePtr(void)
1031:Generated_Source\PSoC5/USBFS_std.c ****                                                         
1032:Generated_Source\PSoC5/USBFS_std.c **** {
 2168              		.loc 1 1032 0
 2169              		.cfi_startproc
 2170              		@ args = 0, pretend = 0, frame = 16
 2171              		@ frame_needed = 1, uses_anonymous_args = 0
 2172 0000 80B5     		push	{r7, lr}
 2173              		.cfi_def_cfa_offset 8
 2174              		.cfi_offset 7, -8
 2175              		.cfi_offset 14, -4
 2176 0002 84B0     		sub	sp, sp, #16
ARM GAS  C:\Users\CALEBC~1\AppData\Local\Temp\ccxZVyoW.s 			page 59


 2177              		.cfi_def_cfa_offset 24
 2178 0004 00AF     		add	r7, sp, #0
 2179              		.cfi_def_cfa_register 7
1033:Generated_Source\PSoC5/USBFS_std.c ****     const T_USBFS_LUT CYCODE *pTmp;
1034:Generated_Source\PSoC5/USBFS_std.c ****     const uint8 CYCODE *pInterfaceClass;
1035:Generated_Source\PSoC5/USBFS_std.c ****     uint8 currentInterfacesNum;
1036:Generated_Source\PSoC5/USBFS_std.c **** 
1037:Generated_Source\PSoC5/USBFS_std.c ****     pTmp = USBFS_GetConfigTablePtr(USBFS_configuration - 1u);
 2180              		.loc 1 1037 0
 2181 0006 104B     		ldr	r3, .L152
 2182 0008 1B78     		ldrb	r3, [r3]
 2183 000a DBB2     		uxtb	r3, r3
 2184 000c 013B     		subs	r3, r3, #1
 2185 000e DBB2     		uxtb	r3, r3
 2186 0010 1846     		mov	r0, r3
 2187 0012 FFF7FEFF 		bl	USBFS_GetConfigTablePtr
 2188 0016 B860     		str	r0, [r7, #8]
1038:Generated_Source\PSoC5/USBFS_std.c ****     if (pTmp != NULL)
 2189              		.loc 1 1038 0
 2190 0018 BB68     		ldr	r3, [r7, #8]
 2191 001a 002B     		cmp	r3, #0
 2192 001c 0DD0     		beq	.L149
1039:Generated_Source\PSoC5/USBFS_std.c ****     {
1040:Generated_Source\PSoC5/USBFS_std.c ****         currentInterfacesNum  = ((const uint8 *) pTmp->p_list)[USBFS_CONFIG_DESCR_NUM_INTERFACES];
 2193              		.loc 1 1040 0
 2194 001e BB68     		ldr	r3, [r7, #8]
 2195 0020 5B68     		ldr	r3, [r3, #4]
 2196 0022 1B79     		ldrb	r3, [r3, #4]
 2197 0024 FB71     		strb	r3, [r7, #7]
1041:Generated_Source\PSoC5/USBFS_std.c ****         /* Third entry in the LUT starts the Interface Table pointers */
1042:Generated_Source\PSoC5/USBFS_std.c ****         /* The INTERFACE_CLASS table is located after all interfaces */
1043:Generated_Source\PSoC5/USBFS_std.c ****         pTmp = &pTmp[currentInterfacesNum + 2u];
 2198              		.loc 1 1043 0
 2199 0026 FB79     		ldrb	r3, [r7, #7]	@ zero_extendqisi2
 2200 0028 0233     		adds	r3, r3, #2
 2201 002a DB00     		lsls	r3, r3, #3
 2202 002c BA68     		ldr	r2, [r7, #8]
 2203 002e 1344     		add	r3, r3, r2
 2204 0030 BB60     		str	r3, [r7, #8]
1044:Generated_Source\PSoC5/USBFS_std.c ****         pInterfaceClass = (const uint8 CYCODE *) pTmp->p_list;
 2205              		.loc 1 1044 0
 2206 0032 BB68     		ldr	r3, [r7, #8]
 2207 0034 5B68     		ldr	r3, [r3, #4]
 2208 0036 FB60     		str	r3, [r7, #12]
 2209 0038 01E0     		b	.L150
 2210              	.L149:
1045:Generated_Source\PSoC5/USBFS_std.c ****     }
1046:Generated_Source\PSoC5/USBFS_std.c ****     else
1047:Generated_Source\PSoC5/USBFS_std.c ****     {
1048:Generated_Source\PSoC5/USBFS_std.c ****         pInterfaceClass = (const uint8 CYCODE *) NULL;
 2211              		.loc 1 1048 0
 2212 003a 0023     		movs	r3, #0
 2213 003c FB60     		str	r3, [r7, #12]
 2214              	.L150:
1049:Generated_Source\PSoC5/USBFS_std.c ****     }
1050:Generated_Source\PSoC5/USBFS_std.c **** 
1051:Generated_Source\PSoC5/USBFS_std.c ****     return (pInterfaceClass);
ARM GAS  C:\Users\CALEBC~1\AppData\Local\Temp\ccxZVyoW.s 			page 60


 2215              		.loc 1 1051 0
 2216 003e FB68     		ldr	r3, [r7, #12]
1052:Generated_Source\PSoC5/USBFS_std.c **** }
 2217              		.loc 1 1052 0
 2218 0040 1846     		mov	r0, r3
 2219 0042 1037     		adds	r7, r7, #16
 2220              		.cfi_def_cfa_offset 8
 2221 0044 BD46     		mov	sp, r7
 2222              		.cfi_def_cfa_register 13
 2223              		@ sp needed
 2224 0046 80BD     		pop	{r7, pc}
 2225              	.L153:
 2226              		.align	2
 2227              	.L152:
 2228 0048 00000000 		.word	USBFS_configuration
 2229              		.cfi_endproc
 2230              	.LFE8:
 2231              		.size	USBFS_GetInterfaceClassTablePtr, .-USBFS_GetInterfaceClassTablePtr
 2232              		.section	.text.USBFS_TerminateEP,"ax",%progbits
 2233              		.align	2
 2234              		.global	USBFS_TerminateEP
 2235              		.thumb
 2236              		.thumb_func
 2237              		.type	USBFS_TerminateEP, %function
 2238              	USBFS_TerminateEP:
 2239              	.LFB9:
1053:Generated_Source\PSoC5/USBFS_std.c **** 
1054:Generated_Source\PSoC5/USBFS_std.c **** 
1055:Generated_Source\PSoC5/USBFS_std.c **** /*******************************************************************************
1056:Generated_Source\PSoC5/USBFS_std.c **** * Function Name: USBFS_TerminateEP
1057:Generated_Source\PSoC5/USBFS_std.c **** ****************************************************************************//**
1058:Generated_Source\PSoC5/USBFS_std.c **** *
1059:Generated_Source\PSoC5/USBFS_std.c **** *  This function terminates the specified USBFS endpoint.
1060:Generated_Source\PSoC5/USBFS_std.c **** *  This function should be used before endpoint reconfiguration.
1061:Generated_Source\PSoC5/USBFS_std.c **** *
1062:Generated_Source\PSoC5/USBFS_std.c **** *  \param ep Contains the data endpoint number.
1063:Generated_Source\PSoC5/USBFS_std.c **** *
1064:Generated_Source\PSoC5/USBFS_std.c **** *  \reentrant
1065:Generated_Source\PSoC5/USBFS_std.c **** *  No.
1066:Generated_Source\PSoC5/USBFS_std.c **** *
1067:Generated_Source\PSoC5/USBFS_std.c **** * \sideeffect
1068:Generated_Source\PSoC5/USBFS_std.c **** * 
1069:Generated_Source\PSoC5/USBFS_std.c **** * The device responds with a NAK for any transactions on the selected endpoint.
1070:Generated_Source\PSoC5/USBFS_std.c **** *   
1071:Generated_Source\PSoC5/USBFS_std.c **** *******************************************************************************/
1072:Generated_Source\PSoC5/USBFS_std.c **** void USBFS_TerminateEP(uint8 epNumber) 
1073:Generated_Source\PSoC5/USBFS_std.c **** {
 2240              		.loc 1 1073 0
 2241              		.cfi_startproc
 2242              		@ args = 0, pretend = 0, frame = 8
 2243              		@ frame_needed = 1, uses_anonymous_args = 0
 2244              		@ link register save eliminated.
 2245 0000 80B4     		push	{r7}
 2246              		.cfi_def_cfa_offset 4
 2247              		.cfi_offset 7, -4
 2248 0002 83B0     		sub	sp, sp, #12
 2249              		.cfi_def_cfa_offset 16
ARM GAS  C:\Users\CALEBC~1\AppData\Local\Temp\ccxZVyoW.s 			page 61


 2250 0004 00AF     		add	r7, sp, #0
 2251              		.cfi_def_cfa_register 7
 2252 0006 0346     		mov	r3, r0
 2253 0008 FB71     		strb	r3, [r7, #7]
1074:Generated_Source\PSoC5/USBFS_std.c ****     /* Get endpoint number */
1075:Generated_Source\PSoC5/USBFS_std.c ****     epNumber &= USBFS_DIR_UNUSED;
 2254              		.loc 1 1075 0
 2255 000a FB79     		ldrb	r3, [r7, #7]
 2256 000c 03F07F03 		and	r3, r3, #127
 2257 0010 FB71     		strb	r3, [r7, #7]
1076:Generated_Source\PSoC5/USBFS_std.c **** 
1077:Generated_Source\PSoC5/USBFS_std.c ****     if ((epNumber > USBFS_EP0) && (epNumber < USBFS_MAX_EP))
 2258              		.loc 1 1077 0
 2259 0012 FB79     		ldrb	r3, [r7, #7]	@ zero_extendqisi2
 2260 0014 002B     		cmp	r3, #0
 2261 0016 49D0     		beq	.L157
 2262              		.loc 1 1077 0 is_stmt 0 discriminator 1
 2263 0018 FB79     		ldrb	r3, [r7, #7]	@ zero_extendqisi2
 2264 001a 082B     		cmp	r3, #8
 2265 001c 46D8     		bhi	.L157
1078:Generated_Source\PSoC5/USBFS_std.c ****     {
1079:Generated_Source\PSoC5/USBFS_std.c ****         /* Set the endpoint Halt */
1080:Generated_Source\PSoC5/USBFS_std.c ****         USBFS_EP[epNumber].hwEpState |= USBFS_ENDPOINT_STATUS_HALT;
 2266              		.loc 1 1080 0 is_stmt 1
 2267 001e FA79     		ldrb	r2, [r7, #7]	@ zero_extendqisi2
 2268 0020 F979     		ldrb	r1, [r7, #7]	@ zero_extendqisi2
 2269 0022 2548     		ldr	r0, .L158
 2270 0024 0B46     		mov	r3, r1
 2271 0026 5B00     		lsls	r3, r3, #1
 2272 0028 0B44     		add	r3, r3, r1
 2273 002a 9B00     		lsls	r3, r3, #2
 2274 002c 0344     		add	r3, r3, r0
 2275 002e 0233     		adds	r3, r3, #2
 2276 0030 1B78     		ldrb	r3, [r3]
 2277 0032 DBB2     		uxtb	r3, r3
 2278 0034 43F00103 		orr	r3, r3, #1
 2279 0038 D8B2     		uxtb	r0, r3
 2280 003a 1F49     		ldr	r1, .L158
 2281 003c 1346     		mov	r3, r2
 2282 003e 5B00     		lsls	r3, r3, #1
 2283 0040 1344     		add	r3, r3, r2
 2284 0042 9B00     		lsls	r3, r3, #2
 2285 0044 0B44     		add	r3, r3, r1
 2286 0046 0233     		adds	r3, r3, #2
 2287 0048 0246     		mov	r2, r0
 2288 004a 1A70     		strb	r2, [r3]
1081:Generated_Source\PSoC5/USBFS_std.c **** 
1082:Generated_Source\PSoC5/USBFS_std.c ****         /* Clear the data toggle */
1083:Generated_Source\PSoC5/USBFS_std.c ****         USBFS_EP[epNumber].epToggle = 0u;
 2289              		.loc 1 1083 0
 2290 004c FA79     		ldrb	r2, [r7, #7]	@ zero_extendqisi2
 2291 004e 1A49     		ldr	r1, .L158
 2292 0050 1346     		mov	r3, r2
 2293 0052 5B00     		lsls	r3, r3, #1
 2294 0054 1344     		add	r3, r3, r2
 2295 0056 9B00     		lsls	r3, r3, #2
 2296 0058 0B44     		add	r3, r3, r1
ARM GAS  C:\Users\CALEBC~1\AppData\Local\Temp\ccxZVyoW.s 			page 62


 2297 005a 0333     		adds	r3, r3, #3
 2298 005c 0022     		movs	r2, #0
 2299 005e 1A70     		strb	r2, [r3]
1084:Generated_Source\PSoC5/USBFS_std.c ****         USBFS_EP[epNumber].apiEpState = USBFS_NO_EVENT_ALLOWED;
 2300              		.loc 1 1084 0
 2301 0060 FA79     		ldrb	r2, [r7, #7]	@ zero_extendqisi2
 2302 0062 1549     		ldr	r1, .L158
 2303 0064 1346     		mov	r3, r2
 2304 0066 5B00     		lsls	r3, r3, #1
 2305 0068 1344     		add	r3, r3, r2
 2306 006a 9B00     		lsls	r3, r3, #2
 2307 006c 0B44     		add	r3, r3, r1
 2308 006e 0133     		adds	r3, r3, #1
 2309 0070 0222     		movs	r2, #2
 2310 0072 1A70     		strb	r2, [r3]
1085:Generated_Source\PSoC5/USBFS_std.c **** 
1086:Generated_Source\PSoC5/USBFS_std.c ****         if ((USBFS_EP[epNumber].addr & USBFS_DIR_IN) != 0u)
 2311              		.loc 1 1086 0
 2312 0074 FA79     		ldrb	r2, [r7, #7]	@ zero_extendqisi2
 2313 0076 1049     		ldr	r1, .L158
 2314 0078 1346     		mov	r3, r2
 2315 007a 5B00     		lsls	r3, r3, #1
 2316 007c 1344     		add	r3, r3, r2
 2317 007e 9B00     		lsls	r3, r3, #2
 2318 0080 0B44     		add	r3, r3, r1
 2319 0082 0433     		adds	r3, r3, #4
 2320 0084 1B78     		ldrb	r3, [r3]
 2321 0086 DBB2     		uxtb	r3, r3
 2322 0088 5BB2     		sxtb	r3, r3
 2323 008a 002B     		cmp	r3, #0
 2324 008c 07DA     		bge	.L156
1087:Generated_Source\PSoC5/USBFS_std.c ****         {   
1088:Generated_Source\PSoC5/USBFS_std.c ****             /* IN Endpoint */
1089:Generated_Source\PSoC5/USBFS_std.c ****             USBFS_SIE_EP_BASE.sieEp[epNumber].epCr0 = USBFS_MODE_NAK_IN;
 2325              		.loc 1 1089 0
 2326 008e 0B4A     		ldr	r2, .L158+4
 2327 0090 FB79     		ldrb	r3, [r7, #7]	@ zero_extendqisi2
 2328 0092 1B01     		lsls	r3, r3, #4
 2329 0094 1344     		add	r3, r3, r2
 2330 0096 0233     		adds	r3, r3, #2
 2331 0098 0C22     		movs	r2, #12
 2332 009a 1A70     		strb	r2, [r3]
1090:Generated_Source\PSoC5/USBFS_std.c ****         }
1091:Generated_Source\PSoC5/USBFS_std.c ****         else
1092:Generated_Source\PSoC5/USBFS_std.c ****         {
1093:Generated_Source\PSoC5/USBFS_std.c ****             /* OUT Endpoint */
1094:Generated_Source\PSoC5/USBFS_std.c ****             USBFS_SIE_EP_BASE.sieEp[epNumber].epCr0 = USBFS_MODE_NAK_OUT;
1095:Generated_Source\PSoC5/USBFS_std.c ****         }
1096:Generated_Source\PSoC5/USBFS_std.c ****     }
1097:Generated_Source\PSoC5/USBFS_std.c **** }
 2333              		.loc 1 1097 0
 2334 009c 06E0     		b	.L157
 2335              	.L156:
1094:Generated_Source\PSoC5/USBFS_std.c ****         }
 2336              		.loc 1 1094 0
 2337 009e 074A     		ldr	r2, .L158+4
 2338 00a0 FB79     		ldrb	r3, [r7, #7]	@ zero_extendqisi2
ARM GAS  C:\Users\CALEBC~1\AppData\Local\Temp\ccxZVyoW.s 			page 63


 2339 00a2 1B01     		lsls	r3, r3, #4
 2340 00a4 1344     		add	r3, r3, r2
 2341 00a6 0233     		adds	r3, r3, #2
 2342 00a8 0822     		movs	r2, #8
 2343 00aa 1A70     		strb	r2, [r3]
 2344              	.L157:
 2345              		.loc 1 1097 0
 2346 00ac 00BF     		nop
 2347 00ae 0C37     		adds	r7, r7, #12
 2348              		.cfi_def_cfa_offset 4
 2349 00b0 BD46     		mov	sp, r7
 2350              		.cfi_def_cfa_register 13
 2351              		@ sp needed
 2352 00b2 80BC     		pop	{r7}
 2353              		.cfi_restore 7
 2354              		.cfi_def_cfa_offset 0
 2355 00b4 7047     		bx	lr
 2356              	.L159:
 2357 00b6 00BF     		.align	2
 2358              	.L158:
 2359 00b8 00000000 		.word	USBFS_EP
 2360 00bc FC5F0040 		.word	1073766396
 2361              		.cfi_endproc
 2362              	.LFE9:
 2363              		.size	USBFS_TerminateEP, .-USBFS_TerminateEP
 2364              		.section	.text.USBFS_SetEndpointHalt,"ax",%progbits
 2365              		.align	2
 2366              		.global	USBFS_SetEndpointHalt
 2367              		.thumb
 2368              		.thumb_func
 2369              		.type	USBFS_SetEndpointHalt, %function
 2370              	USBFS_SetEndpointHalt:
 2371              	.LFB10:
1098:Generated_Source\PSoC5/USBFS_std.c **** 
1099:Generated_Source\PSoC5/USBFS_std.c **** 
1100:Generated_Source\PSoC5/USBFS_std.c **** /*******************************************************************************
1101:Generated_Source\PSoC5/USBFS_std.c **** * Function Name: USBFS_SetEndpointHalt
1102:Generated_Source\PSoC5/USBFS_std.c **** ****************************************************************************//**
1103:Generated_Source\PSoC5/USBFS_std.c **** *
1104:Generated_Source\PSoC5/USBFS_std.c **** *  This routine handles set endpoint halt.
1105:Generated_Source\PSoC5/USBFS_std.c **** *
1106:Generated_Source\PSoC5/USBFS_std.c **** * \return
1107:Generated_Source\PSoC5/USBFS_std.c **** *  requestHandled.
1108:Generated_Source\PSoC5/USBFS_std.c **** *
1109:Generated_Source\PSoC5/USBFS_std.c **** * \reentrant
1110:Generated_Source\PSoC5/USBFS_std.c **** *  No.
1111:Generated_Source\PSoC5/USBFS_std.c **** *
1112:Generated_Source\PSoC5/USBFS_std.c **** *******************************************************************************/
1113:Generated_Source\PSoC5/USBFS_std.c **** uint8 USBFS_SetEndpointHalt(void) 
1114:Generated_Source\PSoC5/USBFS_std.c **** {
 2372              		.loc 1 1114 0
 2373              		.cfi_startproc
 2374              		@ args = 0, pretend = 0, frame = 8
 2375              		@ frame_needed = 1, uses_anonymous_args = 0
 2376 0000 80B5     		push	{r7, lr}
 2377              		.cfi_def_cfa_offset 8
 2378              		.cfi_offset 7, -8
ARM GAS  C:\Users\CALEBC~1\AppData\Local\Temp\ccxZVyoW.s 			page 64


 2379              		.cfi_offset 14, -4
 2380 0002 82B0     		sub	sp, sp, #8
 2381              		.cfi_def_cfa_offset 16
 2382 0004 00AF     		add	r7, sp, #0
 2383              		.cfi_def_cfa_register 7
1115:Generated_Source\PSoC5/USBFS_std.c ****     uint8 requestHandled = USBFS_FALSE;
 2384              		.loc 1 1115 0
 2385 0006 0023     		movs	r3, #0
 2386 0008 FB71     		strb	r3, [r7, #7]
1116:Generated_Source\PSoC5/USBFS_std.c ****     uint8 ep;
1117:Generated_Source\PSoC5/USBFS_std.c ****     
1118:Generated_Source\PSoC5/USBFS_std.c ****     /* Set endpoint halt */
1119:Generated_Source\PSoC5/USBFS_std.c ****     ep = USBFS_wIndexLoReg & USBFS_DIR_UNUSED;
 2387              		.loc 1 1119 0
 2388 000a 344B     		ldr	r3, .L165
 2389 000c 1B79     		ldrb	r3, [r3, #4]
 2390 000e DBB2     		uxtb	r3, r3
 2391 0010 03F07F03 		and	r3, r3, #127
 2392 0014 BB71     		strb	r3, [r7, #6]
1120:Generated_Source\PSoC5/USBFS_std.c **** 
1121:Generated_Source\PSoC5/USBFS_std.c ****     if ((ep > USBFS_EP0) && (ep < USBFS_MAX_EP))
 2393              		.loc 1 1121 0
 2394 0016 BB79     		ldrb	r3, [r7, #6]	@ zero_extendqisi2
 2395 0018 002B     		cmp	r3, #0
 2396 001a 5AD0     		beq	.L161
 2397              		.loc 1 1121 0 is_stmt 0 discriminator 1
 2398 001c BB79     		ldrb	r3, [r7, #6]	@ zero_extendqisi2
 2399 001e 082B     		cmp	r3, #8
 2400 0020 57D8     		bhi	.L161
1122:Generated_Source\PSoC5/USBFS_std.c ****     {
1123:Generated_Source\PSoC5/USBFS_std.c ****         /* Set the endpoint Halt */
1124:Generated_Source\PSoC5/USBFS_std.c ****         USBFS_EP[ep].hwEpState |= (USBFS_ENDPOINT_STATUS_HALT);
 2401              		.loc 1 1124 0 is_stmt 1
 2402 0022 BA79     		ldrb	r2, [r7, #6]	@ zero_extendqisi2
 2403 0024 B979     		ldrb	r1, [r7, #6]	@ zero_extendqisi2
 2404 0026 2E48     		ldr	r0, .L165+4
 2405 0028 0B46     		mov	r3, r1
 2406 002a 5B00     		lsls	r3, r3, #1
 2407 002c 0B44     		add	r3, r3, r1
 2408 002e 9B00     		lsls	r3, r3, #2
 2409 0030 0344     		add	r3, r3, r0
 2410 0032 0233     		adds	r3, r3, #2
 2411 0034 1B78     		ldrb	r3, [r3]
 2412 0036 DBB2     		uxtb	r3, r3
 2413 0038 43F00103 		orr	r3, r3, #1
 2414 003c D8B2     		uxtb	r0, r3
 2415 003e 2849     		ldr	r1, .L165+4
 2416 0040 1346     		mov	r3, r2
 2417 0042 5B00     		lsls	r3, r3, #1
 2418 0044 1344     		add	r3, r3, r2
 2419 0046 9B00     		lsls	r3, r3, #2
 2420 0048 0B44     		add	r3, r3, r1
 2421 004a 0233     		adds	r3, r3, #2
 2422 004c 0246     		mov	r2, r0
 2423 004e 1A70     		strb	r2, [r3]
1125:Generated_Source\PSoC5/USBFS_std.c **** 
1126:Generated_Source\PSoC5/USBFS_std.c ****         /* Clear the data toggle */
ARM GAS  C:\Users\CALEBC~1\AppData\Local\Temp\ccxZVyoW.s 			page 65


1127:Generated_Source\PSoC5/USBFS_std.c ****         USBFS_EP[ep].epToggle = 0u;
 2424              		.loc 1 1127 0
 2425 0050 BA79     		ldrb	r2, [r7, #6]	@ zero_extendqisi2
 2426 0052 2349     		ldr	r1, .L165+4
 2427 0054 1346     		mov	r3, r2
 2428 0056 5B00     		lsls	r3, r3, #1
 2429 0058 1344     		add	r3, r3, r2
 2430 005a 9B00     		lsls	r3, r3, #2
 2431 005c 0B44     		add	r3, r3, r1
 2432 005e 0333     		adds	r3, r3, #3
 2433 0060 0022     		movs	r2, #0
 2434 0062 1A70     		strb	r2, [r3]
1128:Generated_Source\PSoC5/USBFS_std.c ****         USBFS_EP[ep].apiEpState |= USBFS_NO_EVENT_ALLOWED;
 2435              		.loc 1 1128 0
 2436 0064 BA79     		ldrb	r2, [r7, #6]	@ zero_extendqisi2
 2437 0066 B979     		ldrb	r1, [r7, #6]	@ zero_extendqisi2
 2438 0068 1D48     		ldr	r0, .L165+4
 2439 006a 0B46     		mov	r3, r1
 2440 006c 5B00     		lsls	r3, r3, #1
 2441 006e 0B44     		add	r3, r3, r1
 2442 0070 9B00     		lsls	r3, r3, #2
 2443 0072 0344     		add	r3, r3, r0
 2444 0074 0133     		adds	r3, r3, #1
 2445 0076 1B78     		ldrb	r3, [r3]
 2446 0078 DBB2     		uxtb	r3, r3
 2447 007a 43F00203 		orr	r3, r3, #2
 2448 007e D8B2     		uxtb	r0, r3
 2449 0080 1749     		ldr	r1, .L165+4
 2450 0082 1346     		mov	r3, r2
 2451 0084 5B00     		lsls	r3, r3, #1
 2452 0086 1344     		add	r3, r3, r2
 2453 0088 9B00     		lsls	r3, r3, #2
 2454 008a 0B44     		add	r3, r3, r1
 2455 008c 0133     		adds	r3, r3, #1
 2456 008e 0246     		mov	r2, r0
 2457 0090 1A70     		strb	r2, [r3]
1129:Generated_Source\PSoC5/USBFS_std.c **** 
1130:Generated_Source\PSoC5/USBFS_std.c ****         if ((USBFS_EP[ep].addr & USBFS_DIR_IN) != 0u)
 2458              		.loc 1 1130 0
 2459 0092 BA79     		ldrb	r2, [r7, #6]	@ zero_extendqisi2
 2460 0094 1249     		ldr	r1, .L165+4
 2461 0096 1346     		mov	r3, r2
 2462 0098 5B00     		lsls	r3, r3, #1
 2463 009a 1344     		add	r3, r3, r2
 2464 009c 9B00     		lsls	r3, r3, #2
 2465 009e 0B44     		add	r3, r3, r1
 2466 00a0 0433     		adds	r3, r3, #4
 2467 00a2 1B78     		ldrb	r3, [r3]
 2468 00a4 DBB2     		uxtb	r3, r3
 2469 00a6 5BB2     		sxtb	r3, r3
 2470 00a8 002B     		cmp	r3, #0
 2471 00aa 07DA     		bge	.L162
1131:Generated_Source\PSoC5/USBFS_std.c ****         {
1132:Generated_Source\PSoC5/USBFS_std.c ****             /* IN Endpoint */
1133:Generated_Source\PSoC5/USBFS_std.c ****             USBFS_SIE_EP_BASE.sieEp[ep].epCr0 = (USBFS_MODE_STALL_DATA_EP | 
 2472              		.loc 1 1133 0
 2473 00ac 0D4A     		ldr	r2, .L165+8
ARM GAS  C:\Users\CALEBC~1\AppData\Local\Temp\ccxZVyoW.s 			page 66


 2474 00ae BB79     		ldrb	r3, [r7, #6]	@ zero_extendqisi2
 2475 00b0 1B01     		lsls	r3, r3, #4
 2476 00b2 1344     		add	r3, r3, r2
 2477 00b4 0233     		adds	r3, r3, #2
 2478 00b6 8D22     		movs	r2, #141
 2479 00b8 1A70     		strb	r2, [r3]
 2480 00ba 06E0     		b	.L163
 2481              	.L162:
1134:Generated_Source\PSoC5/USBFS_std.c ****                                                             USBFS_MODE_ACK_IN);
1135:Generated_Source\PSoC5/USBFS_std.c ****         }
1136:Generated_Source\PSoC5/USBFS_std.c ****         else
1137:Generated_Source\PSoC5/USBFS_std.c ****         {
1138:Generated_Source\PSoC5/USBFS_std.c ****             /* OUT Endpoint */
1139:Generated_Source\PSoC5/USBFS_std.c ****             USBFS_SIE_EP_BASE.sieEp[ep].epCr0 = (USBFS_MODE_STALL_DATA_EP | 
 2482              		.loc 1 1139 0
 2483 00bc 094A     		ldr	r2, .L165+8
 2484 00be BB79     		ldrb	r3, [r7, #6]	@ zero_extendqisi2
 2485 00c0 1B01     		lsls	r3, r3, #4
 2486 00c2 1344     		add	r3, r3, r2
 2487 00c4 0233     		adds	r3, r3, #2
 2488 00c6 8922     		movs	r2, #137
 2489 00c8 1A70     		strb	r2, [r3]
 2490              	.L163:
1140:Generated_Source\PSoC5/USBFS_std.c ****                                                             USBFS_MODE_ACK_OUT);
1141:Generated_Source\PSoC5/USBFS_std.c ****         }
1142:Generated_Source\PSoC5/USBFS_std.c ****         requestHandled = USBFS_InitNoDataControlTransfer();
 2491              		.loc 1 1142 0
 2492 00ca FFF7FEFF 		bl	USBFS_InitNoDataControlTransfer
 2493 00ce 0346     		mov	r3, r0
 2494 00d0 FB71     		strb	r3, [r7, #7]
 2495              	.L161:
1143:Generated_Source\PSoC5/USBFS_std.c ****     }
1144:Generated_Source\PSoC5/USBFS_std.c **** 
1145:Generated_Source\PSoC5/USBFS_std.c ****     return (requestHandled);
 2496              		.loc 1 1145 0
 2497 00d2 FB79     		ldrb	r3, [r7, #7]	@ zero_extendqisi2
1146:Generated_Source\PSoC5/USBFS_std.c **** }
 2498              		.loc 1 1146 0
 2499 00d4 1846     		mov	r0, r3
 2500 00d6 0837     		adds	r7, r7, #8
 2501              		.cfi_def_cfa_offset 8
 2502 00d8 BD46     		mov	sp, r7
 2503              		.cfi_def_cfa_register 13
 2504              		@ sp needed
 2505 00da 80BD     		pop	{r7, pc}
 2506              	.L166:
 2507              		.align	2
 2508              	.L165:
 2509 00dc 00600040 		.word	1073766400
 2510 00e0 00000000 		.word	USBFS_EP
 2511 00e4 FC5F0040 		.word	1073766396
 2512              		.cfi_endproc
 2513              	.LFE10:
 2514              		.size	USBFS_SetEndpointHalt, .-USBFS_SetEndpointHalt
 2515              		.section	.text.USBFS_ClearEndpointHalt,"ax",%progbits
 2516              		.align	2
 2517              		.global	USBFS_ClearEndpointHalt
ARM GAS  C:\Users\CALEBC~1\AppData\Local\Temp\ccxZVyoW.s 			page 67


 2518              		.thumb
 2519              		.thumb_func
 2520              		.type	USBFS_ClearEndpointHalt, %function
 2521              	USBFS_ClearEndpointHalt:
 2522              	.LFB11:
1147:Generated_Source\PSoC5/USBFS_std.c **** 
1148:Generated_Source\PSoC5/USBFS_std.c **** 
1149:Generated_Source\PSoC5/USBFS_std.c **** /*******************************************************************************
1150:Generated_Source\PSoC5/USBFS_std.c **** * Function Name: USBFS_ClearEndpointHalt
1151:Generated_Source\PSoC5/USBFS_std.c **** ****************************************************************************//**
1152:Generated_Source\PSoC5/USBFS_std.c **** *
1153:Generated_Source\PSoC5/USBFS_std.c **** *  This routine handles clear endpoint halt.
1154:Generated_Source\PSoC5/USBFS_std.c **** *
1155:Generated_Source\PSoC5/USBFS_std.c **** * \return
1156:Generated_Source\PSoC5/USBFS_std.c **** *  requestHandled.
1157:Generated_Source\PSoC5/USBFS_std.c **** *
1158:Generated_Source\PSoC5/USBFS_std.c **** * \reentrant
1159:Generated_Source\PSoC5/USBFS_std.c **** *  No.
1160:Generated_Source\PSoC5/USBFS_std.c **** *
1161:Generated_Source\PSoC5/USBFS_std.c **** *******************************************************************************/
1162:Generated_Source\PSoC5/USBFS_std.c **** uint8 USBFS_ClearEndpointHalt(void) 
1163:Generated_Source\PSoC5/USBFS_std.c **** {
 2523              		.loc 1 1163 0
 2524              		.cfi_startproc
 2525              		@ args = 0, pretend = 0, frame = 8
 2526              		@ frame_needed = 1, uses_anonymous_args = 0
 2527 0000 80B5     		push	{r7, lr}
 2528              		.cfi_def_cfa_offset 8
 2529              		.cfi_offset 7, -8
 2530              		.cfi_offset 14, -4
 2531 0002 82B0     		sub	sp, sp, #8
 2532              		.cfi_def_cfa_offset 16
 2533 0004 00AF     		add	r7, sp, #0
 2534              		.cfi_def_cfa_register 7
1164:Generated_Source\PSoC5/USBFS_std.c ****     uint8 requestHandled = USBFS_FALSE;
 2535              		.loc 1 1164 0
 2536 0006 0023     		movs	r3, #0
 2537 0008 FB71     		strb	r3, [r7, #7]
1165:Generated_Source\PSoC5/USBFS_std.c ****     uint8 ep;
1166:Generated_Source\PSoC5/USBFS_std.c **** 
1167:Generated_Source\PSoC5/USBFS_std.c ****     /* Clear endpoint halt */
1168:Generated_Source\PSoC5/USBFS_std.c ****     ep = USBFS_wIndexLoReg & USBFS_DIR_UNUSED;
 2538              		.loc 1 1168 0
 2539 000a 4C4B     		ldr	r3, .L175
 2540 000c 1B79     		ldrb	r3, [r3, #4]
 2541 000e DBB2     		uxtb	r3, r3
 2542 0010 03F07F03 		and	r3, r3, #127
 2543 0014 BB71     		strb	r3, [r7, #6]
1169:Generated_Source\PSoC5/USBFS_std.c **** 
1170:Generated_Source\PSoC5/USBFS_std.c ****     if ((ep > USBFS_EP0) && (ep < USBFS_MAX_EP))
 2544              		.loc 1 1170 0
 2545 0016 BB79     		ldrb	r3, [r7, #6]	@ zero_extendqisi2
 2546 0018 002B     		cmp	r3, #0
 2547 001a 00F08A80 		beq	.L168
 2548              		.loc 1 1170 0 is_stmt 0 discriminator 1
 2549 001e BB79     		ldrb	r3, [r7, #6]	@ zero_extendqisi2
 2550 0020 082B     		cmp	r3, #8
ARM GAS  C:\Users\CALEBC~1\AppData\Local\Temp\ccxZVyoW.s 			page 68


 2551 0022 00F28680 		bhi	.L168
1171:Generated_Source\PSoC5/USBFS_std.c ****     {
1172:Generated_Source\PSoC5/USBFS_std.c ****         /* Clear the endpoint Halt */
1173:Generated_Source\PSoC5/USBFS_std.c ****         USBFS_EP[ep].hwEpState &= (uint8) ~USBFS_ENDPOINT_STATUS_HALT;
 2552              		.loc 1 1173 0 is_stmt 1
 2553 0026 BA79     		ldrb	r2, [r7, #6]	@ zero_extendqisi2
 2554 0028 B979     		ldrb	r1, [r7, #6]	@ zero_extendqisi2
 2555 002a 4548     		ldr	r0, .L175+4
 2556 002c 0B46     		mov	r3, r1
 2557 002e 5B00     		lsls	r3, r3, #1
 2558 0030 0B44     		add	r3, r3, r1
 2559 0032 9B00     		lsls	r3, r3, #2
 2560 0034 0344     		add	r3, r3, r0
 2561 0036 0233     		adds	r3, r3, #2
 2562 0038 1B78     		ldrb	r3, [r3]
 2563 003a DBB2     		uxtb	r3, r3
 2564 003c 23F00103 		bic	r3, r3, #1
 2565 0040 D8B2     		uxtb	r0, r3
 2566 0042 3F49     		ldr	r1, .L175+4
 2567 0044 1346     		mov	r3, r2
 2568 0046 5B00     		lsls	r3, r3, #1
 2569 0048 1344     		add	r3, r3, r2
 2570 004a 9B00     		lsls	r3, r3, #2
 2571 004c 0B44     		add	r3, r3, r1
 2572 004e 0233     		adds	r3, r3, #2
 2573 0050 0246     		mov	r2, r0
 2574 0052 1A70     		strb	r2, [r3]
1174:Generated_Source\PSoC5/USBFS_std.c **** 
1175:Generated_Source\PSoC5/USBFS_std.c ****         /* Clear the data toggle */
1176:Generated_Source\PSoC5/USBFS_std.c ****         USBFS_EP[ep].epToggle = 0u;
 2575              		.loc 1 1176 0
 2576 0054 BA79     		ldrb	r2, [r7, #6]	@ zero_extendqisi2
 2577 0056 3A49     		ldr	r1, .L175+4
 2578 0058 1346     		mov	r3, r2
 2579 005a 5B00     		lsls	r3, r3, #1
 2580 005c 1344     		add	r3, r3, r2
 2581 005e 9B00     		lsls	r3, r3, #2
 2582 0060 0B44     		add	r3, r3, r1
 2583 0062 0333     		adds	r3, r3, #3
 2584 0064 0022     		movs	r2, #0
 2585 0066 1A70     		strb	r2, [r3]
1177:Generated_Source\PSoC5/USBFS_std.c ****         
1178:Generated_Source\PSoC5/USBFS_std.c ****         /* Clear toggle bit for already armed packet */
1179:Generated_Source\PSoC5/USBFS_std.c ****         USBFS_SIE_EP_BASE.sieEp[ep].epCnt0 = (uint8) ~(uint8)USBFS_EPX_CNT_DATA_TOGGLE;
 2586              		.loc 1 1179 0
 2587 0068 364A     		ldr	r2, .L175+8
 2588 006a BB79     		ldrb	r3, [r7, #6]	@ zero_extendqisi2
 2589 006c 1B01     		lsls	r3, r3, #4
 2590 006e 1344     		add	r3, r3, r2
 2591 0070 7F22     		movs	r2, #127
 2592 0072 1A70     		strb	r2, [r3]
1180:Generated_Source\PSoC5/USBFS_std.c ****         
1181:Generated_Source\PSoC5/USBFS_std.c ****         /* Return API State as it was defined before */
1182:Generated_Source\PSoC5/USBFS_std.c ****         USBFS_EP[ep].apiEpState &= (uint8) ~USBFS_NO_EVENT_ALLOWED;
 2593              		.loc 1 1182 0
 2594 0074 BA79     		ldrb	r2, [r7, #6]	@ zero_extendqisi2
 2595 0076 B979     		ldrb	r1, [r7, #6]	@ zero_extendqisi2
ARM GAS  C:\Users\CALEBC~1\AppData\Local\Temp\ccxZVyoW.s 			page 69


 2596 0078 3148     		ldr	r0, .L175+4
 2597 007a 0B46     		mov	r3, r1
 2598 007c 5B00     		lsls	r3, r3, #1
 2599 007e 0B44     		add	r3, r3, r1
 2600 0080 9B00     		lsls	r3, r3, #2
 2601 0082 0344     		add	r3, r3, r0
 2602 0084 0133     		adds	r3, r3, #1
 2603 0086 1B78     		ldrb	r3, [r3]
 2604 0088 DBB2     		uxtb	r3, r3
 2605 008a 23F00203 		bic	r3, r3, #2
 2606 008e D8B2     		uxtb	r0, r3
 2607 0090 2B49     		ldr	r1, .L175+4
 2608 0092 1346     		mov	r3, r2
 2609 0094 5B00     		lsls	r3, r3, #1
 2610 0096 1344     		add	r3, r3, r2
 2611 0098 9B00     		lsls	r3, r3, #2
 2612 009a 0B44     		add	r3, r3, r1
 2613 009c 0133     		adds	r3, r3, #1
 2614 009e 0246     		mov	r2, r0
 2615 00a0 1A70     		strb	r2, [r3]
1183:Generated_Source\PSoC5/USBFS_std.c **** 
1184:Generated_Source\PSoC5/USBFS_std.c ****         if ((USBFS_EP[ep].addr & USBFS_DIR_IN) != 0u)
 2616              		.loc 1 1184 0
 2617 00a2 BA79     		ldrb	r2, [r7, #6]	@ zero_extendqisi2
 2618 00a4 2649     		ldr	r1, .L175+4
 2619 00a6 1346     		mov	r3, r2
 2620 00a8 5B00     		lsls	r3, r3, #1
 2621 00aa 1344     		add	r3, r3, r2
 2622 00ac 9B00     		lsls	r3, r3, #2
 2623 00ae 0B44     		add	r3, r3, r1
 2624 00b0 0433     		adds	r3, r3, #4
 2625 00b2 1B78     		ldrb	r3, [r3]
 2626 00b4 DBB2     		uxtb	r3, r3
 2627 00b6 5BB2     		sxtb	r3, r3
 2628 00b8 002B     		cmp	r3, #0
 2629 00ba 1BDA     		bge	.L169
1185:Generated_Source\PSoC5/USBFS_std.c ****         {
1186:Generated_Source\PSoC5/USBFS_std.c ****             /* IN Endpoint */
1187:Generated_Source\PSoC5/USBFS_std.c ****             if(USBFS_EP[ep].apiEpState == USBFS_IN_BUFFER_EMPTY)
 2630              		.loc 1 1187 0
 2631 00bc BA79     		ldrb	r2, [r7, #6]	@ zero_extendqisi2
 2632 00be 2049     		ldr	r1, .L175+4
 2633 00c0 1346     		mov	r3, r2
 2634 00c2 5B00     		lsls	r3, r3, #1
 2635 00c4 1344     		add	r3, r3, r2
 2636 00c6 9B00     		lsls	r3, r3, #2
 2637 00c8 0B44     		add	r3, r3, r1
 2638 00ca 0133     		adds	r3, r3, #1
 2639 00cc 1B78     		ldrb	r3, [r3]
 2640 00ce DBB2     		uxtb	r3, r3
 2641 00d0 012B     		cmp	r3, #1
 2642 00d2 07D1     		bne	.L170
1188:Generated_Source\PSoC5/USBFS_std.c ****             {       
1189:Generated_Source\PSoC5/USBFS_std.c ****                 /* Wait for next packet from application */
1190:Generated_Source\PSoC5/USBFS_std.c ****                 USBFS_SIE_EP_BASE.sieEp[ep].epCr0 = USBFS_MODE_NAK_IN;
 2643              		.loc 1 1190 0
 2644 00d4 1B4A     		ldr	r2, .L175+8
ARM GAS  C:\Users\CALEBC~1\AppData\Local\Temp\ccxZVyoW.s 			page 70


 2645 00d6 BB79     		ldrb	r3, [r7, #6]	@ zero_extendqisi2
 2646 00d8 1B01     		lsls	r3, r3, #4
 2647 00da 1344     		add	r3, r3, r2
 2648 00dc 0233     		adds	r3, r3, #2
 2649 00de 0C22     		movs	r2, #12
 2650 00e0 1A70     		strb	r2, [r3]
 2651 00e2 22E0     		b	.L172
 2652              	.L170:
1191:Generated_Source\PSoC5/USBFS_std.c ****             }
1192:Generated_Source\PSoC5/USBFS_std.c ****             else    /* Continue armed transfer */
1193:Generated_Source\PSoC5/USBFS_std.c ****             {
1194:Generated_Source\PSoC5/USBFS_std.c ****                 USBFS_SIE_EP_BASE.sieEp[ep].epCr0 = USBFS_MODE_ACK_IN;
 2653              		.loc 1 1194 0
 2654 00e4 174A     		ldr	r2, .L175+8
 2655 00e6 BB79     		ldrb	r3, [r7, #6]	@ zero_extendqisi2
 2656 00e8 1B01     		lsls	r3, r3, #4
 2657 00ea 1344     		add	r3, r3, r2
 2658 00ec 0233     		adds	r3, r3, #2
 2659 00ee 0D22     		movs	r2, #13
 2660 00f0 1A70     		strb	r2, [r3]
 2661 00f2 1AE0     		b	.L172
 2662              	.L169:
1195:Generated_Source\PSoC5/USBFS_std.c ****             }
1196:Generated_Source\PSoC5/USBFS_std.c ****         }
1197:Generated_Source\PSoC5/USBFS_std.c ****         else
1198:Generated_Source\PSoC5/USBFS_std.c ****         {
1199:Generated_Source\PSoC5/USBFS_std.c ****             /* OUT Endpoint */
1200:Generated_Source\PSoC5/USBFS_std.c ****             if (USBFS_EP[ep].apiEpState == USBFS_OUT_BUFFER_FULL)
 2663              		.loc 1 1200 0
 2664 00f4 BA79     		ldrb	r2, [r7, #6]	@ zero_extendqisi2
 2665 00f6 1249     		ldr	r1, .L175+4
 2666 00f8 1346     		mov	r3, r2
 2667 00fa 5B00     		lsls	r3, r3, #1
 2668 00fc 1344     		add	r3, r3, r2
 2669 00fe 9B00     		lsls	r3, r3, #2
 2670 0100 0B44     		add	r3, r3, r1
 2671 0102 0133     		adds	r3, r3, #1
 2672 0104 1B78     		ldrb	r3, [r3]
 2673 0106 DBB2     		uxtb	r3, r3
 2674 0108 012B     		cmp	r3, #1
 2675 010a 07D1     		bne	.L173
1201:Generated_Source\PSoC5/USBFS_std.c ****             {       
1202:Generated_Source\PSoC5/USBFS_std.c ****                 /* Allow application to read full buffer */
1203:Generated_Source\PSoC5/USBFS_std.c ****                 USBFS_SIE_EP_BASE.sieEp[ep].epCr0 = USBFS_MODE_NAK_OUT;
 2676              		.loc 1 1203 0
 2677 010c 0D4A     		ldr	r2, .L175+8
 2678 010e BB79     		ldrb	r3, [r7, #6]	@ zero_extendqisi2
 2679 0110 1B01     		lsls	r3, r3, #4
 2680 0112 1344     		add	r3, r3, r2
 2681 0114 0233     		adds	r3, r3, #2
 2682 0116 0822     		movs	r2, #8
 2683 0118 1A70     		strb	r2, [r3]
 2684 011a 06E0     		b	.L172
 2685              	.L173:
1204:Generated_Source\PSoC5/USBFS_std.c ****             }
1205:Generated_Source\PSoC5/USBFS_std.c ****             else    /* Mark endpoint as empty, so it will be reloaded */
1206:Generated_Source\PSoC5/USBFS_std.c ****             {
ARM GAS  C:\Users\CALEBC~1\AppData\Local\Temp\ccxZVyoW.s 			page 71


1207:Generated_Source\PSoC5/USBFS_std.c ****                 USBFS_SIE_EP_BASE.sieEp[ep].epCr0 = USBFS_MODE_ACK_OUT;
 2686              		.loc 1 1207 0
 2687 011c 094A     		ldr	r2, .L175+8
 2688 011e BB79     		ldrb	r3, [r7, #6]	@ zero_extendqisi2
 2689 0120 1B01     		lsls	r3, r3, #4
 2690 0122 1344     		add	r3, r3, r2
 2691 0124 0233     		adds	r3, r3, #2
 2692 0126 0922     		movs	r2, #9
 2693 0128 1A70     		strb	r2, [r3]
 2694              	.L172:
1208:Generated_Source\PSoC5/USBFS_std.c ****             }
1209:Generated_Source\PSoC5/USBFS_std.c ****         }
1210:Generated_Source\PSoC5/USBFS_std.c ****         
1211:Generated_Source\PSoC5/USBFS_std.c ****         requestHandled = USBFS_InitNoDataControlTransfer();
 2695              		.loc 1 1211 0
 2696 012a FFF7FEFF 		bl	USBFS_InitNoDataControlTransfer
 2697 012e 0346     		mov	r3, r0
 2698 0130 FB71     		strb	r3, [r7, #7]
 2699              	.L168:
1212:Generated_Source\PSoC5/USBFS_std.c ****     }
1213:Generated_Source\PSoC5/USBFS_std.c **** 
1214:Generated_Source\PSoC5/USBFS_std.c ****     return(requestHandled);
 2700              		.loc 1 1214 0
 2701 0132 FB79     		ldrb	r3, [r7, #7]	@ zero_extendqisi2
1215:Generated_Source\PSoC5/USBFS_std.c **** }
 2702              		.loc 1 1215 0
 2703 0134 1846     		mov	r0, r3
 2704 0136 0837     		adds	r7, r7, #8
 2705              		.cfi_def_cfa_offset 8
 2706 0138 BD46     		mov	sp, r7
 2707              		.cfi_def_cfa_register 13
 2708              		@ sp needed
 2709 013a 80BD     		pop	{r7, pc}
 2710              	.L176:
 2711              		.align	2
 2712              	.L175:
 2713 013c 00600040 		.word	1073766400
 2714 0140 00000000 		.word	USBFS_EP
 2715 0144 FC5F0040 		.word	1073766396
 2716              		.cfi_endproc
 2717              	.LFE11:
 2718              		.size	USBFS_ClearEndpointHalt, .-USBFS_ClearEndpointHalt
 2719              		.section	.text.USBFS_ValidateAlternateSetting,"ax",%progbits
 2720              		.align	2
 2721              		.global	USBFS_ValidateAlternateSetting
 2722              		.thumb
 2723              		.thumb_func
 2724              		.type	USBFS_ValidateAlternateSetting, %function
 2725              	USBFS_ValidateAlternateSetting:
 2726              	.LFB12:
1216:Generated_Source\PSoC5/USBFS_std.c **** 
1217:Generated_Source\PSoC5/USBFS_std.c **** 
1218:Generated_Source\PSoC5/USBFS_std.c **** /*******************************************************************************
1219:Generated_Source\PSoC5/USBFS_std.c **** * Function Name: USBFS_ValidateAlternateSetting
1220:Generated_Source\PSoC5/USBFS_std.c **** ****************************************************************************//**
1221:Generated_Source\PSoC5/USBFS_std.c **** *
1222:Generated_Source\PSoC5/USBFS_std.c **** *  Validates (and records) a SET INTERFACE request.
ARM GAS  C:\Users\CALEBC~1\AppData\Local\Temp\ccxZVyoW.s 			page 72


1223:Generated_Source\PSoC5/USBFS_std.c **** *
1224:Generated_Source\PSoC5/USBFS_std.c **** * \return
1225:Generated_Source\PSoC5/USBFS_std.c **** *  requestHandled.
1226:Generated_Source\PSoC5/USBFS_std.c **** *
1227:Generated_Source\PSoC5/USBFS_std.c **** * \reentrant
1228:Generated_Source\PSoC5/USBFS_std.c **** *  No.
1229:Generated_Source\PSoC5/USBFS_std.c **** *
1230:Generated_Source\PSoC5/USBFS_std.c **** *******************************************************************************/
1231:Generated_Source\PSoC5/USBFS_std.c **** uint8 USBFS_ValidateAlternateSetting(void) 
1232:Generated_Source\PSoC5/USBFS_std.c **** {
 2727              		.loc 1 1232 0
 2728              		.cfi_startproc
 2729              		@ args = 0, pretend = 0, frame = 16
 2730              		@ frame_needed = 1, uses_anonymous_args = 0
 2731 0000 80B5     		push	{r7, lr}
 2732              		.cfi_def_cfa_offset 8
 2733              		.cfi_offset 7, -8
 2734              		.cfi_offset 14, -4
 2735 0002 84B0     		sub	sp, sp, #16
 2736              		.cfi_def_cfa_offset 24
 2737 0004 00AF     		add	r7, sp, #0
 2738              		.cfi_def_cfa_register 7
1233:Generated_Source\PSoC5/USBFS_std.c ****     uint8 requestHandled = USBFS_FALSE;
 2739              		.loc 1 1233 0
 2740 0006 0023     		movs	r3, #0
 2741 0008 FB73     		strb	r3, [r7, #15]
1234:Generated_Source\PSoC5/USBFS_std.c ****     
1235:Generated_Source\PSoC5/USBFS_std.c ****     uint8 interfaceNum;
1236:Generated_Source\PSoC5/USBFS_std.c ****     uint8 curInterfacesNum;
1237:Generated_Source\PSoC5/USBFS_std.c ****     const T_USBFS_LUT CYCODE *pTmp;
1238:Generated_Source\PSoC5/USBFS_std.c ****     
1239:Generated_Source\PSoC5/USBFS_std.c ****     /* Get interface number from the request. */
1240:Generated_Source\PSoC5/USBFS_std.c ****     interfaceNum = (uint8) USBFS_wIndexLoReg;
 2742              		.loc 1 1240 0
 2743 000a 154B     		ldr	r3, .L181
 2744 000c 1B79     		ldrb	r3, [r3, #4]
 2745 000e BB73     		strb	r3, [r7, #14]
1241:Generated_Source\PSoC5/USBFS_std.c ****     
1242:Generated_Source\PSoC5/USBFS_std.c ****     /* Get number of interfaces for current configuration. */
1243:Generated_Source\PSoC5/USBFS_std.c ****     pTmp = USBFS_GetConfigTablePtr(USBFS_configuration - 1u);
 2746              		.loc 1 1243 0
 2747 0010 144B     		ldr	r3, .L181+4
 2748 0012 1B78     		ldrb	r3, [r3]
 2749 0014 DBB2     		uxtb	r3, r3
 2750 0016 013B     		subs	r3, r3, #1
 2751 0018 DBB2     		uxtb	r3, r3
 2752 001a 1846     		mov	r0, r3
 2753 001c FFF7FEFF 		bl	USBFS_GetConfigTablePtr
 2754 0020 B860     		str	r0, [r7, #8]
1244:Generated_Source\PSoC5/USBFS_std.c ****     curInterfacesNum  = ((const uint8 *) pTmp->p_list)[USBFS_CONFIG_DESCR_NUM_INTERFACES];
 2755              		.loc 1 1244 0
 2756 0022 BB68     		ldr	r3, [r7, #8]
 2757 0024 5B68     		ldr	r3, [r3, #4]
 2758 0026 1B79     		ldrb	r3, [r3, #4]
 2759 0028 FB71     		strb	r3, [r7, #7]
1245:Generated_Source\PSoC5/USBFS_std.c **** 
1246:Generated_Source\PSoC5/USBFS_std.c ****     /* Validate that interface number is within range. */
ARM GAS  C:\Users\CALEBC~1\AppData\Local\Temp\ccxZVyoW.s 			page 73


1247:Generated_Source\PSoC5/USBFS_std.c ****     if ((interfaceNum <= curInterfacesNum) || (interfaceNum <= USBFS_MAX_INTERFACES_NUMBER))
 2760              		.loc 1 1247 0
 2761 002a BA7B     		ldrb	r2, [r7, #14]	@ zero_extendqisi2
 2762 002c FB79     		ldrb	r3, [r7, #7]	@ zero_extendqisi2
 2763 002e 9A42     		cmp	r2, r3
 2764 0030 02D9     		bls	.L178
 2765              		.loc 1 1247 0 is_stmt 0 discriminator 1
 2766 0032 BB7B     		ldrb	r3, [r7, #14]	@ zero_extendqisi2
 2767 0034 012B     		cmp	r3, #1
 2768 0036 0ED8     		bhi	.L179
 2769              	.L178:
1248:Generated_Source\PSoC5/USBFS_std.c ****     {
1249:Generated_Source\PSoC5/USBFS_std.c ****         /* Save current and new alternate settings (come with request) to make 
1250:Generated_Source\PSoC5/USBFS_std.c ****         * desicion about following endpoint re-configuration.
1251:Generated_Source\PSoC5/USBFS_std.c ****         */
1252:Generated_Source\PSoC5/USBFS_std.c ****         USBFS_interfaceSettingLast[interfaceNum] = USBFS_interfaceSetting[interfaceNum];
 2770              		.loc 1 1252 0 is_stmt 1
 2771 0038 BB7B     		ldrb	r3, [r7, #14]	@ zero_extendqisi2
 2772 003a BA7B     		ldrb	r2, [r7, #14]	@ zero_extendqisi2
 2773 003c 0A49     		ldr	r1, .L181+8
 2774 003e 8A5C     		ldrb	r2, [r1, r2]
 2775 0040 D1B2     		uxtb	r1, r2
 2776 0042 0A4A     		ldr	r2, .L181+12
 2777 0044 D154     		strb	r1, [r2, r3]
1253:Generated_Source\PSoC5/USBFS_std.c ****         USBFS_interfaceSetting[interfaceNum]     = (uint8) USBFS_wValueLoReg;
 2778              		.loc 1 1253 0
 2779 0046 BB7B     		ldrb	r3, [r7, #14]	@ zero_extendqisi2
 2780 0048 054A     		ldr	r2, .L181
 2781 004a 9278     		ldrb	r2, [r2, #2]
 2782 004c D1B2     		uxtb	r1, r2
 2783 004e 064A     		ldr	r2, .L181+8
 2784 0050 D154     		strb	r1, [r2, r3]
1254:Generated_Source\PSoC5/USBFS_std.c ****         
1255:Generated_Source\PSoC5/USBFS_std.c ****         requestHandled = USBFS_TRUE;
 2785              		.loc 1 1255 0
 2786 0052 0123     		movs	r3, #1
 2787 0054 FB73     		strb	r3, [r7, #15]
 2788              	.L179:
1256:Generated_Source\PSoC5/USBFS_std.c ****     }
1257:Generated_Source\PSoC5/USBFS_std.c **** 
1258:Generated_Source\PSoC5/USBFS_std.c ****     return (requestHandled);
 2789              		.loc 1 1258 0
 2790 0056 FB7B     		ldrb	r3, [r7, #15]	@ zero_extendqisi2
1259:Generated_Source\PSoC5/USBFS_std.c **** }
 2791              		.loc 1 1259 0
 2792 0058 1846     		mov	r0, r3
 2793 005a 1037     		adds	r7, r7, #16
 2794              		.cfi_def_cfa_offset 8
 2795 005c BD46     		mov	sp, r7
 2796              		.cfi_def_cfa_register 13
 2797              		@ sp needed
 2798 005e 80BD     		pop	{r7, pc}
 2799              	.L182:
 2800              		.align	2
 2801              	.L181:
 2802 0060 00600040 		.word	1073766400
 2803 0064 00000000 		.word	USBFS_configuration
ARM GAS  C:\Users\CALEBC~1\AppData\Local\Temp\ccxZVyoW.s 			page 74


 2804 0068 00000000 		.word	USBFS_interfaceSetting
 2805 006c 00000000 		.word	USBFS_interfaceSettingLast
 2806              		.cfi_endproc
 2807              	.LFE12:
 2808              		.size	USBFS_ValidateAlternateSetting, .-USBFS_ValidateAlternateSetting
 2809              		.bss
 2810              		.align	2
 2811              	USBFS_tBuffer.5306:
 2812 0000 0000     		.space	2
 2813              		.text
 2814              	.Letext0:
 2815              		.file 2 "Generated_Source\\PSoC5\\cytypes.h"
 2816              		.file 3 "Generated_Source\\PSoC5\\USBFS.h"
 2817              		.file 4 "Generated_Source\\PSoC5\\USBFS_pvt.h"