ARM GAS  C:\Users\CALEBC~1\AppData\Local\Temp\ccB9H8Zr.s 			page 1


   1              		.syntax unified
   2              		.cpu cortex-m3
   3              		.fpu softvfp
   4              		.eabi_attribute 20, 1
   5              		.eabi_attribute 21, 1
   6              		.eabi_attribute 23, 3
   7              		.eabi_attribute 24, 1
   8              		.eabi_attribute 25, 1
   9              		.eabi_attribute 26, 1
  10              		.eabi_attribute 30, 6
  11              		.eabi_attribute 34, 1
  12              		.eabi_attribute 18, 4
  13              		.thumb
  14              		.syntax unified
  15              		.file	"USBFS_episr.c"
  16              		.text
  17              	.Ltext0:
  18              		.cfi_sections	.debug_frame
  19              		.section	.text.USBFS_EP_1_ISR,"ax",%progbits
  20              		.align	2
  21              		.global	USBFS_EP_1_ISR
  22              		.thumb
  23              		.thumb_func
  24              		.type	USBFS_EP_1_ISR, %function
  25              	USBFS_EP_1_ISR:
  26              	.LFB0:
  27              		.file 1 "Generated_Source\\PSoC5\\USBFS_episr.c"
   1:Generated_Source\PSoC5/USBFS_episr.c **** /***************************************************************************//**
   2:Generated_Source\PSoC5/USBFS_episr.c **** * \file USBFS_episr.c
   3:Generated_Source\PSoC5/USBFS_episr.c **** * \version 3.10
   4:Generated_Source\PSoC5/USBFS_episr.c **** *
   5:Generated_Source\PSoC5/USBFS_episr.c **** * \brief
   6:Generated_Source\PSoC5/USBFS_episr.c **** *  This file contains the Data endpoint Interrupt Service Routines.
   7:Generated_Source\PSoC5/USBFS_episr.c **** *
   8:Generated_Source\PSoC5/USBFS_episr.c **** ********************************************************************************
   9:Generated_Source\PSoC5/USBFS_episr.c **** * \copyright
  10:Generated_Source\PSoC5/USBFS_episr.c **** * Copyright 2008-2016, Cypress Semiconductor Corporation.  All rights reserved.
  11:Generated_Source\PSoC5/USBFS_episr.c **** * You may use this file only in accordance with the license, terms, conditions,
  12:Generated_Source\PSoC5/USBFS_episr.c **** * disclaimers, and limitations in the end user license agreement accompanying
  13:Generated_Source\PSoC5/USBFS_episr.c **** * the software package with which this file was provided.
  14:Generated_Source\PSoC5/USBFS_episr.c **** *******************************************************************************/
  15:Generated_Source\PSoC5/USBFS_episr.c **** 
  16:Generated_Source\PSoC5/USBFS_episr.c **** #include "USBFS_pvt.h"
  17:Generated_Source\PSoC5/USBFS_episr.c **** #include "USBFS_cydmac.h"
  18:Generated_Source\PSoC5/USBFS_episr.c **** #include "cyapicallbacks.h"
  19:Generated_Source\PSoC5/USBFS_episr.c **** 
  20:Generated_Source\PSoC5/USBFS_episr.c **** 
  21:Generated_Source\PSoC5/USBFS_episr.c **** /***************************************
  22:Generated_Source\PSoC5/USBFS_episr.c **** * Custom Declarations
  23:Generated_Source\PSoC5/USBFS_episr.c **** ***************************************/
  24:Generated_Source\PSoC5/USBFS_episr.c **** /* `#START CUSTOM_DECLARATIONS` Place your declaration here */
  25:Generated_Source\PSoC5/USBFS_episr.c **** 
  26:Generated_Source\PSoC5/USBFS_episr.c **** /* `#END` */
  27:Generated_Source\PSoC5/USBFS_episr.c **** 
  28:Generated_Source\PSoC5/USBFS_episr.c **** 
  29:Generated_Source\PSoC5/USBFS_episr.c **** #if (USBFS_EP1_ISR_ACTIVE)
  30:Generated_Source\PSoC5/USBFS_episr.c ****     /******************************************************************************
ARM GAS  C:\Users\CALEBC~1\AppData\Local\Temp\ccB9H8Zr.s 			page 2


  31:Generated_Source\PSoC5/USBFS_episr.c ****     * Function Name: USBFS_EP_1_ISR
  32:Generated_Source\PSoC5/USBFS_episr.c ****     ***************************************************************************//**
  33:Generated_Source\PSoC5/USBFS_episr.c ****     *
  34:Generated_Source\PSoC5/USBFS_episr.c ****     *  Endpoint 1 Interrupt Service Routine
  35:Generated_Source\PSoC5/USBFS_episr.c ****     *
  36:Generated_Source\PSoC5/USBFS_episr.c ****     ******************************************************************************/
  37:Generated_Source\PSoC5/USBFS_episr.c ****     CY_ISR(USBFS_EP_1_ISR)
  38:Generated_Source\PSoC5/USBFS_episr.c ****     {
  28              		.loc 1 38 0
  29              		.cfi_startproc
  30              		@ args = 0, pretend = 0, frame = 0
  31              		@ frame_needed = 1, uses_anonymous_args = 0
  32              		@ link register save eliminated.
  33 0000 80B4     		push	{r7}
  34              		.cfi_def_cfa_offset 4
  35              		.cfi_offset 7, -4
  36 0002 00AF     		add	r7, sp, #0
  37              		.cfi_def_cfa_register 7
  39:Generated_Source\PSoC5/USBFS_episr.c **** 
  40:Generated_Source\PSoC5/USBFS_episr.c ****     #ifdef USBFS_EP_1_ISR_ENTRY_CALLBACK
  41:Generated_Source\PSoC5/USBFS_episr.c ****         USBFS_EP_1_ISR_EntryCallback();
  42:Generated_Source\PSoC5/USBFS_episr.c ****     #endif /* (USBFS_EP_1_ISR_ENTRY_CALLBACK) */
  43:Generated_Source\PSoC5/USBFS_episr.c **** 
  44:Generated_Source\PSoC5/USBFS_episr.c ****         /* `#START EP1_USER_CODE` Place your code here */
  45:Generated_Source\PSoC5/USBFS_episr.c **** 
  46:Generated_Source\PSoC5/USBFS_episr.c ****         /* `#END` */
  47:Generated_Source\PSoC5/USBFS_episr.c **** 
  48:Generated_Source\PSoC5/USBFS_episr.c ****     #if (CY_PSOC3 && defined(USBFS_ENABLE_MIDI_STREAMING) && \
  49:Generated_Source\PSoC5/USBFS_episr.c ****         !defined(USBFS_MAIN_SERVICE_MIDI_OUT) && USBFS_ISR_SERVICE_MIDI_OUT)
  50:Generated_Source\PSoC5/USBFS_episr.c ****         {
  51:Generated_Source\PSoC5/USBFS_episr.c ****             uint8 intEn = EA;
  52:Generated_Source\PSoC5/USBFS_episr.c ****             CyGlobalIntEnable;  /* Enable nested interrupts. */
  53:Generated_Source\PSoC5/USBFS_episr.c ****     #endif /* (CY_PSOC3 && USBFS_ISR_SERVICE_MIDI_OUT) */
  54:Generated_Source\PSoC5/USBFS_episr.c ****     
  55:Generated_Source\PSoC5/USBFS_episr.c ****         USBFS_ClearSieEpInterruptSource(USBFS_SIE_INT_EP1_INTR);
  38              		.loc 1 55 0
  39 0004 0D4B     		ldr	r3, .L3
  40 0006 0122     		movs	r2, #1
  41 0008 1A70     		strb	r2, [r3]
  56:Generated_Source\PSoC5/USBFS_episr.c ****             
  57:Generated_Source\PSoC5/USBFS_episr.c ****         /* Notifies user that transfer IN or OUT transfer is completed.
  58:Generated_Source\PSoC5/USBFS_episr.c ****         * IN endpoint: endpoint buffer can be reloaded, Host is read data.
  59:Generated_Source\PSoC5/USBFS_episr.c ****         * OUT endpoint: data is ready to be read from endpoint buffer. 
  60:Generated_Source\PSoC5/USBFS_episr.c ****         */
  61:Generated_Source\PSoC5/USBFS_episr.c ****     #if (CY_PSOC4 && USBFS_EP_MANAGEMENT_DMA_AUTO)
  62:Generated_Source\PSoC5/USBFS_episr.c ****         if (0u != (USBFS_EP[USBFS_EP1].addr & USBFS_DIR_IN))
  63:Generated_Source\PSoC5/USBFS_episr.c ****     #endif /* (CY_PSOC4 && USBFS_EP_MANAGEMENT_DMA_AUTO) */
  64:Generated_Source\PSoC5/USBFS_episr.c ****         {
  65:Generated_Source\PSoC5/USBFS_episr.c ****             /* Read CR0 register to clear SIE lock. */
  66:Generated_Source\PSoC5/USBFS_episr.c ****             (void) USBFS_SIE_EP_BASE.sieEp[USBFS_EP1].epCr0;
  42              		.loc 1 66 0
  43 000a 0D4B     		ldr	r3, .L3+4
  44 000c 9B7C     		ldrb	r3, [r3, #18]
  67:Generated_Source\PSoC5/USBFS_episr.c ****             
  68:Generated_Source\PSoC5/USBFS_episr.c ****             /* Toggle all endpoint types except ISOC. */
  69:Generated_Source\PSoC5/USBFS_episr.c ****             if (USBFS_GET_EP_TYPE(USBFS_EP1) != USBFS_EP_TYPE_ISOC)
  45              		.loc 1 69 0
ARM GAS  C:\Users\CALEBC~1\AppData\Local\Temp\ccB9H8Zr.s 			page 3


  46 000e 0D4B     		ldr	r3, .L3+8
  47 0010 1B7B     		ldrb	r3, [r3, #12]
  48 0012 DBB2     		uxtb	r3, r3
  49 0014 03F00303 		and	r3, r3, #3
  50 0018 012B     		cmp	r3, #1
  51 001a 08D0     		beq	.L2
  70:Generated_Source\PSoC5/USBFS_episr.c ****             {
  71:Generated_Source\PSoC5/USBFS_episr.c ****                 USBFS_EP[USBFS_EP1].epToggle ^= USBFS_EPX_CNT_DATA_TOGGLE;
  52              		.loc 1 71 0
  53 001c 094B     		ldr	r3, .L3+8
  54 001e DB7B     		ldrb	r3, [r3, #15]
  55 0020 DBB2     		uxtb	r3, r3
  56 0022 83F07F03 		eor	r3, r3, #127
  57 0026 DB43     		mvns	r3, r3
  58 0028 DAB2     		uxtb	r2, r3
  59 002a 064B     		ldr	r3, .L3+8
  60 002c DA73     		strb	r2, [r3, #15]
  61              	.L2:
  72:Generated_Source\PSoC5/USBFS_episr.c ****             }
  73:Generated_Source\PSoC5/USBFS_episr.c **** 
  74:Generated_Source\PSoC5/USBFS_episr.c ****             /* EP_MANAGEMENT_DMA_AUTO (Ticket ID# 214187): For OUT endpoint this event is used to n
  75:Generated_Source\PSoC5/USBFS_episr.c ****             * user that DMA has completed copying data from OUT endpoint which is not completely tr
  76:Generated_Source\PSoC5/USBFS_episr.c ****             * Because last chunk of data is being copied.
  77:Generated_Source\PSoC5/USBFS_episr.c ****             * For CY_PSOC 3/5LP: it is acceptable as DMA is really fast.
  78:Generated_Source\PSoC5/USBFS_episr.c ****             * For CY_PSOC4: this event is set in Arbiter interrupt (source is DMA_TERMIN).
  79:Generated_Source\PSoC5/USBFS_episr.c ****             */
  80:Generated_Source\PSoC5/USBFS_episr.c ****             USBFS_EP[USBFS_EP1].apiEpState = USBFS_EVENT_PENDING;
  62              		.loc 1 80 0
  63 002e 054B     		ldr	r3, .L3+8
  64 0030 0122     		movs	r2, #1
  65 0032 5A73     		strb	r2, [r3, #13]
  81:Generated_Source\PSoC5/USBFS_episr.c ****         }
  82:Generated_Source\PSoC5/USBFS_episr.c **** 
  83:Generated_Source\PSoC5/USBFS_episr.c ****     #if (!(CY_PSOC4 && USBFS_EP_MANAGEMENT_DMA_AUTO))
  84:Generated_Source\PSoC5/USBFS_episr.c ****         #if (defined(USBFS_ENABLE_MIDI_STREAMING) && \
  85:Generated_Source\PSoC5/USBFS_episr.c ****             !defined(USBFS_MAIN_SERVICE_MIDI_OUT) && USBFS_ISR_SERVICE_MIDI_OUT)
  86:Generated_Source\PSoC5/USBFS_episr.c ****             if (USBFS_midi_out_ep == USBFS_EP1)
  87:Generated_Source\PSoC5/USBFS_episr.c ****             {
  88:Generated_Source\PSoC5/USBFS_episr.c ****                 USBFS_MIDI_OUT_Service();
  89:Generated_Source\PSoC5/USBFS_episr.c ****             }
  90:Generated_Source\PSoC5/USBFS_episr.c ****         #endif /* (USBFS_ISR_SERVICE_MIDI_OUT) */
  91:Generated_Source\PSoC5/USBFS_episr.c ****     #endif /* (!(CY_PSOC4 && USBFS_EP_MANAGEMENT_DMA_AUTO)) */
  92:Generated_Source\PSoC5/USBFS_episr.c ****     
  93:Generated_Source\PSoC5/USBFS_episr.c ****         /* `#START EP1_END_USER_CODE` Place your code here */
  94:Generated_Source\PSoC5/USBFS_episr.c **** 
  95:Generated_Source\PSoC5/USBFS_episr.c ****         /* `#END` */
  96:Generated_Source\PSoC5/USBFS_episr.c **** 
  97:Generated_Source\PSoC5/USBFS_episr.c ****     #ifdef USBFS_EP_1_ISR_EXIT_CALLBACK
  98:Generated_Source\PSoC5/USBFS_episr.c ****         USBFS_EP_1_ISR_ExitCallback();
  99:Generated_Source\PSoC5/USBFS_episr.c ****     #endif /* (USBFS_EP_1_ISR_EXIT_CALLBACK) */
 100:Generated_Source\PSoC5/USBFS_episr.c **** 
 101:Generated_Source\PSoC5/USBFS_episr.c ****     #if (CY_PSOC3 && defined(USBFS_ENABLE_MIDI_STREAMING) && \
 102:Generated_Source\PSoC5/USBFS_episr.c ****         !defined(USBFS_MAIN_SERVICE_MIDI_OUT) && USBFS_ISR_SERVICE_MIDI_OUT)
 103:Generated_Source\PSoC5/USBFS_episr.c ****         
 104:Generated_Source\PSoC5/USBFS_episr.c ****             EA = intEn; /* Restore nested interrupt configuration. */
 105:Generated_Source\PSoC5/USBFS_episr.c ****         }
 106:Generated_Source\PSoC5/USBFS_episr.c ****     #endif /* (CY_PSOC3 && USBFS_ISR_SERVICE_MIDI_OUT) */
ARM GAS  C:\Users\CALEBC~1\AppData\Local\Temp\ccB9H8Zr.s 			page 4


 107:Generated_Source\PSoC5/USBFS_episr.c ****     }
  66              		.loc 1 107 0
  67 0034 00BF     		nop
  68 0036 BD46     		mov	sp, r7
  69              		.cfi_def_cfa_register 13
  70              		@ sp needed
  71 0038 80BC     		pop	{r7}
  72              		.cfi_restore 7
  73              		.cfi_def_cfa_offset 0
  74 003a 7047     		bx	lr
  75              	.L4:
  76              		.align	2
  77              	.L3:
  78 003c 0B600040 		.word	1073766411
  79 0040 FC5F0040 		.word	1073766396
  80 0044 00000000 		.word	USBFS_EP
  81              		.cfi_endproc
  82              	.LFE0:
  83              		.size	USBFS_EP_1_ISR, .-USBFS_EP_1_ISR
  84              		.section	.text.USBFS_EP_2_ISR,"ax",%progbits
  85              		.align	2
  86              		.global	USBFS_EP_2_ISR
  87              		.thumb
  88              		.thumb_func
  89              		.type	USBFS_EP_2_ISR, %function
  90              	USBFS_EP_2_ISR:
  91              	.LFB1:
 108:Generated_Source\PSoC5/USBFS_episr.c **** 
 109:Generated_Source\PSoC5/USBFS_episr.c **** #endif /* (USBFS_EP1_ISR_ACTIVE) */
 110:Generated_Source\PSoC5/USBFS_episr.c **** 
 111:Generated_Source\PSoC5/USBFS_episr.c **** 
 112:Generated_Source\PSoC5/USBFS_episr.c **** #if (USBFS_EP2_ISR_ACTIVE)
 113:Generated_Source\PSoC5/USBFS_episr.c ****     /*******************************************************************************
 114:Generated_Source\PSoC5/USBFS_episr.c ****     * Function Name: USBFS_EP_2_ISR
 115:Generated_Source\PSoC5/USBFS_episr.c ****     ****************************************************************************//**
 116:Generated_Source\PSoC5/USBFS_episr.c ****     *
 117:Generated_Source\PSoC5/USBFS_episr.c ****     *  Endpoint 2 Interrupt Service Routine.
 118:Generated_Source\PSoC5/USBFS_episr.c ****     *
 119:Generated_Source\PSoC5/USBFS_episr.c ****     *******************************************************************************/
 120:Generated_Source\PSoC5/USBFS_episr.c ****     CY_ISR(USBFS_EP_2_ISR)
 121:Generated_Source\PSoC5/USBFS_episr.c ****     {
  92              		.loc 1 121 0
  93              		.cfi_startproc
  94              		@ args = 0, pretend = 0, frame = 0
  95              		@ frame_needed = 1, uses_anonymous_args = 0
  96              		@ link register save eliminated.
  97 0000 80B4     		push	{r7}
  98              		.cfi_def_cfa_offset 4
  99              		.cfi_offset 7, -4
 100 0002 00AF     		add	r7, sp, #0
 101              		.cfi_def_cfa_register 7
 122:Generated_Source\PSoC5/USBFS_episr.c ****     #ifdef USBFS_EP_2_ISR_ENTRY_CALLBACK
 123:Generated_Source\PSoC5/USBFS_episr.c ****         USBFS_EP_2_ISR_EntryCallback();
 124:Generated_Source\PSoC5/USBFS_episr.c ****     #endif /* (USBFS_EP_2_ISR_ENTRY_CALLBACK) */
 125:Generated_Source\PSoC5/USBFS_episr.c **** 
 126:Generated_Source\PSoC5/USBFS_episr.c ****         /* `#START EP2_USER_CODE` Place your code here */
 127:Generated_Source\PSoC5/USBFS_episr.c **** 
ARM GAS  C:\Users\CALEBC~1\AppData\Local\Temp\ccB9H8Zr.s 			page 5


 128:Generated_Source\PSoC5/USBFS_episr.c ****         /* `#END` */
 129:Generated_Source\PSoC5/USBFS_episr.c **** 
 130:Generated_Source\PSoC5/USBFS_episr.c ****     #if (CY_PSOC3 && defined(USBFS_ENABLE_MIDI_STREAMING) && \
 131:Generated_Source\PSoC5/USBFS_episr.c ****         !defined(USBFS_MAIN_SERVICE_MIDI_OUT) && USBFS_ISR_SERVICE_MIDI_OUT)
 132:Generated_Source\PSoC5/USBFS_episr.c ****         {
 133:Generated_Source\PSoC5/USBFS_episr.c ****             uint8 intEn = EA;
 134:Generated_Source\PSoC5/USBFS_episr.c ****             CyGlobalIntEnable;  /* Enable nested interrupts. */
 135:Generated_Source\PSoC5/USBFS_episr.c ****     #endif /* (CY_PSOC3 && USBFS_ISR_SERVICE_MIDI_OUT) */
 136:Generated_Source\PSoC5/USBFS_episr.c **** 
 137:Generated_Source\PSoC5/USBFS_episr.c ****         USBFS_ClearSieEpInterruptSource(USBFS_SIE_INT_EP2_INTR);
 102              		.loc 1 137 0
 103 0004 0E4B     		ldr	r3, .L7
 104 0006 0222     		movs	r2, #2
 105 0008 1A70     		strb	r2, [r3]
 138:Generated_Source\PSoC5/USBFS_episr.c **** 
 139:Generated_Source\PSoC5/USBFS_episr.c ****         /* Notifies user that transfer IN or OUT transfer is completed.
 140:Generated_Source\PSoC5/USBFS_episr.c ****         * IN endpoint: endpoint buffer can be reloaded, Host is read data.
 141:Generated_Source\PSoC5/USBFS_episr.c ****         * OUT endpoint: data is ready to be read from endpoint buffer. 
 142:Generated_Source\PSoC5/USBFS_episr.c ****         */
 143:Generated_Source\PSoC5/USBFS_episr.c ****     #if (CY_PSOC4 && USBFS_EP_MANAGEMENT_DMA_AUTO)
 144:Generated_Source\PSoC5/USBFS_episr.c ****         if (0u != (USBFS_EP[USBFS_EP2].addr & USBFS_DIR_IN))
 145:Generated_Source\PSoC5/USBFS_episr.c ****     #endif /* (CY_PSOC4 && USBFS_EP_MANAGEMENT_DMA_AUTO) */
 146:Generated_Source\PSoC5/USBFS_episr.c ****         {            
 147:Generated_Source\PSoC5/USBFS_episr.c ****             /* Read CR0 register to clear SIE lock. */
 148:Generated_Source\PSoC5/USBFS_episr.c ****             (void) USBFS_SIE_EP_BASE.sieEp[USBFS_EP2].epCr0;
 106              		.loc 1 148 0
 107 000a 0E4B     		ldr	r3, .L7+4
 108 000c 93F82230 		ldrb	r3, [r3, #34]
 149:Generated_Source\PSoC5/USBFS_episr.c ****             
 150:Generated_Source\PSoC5/USBFS_episr.c ****             /* Toggle all endpoint types except ISOC. */
 151:Generated_Source\PSoC5/USBFS_episr.c ****             if (USBFS_GET_EP_TYPE(USBFS_EP2) != USBFS_EP_TYPE_ISOC)
 109              		.loc 1 151 0
 110 0010 0D4B     		ldr	r3, .L7+8
 111 0012 1B7E     		ldrb	r3, [r3, #24]
 112 0014 DBB2     		uxtb	r3, r3
 113 0016 03F00303 		and	r3, r3, #3
 114 001a 012B     		cmp	r3, #1
 115 001c 08D0     		beq	.L6
 152:Generated_Source\PSoC5/USBFS_episr.c ****             {
 153:Generated_Source\PSoC5/USBFS_episr.c ****                 USBFS_EP[USBFS_EP2].epToggle ^= USBFS_EPX_CNT_DATA_TOGGLE;
 116              		.loc 1 153 0
 117 001e 0A4B     		ldr	r3, .L7+8
 118 0020 DB7E     		ldrb	r3, [r3, #27]
 119 0022 DBB2     		uxtb	r3, r3
 120 0024 83F07F03 		eor	r3, r3, #127
 121 0028 DB43     		mvns	r3, r3
 122 002a DAB2     		uxtb	r2, r3
 123 002c 064B     		ldr	r3, .L7+8
 124 002e DA76     		strb	r2, [r3, #27]
 125              	.L6:
 154:Generated_Source\PSoC5/USBFS_episr.c ****             }
 155:Generated_Source\PSoC5/USBFS_episr.c **** 
 156:Generated_Source\PSoC5/USBFS_episr.c ****             /* EP_MANAGEMENT_DMA_AUTO (Ticket ID# 214187): For OUT endpoint this event is used to n
 157:Generated_Source\PSoC5/USBFS_episr.c ****             * user that DMA has completed copying data from OUT endpoint which is not completely tr
 158:Generated_Source\PSoC5/USBFS_episr.c ****             * Because last chunk of data is being copied.
 159:Generated_Source\PSoC5/USBFS_episr.c ****             * For CY_PSOC 3/5LP: it is acceptable as DMA is really fast.
 160:Generated_Source\PSoC5/USBFS_episr.c ****             * For CY_PSOC4: this event is set in Arbiter interrupt (source is DMA_TERMIN).
ARM GAS  C:\Users\CALEBC~1\AppData\Local\Temp\ccB9H8Zr.s 			page 6


 161:Generated_Source\PSoC5/USBFS_episr.c ****             */
 162:Generated_Source\PSoC5/USBFS_episr.c ****             USBFS_EP[USBFS_EP2].apiEpState = USBFS_EVENT_PENDING;
 126              		.loc 1 162 0
 127 0030 054B     		ldr	r3, .L7+8
 128 0032 0122     		movs	r2, #1
 129 0034 5A76     		strb	r2, [r3, #25]
 163:Generated_Source\PSoC5/USBFS_episr.c ****         }
 164:Generated_Source\PSoC5/USBFS_episr.c **** 
 165:Generated_Source\PSoC5/USBFS_episr.c ****     #if (!(CY_PSOC4 && USBFS_EP_MANAGEMENT_DMA_AUTO))
 166:Generated_Source\PSoC5/USBFS_episr.c ****         #if (defined(USBFS_ENABLE_MIDI_STREAMING) && \
 167:Generated_Source\PSoC5/USBFS_episr.c ****             !defined(USBFS_MAIN_SERVICE_MIDI_OUT) && USBFS_ISR_SERVICE_MIDI_OUT)
 168:Generated_Source\PSoC5/USBFS_episr.c ****             if (USBFS_midi_out_ep == USBFS_EP2)
 169:Generated_Source\PSoC5/USBFS_episr.c ****             {
 170:Generated_Source\PSoC5/USBFS_episr.c ****                 USBFS_MIDI_OUT_Service();
 171:Generated_Source\PSoC5/USBFS_episr.c ****             }
 172:Generated_Source\PSoC5/USBFS_episr.c ****         #endif /* (USBFS_ISR_SERVICE_MIDI_OUT) */
 173:Generated_Source\PSoC5/USBFS_episr.c ****     #endif /* (!(CY_PSOC4 && USBFS_EP_MANAGEMENT_DMA_AUTO)) */        
 174:Generated_Source\PSoC5/USBFS_episr.c ****     
 175:Generated_Source\PSoC5/USBFS_episr.c ****         /* `#START EP2_END_USER_CODE` Place your code here */
 176:Generated_Source\PSoC5/USBFS_episr.c **** 
 177:Generated_Source\PSoC5/USBFS_episr.c ****         /* `#END` */
 178:Generated_Source\PSoC5/USBFS_episr.c **** 
 179:Generated_Source\PSoC5/USBFS_episr.c ****     #ifdef USBFS_EP_2_ISR_EXIT_CALLBACK
 180:Generated_Source\PSoC5/USBFS_episr.c ****         USBFS_EP_2_ISR_ExitCallback();
 181:Generated_Source\PSoC5/USBFS_episr.c ****     #endif /* (USBFS_EP_2_ISR_EXIT_CALLBACK) */
 182:Generated_Source\PSoC5/USBFS_episr.c **** 
 183:Generated_Source\PSoC5/USBFS_episr.c ****     #if (CY_PSOC3 && defined(USBFS_ENABLE_MIDI_STREAMING) && \
 184:Generated_Source\PSoC5/USBFS_episr.c ****         !defined(USBFS_MAIN_SERVICE_MIDI_OUT) && USBFS_ISR_SERVICE_MIDI_OUT)
 185:Generated_Source\PSoC5/USBFS_episr.c ****         
 186:Generated_Source\PSoC5/USBFS_episr.c ****             EA = intEn; /* Restore nested interrupt configuration. */
 187:Generated_Source\PSoC5/USBFS_episr.c ****         }
 188:Generated_Source\PSoC5/USBFS_episr.c ****     #endif /* (CY_PSOC3 && USBFS_ISR_SERVICE_MIDI_OUT) */
 189:Generated_Source\PSoC5/USBFS_episr.c ****     }
 130              		.loc 1 189 0
 131 0036 00BF     		nop
 132 0038 BD46     		mov	sp, r7
 133              		.cfi_def_cfa_register 13
 134              		@ sp needed
 135 003a 80BC     		pop	{r7}
 136              		.cfi_restore 7
 137              		.cfi_def_cfa_offset 0
 138 003c 7047     		bx	lr
 139              	.L8:
 140 003e 00BF     		.align	2
 141              	.L7:
 142 0040 0B600040 		.word	1073766411
 143 0044 FC5F0040 		.word	1073766396
 144 0048 00000000 		.word	USBFS_EP
 145              		.cfi_endproc
 146              	.LFE1:
 147              		.size	USBFS_EP_2_ISR, .-USBFS_EP_2_ISR
 148              		.section	.text.USBFS_BUS_RESET_ISR,"ax",%progbits
 149              		.align	2
 150              		.global	USBFS_BUS_RESET_ISR
 151              		.thumb
 152              		.thumb_func
 153              		.type	USBFS_BUS_RESET_ISR, %function
ARM GAS  C:\Users\CALEBC~1\AppData\Local\Temp\ccB9H8Zr.s 			page 7


 154              	USBFS_BUS_RESET_ISR:
 155              	.LFB2:
 190:Generated_Source\PSoC5/USBFS_episr.c **** #endif /* (USBFS_EP2_ISR_ACTIVE) */
 191:Generated_Source\PSoC5/USBFS_episr.c **** 
 192:Generated_Source\PSoC5/USBFS_episr.c **** 
 193:Generated_Source\PSoC5/USBFS_episr.c **** #if (USBFS_EP3_ISR_ACTIVE)
 194:Generated_Source\PSoC5/USBFS_episr.c ****     /*******************************************************************************
 195:Generated_Source\PSoC5/USBFS_episr.c ****     * Function Name: USBFS_EP_3_ISR
 196:Generated_Source\PSoC5/USBFS_episr.c ****     ****************************************************************************//**
 197:Generated_Source\PSoC5/USBFS_episr.c ****     *
 198:Generated_Source\PSoC5/USBFS_episr.c ****     *  Endpoint 3 Interrupt Service Routine.
 199:Generated_Source\PSoC5/USBFS_episr.c ****     *
 200:Generated_Source\PSoC5/USBFS_episr.c ****     *******************************************************************************/
 201:Generated_Source\PSoC5/USBFS_episr.c ****     CY_ISR(USBFS_EP_3_ISR)
 202:Generated_Source\PSoC5/USBFS_episr.c ****     {
 203:Generated_Source\PSoC5/USBFS_episr.c ****     #ifdef USBFS_EP_3_ISR_ENTRY_CALLBACK
 204:Generated_Source\PSoC5/USBFS_episr.c ****         USBFS_EP_3_ISR_EntryCallback();
 205:Generated_Source\PSoC5/USBFS_episr.c ****     #endif /* (USBFS_EP_3_ISR_ENTRY_CALLBACK) */
 206:Generated_Source\PSoC5/USBFS_episr.c **** 
 207:Generated_Source\PSoC5/USBFS_episr.c ****         /* `#START EP3_USER_CODE` Place your code here */
 208:Generated_Source\PSoC5/USBFS_episr.c **** 
 209:Generated_Source\PSoC5/USBFS_episr.c ****         /* `#END` */
 210:Generated_Source\PSoC5/USBFS_episr.c **** 
 211:Generated_Source\PSoC5/USBFS_episr.c ****     #if (CY_PSOC3 && defined(USBFS_ENABLE_MIDI_STREAMING) && \
 212:Generated_Source\PSoC5/USBFS_episr.c ****         !defined(USBFS_MAIN_SERVICE_MIDI_OUT) && USBFS_ISR_SERVICE_MIDI_OUT)
 213:Generated_Source\PSoC5/USBFS_episr.c ****         {
 214:Generated_Source\PSoC5/USBFS_episr.c ****             uint8 intEn = EA;
 215:Generated_Source\PSoC5/USBFS_episr.c ****             CyGlobalIntEnable;  /* Enable nested interrupts. */
 216:Generated_Source\PSoC5/USBFS_episr.c ****     #endif /* (CY_PSOC3 && USBFS_ISR_SERVICE_MIDI_OUT) */
 217:Generated_Source\PSoC5/USBFS_episr.c **** 
 218:Generated_Source\PSoC5/USBFS_episr.c ****         USBFS_ClearSieEpInterruptSource(USBFS_SIE_INT_EP3_INTR);    
 219:Generated_Source\PSoC5/USBFS_episr.c **** 
 220:Generated_Source\PSoC5/USBFS_episr.c ****         /* Notifies user that transfer IN or OUT transfer is completed.
 221:Generated_Source\PSoC5/USBFS_episr.c ****         * IN endpoint: endpoint buffer can be reloaded, Host is read data.
 222:Generated_Source\PSoC5/USBFS_episr.c ****         * OUT endpoint: data is ready to be read from endpoint buffer. 
 223:Generated_Source\PSoC5/USBFS_episr.c ****         */
 224:Generated_Source\PSoC5/USBFS_episr.c ****     #if (CY_PSOC4 && USBFS_EP_MANAGEMENT_DMA_AUTO)
 225:Generated_Source\PSoC5/USBFS_episr.c ****         if (0u != (USBFS_EP[USBFS_EP3].addr & USBFS_DIR_IN))
 226:Generated_Source\PSoC5/USBFS_episr.c ****     #endif /* (USBFS_EP_MANAGEMENT_DMA_AUTO) */
 227:Generated_Source\PSoC5/USBFS_episr.c ****         {            
 228:Generated_Source\PSoC5/USBFS_episr.c ****             /* Read CR0 register to clear SIE lock. */
 229:Generated_Source\PSoC5/USBFS_episr.c ****             (void) USBFS_SIE_EP_BASE.sieEp[USBFS_EP3].epCr0;
 230:Generated_Source\PSoC5/USBFS_episr.c **** 
 231:Generated_Source\PSoC5/USBFS_episr.c ****             /* Toggle all endpoint types except ISOC. */
 232:Generated_Source\PSoC5/USBFS_episr.c ****             if (USBFS_GET_EP_TYPE(USBFS_EP3) != USBFS_EP_TYPE_ISOC)
 233:Generated_Source\PSoC5/USBFS_episr.c ****             {
 234:Generated_Source\PSoC5/USBFS_episr.c ****                 USBFS_EP[USBFS_EP3].epToggle ^= USBFS_EPX_CNT_DATA_TOGGLE;
 235:Generated_Source\PSoC5/USBFS_episr.c ****             }
 236:Generated_Source\PSoC5/USBFS_episr.c **** 
 237:Generated_Source\PSoC5/USBFS_episr.c ****             /* EP_MANAGEMENT_DMA_AUTO (Ticket ID# 214187): For OUT endpoint this event is used to n
 238:Generated_Source\PSoC5/USBFS_episr.c ****             * user that DMA has completed copying data from OUT endpoint which is not completely tr
 239:Generated_Source\PSoC5/USBFS_episr.c ****             * Because last chunk of data is being copied.
 240:Generated_Source\PSoC5/USBFS_episr.c ****             * For CY_PSOC 3/5LP: it is acceptable as DMA is really fast.
 241:Generated_Source\PSoC5/USBFS_episr.c ****             * For CY_PSOC4: this event is set in Arbiter interrupt (source is DMA_TERMIN).
 242:Generated_Source\PSoC5/USBFS_episr.c ****             */
 243:Generated_Source\PSoC5/USBFS_episr.c ****             USBFS_EP[USBFS_EP3].apiEpState = USBFS_EVENT_PENDING;
 244:Generated_Source\PSoC5/USBFS_episr.c ****         }
ARM GAS  C:\Users\CALEBC~1\AppData\Local\Temp\ccB9H8Zr.s 			page 8


 245:Generated_Source\PSoC5/USBFS_episr.c **** 
 246:Generated_Source\PSoC5/USBFS_episr.c ****     #if (!(CY_PSOC4 && USBFS_EP_MANAGEMENT_DMA_AUTO))
 247:Generated_Source\PSoC5/USBFS_episr.c ****         #if (defined(USBFS_ENABLE_MIDI_STREAMING) && \
 248:Generated_Source\PSoC5/USBFS_episr.c ****             !defined(USBFS_MAIN_SERVICE_MIDI_OUT) && USBFS_ISR_SERVICE_MIDI_OUT)
 249:Generated_Source\PSoC5/USBFS_episr.c ****             if (USBFS_midi_out_ep == USBFS_EP3)
 250:Generated_Source\PSoC5/USBFS_episr.c ****             {
 251:Generated_Source\PSoC5/USBFS_episr.c ****                 USBFS_MIDI_OUT_Service();
 252:Generated_Source\PSoC5/USBFS_episr.c ****             }
 253:Generated_Source\PSoC5/USBFS_episr.c ****         #endif /* (USBFS_ISR_SERVICE_MIDI_OUT) */
 254:Generated_Source\PSoC5/USBFS_episr.c ****     #endif /* (!(CY_PSOC4 && USBFS_EP_MANAGEMENT_DMA_AUTO)) */        
 255:Generated_Source\PSoC5/USBFS_episr.c **** 
 256:Generated_Source\PSoC5/USBFS_episr.c ****         /* `#START EP3_END_USER_CODE` Place your code here */
 257:Generated_Source\PSoC5/USBFS_episr.c **** 
 258:Generated_Source\PSoC5/USBFS_episr.c ****         /* `#END` */
 259:Generated_Source\PSoC5/USBFS_episr.c **** 
 260:Generated_Source\PSoC5/USBFS_episr.c ****     #ifdef USBFS_EP_3_ISR_EXIT_CALLBACK
 261:Generated_Source\PSoC5/USBFS_episr.c ****         USBFS_EP_3_ISR_ExitCallback();
 262:Generated_Source\PSoC5/USBFS_episr.c ****     #endif /* (USBFS_EP_3_ISR_EXIT_CALLBACK) */
 263:Generated_Source\PSoC5/USBFS_episr.c **** 
 264:Generated_Source\PSoC5/USBFS_episr.c ****     #if (CY_PSOC3 && defined(USBFS_ENABLE_MIDI_STREAMING) && \
 265:Generated_Source\PSoC5/USBFS_episr.c ****         !defined(USBFS_MAIN_SERVICE_MIDI_OUT) && USBFS_ISR_SERVICE_MIDI_OUT)
 266:Generated_Source\PSoC5/USBFS_episr.c ****         
 267:Generated_Source\PSoC5/USBFS_episr.c ****             EA = intEn; /* Restore nested interrupt configuration. */
 268:Generated_Source\PSoC5/USBFS_episr.c ****         }
 269:Generated_Source\PSoC5/USBFS_episr.c ****     #endif /* (CY_PSOC3 && USBFS_ISR_SERVICE_MIDI_OUT) */
 270:Generated_Source\PSoC5/USBFS_episr.c ****     }
 271:Generated_Source\PSoC5/USBFS_episr.c **** #endif /* (USBFS_EP3_ISR_ACTIVE) */
 272:Generated_Source\PSoC5/USBFS_episr.c **** 
 273:Generated_Source\PSoC5/USBFS_episr.c **** 
 274:Generated_Source\PSoC5/USBFS_episr.c **** #if (USBFS_EP4_ISR_ACTIVE)
 275:Generated_Source\PSoC5/USBFS_episr.c ****     /*******************************************************************************
 276:Generated_Source\PSoC5/USBFS_episr.c ****     * Function Name: USBFS_EP_4_ISR
 277:Generated_Source\PSoC5/USBFS_episr.c ****     ****************************************************************************//**
 278:Generated_Source\PSoC5/USBFS_episr.c ****     *
 279:Generated_Source\PSoC5/USBFS_episr.c ****     *  Endpoint 4 Interrupt Service Routine.
 280:Generated_Source\PSoC5/USBFS_episr.c ****     *
 281:Generated_Source\PSoC5/USBFS_episr.c ****     *******************************************************************************/
 282:Generated_Source\PSoC5/USBFS_episr.c ****     CY_ISR(USBFS_EP_4_ISR)
 283:Generated_Source\PSoC5/USBFS_episr.c ****     {
 284:Generated_Source\PSoC5/USBFS_episr.c ****     #ifdef USBFS_EP_4_ISR_ENTRY_CALLBACK
 285:Generated_Source\PSoC5/USBFS_episr.c ****         USBFS_EP_4_ISR_EntryCallback();
 286:Generated_Source\PSoC5/USBFS_episr.c ****     #endif /* (USBFS_EP_4_ISR_ENTRY_CALLBACK) */
 287:Generated_Source\PSoC5/USBFS_episr.c **** 
 288:Generated_Source\PSoC5/USBFS_episr.c ****         /* `#START EP4_USER_CODE` Place your code here */
 289:Generated_Source\PSoC5/USBFS_episr.c **** 
 290:Generated_Source\PSoC5/USBFS_episr.c ****         /* `#END` */
 291:Generated_Source\PSoC5/USBFS_episr.c **** 
 292:Generated_Source\PSoC5/USBFS_episr.c ****     #if (CY_PSOC3 && defined(USBFS_ENABLE_MIDI_STREAMING) && \
 293:Generated_Source\PSoC5/USBFS_episr.c ****         !defined(USBFS_MAIN_SERVICE_MIDI_OUT) && USBFS_ISR_SERVICE_MIDI_OUT)
 294:Generated_Source\PSoC5/USBFS_episr.c ****         {
 295:Generated_Source\PSoC5/USBFS_episr.c ****             uint8 intEn = EA;
 296:Generated_Source\PSoC5/USBFS_episr.c ****             CyGlobalIntEnable;  /* Enable nested interrupts. */
 297:Generated_Source\PSoC5/USBFS_episr.c ****     #endif /* (CY_PSOC3 && USBFS_ISR_SERVICE_MIDI_OUT) */
 298:Generated_Source\PSoC5/USBFS_episr.c **** 
 299:Generated_Source\PSoC5/USBFS_episr.c ****         USBFS_ClearSieEpInterruptSource(USBFS_SIE_INT_EP4_INTR);
 300:Generated_Source\PSoC5/USBFS_episr.c ****         
 301:Generated_Source\PSoC5/USBFS_episr.c ****         /* Notifies user that transfer IN or OUT transfer is completed.
ARM GAS  C:\Users\CALEBC~1\AppData\Local\Temp\ccB9H8Zr.s 			page 9


 302:Generated_Source\PSoC5/USBFS_episr.c ****         * IN endpoint: endpoint buffer can be reloaded, Host is read data.
 303:Generated_Source\PSoC5/USBFS_episr.c ****         * OUT endpoint: data is ready to read from endpoint buffer. 
 304:Generated_Source\PSoC5/USBFS_episr.c ****         */
 305:Generated_Source\PSoC5/USBFS_episr.c ****     #if (CY_PSOC4 && USBFS_EP_MANAGEMENT_DMA_AUTO)
 306:Generated_Source\PSoC5/USBFS_episr.c ****         if (0u != (USBFS_EP[USBFS_EP4].addr & USBFS_DIR_IN))
 307:Generated_Source\PSoC5/USBFS_episr.c ****     #endif /* (USBFS_EP_MANAGEMENT_DMA_AUTO) */
 308:Generated_Source\PSoC5/USBFS_episr.c ****         {
 309:Generated_Source\PSoC5/USBFS_episr.c ****             /* Read CR0 register to clear SIE lock. */
 310:Generated_Source\PSoC5/USBFS_episr.c ****             (void) USBFS_SIE_EP_BASE.sieEp[USBFS_EP4].epCr0;
 311:Generated_Source\PSoC5/USBFS_episr.c **** 
 312:Generated_Source\PSoC5/USBFS_episr.c ****             /* Toggle all endpoint types except ISOC. */
 313:Generated_Source\PSoC5/USBFS_episr.c ****             if (USBFS_GET_EP_TYPE(USBFS_EP4) != USBFS_EP_TYPE_ISOC)
 314:Generated_Source\PSoC5/USBFS_episr.c ****             {
 315:Generated_Source\PSoC5/USBFS_episr.c ****                 USBFS_EP[USBFS_EP4].epToggle ^= USBFS_EPX_CNT_DATA_TOGGLE;
 316:Generated_Source\PSoC5/USBFS_episr.c ****             }
 317:Generated_Source\PSoC5/USBFS_episr.c **** 
 318:Generated_Source\PSoC5/USBFS_episr.c ****             /* EP_MANAGEMENT_DMA_AUTO (Ticket ID# 214187): For OUT endpoint this event is used to n
 319:Generated_Source\PSoC5/USBFS_episr.c ****             * user that DMA has completed copying data from OUT endpoint which is not completely tr
 320:Generated_Source\PSoC5/USBFS_episr.c ****             * Because last chunk of data is being copied.
 321:Generated_Source\PSoC5/USBFS_episr.c ****             * For CY_PSOC 3/5LP: it is acceptable as DMA is really fast.
 322:Generated_Source\PSoC5/USBFS_episr.c ****             * For CY_PSOC4: this event is set in Arbiter interrupt (source is DMA_TERMIN).
 323:Generated_Source\PSoC5/USBFS_episr.c ****             */
 324:Generated_Source\PSoC5/USBFS_episr.c ****             USBFS_EP[USBFS_EP4].apiEpState = USBFS_EVENT_PENDING;
 325:Generated_Source\PSoC5/USBFS_episr.c ****         }
 326:Generated_Source\PSoC5/USBFS_episr.c **** 
 327:Generated_Source\PSoC5/USBFS_episr.c ****     #if (!(CY_PSOC4 && USBFS_EP_MANAGEMENT_DMA_AUTO))
 328:Generated_Source\PSoC5/USBFS_episr.c ****         #if (defined(USBFS_ENABLE_MIDI_STREAMING) && \
 329:Generated_Source\PSoC5/USBFS_episr.c ****             !defined(USBFS_MAIN_SERVICE_MIDI_OUT) && USBFS_ISR_SERVICE_MIDI_OUT)
 330:Generated_Source\PSoC5/USBFS_episr.c ****             if(USBFS_midi_out_ep == USBFS_EP4)
 331:Generated_Source\PSoC5/USBFS_episr.c ****             {
 332:Generated_Source\PSoC5/USBFS_episr.c ****                 USBFS_MIDI_OUT_Service();
 333:Generated_Source\PSoC5/USBFS_episr.c ****             }
 334:Generated_Source\PSoC5/USBFS_episr.c ****         #endif /* (USBFS_ISR_SERVICE_MIDI_OUT) */
 335:Generated_Source\PSoC5/USBFS_episr.c ****     #endif /* (!(CY_PSOC4 && USBFS_EP_MANAGEMENT_DMA_AUTO)) */        
 336:Generated_Source\PSoC5/USBFS_episr.c **** 
 337:Generated_Source\PSoC5/USBFS_episr.c ****         /* `#START EP4_END_USER_CODE` Place your code here */
 338:Generated_Source\PSoC5/USBFS_episr.c **** 
 339:Generated_Source\PSoC5/USBFS_episr.c ****         /* `#END` */
 340:Generated_Source\PSoC5/USBFS_episr.c **** 
 341:Generated_Source\PSoC5/USBFS_episr.c ****     #ifdef USBFS_EP_4_ISR_EXIT_CALLBACK
 342:Generated_Source\PSoC5/USBFS_episr.c ****         USBFS_EP_4_ISR_ExitCallback();
 343:Generated_Source\PSoC5/USBFS_episr.c ****     #endif /* (USBFS_EP_4_ISR_EXIT_CALLBACK) */
 344:Generated_Source\PSoC5/USBFS_episr.c **** 
 345:Generated_Source\PSoC5/USBFS_episr.c ****     #if (CY_PSOC3 && defined(USBFS_ENABLE_MIDI_STREAMING) && \
 346:Generated_Source\PSoC5/USBFS_episr.c ****         !defined(USBFS_MAIN_SERVICE_MIDI_OUT) && USBFS_ISR_SERVICE_MIDI_OUT)
 347:Generated_Source\PSoC5/USBFS_episr.c ****         
 348:Generated_Source\PSoC5/USBFS_episr.c ****             EA = intEn; /* Restore nested interrupt configuration. */
 349:Generated_Source\PSoC5/USBFS_episr.c ****         }
 350:Generated_Source\PSoC5/USBFS_episr.c ****     #endif /* (CY_PSOC3 && USBFS_ISR_SERVICE_MIDI_OUT) */
 351:Generated_Source\PSoC5/USBFS_episr.c ****     }
 352:Generated_Source\PSoC5/USBFS_episr.c **** #endif /* (USBFS_EP4_ISR_ACTIVE) */
 353:Generated_Source\PSoC5/USBFS_episr.c **** 
 354:Generated_Source\PSoC5/USBFS_episr.c **** 
 355:Generated_Source\PSoC5/USBFS_episr.c **** #if (USBFS_EP5_ISR_ACTIVE)
 356:Generated_Source\PSoC5/USBFS_episr.c ****     /*******************************************************************************
 357:Generated_Source\PSoC5/USBFS_episr.c ****     * Function Name: USBFS_EP_5_ISR
 358:Generated_Source\PSoC5/USBFS_episr.c ****     ****************************************************************************//**
ARM GAS  C:\Users\CALEBC~1\AppData\Local\Temp\ccB9H8Zr.s 			page 10


 359:Generated_Source\PSoC5/USBFS_episr.c ****     *
 360:Generated_Source\PSoC5/USBFS_episr.c ****     *  Endpoint 5 Interrupt Service Routine
 361:Generated_Source\PSoC5/USBFS_episr.c ****     *
 362:Generated_Source\PSoC5/USBFS_episr.c ****     *
 363:Generated_Source\PSoC5/USBFS_episr.c ****     *******************************************************************************/
 364:Generated_Source\PSoC5/USBFS_episr.c ****     CY_ISR(USBFS_EP_5_ISR)
 365:Generated_Source\PSoC5/USBFS_episr.c ****     {
 366:Generated_Source\PSoC5/USBFS_episr.c ****     #ifdef USBFS_EP_5_ISR_ENTRY_CALLBACK
 367:Generated_Source\PSoC5/USBFS_episr.c ****         USBFS_EP_5_ISR_EntryCallback();
 368:Generated_Source\PSoC5/USBFS_episr.c ****     #endif /* (USBFS_EP_5_ISR_ENTRY_CALLBACK) */
 369:Generated_Source\PSoC5/USBFS_episr.c **** 
 370:Generated_Source\PSoC5/USBFS_episr.c ****         /* `#START EP5_USER_CODE` Place your code here */
 371:Generated_Source\PSoC5/USBFS_episr.c **** 
 372:Generated_Source\PSoC5/USBFS_episr.c ****         /* `#END` */
 373:Generated_Source\PSoC5/USBFS_episr.c **** 
 374:Generated_Source\PSoC5/USBFS_episr.c ****     #if (defined(USBFS_ENABLE_MIDI_STREAMING) && !defined(USBFS_MAIN_SERVICE_MIDI_OUT) && \
 375:Generated_Source\PSoC5/USBFS_episr.c ****                  USBFS_ISR_SERVICE_MIDI_OUT && CY_PSOC3)
 376:Generated_Source\PSoC5/USBFS_episr.c ****         {
 377:Generated_Source\PSoC5/USBFS_episr.c ****             uint8 intEn = EA;
 378:Generated_Source\PSoC5/USBFS_episr.c ****             CyGlobalIntEnable;  /* Enable nested interrupts. */
 379:Generated_Source\PSoC5/USBFS_episr.c ****     #endif /* (CY_PSOC3 && USBFS_ISR_SERVICE_MIDI_OUT) */
 380:Generated_Source\PSoC5/USBFS_episr.c **** 
 381:Generated_Source\PSoC5/USBFS_episr.c ****         USBFS_ClearSieEpInterruptSource(USBFS_SIE_INT_EP5_INTR);
 382:Generated_Source\PSoC5/USBFS_episr.c ****     
 383:Generated_Source\PSoC5/USBFS_episr.c ****         /* Notifies user that transfer IN or OUT transfer is completed.
 384:Generated_Source\PSoC5/USBFS_episr.c ****         * IN endpoint: endpoint buffer can be reloaded, Host is read data.
 385:Generated_Source\PSoC5/USBFS_episr.c ****         * OUT endpoint: data is ready to read from endpoint buffer. 
 386:Generated_Source\PSoC5/USBFS_episr.c ****         */
 387:Generated_Source\PSoC5/USBFS_episr.c ****     #if (CY_PSOC4 && USBFS_EP_MANAGEMENT_DMA_AUTO)
 388:Generated_Source\PSoC5/USBFS_episr.c ****         if (0u != (USBFS_EP[USBFS_EP5].addr & USBFS_DIR_IN))
 389:Generated_Source\PSoC5/USBFS_episr.c ****     #endif /* (USBFS_EP_MANAGEMENT_DMA_AUTO) */
 390:Generated_Source\PSoC5/USBFS_episr.c ****         {            
 391:Generated_Source\PSoC5/USBFS_episr.c ****             /* Read CR0 register to clear SIE lock. */
 392:Generated_Source\PSoC5/USBFS_episr.c ****             (void) USBFS_SIE_EP_BASE.sieEp[USBFS_EP5].epCr0;
 393:Generated_Source\PSoC5/USBFS_episr.c **** 
 394:Generated_Source\PSoC5/USBFS_episr.c ****             /* Toggle all endpoint types except ISOC. */
 395:Generated_Source\PSoC5/USBFS_episr.c ****             if (USBFS_GET_EP_TYPE(USBFS_EP5) != USBFS_EP_TYPE_ISOC)
 396:Generated_Source\PSoC5/USBFS_episr.c ****             {
 397:Generated_Source\PSoC5/USBFS_episr.c ****                 USBFS_EP[USBFS_EP5].epToggle ^= USBFS_EPX_CNT_DATA_TOGGLE;
 398:Generated_Source\PSoC5/USBFS_episr.c ****             }
 399:Generated_Source\PSoC5/USBFS_episr.c **** 
 400:Generated_Source\PSoC5/USBFS_episr.c ****             /* EP_MANAGEMENT_DMA_AUTO (Ticket ID# 214187): For OUT endpoint this event is used to n
 401:Generated_Source\PSoC5/USBFS_episr.c ****             * user that DMA has completed copying data from OUT endpoint which is not completely tr
 402:Generated_Source\PSoC5/USBFS_episr.c ****             * Because last chunk of data is being copied.
 403:Generated_Source\PSoC5/USBFS_episr.c ****             * For CY_PSOC 3/5LP: it is acceptable as DMA is really fast.
 404:Generated_Source\PSoC5/USBFS_episr.c ****             * For CY_PSOC4: this event is set in Arbiter interrupt (source is DMA_TERMIN).
 405:Generated_Source\PSoC5/USBFS_episr.c ****             */
 406:Generated_Source\PSoC5/USBFS_episr.c ****             USBFS_EP[USBFS_EP5].apiEpState = USBFS_EVENT_PENDING;
 407:Generated_Source\PSoC5/USBFS_episr.c ****         }
 408:Generated_Source\PSoC5/USBFS_episr.c **** 
 409:Generated_Source\PSoC5/USBFS_episr.c ****     #if (!(CY_PSOC4 && USBFS_EP_MANAGEMENT_DMA_AUTO))        
 410:Generated_Source\PSoC5/USBFS_episr.c ****         #if (defined(USBFS_ENABLE_MIDI_STREAMING) && \
 411:Generated_Source\PSoC5/USBFS_episr.c ****             !defined(USBFS_MAIN_SERVICE_MIDI_OUT) && USBFS_ISR_SERVICE_MIDI_OUT)
 412:Generated_Source\PSoC5/USBFS_episr.c ****             if (USBFS_midi_out_ep == USBFS_EP5)
 413:Generated_Source\PSoC5/USBFS_episr.c ****             {
 414:Generated_Source\PSoC5/USBFS_episr.c ****                 USBFS_MIDI_OUT_Service();
 415:Generated_Source\PSoC5/USBFS_episr.c ****             }
ARM GAS  C:\Users\CALEBC~1\AppData\Local\Temp\ccB9H8Zr.s 			page 11


 416:Generated_Source\PSoC5/USBFS_episr.c ****         #endif /* (USBFS_ISR_SERVICE_MIDI_OUT) */
 417:Generated_Source\PSoC5/USBFS_episr.c ****     #endif /* (!(CY_PSOC4 && USBFS_EP_MANAGEMENT_DMA_AUTO)) */
 418:Generated_Source\PSoC5/USBFS_episr.c **** 
 419:Generated_Source\PSoC5/USBFS_episr.c ****         /* `#START EP5_END_USER_CODE` Place your code here */
 420:Generated_Source\PSoC5/USBFS_episr.c **** 
 421:Generated_Source\PSoC5/USBFS_episr.c ****         /* `#END` */
 422:Generated_Source\PSoC5/USBFS_episr.c **** 
 423:Generated_Source\PSoC5/USBFS_episr.c ****     #ifdef USBFS_EP_5_ISR_EXIT_CALLBACK
 424:Generated_Source\PSoC5/USBFS_episr.c ****         USBFS_EP_5_ISR_ExitCallback();
 425:Generated_Source\PSoC5/USBFS_episr.c ****     #endif /* (USBFS_EP_5_ISR_EXIT_CALLBACK) */
 426:Generated_Source\PSoC5/USBFS_episr.c **** 
 427:Generated_Source\PSoC5/USBFS_episr.c ****     #if (CY_PSOC3 && defined(USBFS_ENABLE_MIDI_STREAMING) && \
 428:Generated_Source\PSoC5/USBFS_episr.c ****         !defined(USBFS_MAIN_SERVICE_MIDI_OUT) && USBFS_ISR_SERVICE_MIDI_OUT)
 429:Generated_Source\PSoC5/USBFS_episr.c ****         
 430:Generated_Source\PSoC5/USBFS_episr.c ****             EA = intEn; /* Restore nested interrupt configuration. */
 431:Generated_Source\PSoC5/USBFS_episr.c ****         }
 432:Generated_Source\PSoC5/USBFS_episr.c ****     #endif /* (CY_PSOC3 && USBFS_ISR_SERVICE_MIDI_OUT) */
 433:Generated_Source\PSoC5/USBFS_episr.c ****     }
 434:Generated_Source\PSoC5/USBFS_episr.c **** #endif /* (USBFS_EP5_ISR_ACTIVE) */
 435:Generated_Source\PSoC5/USBFS_episr.c **** 
 436:Generated_Source\PSoC5/USBFS_episr.c **** 
 437:Generated_Source\PSoC5/USBFS_episr.c **** #if (USBFS_EP6_ISR_ACTIVE)
 438:Generated_Source\PSoC5/USBFS_episr.c ****     /*******************************************************************************
 439:Generated_Source\PSoC5/USBFS_episr.c ****     * Function Name: USBFS_EP_6_ISR
 440:Generated_Source\PSoC5/USBFS_episr.c ****     ****************************************************************************//**
 441:Generated_Source\PSoC5/USBFS_episr.c ****     *
 442:Generated_Source\PSoC5/USBFS_episr.c ****     *  Endpoint 6 Interrupt Service Routine.
 443:Generated_Source\PSoC5/USBFS_episr.c ****     *
 444:Generated_Source\PSoC5/USBFS_episr.c ****     *
 445:Generated_Source\PSoC5/USBFS_episr.c ****     *******************************************************************************/
 446:Generated_Source\PSoC5/USBFS_episr.c ****     CY_ISR(USBFS_EP_6_ISR)
 447:Generated_Source\PSoC5/USBFS_episr.c ****     {
 448:Generated_Source\PSoC5/USBFS_episr.c ****     #ifdef USBFS_EP_6_ISR_ENTRY_CALLBACK
 449:Generated_Source\PSoC5/USBFS_episr.c ****         USBFS_EP_6_ISR_EntryCallback();
 450:Generated_Source\PSoC5/USBFS_episr.c ****     #endif /* (USBFS_EP_6_ISR_ENTRY_CALLBACK) */
 451:Generated_Source\PSoC5/USBFS_episr.c **** 
 452:Generated_Source\PSoC5/USBFS_episr.c ****         /* `#START EP6_USER_CODE` Place your code here */
 453:Generated_Source\PSoC5/USBFS_episr.c **** 
 454:Generated_Source\PSoC5/USBFS_episr.c ****         /* `#END` */
 455:Generated_Source\PSoC5/USBFS_episr.c **** 
 456:Generated_Source\PSoC5/USBFS_episr.c ****     #if (CY_PSOC3 && defined(USBFS_ENABLE_MIDI_STREAMING) && \
 457:Generated_Source\PSoC5/USBFS_episr.c ****         !defined(USBFS_MAIN_SERVICE_MIDI_OUT) && USBFS_ISR_SERVICE_MIDI_OUT)
 458:Generated_Source\PSoC5/USBFS_episr.c ****         {
 459:Generated_Source\PSoC5/USBFS_episr.c ****             uint8 intEn = EA;
 460:Generated_Source\PSoC5/USBFS_episr.c ****             CyGlobalIntEnable;  /* Enable nested interrupts. */
 461:Generated_Source\PSoC5/USBFS_episr.c ****     #endif /* (CY_PSOC3 && USBFS_ISR_SERVICE_MIDI_OUT) */
 462:Generated_Source\PSoC5/USBFS_episr.c **** 
 463:Generated_Source\PSoC5/USBFS_episr.c ****         USBFS_ClearSieEpInterruptSource(USBFS_SIE_INT_EP6_INTR);
 464:Generated_Source\PSoC5/USBFS_episr.c ****         
 465:Generated_Source\PSoC5/USBFS_episr.c ****         /* Notifies user that transfer IN or OUT transfer is completed.
 466:Generated_Source\PSoC5/USBFS_episr.c ****         * IN endpoint: endpoint buffer can be reloaded, Host is read data.
 467:Generated_Source\PSoC5/USBFS_episr.c ****         * OUT endpoint: data is ready to read from endpoint buffer. 
 468:Generated_Source\PSoC5/USBFS_episr.c ****         */
 469:Generated_Source\PSoC5/USBFS_episr.c ****     #if (CY_PSOC4 && USBFS_EP_MANAGEMENT_DMA_AUTO)
 470:Generated_Source\PSoC5/USBFS_episr.c ****         if (0u != (USBFS_EP[USBFS_EP6].addr & USBFS_DIR_IN))
 471:Generated_Source\PSoC5/USBFS_episr.c ****     #endif /* (USBFS_EP_MANAGEMENT_DMA_AUTO) */
 472:Generated_Source\PSoC5/USBFS_episr.c ****         {
ARM GAS  C:\Users\CALEBC~1\AppData\Local\Temp\ccB9H8Zr.s 			page 12


 473:Generated_Source\PSoC5/USBFS_episr.c ****             /* Read CR0 register to clear SIE lock. */
 474:Generated_Source\PSoC5/USBFS_episr.c ****             (void) USBFS_SIE_EP_BASE.sieEp[USBFS_EP6].epCr0;
 475:Generated_Source\PSoC5/USBFS_episr.c **** 
 476:Generated_Source\PSoC5/USBFS_episr.c ****             /* Toggle all endpoint types except ISOC. */
 477:Generated_Source\PSoC5/USBFS_episr.c ****             if (USBFS_GET_EP_TYPE(USBFS_EP6) != USBFS_EP_TYPE_ISOC)
 478:Generated_Source\PSoC5/USBFS_episr.c ****             {
 479:Generated_Source\PSoC5/USBFS_episr.c ****                 USBFS_EP[USBFS_EP6].epToggle ^= USBFS_EPX_CNT_DATA_TOGGLE;
 480:Generated_Source\PSoC5/USBFS_episr.c ****             }
 481:Generated_Source\PSoC5/USBFS_episr.c ****             
 482:Generated_Source\PSoC5/USBFS_episr.c ****             /* EP_MANAGEMENT_DMA_AUTO (Ticket ID# 214187): For OUT endpoint this event is used to n
 483:Generated_Source\PSoC5/USBFS_episr.c ****             * user that DMA has completed copying data from OUT endpoint which is not completely tr
 484:Generated_Source\PSoC5/USBFS_episr.c ****             * Because last chunk of data is being copied.
 485:Generated_Source\PSoC5/USBFS_episr.c ****             * For CY_PSOC 3/5LP: it is acceptable as DMA is really fast.
 486:Generated_Source\PSoC5/USBFS_episr.c ****             * For CY_PSOC4: this event is set in Arbiter interrupt (source is DMA_TERMIN).
 487:Generated_Source\PSoC5/USBFS_episr.c ****             */
 488:Generated_Source\PSoC5/USBFS_episr.c ****             USBFS_EP[USBFS_EP6].apiEpState = USBFS_EVENT_PENDING;
 489:Generated_Source\PSoC5/USBFS_episr.c ****         }
 490:Generated_Source\PSoC5/USBFS_episr.c **** 
 491:Generated_Source\PSoC5/USBFS_episr.c ****     #if (!(CY_PSOC4 && USBFS_EP_MANAGEMENT_DMA_AUTO))
 492:Generated_Source\PSoC5/USBFS_episr.c ****         #if (defined(USBFS_ENABLE_MIDI_STREAMING) && \
 493:Generated_Source\PSoC5/USBFS_episr.c ****             !defined(USBFS_MAIN_SERVICE_MIDI_OUT) && USBFS_ISR_SERVICE_MIDI_OUT)
 494:Generated_Source\PSoC5/USBFS_episr.c ****             if (USBFS_midi_out_ep == USBFS_EP6)
 495:Generated_Source\PSoC5/USBFS_episr.c ****             {
 496:Generated_Source\PSoC5/USBFS_episr.c ****                 USBFS_MIDI_OUT_Service();
 497:Generated_Source\PSoC5/USBFS_episr.c ****             }
 498:Generated_Source\PSoC5/USBFS_episr.c ****         #endif /* (USBFS_ISR_SERVICE_MIDI_OUT) */
 499:Generated_Source\PSoC5/USBFS_episr.c ****     #endif /* (!(CY_PSOC4 && USBFS_EP_MANAGEMENT_DMA_AUTO)) */
 500:Generated_Source\PSoC5/USBFS_episr.c **** 
 501:Generated_Source\PSoC5/USBFS_episr.c ****         /* `#START EP6_END_USER_CODE` Place your code here */
 502:Generated_Source\PSoC5/USBFS_episr.c **** 
 503:Generated_Source\PSoC5/USBFS_episr.c ****         /* `#END` */
 504:Generated_Source\PSoC5/USBFS_episr.c **** 
 505:Generated_Source\PSoC5/USBFS_episr.c ****     #ifdef USBFS_EP_6_ISR_EXIT_CALLBACK
 506:Generated_Source\PSoC5/USBFS_episr.c ****         USBFS_EP_6_ISR_ExitCallback();
 507:Generated_Source\PSoC5/USBFS_episr.c ****     #endif /* (USBFS_EP_6_ISR_EXIT_CALLBACK) */
 508:Generated_Source\PSoC5/USBFS_episr.c **** 
 509:Generated_Source\PSoC5/USBFS_episr.c ****     #if (CY_PSOC3 && defined(USBFS_ENABLE_MIDI_STREAMING) && \
 510:Generated_Source\PSoC5/USBFS_episr.c ****         !defined(USBFS_MAIN_SERVICE_MIDI_OUT) && USBFS_ISR_SERVICE_MIDI_OUT)
 511:Generated_Source\PSoC5/USBFS_episr.c ****         
 512:Generated_Source\PSoC5/USBFS_episr.c ****             EA = intEn; /* Restore nested interrupt configuration. */
 513:Generated_Source\PSoC5/USBFS_episr.c ****         }
 514:Generated_Source\PSoC5/USBFS_episr.c ****     #endif /* (CY_PSOC3 && USBFS_ISR_SERVICE_MIDI_OUT) */
 515:Generated_Source\PSoC5/USBFS_episr.c ****     }
 516:Generated_Source\PSoC5/USBFS_episr.c **** #endif /* (USBFS_EP6_ISR_ACTIVE) */
 517:Generated_Source\PSoC5/USBFS_episr.c **** 
 518:Generated_Source\PSoC5/USBFS_episr.c **** 
 519:Generated_Source\PSoC5/USBFS_episr.c **** #if (USBFS_EP7_ISR_ACTIVE)
 520:Generated_Source\PSoC5/USBFS_episr.c ****     /*******************************************************************************
 521:Generated_Source\PSoC5/USBFS_episr.c ****     * Function Name: USBFS_EP_7_ISR
 522:Generated_Source\PSoC5/USBFS_episr.c ****     ****************************************************************************//**
 523:Generated_Source\PSoC5/USBFS_episr.c ****     *
 524:Generated_Source\PSoC5/USBFS_episr.c ****     *  Endpoint 7 Interrupt Service Routine.
 525:Generated_Source\PSoC5/USBFS_episr.c ****     *
 526:Generated_Source\PSoC5/USBFS_episr.c ****     *
 527:Generated_Source\PSoC5/USBFS_episr.c ****     *******************************************************************************/
 528:Generated_Source\PSoC5/USBFS_episr.c ****     CY_ISR(USBFS_EP_7_ISR)
 529:Generated_Source\PSoC5/USBFS_episr.c ****     {
ARM GAS  C:\Users\CALEBC~1\AppData\Local\Temp\ccB9H8Zr.s 			page 13


 530:Generated_Source\PSoC5/USBFS_episr.c ****     #ifdef USBFS_EP_7_ISR_ENTRY_CALLBACK
 531:Generated_Source\PSoC5/USBFS_episr.c ****         USBFS_EP_7_ISR_EntryCallback();
 532:Generated_Source\PSoC5/USBFS_episr.c ****     #endif /* (USBFS_EP_7_ISR_ENTRY_CALLBACK) */
 533:Generated_Source\PSoC5/USBFS_episr.c **** 
 534:Generated_Source\PSoC5/USBFS_episr.c ****         /* `#START EP7_USER_CODE` Place your code here */
 535:Generated_Source\PSoC5/USBFS_episr.c **** 
 536:Generated_Source\PSoC5/USBFS_episr.c ****         /* `#END` */
 537:Generated_Source\PSoC5/USBFS_episr.c **** 
 538:Generated_Source\PSoC5/USBFS_episr.c ****     #if (CY_PSOC3 && defined(USBFS_ENABLE_MIDI_STREAMING) && \
 539:Generated_Source\PSoC5/USBFS_episr.c ****         !defined(USBFS_MAIN_SERVICE_MIDI_OUT) && USBFS_ISR_SERVICE_MIDI_OUT)
 540:Generated_Source\PSoC5/USBFS_episr.c ****         {
 541:Generated_Source\PSoC5/USBFS_episr.c ****             uint8 intEn = EA;
 542:Generated_Source\PSoC5/USBFS_episr.c ****             CyGlobalIntEnable;  /* Enable nested interrupts. */
 543:Generated_Source\PSoC5/USBFS_episr.c ****     #endif /* (CY_PSOC3 && USBFS_ISR_SERVICE_MIDI_OUT) */
 544:Generated_Source\PSoC5/USBFS_episr.c ****     
 545:Generated_Source\PSoC5/USBFS_episr.c ****         USBFS_ClearSieEpInterruptSource(USBFS_SIE_INT_EP7_INTR);
 546:Generated_Source\PSoC5/USBFS_episr.c ****         
 547:Generated_Source\PSoC5/USBFS_episr.c ****         /* Notifies user that transfer IN or OUT transfer is completed.
 548:Generated_Source\PSoC5/USBFS_episr.c ****         * IN endpoint: endpoint buffer can be reloaded, Host is read data.
 549:Generated_Source\PSoC5/USBFS_episr.c ****         * OUT endpoint: data is ready to read from endpoint buffer. 
 550:Generated_Source\PSoC5/USBFS_episr.c ****         */
 551:Generated_Source\PSoC5/USBFS_episr.c ****     #if (CY_PSOC4 && USBFS_EP_MANAGEMENT_DMA_AUTO)
 552:Generated_Source\PSoC5/USBFS_episr.c ****         if (0u != (USBFS_EP[USBFS_EP7].addr & USBFS_DIR_IN))
 553:Generated_Source\PSoC5/USBFS_episr.c ****     #endif /* (USBFS_EP_MANAGEMENT_DMA_AUTO) */
 554:Generated_Source\PSoC5/USBFS_episr.c ****         {           
 555:Generated_Source\PSoC5/USBFS_episr.c ****             /* Read CR0 register to clear SIE lock. */
 556:Generated_Source\PSoC5/USBFS_episr.c ****             (void) USBFS_SIE_EP_BASE.sieEp[USBFS_EP7].epCr0;
 557:Generated_Source\PSoC5/USBFS_episr.c **** 
 558:Generated_Source\PSoC5/USBFS_episr.c ****             /* Toggle all endpoint types except ISOC. */
 559:Generated_Source\PSoC5/USBFS_episr.c ****             if (USBFS_GET_EP_TYPE(USBFS_EP7) != USBFS_EP_TYPE_ISOC)
 560:Generated_Source\PSoC5/USBFS_episr.c ****             {
 561:Generated_Source\PSoC5/USBFS_episr.c ****                 USBFS_EP[USBFS_EP7].epToggle ^= USBFS_EPX_CNT_DATA_TOGGLE;
 562:Generated_Source\PSoC5/USBFS_episr.c ****             }
 563:Generated_Source\PSoC5/USBFS_episr.c ****             
 564:Generated_Source\PSoC5/USBFS_episr.c ****             /* EP_MANAGEMENT_DMA_AUTO (Ticket ID# 214187): For OUT endpoint this event is used to n
 565:Generated_Source\PSoC5/USBFS_episr.c ****             * user that DMA has completed copying data from OUT endpoint which is not completely tr
 566:Generated_Source\PSoC5/USBFS_episr.c ****             * Because last chunk of data is being copied.
 567:Generated_Source\PSoC5/USBFS_episr.c ****             * For CY_PSOC 3/5LP: it is acceptable as DMA is really fast.
 568:Generated_Source\PSoC5/USBFS_episr.c ****             * For CY_PSOC4: this event is set in Arbiter interrupt (source is DMA_TERMIN).
 569:Generated_Source\PSoC5/USBFS_episr.c ****             */
 570:Generated_Source\PSoC5/USBFS_episr.c ****             USBFS_EP[USBFS_EP7].apiEpState = USBFS_EVENT_PENDING;
 571:Generated_Source\PSoC5/USBFS_episr.c ****         }
 572:Generated_Source\PSoC5/USBFS_episr.c **** 
 573:Generated_Source\PSoC5/USBFS_episr.c **** 
 574:Generated_Source\PSoC5/USBFS_episr.c ****     #if (!(CY_PSOC4 && USBFS_EP_MANAGEMENT_DMA_AUTO))
 575:Generated_Source\PSoC5/USBFS_episr.c ****         #if (defined(USBFS_ENABLE_MIDI_STREAMING) && \
 576:Generated_Source\PSoC5/USBFS_episr.c ****             !defined(USBFS_MAIN_SERVICE_MIDI_OUT) && USBFS_ISR_SERVICE_MIDI_OUT)
 577:Generated_Source\PSoC5/USBFS_episr.c ****             if(USBFS_midi_out_ep == USBFS_EP7)
 578:Generated_Source\PSoC5/USBFS_episr.c ****             {
 579:Generated_Source\PSoC5/USBFS_episr.c ****                 USBFS_MIDI_OUT_Service();
 580:Generated_Source\PSoC5/USBFS_episr.c ****             }
 581:Generated_Source\PSoC5/USBFS_episr.c ****         #endif /* (USBFS_ISR_SERVICE_MIDI_OUT) */
 582:Generated_Source\PSoC5/USBFS_episr.c ****     #endif /* (!(CY_PSOC4 && USBFS_EP_MANAGEMENT_DMA_AUTO)) */
 583:Generated_Source\PSoC5/USBFS_episr.c **** 
 584:Generated_Source\PSoC5/USBFS_episr.c ****         /* `#START EP7_END_USER_CODE` Place your code here */
 585:Generated_Source\PSoC5/USBFS_episr.c **** 
 586:Generated_Source\PSoC5/USBFS_episr.c ****         /* `#END` */
ARM GAS  C:\Users\CALEBC~1\AppData\Local\Temp\ccB9H8Zr.s 			page 14


 587:Generated_Source\PSoC5/USBFS_episr.c **** 
 588:Generated_Source\PSoC5/USBFS_episr.c ****     #ifdef USBFS_EP_7_ISR_EXIT_CALLBACK
 589:Generated_Source\PSoC5/USBFS_episr.c ****         USBFS_EP_7_ISR_ExitCallback();
 590:Generated_Source\PSoC5/USBFS_episr.c ****     #endif /* (USBFS_EP_7_ISR_EXIT_CALLBACK) */
 591:Generated_Source\PSoC5/USBFS_episr.c **** 
 592:Generated_Source\PSoC5/USBFS_episr.c ****     #if (CY_PSOC3 && defined(USBFS_ENABLE_MIDI_STREAMING) && \
 593:Generated_Source\PSoC5/USBFS_episr.c ****         !defined(USBFS_MAIN_SERVICE_MIDI_OUT) && USBFS_ISR_SERVICE_MIDI_OUT)
 594:Generated_Source\PSoC5/USBFS_episr.c ****         
 595:Generated_Source\PSoC5/USBFS_episr.c ****             EA = intEn; /* Restore nested interrupt configuration. */
 596:Generated_Source\PSoC5/USBFS_episr.c ****         }
 597:Generated_Source\PSoC5/USBFS_episr.c ****     #endif /* (CY_PSOC3 && USBFS_ISR_SERVICE_MIDI_OUT) */
 598:Generated_Source\PSoC5/USBFS_episr.c ****     }
 599:Generated_Source\PSoC5/USBFS_episr.c **** #endif /* (USBFS_EP7_ISR_ACTIVE) */
 600:Generated_Source\PSoC5/USBFS_episr.c **** 
 601:Generated_Source\PSoC5/USBFS_episr.c **** 
 602:Generated_Source\PSoC5/USBFS_episr.c **** #if (USBFS_EP8_ISR_ACTIVE)
 603:Generated_Source\PSoC5/USBFS_episr.c ****     /*******************************************************************************
 604:Generated_Source\PSoC5/USBFS_episr.c ****     * Function Name: USBFS_EP_8_ISR
 605:Generated_Source\PSoC5/USBFS_episr.c ****     ****************************************************************************//**
 606:Generated_Source\PSoC5/USBFS_episr.c ****     *
 607:Generated_Source\PSoC5/USBFS_episr.c ****     *  Endpoint 8 Interrupt Service Routine
 608:Generated_Source\PSoC5/USBFS_episr.c ****     *
 609:Generated_Source\PSoC5/USBFS_episr.c ****     *
 610:Generated_Source\PSoC5/USBFS_episr.c ****     *******************************************************************************/
 611:Generated_Source\PSoC5/USBFS_episr.c ****     CY_ISR(USBFS_EP_8_ISR)
 612:Generated_Source\PSoC5/USBFS_episr.c ****     {
 613:Generated_Source\PSoC5/USBFS_episr.c ****     #ifdef USBFS_EP_8_ISR_ENTRY_CALLBACK
 614:Generated_Source\PSoC5/USBFS_episr.c ****         USBFS_EP_8_ISR_EntryCallback();
 615:Generated_Source\PSoC5/USBFS_episr.c ****     #endif /* (USBFS_EP_8_ISR_ENTRY_CALLBACK) */
 616:Generated_Source\PSoC5/USBFS_episr.c **** 
 617:Generated_Source\PSoC5/USBFS_episr.c ****         /* `#START EP8_USER_CODE` Place your code here */
 618:Generated_Source\PSoC5/USBFS_episr.c **** 
 619:Generated_Source\PSoC5/USBFS_episr.c ****         /* `#END` */
 620:Generated_Source\PSoC5/USBFS_episr.c **** 
 621:Generated_Source\PSoC5/USBFS_episr.c ****     #if (CY_PSOC3 && defined(USBFS_ENABLE_MIDI_STREAMING) && \
 622:Generated_Source\PSoC5/USBFS_episr.c ****         !defined(USBFS_MAIN_SERVICE_MIDI_OUT) && USBFS_ISR_SERVICE_MIDI_OUT)
 623:Generated_Source\PSoC5/USBFS_episr.c ****         {
 624:Generated_Source\PSoC5/USBFS_episr.c ****             uint8 intEn = EA;
 625:Generated_Source\PSoC5/USBFS_episr.c ****             CyGlobalIntEnable;  /* Enable nested interrupts. */
 626:Generated_Source\PSoC5/USBFS_episr.c ****     #endif /* (CY_PSOC3 && USBFS_ISR_SERVICE_MIDI_OUT) */
 627:Generated_Source\PSoC5/USBFS_episr.c **** 
 628:Generated_Source\PSoC5/USBFS_episr.c ****         USBFS_ClearSieEpInterruptSource(USBFS_SIE_INT_EP8_INTR);
 629:Generated_Source\PSoC5/USBFS_episr.c ****         
 630:Generated_Source\PSoC5/USBFS_episr.c ****         /* Notifies user that transfer IN or OUT transfer is completed.
 631:Generated_Source\PSoC5/USBFS_episr.c ****         * IN endpoint: endpoint buffer can be reloaded, Host is read data.
 632:Generated_Source\PSoC5/USBFS_episr.c ****         * OUT endpoint: data is ready to read from endpoint buffer. 
 633:Generated_Source\PSoC5/USBFS_episr.c ****         */
 634:Generated_Source\PSoC5/USBFS_episr.c ****     #if (CY_PSOC4 && USBFS_EP_MANAGEMENT_DMA_AUTO)
 635:Generated_Source\PSoC5/USBFS_episr.c ****         if (0u != (USBFS_EP[USBFS_EP8].addr & USBFS_DIR_IN))
 636:Generated_Source\PSoC5/USBFS_episr.c ****     #endif /* (USBFS_EP_MANAGEMENT_DMA_AUTO) */
 637:Generated_Source\PSoC5/USBFS_episr.c ****         {
 638:Generated_Source\PSoC5/USBFS_episr.c ****             /* Read CR0 register to clear SIE lock. */
 639:Generated_Source\PSoC5/USBFS_episr.c ****             (void) USBFS_SIE_EP_BASE.sieEp[USBFS_EP8].epCr0;
 640:Generated_Source\PSoC5/USBFS_episr.c **** 
 641:Generated_Source\PSoC5/USBFS_episr.c ****             /* Toggle all endpoint types except ISOC. */
 642:Generated_Source\PSoC5/USBFS_episr.c ****             if (USBFS_GET_EP_TYPE(USBFS_EP8) != USBFS_EP_TYPE_ISOC)
 643:Generated_Source\PSoC5/USBFS_episr.c ****             {
ARM GAS  C:\Users\CALEBC~1\AppData\Local\Temp\ccB9H8Zr.s 			page 15


 644:Generated_Source\PSoC5/USBFS_episr.c ****                 USBFS_EP[USBFS_EP8].epToggle ^= USBFS_EPX_CNT_DATA_TOGGLE;
 645:Generated_Source\PSoC5/USBFS_episr.c ****             }
 646:Generated_Source\PSoC5/USBFS_episr.c **** 
 647:Generated_Source\PSoC5/USBFS_episr.c ****             /* EP_MANAGEMENT_DMA_AUTO (Ticket ID# 214187): For OUT endpoint this event is used to n
 648:Generated_Source\PSoC5/USBFS_episr.c ****             * user that DMA has completed copying data from OUT endpoint which is not completely tr
 649:Generated_Source\PSoC5/USBFS_episr.c ****             * Because last chunk of data is being copied.
 650:Generated_Source\PSoC5/USBFS_episr.c ****             * For CY_PSOC 3/5LP: it is acceptable as DMA is really fast.
 651:Generated_Source\PSoC5/USBFS_episr.c ****             * For CY_PSOC4: this event is set in Arbiter interrupt (source is DMA_TERMIN).
 652:Generated_Source\PSoC5/USBFS_episr.c ****             */
 653:Generated_Source\PSoC5/USBFS_episr.c ****             USBFS_EP[USBFS_EP8].apiEpState = USBFS_EVENT_PENDING;
 654:Generated_Source\PSoC5/USBFS_episr.c ****         }
 655:Generated_Source\PSoC5/USBFS_episr.c **** 
 656:Generated_Source\PSoC5/USBFS_episr.c ****     #if (!(CY_PSOC4 && USBFS_EP_MANAGEMENT_DMA_AUTO))
 657:Generated_Source\PSoC5/USBFS_episr.c ****         #if (defined(USBFS_ENABLE_MIDI_STREAMING) && \
 658:Generated_Source\PSoC5/USBFS_episr.c ****             !defined(USBFS_MAIN_SERVICE_MIDI_OUT) && USBFS_ISR_SERVICE_MIDI_OUT)
 659:Generated_Source\PSoC5/USBFS_episr.c ****             if (USBFS_midi_out_ep == USBFS_EP8)
 660:Generated_Source\PSoC5/USBFS_episr.c ****             {
 661:Generated_Source\PSoC5/USBFS_episr.c ****                 USBFS_MIDI_OUT_Service();
 662:Generated_Source\PSoC5/USBFS_episr.c ****             }
 663:Generated_Source\PSoC5/USBFS_episr.c ****         #endif /* (USBFS_ISR_SERVICE_MIDI_OUT) */
 664:Generated_Source\PSoC5/USBFS_episr.c ****     #endif /* (!(CY_PSOC4 && USBFS_EP_MANAGEMENT_DMA_AUTO)) */
 665:Generated_Source\PSoC5/USBFS_episr.c **** 
 666:Generated_Source\PSoC5/USBFS_episr.c ****         /* `#START EP8_END_USER_CODE` Place your code here */
 667:Generated_Source\PSoC5/USBFS_episr.c **** 
 668:Generated_Source\PSoC5/USBFS_episr.c ****         /* `#END` */
 669:Generated_Source\PSoC5/USBFS_episr.c **** 
 670:Generated_Source\PSoC5/USBFS_episr.c ****     #ifdef USBFS_EP_8_ISR_EXIT_CALLBACK
 671:Generated_Source\PSoC5/USBFS_episr.c ****         USBFS_EP_8_ISR_ExitCallback();
 672:Generated_Source\PSoC5/USBFS_episr.c ****     #endif /* (USBFS_EP_8_ISR_EXIT_CALLBACK) */
 673:Generated_Source\PSoC5/USBFS_episr.c **** 
 674:Generated_Source\PSoC5/USBFS_episr.c ****     #if (CY_PSOC3 && defined(USBFS_ENABLE_MIDI_STREAMING) && \
 675:Generated_Source\PSoC5/USBFS_episr.c ****         !defined(USBFS_MAIN_SERVICE_MIDI_OUT) && USBFS_ISR_SERVICE_MIDI_OUT)
 676:Generated_Source\PSoC5/USBFS_episr.c ****         
 677:Generated_Source\PSoC5/USBFS_episr.c ****             EA = intEn; /* Restore nested interrupt configuration. */
 678:Generated_Source\PSoC5/USBFS_episr.c ****         }
 679:Generated_Source\PSoC5/USBFS_episr.c ****     #endif /* (CY_PSOC3 && USBFS_ISR_SERVICE_MIDI_OUT) */
 680:Generated_Source\PSoC5/USBFS_episr.c ****     }
 681:Generated_Source\PSoC5/USBFS_episr.c **** #endif /* (USBFS_EP8_ISR_ACTIVE) */
 682:Generated_Source\PSoC5/USBFS_episr.c **** 
 683:Generated_Source\PSoC5/USBFS_episr.c **** 
 684:Generated_Source\PSoC5/USBFS_episr.c **** #if (USBFS_SOF_ISR_ACTIVE)
 685:Generated_Source\PSoC5/USBFS_episr.c ****     /*******************************************************************************
 686:Generated_Source\PSoC5/USBFS_episr.c ****     * Function Name: USBFS_SOF_ISR
 687:Generated_Source\PSoC5/USBFS_episr.c ****     ****************************************************************************//**
 688:Generated_Source\PSoC5/USBFS_episr.c ****     *
 689:Generated_Source\PSoC5/USBFS_episr.c ****     *  Start of Frame Interrupt Service Routine.
 690:Generated_Source\PSoC5/USBFS_episr.c ****     *
 691:Generated_Source\PSoC5/USBFS_episr.c ****     *
 692:Generated_Source\PSoC5/USBFS_episr.c ****     *******************************************************************************/
 693:Generated_Source\PSoC5/USBFS_episr.c ****     CY_ISR(USBFS_SOF_ISR)
 694:Generated_Source\PSoC5/USBFS_episr.c ****     {
 695:Generated_Source\PSoC5/USBFS_episr.c ****     #ifdef USBFS_SOF_ISR_ENTRY_CALLBACK
 696:Generated_Source\PSoC5/USBFS_episr.c ****         USBFS_SOF_ISR_EntryCallback();
 697:Generated_Source\PSoC5/USBFS_episr.c ****     #endif /* (USBFS_SOF_ISR_ENTRY_CALLBACK) */
 698:Generated_Source\PSoC5/USBFS_episr.c **** 
 699:Generated_Source\PSoC5/USBFS_episr.c ****         /* `#START SOF_USER_CODE` Place your code here */
 700:Generated_Source\PSoC5/USBFS_episr.c **** 
ARM GAS  C:\Users\CALEBC~1\AppData\Local\Temp\ccB9H8Zr.s 			page 16


 701:Generated_Source\PSoC5/USBFS_episr.c ****         /* `#END` */
 702:Generated_Source\PSoC5/USBFS_episr.c **** 
 703:Generated_Source\PSoC5/USBFS_episr.c ****         USBFS_ClearSieInterruptSource(USBFS_INTR_SIE_SOF_INTR);
 704:Generated_Source\PSoC5/USBFS_episr.c **** 
 705:Generated_Source\PSoC5/USBFS_episr.c ****     #ifdef USBFS_SOF_ISR_EXIT_CALLBACK
 706:Generated_Source\PSoC5/USBFS_episr.c ****         USBFS_SOF_ISR_ExitCallback();
 707:Generated_Source\PSoC5/USBFS_episr.c ****     #endif /* (USBFS_SOF_ISR_EXIT_CALLBACK) */
 708:Generated_Source\PSoC5/USBFS_episr.c ****     }
 709:Generated_Source\PSoC5/USBFS_episr.c **** #endif /* (USBFS_SOF_ISR_ACTIVE) */
 710:Generated_Source\PSoC5/USBFS_episr.c **** 
 711:Generated_Source\PSoC5/USBFS_episr.c **** 
 712:Generated_Source\PSoC5/USBFS_episr.c **** #if (USBFS_BUS_RESET_ISR_ACTIVE)
 713:Generated_Source\PSoC5/USBFS_episr.c **** /*******************************************************************************
 714:Generated_Source\PSoC5/USBFS_episr.c **** * Function Name: USBFS_BUS_RESET_ISR
 715:Generated_Source\PSoC5/USBFS_episr.c **** ****************************************************************************//**
 716:Generated_Source\PSoC5/USBFS_episr.c **** *
 717:Generated_Source\PSoC5/USBFS_episr.c **** *  USB Bus Reset Interrupt Service Routine.  Calls _Start with the same
 718:Generated_Source\PSoC5/USBFS_episr.c **** *  parameters as the last USER call to _Start
 719:Generated_Source\PSoC5/USBFS_episr.c **** *
 720:Generated_Source\PSoC5/USBFS_episr.c **** *
 721:Generated_Source\PSoC5/USBFS_episr.c **** *******************************************************************************/
 722:Generated_Source\PSoC5/USBFS_episr.c **** CY_ISR(USBFS_BUS_RESET_ISR)
 723:Generated_Source\PSoC5/USBFS_episr.c **** {
 156              		.loc 1 723 0
 157              		.cfi_startproc
 158              		@ args = 0, pretend = 0, frame = 0
 159              		@ frame_needed = 1, uses_anonymous_args = 0
 160 0000 80B5     		push	{r7, lr}
 161              		.cfi_def_cfa_offset 8
 162              		.cfi_offset 7, -8
 163              		.cfi_offset 14, -4
 164 0002 00AF     		add	r7, sp, #0
 165              		.cfi_def_cfa_register 7
 724:Generated_Source\PSoC5/USBFS_episr.c **** #ifdef USBFS_BUS_RESET_ISR_ENTRY_CALLBACK
 725:Generated_Source\PSoC5/USBFS_episr.c ****     USBFS_BUS_RESET_ISR_EntryCallback();
 726:Generated_Source\PSoC5/USBFS_episr.c **** #endif /* (USBFS_BUS_RESET_ISR_ENTRY_CALLBACK) */
 727:Generated_Source\PSoC5/USBFS_episr.c **** 
 728:Generated_Source\PSoC5/USBFS_episr.c ****     /* `#START BUS_RESET_USER_CODE` Place your code here */
 729:Generated_Source\PSoC5/USBFS_episr.c **** 
 730:Generated_Source\PSoC5/USBFS_episr.c ****     /* `#END` */
 731:Generated_Source\PSoC5/USBFS_episr.c **** 
 732:Generated_Source\PSoC5/USBFS_episr.c ****     USBFS_ClearSieInterruptSource(USBFS_INTR_SIE_BUS_RESET_INTR);
 733:Generated_Source\PSoC5/USBFS_episr.c **** 
 734:Generated_Source\PSoC5/USBFS_episr.c ****     USBFS_ReInitComponent();
 166              		.loc 1 734 0
 167 0004 FFF7FEFF 		bl	USBFS_ReInitComponent
 735:Generated_Source\PSoC5/USBFS_episr.c **** 
 736:Generated_Source\PSoC5/USBFS_episr.c **** #ifdef USBFS_BUS_RESET_ISR_EXIT_CALLBACK
 737:Generated_Source\PSoC5/USBFS_episr.c ****     USBFS_BUS_RESET_ISR_ExitCallback();
 738:Generated_Source\PSoC5/USBFS_episr.c **** #endif /* (USBFS_BUS_RESET_ISR_EXIT_CALLBACK) */
 739:Generated_Source\PSoC5/USBFS_episr.c **** }
 168              		.loc 1 739 0
 169 0008 00BF     		nop
 170 000a 80BD     		pop	{r7, pc}
 171              		.cfi_endproc
 172              	.LFE2:
 173              		.size	USBFS_BUS_RESET_ISR, .-USBFS_BUS_RESET_ISR
ARM GAS  C:\Users\CALEBC~1\AppData\Local\Temp\ccB9H8Zr.s 			page 17


 174              		.section	.text.USBFS_ARB_ISR,"ax",%progbits
 175              		.align	2
 176              		.global	USBFS_ARB_ISR
 177              		.thumb
 178              		.thumb_func
 179              		.type	USBFS_ARB_ISR, %function
 180              	USBFS_ARB_ISR:
 181              	.LFB3:
 740:Generated_Source\PSoC5/USBFS_episr.c **** #endif /* (USBFS_BUS_RESET_ISR_ACTIVE) */
 741:Generated_Source\PSoC5/USBFS_episr.c **** 
 742:Generated_Source\PSoC5/USBFS_episr.c **** 
 743:Generated_Source\PSoC5/USBFS_episr.c **** #if (USBFS_LPM_ACTIVE)
 744:Generated_Source\PSoC5/USBFS_episr.c **** /***************************************************************************
 745:Generated_Source\PSoC5/USBFS_episr.c **** * Function Name: USBFS_INTR_LPM_ISR
 746:Generated_Source\PSoC5/USBFS_episr.c **** ************************************************************************//**
 747:Generated_Source\PSoC5/USBFS_episr.c **** *
 748:Generated_Source\PSoC5/USBFS_episr.c **** *   Interrupt Service Routine for LPM of the interrupt sources.
 749:Generated_Source\PSoC5/USBFS_episr.c **** *
 750:Generated_Source\PSoC5/USBFS_episr.c **** *
 751:Generated_Source\PSoC5/USBFS_episr.c **** ***************************************************************************/
 752:Generated_Source\PSoC5/USBFS_episr.c **** CY_ISR(USBFS_LPM_ISR)
 753:Generated_Source\PSoC5/USBFS_episr.c **** {
 754:Generated_Source\PSoC5/USBFS_episr.c **** #ifdef USBFS_LPM_ISR_ENTRY_CALLBACK
 755:Generated_Source\PSoC5/USBFS_episr.c ****     USBFS_LPM_ISR_EntryCallback();
 756:Generated_Source\PSoC5/USBFS_episr.c **** #endif /* (USBFS_LPM_ISR_ENTRY_CALLBACK) */
 757:Generated_Source\PSoC5/USBFS_episr.c **** 
 758:Generated_Source\PSoC5/USBFS_episr.c ****     /* `#START LPM_BEGIN_USER_CODE` Place your code here */
 759:Generated_Source\PSoC5/USBFS_episr.c **** 
 760:Generated_Source\PSoC5/USBFS_episr.c ****     /* `#END` */
 761:Generated_Source\PSoC5/USBFS_episr.c **** 
 762:Generated_Source\PSoC5/USBFS_episr.c ****     USBFS_ClearSieInterruptSource(USBFS_INTR_SIE_LPM_INTR);
 763:Generated_Source\PSoC5/USBFS_episr.c **** 
 764:Generated_Source\PSoC5/USBFS_episr.c ****     /* `#START LPM_END_USER_CODE` Place your code here */
 765:Generated_Source\PSoC5/USBFS_episr.c **** 
 766:Generated_Source\PSoC5/USBFS_episr.c ****     /* `#END` */
 767:Generated_Source\PSoC5/USBFS_episr.c **** 
 768:Generated_Source\PSoC5/USBFS_episr.c **** #ifdef USBFS_LPM_ISR_EXIT_CALLBACK
 769:Generated_Source\PSoC5/USBFS_episr.c ****     USBFS_LPM_ISR_ExitCallback();
 770:Generated_Source\PSoC5/USBFS_episr.c **** #endif /* (USBFS_LPM_ISR_EXIT_CALLBACK) */
 771:Generated_Source\PSoC5/USBFS_episr.c **** }
 772:Generated_Source\PSoC5/USBFS_episr.c **** #endif /* (USBFS_LPM_ACTIVE) */
 773:Generated_Source\PSoC5/USBFS_episr.c **** 
 774:Generated_Source\PSoC5/USBFS_episr.c **** 
 775:Generated_Source\PSoC5/USBFS_episr.c **** #if (USBFS_EP_MANAGEMENT_DMA && USBFS_ARB_ISR_ACTIVE)
 776:Generated_Source\PSoC5/USBFS_episr.c ****     /***************************************************************************
 777:Generated_Source\PSoC5/USBFS_episr.c ****     * Function Name: USBFS_ARB_ISR
 778:Generated_Source\PSoC5/USBFS_episr.c ****     ************************************************************************//**
 779:Generated_Source\PSoC5/USBFS_episr.c ****     *
 780:Generated_Source\PSoC5/USBFS_episr.c ****     *  Arbiter Interrupt Service Routine.
 781:Generated_Source\PSoC5/USBFS_episr.c ****     *
 782:Generated_Source\PSoC5/USBFS_episr.c ****     *
 783:Generated_Source\PSoC5/USBFS_episr.c ****     ***************************************************************************/
 784:Generated_Source\PSoC5/USBFS_episr.c ****     CY_ISR(USBFS_ARB_ISR)
 785:Generated_Source\PSoC5/USBFS_episr.c ****     {
 182              		.loc 1 785 0
 183              		.cfi_startproc
 184              		@ args = 0, pretend = 0, frame = 8
ARM GAS  C:\Users\CALEBC~1\AppData\Local\Temp\ccB9H8Zr.s 			page 18


 185              		@ frame_needed = 1, uses_anonymous_args = 0
 186              		@ link register save eliminated.
 187 0000 90B4     		push	{r4, r7}
 188              		.cfi_def_cfa_offset 8
 189              		.cfi_offset 4, -8
 190              		.cfi_offset 7, -4
 191 0002 82B0     		sub	sp, sp, #8
 192              		.cfi_def_cfa_offset 16
 193 0004 00AF     		add	r7, sp, #0
 194              		.cfi_def_cfa_register 7
 786:Generated_Source\PSoC5/USBFS_episr.c ****         uint8 arbIntrStatus;
 787:Generated_Source\PSoC5/USBFS_episr.c ****         uint8 epStatus;
 788:Generated_Source\PSoC5/USBFS_episr.c ****         uint8 ep = USBFS_EP1;
 195              		.loc 1 788 0
 196 0006 0123     		movs	r3, #1
 197 0008 BB71     		strb	r3, [r7, #6]
 789:Generated_Source\PSoC5/USBFS_episr.c **** 
 790:Generated_Source\PSoC5/USBFS_episr.c ****     #ifdef USBFS_ARB_ISR_ENTRY_CALLBACK
 791:Generated_Source\PSoC5/USBFS_episr.c ****         USBFS_ARB_ISR_EntryCallback();
 792:Generated_Source\PSoC5/USBFS_episr.c ****     #endif /* (USBFS_ARB_ISR_ENTRY_CALLBACK) */
 793:Generated_Source\PSoC5/USBFS_episr.c **** 
 794:Generated_Source\PSoC5/USBFS_episr.c ****         /* `#START ARB_BEGIN_USER_CODE` Place your code here */
 795:Generated_Source\PSoC5/USBFS_episr.c **** 
 796:Generated_Source\PSoC5/USBFS_episr.c ****         /* `#END` */
 797:Generated_Source\PSoC5/USBFS_episr.c **** 
 798:Generated_Source\PSoC5/USBFS_episr.c ****         /* Get pending ARB interrupt sources. */
 799:Generated_Source\PSoC5/USBFS_episr.c ****         arbIntrStatus = USBFS_ARB_INT_SR_REG;
 198              		.loc 1 799 0
 199 000a 3D4B     		ldr	r3, .L16
 200 000c 1B78     		ldrb	r3, [r3]
 201 000e FB71     		strb	r3, [r7, #7]
 800:Generated_Source\PSoC5/USBFS_episr.c **** 
 801:Generated_Source\PSoC5/USBFS_episr.c ****         while (0u != arbIntrStatus)
 202              		.loc 1 801 0
 203 0010 6DE0     		b	.L11
 204              	.L15:
 802:Generated_Source\PSoC5/USBFS_episr.c ****         {
 803:Generated_Source\PSoC5/USBFS_episr.c ****             /* Check which EP is interrupt source. */
 804:Generated_Source\PSoC5/USBFS_episr.c ****             if (0u != (arbIntrStatus & 0x01u))
 205              		.loc 1 804 0
 206 0012 FB79     		ldrb	r3, [r7, #7]	@ zero_extendqisi2
 207 0014 03F00103 		and	r3, r3, #1
 208 0018 002B     		cmp	r3, #0
 209 001a 62D0     		beq	.L12
 805:Generated_Source\PSoC5/USBFS_episr.c ****             {
 806:Generated_Source\PSoC5/USBFS_episr.c ****                 /* Get endpoint enable interrupt sources. */
 807:Generated_Source\PSoC5/USBFS_episr.c ****                 epStatus = (USBFS_ARB_EP_BASE.arbEp[ep].epSr & USBFS_ARB_EP_BASE.arbEp[ep].epIntEn)
 210              		.loc 1 807 0
 211 001c 394A     		ldr	r2, .L16+4
 212 001e BB79     		ldrb	r3, [r7, #6]	@ zero_extendqisi2
 213 0020 1B01     		lsls	r3, r3, #4
 214 0022 1344     		add	r3, r3, r2
 215 0024 0233     		adds	r3, r3, #2
 216 0026 1B78     		ldrb	r3, [r3]
 217 0028 DAB2     		uxtb	r2, r3
 218 002a 3649     		ldr	r1, .L16+4
 219 002c BB79     		ldrb	r3, [r7, #6]	@ zero_extendqisi2
ARM GAS  C:\Users\CALEBC~1\AppData\Local\Temp\ccB9H8Zr.s 			page 19


 220 002e 1B01     		lsls	r3, r3, #4
 221 0030 0B44     		add	r3, r3, r1
 222 0032 0133     		adds	r3, r3, #1
 223 0034 1B78     		ldrb	r3, [r3]
 224 0036 DBB2     		uxtb	r3, r3
 225 0038 1340     		ands	r3, r3, r2
 226 003a 7B71     		strb	r3, [r7, #5]
 808:Generated_Source\PSoC5/USBFS_episr.c **** 
 809:Generated_Source\PSoC5/USBFS_episr.c ****                 /* Handle IN endpoint buffer full event: happens only once when endpoint buffer is 
 810:Generated_Source\PSoC5/USBFS_episr.c ****                 if (0u != (epStatus & USBFS_ARB_EPX_INT_IN_BUF_FULL))
 227              		.loc 1 810 0
 228 003c 7B79     		ldrb	r3, [r7, #5]	@ zero_extendqisi2
 229 003e 03F00103 		and	r3, r3, #1
 230 0042 002B     		cmp	r3, #0
 231 0044 2AD0     		beq	.L13
 811:Generated_Source\PSoC5/USBFS_episr.c ****                 {
 812:Generated_Source\PSoC5/USBFS_episr.c ****                     if (0u != (USBFS_EP[ep].addr & USBFS_DIR_IN))
 232              		.loc 1 812 0
 233 0046 BA79     		ldrb	r2, [r7, #6]	@ zero_extendqisi2
 234 0048 2F49     		ldr	r1, .L16+8
 235 004a 1346     		mov	r3, r2
 236 004c 5B00     		lsls	r3, r3, #1
 237 004e 1344     		add	r3, r3, r2
 238 0050 9B00     		lsls	r3, r3, #2
 239 0052 0B44     		add	r3, r3, r1
 240 0054 0433     		adds	r3, r3, #4
 241 0056 1B78     		ldrb	r3, [r3]
 242 0058 DBB2     		uxtb	r3, r3
 243 005a 5BB2     		sxtb	r3, r3
 244 005c 002B     		cmp	r3, #0
 245 005e 1DDA     		bge	.L13
 813:Generated_Source\PSoC5/USBFS_episr.c ****                     {
 814:Generated_Source\PSoC5/USBFS_episr.c ****                         /* Clear data ready status. */
 815:Generated_Source\PSoC5/USBFS_episr.c ****                         USBFS_ARB_EP_BASE.arbEp[ep].epCfg &= (uint8) ~USBFS_ARB_EPX_CFG_IN_DATA_RDY
 246              		.loc 1 815 0
 247 0060 2849     		ldr	r1, .L16+4
 248 0062 BB79     		ldrb	r3, [r7, #6]	@ zero_extendqisi2
 249 0064 2748     		ldr	r0, .L16+4
 250 0066 BA79     		ldrb	r2, [r7, #6]	@ zero_extendqisi2
 251 0068 1201     		lsls	r2, r2, #4
 252 006a 0244     		add	r2, r2, r0
 253 006c 1278     		ldrb	r2, [r2]
 254 006e D2B2     		uxtb	r2, r2
 255 0070 22F00102 		bic	r2, r2, #1
 256 0074 D2B2     		uxtb	r2, r2
 257 0076 1B01     		lsls	r3, r3, #4
 258 0078 0B44     		add	r3, r3, r1
 259 007a 1A70     		strb	r2, [r3]
 816:Generated_Source\PSoC5/USBFS_episr.c **** 
 817:Generated_Source\PSoC5/USBFS_episr.c ****                     #if (CY_PSOC3 || CY_PSOC5LP)
 818:Generated_Source\PSoC5/USBFS_episr.c ****                         #if (USBFS_EP_MANAGEMENT_DMA_AUTO && (USBFS_EP_DMA_AUTO_OPT == 0u))
 819:Generated_Source\PSoC5/USBFS_episr.c ****                             /* Set up common area DMA with rest of data. */
 820:Generated_Source\PSoC5/USBFS_episr.c ****                             if(USBFS_inLength[ep] > USBFS_DMA_BYTES_PER_BURST)
 821:Generated_Source\PSoC5/USBFS_episr.c ****                             {
 822:Generated_Source\PSoC5/USBFS_episr.c ****                                 USBFS_LoadNextInEP(ep, 0u);
 823:Generated_Source\PSoC5/USBFS_episr.c ****                             }
 824:Generated_Source\PSoC5/USBFS_episr.c ****                             else
ARM GAS  C:\Users\CALEBC~1\AppData\Local\Temp\ccB9H8Zr.s 			page 20


 825:Generated_Source\PSoC5/USBFS_episr.c ****                             {
 826:Generated_Source\PSoC5/USBFS_episr.c ****                                 USBFS_inBufFull[ep] = 1u;
 827:Generated_Source\PSoC5/USBFS_episr.c ****                             }
 828:Generated_Source\PSoC5/USBFS_episr.c ****                         #endif /* (USBFS_EP_MANAGEMENT_DMA_AUTO && (USBFS_EP_DMA_AUTO_OPT == 0u)) *
 829:Generated_Source\PSoC5/USBFS_episr.c ****                     #endif /* (CY_PSOC3 || CY_PSOC5LP) */
 830:Generated_Source\PSoC5/USBFS_episr.c **** 
 831:Generated_Source\PSoC5/USBFS_episr.c ****                         /* Arm IN endpoint. */
 832:Generated_Source\PSoC5/USBFS_episr.c ****                         USBFS_SIE_EP_BASE.sieEp[ep].epCr0 = USBFS_EP[ep].epMode;
 260              		.loc 1 832 0
 261 007c 2348     		ldr	r0, .L16+12
 262 007e B979     		ldrb	r1, [r7, #6]	@ zero_extendqisi2
 263 0080 BA79     		ldrb	r2, [r7, #6]	@ zero_extendqisi2
 264 0082 214C     		ldr	r4, .L16+8
 265 0084 1346     		mov	r3, r2
 266 0086 5B00     		lsls	r3, r3, #1
 267 0088 1344     		add	r3, r3, r2
 268 008a 9B00     		lsls	r3, r3, #2
 269 008c 2344     		add	r3, r3, r4
 270 008e 0533     		adds	r3, r3, #5
 271 0090 1B78     		ldrb	r3, [r3]
 272 0092 DAB2     		uxtb	r2, r3
 273 0094 0B01     		lsls	r3, r1, #4
 274 0096 0344     		add	r3, r3, r0
 275 0098 0233     		adds	r3, r3, #2
 276 009a 1A70     		strb	r2, [r3]
 277              	.L13:
 833:Generated_Source\PSoC5/USBFS_episr.c **** 
 834:Generated_Source\PSoC5/USBFS_episr.c ****                     #if (defined(USBFS_ENABLE_MIDI_STREAMING) && USBFS_ISR_SERVICE_MIDI_IN)
 835:Generated_Source\PSoC5/USBFS_episr.c ****                         if (ep == USBFS_midi_in_ep)
 836:Generated_Source\PSoC5/USBFS_episr.c ****                         {
 837:Generated_Source\PSoC5/USBFS_episr.c ****                             /* Clear MIDI input pointer. */
 838:Generated_Source\PSoC5/USBFS_episr.c ****                             USBFS_midiInPointer = 0u;
 839:Generated_Source\PSoC5/USBFS_episr.c ****                         }
 840:Generated_Source\PSoC5/USBFS_episr.c ****                     #endif /* (USBFS_ENABLE_MIDI_STREAMING) */
 841:Generated_Source\PSoC5/USBFS_episr.c ****                     }
 842:Generated_Source\PSoC5/USBFS_episr.c ****                 }
 843:Generated_Source\PSoC5/USBFS_episr.c **** 
 844:Generated_Source\PSoC5/USBFS_episr.c ****             #if (USBFS_EP_MANAGEMENT_DMA_MANUAL)
 845:Generated_Source\PSoC5/USBFS_episr.c ****                 /* Handle DMA completion event for OUT endpoints. */
 846:Generated_Source\PSoC5/USBFS_episr.c ****                 if (0u != (epStatus & USBFS_ARB_EPX_SR_DMA_GNT))
 278              		.loc 1 846 0
 279 009c 7B79     		ldrb	r3, [r7, #5]	@ zero_extendqisi2
 280 009e 03F00203 		and	r3, r3, #2
 281 00a2 002B     		cmp	r3, #0
 282 00a4 16D0     		beq	.L14
 847:Generated_Source\PSoC5/USBFS_episr.c ****                 {
 848:Generated_Source\PSoC5/USBFS_episr.c ****                     if (0u == (USBFS_EP[ep].addr & USBFS_DIR_IN))
 283              		.loc 1 848 0
 284 00a6 BA79     		ldrb	r2, [r7, #6]	@ zero_extendqisi2
 285 00a8 1749     		ldr	r1, .L16+8
 286 00aa 1346     		mov	r3, r2
 287 00ac 5B00     		lsls	r3, r3, #1
 288 00ae 1344     		add	r3, r3, r2
 289 00b0 9B00     		lsls	r3, r3, #2
 290 00b2 0B44     		add	r3, r3, r1
 291 00b4 0433     		adds	r3, r3, #4
 292 00b6 1B78     		ldrb	r3, [r3]
ARM GAS  C:\Users\CALEBC~1\AppData\Local\Temp\ccB9H8Zr.s 			page 21


 293 00b8 DBB2     		uxtb	r3, r3
 294 00ba 5BB2     		sxtb	r3, r3
 295 00bc 002B     		cmp	r3, #0
 296 00be 09DB     		blt	.L14
 849:Generated_Source\PSoC5/USBFS_episr.c ****                     {
 850:Generated_Source\PSoC5/USBFS_episr.c ****                         /* Notify user that data has been copied from endpoint buffer. */
 851:Generated_Source\PSoC5/USBFS_episr.c ****                         USBFS_EP[ep].apiEpState = USBFS_NO_EVENT_PENDING;
 297              		.loc 1 851 0
 298 00c0 BA79     		ldrb	r2, [r7, #6]	@ zero_extendqisi2
 299 00c2 1149     		ldr	r1, .L16+8
 300 00c4 1346     		mov	r3, r2
 301 00c6 5B00     		lsls	r3, r3, #1
 302 00c8 1344     		add	r3, r3, r2
 303 00ca 9B00     		lsls	r3, r3, #2
 304 00cc 0B44     		add	r3, r3, r1
 305 00ce 0133     		adds	r3, r3, #1
 306 00d0 0022     		movs	r2, #0
 307 00d2 1A70     		strb	r2, [r3]
 308              	.L14:
 852:Generated_Source\PSoC5/USBFS_episr.c **** 
 853:Generated_Source\PSoC5/USBFS_episr.c ****                         /* DMA done coping data: OUT endpoint has to be re-armed by user. */
 854:Generated_Source\PSoC5/USBFS_episr.c ****                     }
 855:Generated_Source\PSoC5/USBFS_episr.c ****                 }
 856:Generated_Source\PSoC5/USBFS_episr.c ****             #endif /* (USBFS_EP_MANAGEMENT_DMA_MANUAL) */
 857:Generated_Source\PSoC5/USBFS_episr.c **** 
 858:Generated_Source\PSoC5/USBFS_episr.c ****             #if (CY_PSOC4 && USBFS_EP_MANAGEMENT_DMA_AUTO)
 859:Generated_Source\PSoC5/USBFS_episr.c ****                 /* Handle DMA completion event for OUT endpoints. */
 860:Generated_Source\PSoC5/USBFS_episr.c ****                 if (0u != (epStatus & USBFS_ARB_EPX_INT_DMA_TERMIN))
 861:Generated_Source\PSoC5/USBFS_episr.c ****                 {
 862:Generated_Source\PSoC5/USBFS_episr.c ****                     uint32 channelNum = USBFS_DmaChan[ep];
 863:Generated_Source\PSoC5/USBFS_episr.c **** 
 864:Generated_Source\PSoC5/USBFS_episr.c ****                     /* Restore burst counter for endpoint. */
 865:Generated_Source\PSoC5/USBFS_episr.c ****                     USBFS_DmaEpBurstCnt[ep] = USBFS_DMA_GET_BURST_CNT(USBFS_DmaEpBurstCntBackup[ep]
 866:Generated_Source\PSoC5/USBFS_episr.c **** 
 867:Generated_Source\PSoC5/USBFS_episr.c ****                     /* Disable DMA channel to restore descriptor configuration. The on-going transf
 868:Generated_Source\PSoC5/USBFS_episr.c ****                     USBFS_CyDmaChDisable(channelNum);
 869:Generated_Source\PSoC5/USBFS_episr.c **** 
 870:Generated_Source\PSoC5/USBFS_episr.c ****                     /* Generate DMA tr_out signal to notify USB IP that DMA is done. This signal is
 871:Generated_Source\PSoC5/USBFS_episr.c ****                     * when transfer was aborted (it occurs when host writes less bytes than buffer 
 872:Generated_Source\PSoC5/USBFS_episr.c ****                     */
 873:Generated_Source\PSoC5/USBFS_episr.c ****                     USBFS_CyDmaTriggerOut(USBFS_DmaBurstEndOut[ep]);
 874:Generated_Source\PSoC5/USBFS_episr.c **** 
 875:Generated_Source\PSoC5/USBFS_episr.c ****                     /* Restore destination address for output endpoint. */
 876:Generated_Source\PSoC5/USBFS_episr.c ****                     USBFS_CyDmaSetDstAddress(channelNum, USBFS_DMA_DESCR0, (void*) ((uint32) USBFS_
 877:Generated_Source\PSoC5/USBFS_episr.c ****                     USBFS_CyDmaSetDstAddress(channelNum, USBFS_DMA_DESCR1, (void*) ((uint32) USBFS_
 878:Generated_Source\PSoC5/USBFS_episr.c ****                                                                                                    
 879:Generated_Source\PSoC5/USBFS_episr.c **** 
 880:Generated_Source\PSoC5/USBFS_episr.c ****                     /* Restore number of data elements to transfer which was adjusted for last burs
 881:Generated_Source\PSoC5/USBFS_episr.c ****                     if (0u != (USBFS_DmaEpLastBurstEl[ep] & USBFS_DMA_DESCR_REVERT))
 882:Generated_Source\PSoC5/USBFS_episr.c ****                     {
 883:Generated_Source\PSoC5/USBFS_episr.c ****                         USBFS_CyDmaSetNumDataElements(channelNum, (USBFS_DmaEpLastBurstEl[ep] >> US
 884:Generated_Source\PSoC5/USBFS_episr.c ****                                                                              USBFS_DMA_GET_MAX_ELEM
 885:Generated_Source\PSoC5/USBFS_episr.c ****                     }
 886:Generated_Source\PSoC5/USBFS_episr.c **** 
 887:Generated_Source\PSoC5/USBFS_episr.c ****                     /* Validate descriptor 0 and 1 (also reset current state). Command to start wit
 888:Generated_Source\PSoC5/USBFS_episr.c ****                     USBFS_CyDmaValidateDescriptor(channelNum, USBFS_DMA_DESCR0);
 889:Generated_Source\PSoC5/USBFS_episr.c ****                     if (USBFS_DmaEpBurstCntBackup[ep] > 1u)
ARM GAS  C:\Users\CALEBC~1\AppData\Local\Temp\ccB9H8Zr.s 			page 22


 890:Generated_Source\PSoC5/USBFS_episr.c ****                     {
 891:Generated_Source\PSoC5/USBFS_episr.c ****                         USBFS_CyDmaValidateDescriptor(channelNum, USBFS_DMA_DESCR1);
 892:Generated_Source\PSoC5/USBFS_episr.c ****                     }
 893:Generated_Source\PSoC5/USBFS_episr.c ****                     USBFS_CyDmaSetDescriptor0Next(channelNum);
 894:Generated_Source\PSoC5/USBFS_episr.c **** 
 895:Generated_Source\PSoC5/USBFS_episr.c ****                     /* Enable DMA channel: configuration complete. */
 896:Generated_Source\PSoC5/USBFS_episr.c ****                     USBFS_CyDmaChEnable(channelNum);
 897:Generated_Source\PSoC5/USBFS_episr.c ****                     
 898:Generated_Source\PSoC5/USBFS_episr.c ****                     
 899:Generated_Source\PSoC5/USBFS_episr.c ****                     /* Read CR0 register to clear SIE lock. */
 900:Generated_Source\PSoC5/USBFS_episr.c ****                     (void) USBFS_SIE_EP_BASE.sieEp[ep].epCr0;
 901:Generated_Source\PSoC5/USBFS_episr.c ****                     
 902:Generated_Source\PSoC5/USBFS_episr.c ****                     /* Toggle all endpoint types except ISOC. */
 903:Generated_Source\PSoC5/USBFS_episr.c ****                     if (USBFS_GET_EP_TYPE(ep) != USBFS_EP_TYPE_ISOC)
 904:Generated_Source\PSoC5/USBFS_episr.c ****                     {
 905:Generated_Source\PSoC5/USBFS_episr.c ****                         USBFS_EP[ep].epToggle ^= USBFS_EPX_CNT_DATA_TOGGLE;
 906:Generated_Source\PSoC5/USBFS_episr.c ****                     }
 907:Generated_Source\PSoC5/USBFS_episr.c ****             
 908:Generated_Source\PSoC5/USBFS_episr.c ****                     /* Notify user that data has been copied from endpoint buffer. */
 909:Generated_Source\PSoC5/USBFS_episr.c ****                     USBFS_EP[ep].apiEpState = USBFS_EVENT_PENDING;
 910:Generated_Source\PSoC5/USBFS_episr.c ****                     
 911:Generated_Source\PSoC5/USBFS_episr.c ****                 #if (defined(USBFS_ENABLE_MIDI_STREAMING) && \
 912:Generated_Source\PSoC5/USBFS_episr.c ****                     !defined(USBFS_MAIN_SERVICE_MIDI_OUT) && USBFS_ISR_SERVICE_MIDI_OUT)
 913:Generated_Source\PSoC5/USBFS_episr.c ****                     if (USBFS_midi_out_ep == ep)
 914:Generated_Source\PSoC5/USBFS_episr.c ****                     {
 915:Generated_Source\PSoC5/USBFS_episr.c ****                         USBFS_MIDI_OUT_Service();
 916:Generated_Source\PSoC5/USBFS_episr.c ****                     }
 917:Generated_Source\PSoC5/USBFS_episr.c ****                 #endif /* (USBFS_ISR_SERVICE_MIDI_OUT) */
 918:Generated_Source\PSoC5/USBFS_episr.c ****                 }
 919:Generated_Source\PSoC5/USBFS_episr.c ****             #endif /* (CY_PSOC4 && USBFS_EP_MANAGEMENT_DMA_AUTO) */
 920:Generated_Source\PSoC5/USBFS_episr.c **** 
 921:Generated_Source\PSoC5/USBFS_episr.c **** 
 922:Generated_Source\PSoC5/USBFS_episr.c ****                 /* `#START ARB_USER_CODE` Place your code here for handle Buffer Underflow/Overflow
 923:Generated_Source\PSoC5/USBFS_episr.c **** 
 924:Generated_Source\PSoC5/USBFS_episr.c ****                 /* `#END` */
 925:Generated_Source\PSoC5/USBFS_episr.c **** 
 926:Generated_Source\PSoC5/USBFS_episr.c ****             #ifdef USBFS_ARB_ISR_CALLBACK
 927:Generated_Source\PSoC5/USBFS_episr.c ****                 USBFS_ARB_ISR_Callback(ep, epStatus);
 928:Generated_Source\PSoC5/USBFS_episr.c ****             #endif /* (USBFS_ARB_ISR_CALLBACK) */
 929:Generated_Source\PSoC5/USBFS_episr.c **** 
 930:Generated_Source\PSoC5/USBFS_episr.c ****                 /* Clear serviced endpoint interrupt sources. */
 931:Generated_Source\PSoC5/USBFS_episr.c ****                 USBFS_ARB_EP_BASE.arbEp[ep].epSr = epStatus;
 309              		.loc 1 931 0
 310 00d4 0B4A     		ldr	r2, .L16+4
 311 00d6 BB79     		ldrb	r3, [r7, #6]	@ zero_extendqisi2
 312 00d8 1B01     		lsls	r3, r3, #4
 313 00da 1344     		add	r3, r3, r2
 314 00dc 0233     		adds	r3, r3, #2
 315 00de 7A79     		ldrb	r2, [r7, #5]
 316 00e0 1A70     		strb	r2, [r3]
 317              	.L12:
 932:Generated_Source\PSoC5/USBFS_episr.c ****             }
 933:Generated_Source\PSoC5/USBFS_episr.c **** 
 934:Generated_Source\PSoC5/USBFS_episr.c ****             ++ep;
 318              		.loc 1 934 0
 319 00e2 BB79     		ldrb	r3, [r7, #6]
 320 00e4 0133     		adds	r3, r3, #1
ARM GAS  C:\Users\CALEBC~1\AppData\Local\Temp\ccB9H8Zr.s 			page 23


 321 00e6 BB71     		strb	r3, [r7, #6]
 935:Generated_Source\PSoC5/USBFS_episr.c ****             arbIntrStatus >>= 1u;
 322              		.loc 1 935 0
 323 00e8 FB79     		ldrb	r3, [r7, #7]	@ zero_extendqisi2
 324 00ea 5B08     		lsrs	r3, r3, #1
 325 00ec FB71     		strb	r3, [r7, #7]
 326              	.L11:
 801:Generated_Source\PSoC5/USBFS_episr.c ****         {
 327              		.loc 1 801 0
 328 00ee FB79     		ldrb	r3, [r7, #7]	@ zero_extendqisi2
 329 00f0 002B     		cmp	r3, #0
 330 00f2 8ED1     		bne	.L15
 936:Generated_Source\PSoC5/USBFS_episr.c ****         }
 937:Generated_Source\PSoC5/USBFS_episr.c **** 
 938:Generated_Source\PSoC5/USBFS_episr.c ****         /* `#START ARB_END_USER_CODE` Place your code here */
 939:Generated_Source\PSoC5/USBFS_episr.c **** 
 940:Generated_Source\PSoC5/USBFS_episr.c ****         /* `#END` */
 941:Generated_Source\PSoC5/USBFS_episr.c **** 
 942:Generated_Source\PSoC5/USBFS_episr.c ****     #ifdef USBFS_ARB_ISR_EXIT_CALLBACK
 943:Generated_Source\PSoC5/USBFS_episr.c ****         USBFS_ARB_ISR_ExitCallback();
 944:Generated_Source\PSoC5/USBFS_episr.c ****     #endif /* (USBFS_ARB_ISR_EXIT_CALLBACK) */
 945:Generated_Source\PSoC5/USBFS_episr.c ****     }
 331              		.loc 1 945 0
 332 00f4 00BF     		nop
 333 00f6 0837     		adds	r7, r7, #8
 334              		.cfi_def_cfa_offset 8
 335 00f8 BD46     		mov	sp, r7
 336              		.cfi_def_cfa_register 13
 337              		@ sp needed
 338 00fa 90BC     		pop	{r4, r7}
 339              		.cfi_restore 7
 340              		.cfi_restore 4
 341              		.cfi_def_cfa_offset 0
 342 00fc 7047     		bx	lr
 343              	.L17:
 344 00fe 00BF     		.align	2
 345              	.L16:
 346 0100 9F600040 		.word	1073766559
 347 0104 70600040 		.word	1073766512
 348 0108 00000000 		.word	USBFS_EP
 349 010c FC5F0040 		.word	1073766396
 350              		.cfi_endproc
 351              	.LFE3:
 352              		.size	USBFS_ARB_ISR, .-USBFS_ARB_ISR
 353              		.text
 354              	.Letext0:
 355              		.file 2 "Generated_Source\\PSoC5\\cytypes.h"
 356              		.file 3 "Generated_Source\\PSoC5\\USBFS.h"
 357              		.file 4 "Generated_Source\\PSoC5\\USBFS_pvt.h"