ARM GAS  C:\Users\CALEBC~1\AppData\Local\Temp\ccrEEWCn.s 			page 1


   1              		.syntax unified
   2              		.cpu cortex-m3
   3              		.fpu softvfp
   4              		.eabi_attribute 20, 1
   5              		.eabi_attribute 21, 1
   6              		.eabi_attribute 23, 3
   7              		.eabi_attribute 24, 1
   8              		.eabi_attribute 25, 1
   9              		.eabi_attribute 26, 1
  10              		.eabi_attribute 30, 1
  11              		.eabi_attribute 34, 1
  12              		.eabi_attribute 18, 4
  13              		.thumb
  14              		.syntax unified
  15              		.file	"AMux.c"
  16              		.text
  17              	.Ltext0:
  18              		.cfi_sections	.debug_frame
  19              		.section	.text.AMux_Start,"ax",%progbits
  20              		.align	2
  21              		.global	AMux_Start
  22              		.thumb
  23              		.thumb_func
  24              		.type	AMux_Start, %function
  25              	AMux_Start:
  26              	.LFB0:
  27              		.file 1 "Generated_Source\\PSoC5\\AMux.c"
   1:Generated_Source\PSoC5/AMux.c **** /*******************************************************************************
   2:Generated_Source\PSoC5/AMux.c **** * File Name: AMux.c
   3:Generated_Source\PSoC5/AMux.c **** * Version 1.80
   4:Generated_Source\PSoC5/AMux.c **** *
   5:Generated_Source\PSoC5/AMux.c **** *  Description:
   6:Generated_Source\PSoC5/AMux.c **** *    This file contains all functions required for the analog multiplexer
   7:Generated_Source\PSoC5/AMux.c **** *    AMux User Module.
   8:Generated_Source\PSoC5/AMux.c **** *
   9:Generated_Source\PSoC5/AMux.c **** *   Note:
  10:Generated_Source\PSoC5/AMux.c **** *
  11:Generated_Source\PSoC5/AMux.c **** *******************************************************************************
  12:Generated_Source\PSoC5/AMux.c **** * Copyright 2008-2010, Cypress Semiconductor Corporation.  All rights reserved.
  13:Generated_Source\PSoC5/AMux.c **** * You may use this file only in accordance with the license, terms, conditions, 
  14:Generated_Source\PSoC5/AMux.c **** * disclaimers, and limitations in the end user license agreement accompanying 
  15:Generated_Source\PSoC5/AMux.c **** * the software package with which this file was provided.
  16:Generated_Source\PSoC5/AMux.c **** ********************************************************************************/
  17:Generated_Source\PSoC5/AMux.c **** 
  18:Generated_Source\PSoC5/AMux.c **** #include "AMux.h"
  19:Generated_Source\PSoC5/AMux.c **** 
  20:Generated_Source\PSoC5/AMux.c **** static uint8 AMux_lastChannel = AMux_NULL_CHANNEL;
  21:Generated_Source\PSoC5/AMux.c **** 
  22:Generated_Source\PSoC5/AMux.c **** 
  23:Generated_Source\PSoC5/AMux.c **** /*******************************************************************************
  24:Generated_Source\PSoC5/AMux.c **** * Function Name: AMux_Start
  25:Generated_Source\PSoC5/AMux.c **** ********************************************************************************
  26:Generated_Source\PSoC5/AMux.c **** * Summary:
  27:Generated_Source\PSoC5/AMux.c **** *  Disconnect all channels.
  28:Generated_Source\PSoC5/AMux.c **** *
  29:Generated_Source\PSoC5/AMux.c **** * Parameters:
  30:Generated_Source\PSoC5/AMux.c **** *  void
ARM GAS  C:\Users\CALEBC~1\AppData\Local\Temp\ccrEEWCn.s 			page 2


  31:Generated_Source\PSoC5/AMux.c **** *
  32:Generated_Source\PSoC5/AMux.c **** * Return:
  33:Generated_Source\PSoC5/AMux.c **** *  void
  34:Generated_Source\PSoC5/AMux.c **** *
  35:Generated_Source\PSoC5/AMux.c **** *******************************************************************************/
  36:Generated_Source\PSoC5/AMux.c **** void AMux_Start(void) 
  37:Generated_Source\PSoC5/AMux.c **** {
  28              		.loc 1 37 0
  29              		.cfi_startproc
  30              		@ args = 0, pretend = 0, frame = 0
  31              		@ frame_needed = 0, uses_anonymous_args = 0
  32 0000 10B5     		push	{r4, lr}
  33              		.cfi_def_cfa_offset 8
  34              		.cfi_offset 4, -8
  35              		.cfi_offset 14, -4
  36              	.LVL0:
  38:Generated_Source\PSoC5/AMux.c ****     uint8 chan;
  39:Generated_Source\PSoC5/AMux.c **** 
  40:Generated_Source\PSoC5/AMux.c ****     for(chan = 0u; chan < AMux_CHANNELS ; chan++)
  37              		.loc 1 40 0
  38 0002 0024     		movs	r4, #0
  39 0004 04E0     		b	.L2
  40              	.LVL1:
  41              	.L3:
  41:Generated_Source\PSoC5/AMux.c ****     {
  42:Generated_Source\PSoC5/AMux.c **** #if (AMux_MUXTYPE == AMux_MUX_SINGLE)
  43:Generated_Source\PSoC5/AMux.c ****         AMux_Unset(chan);
  42              		.loc 1 43 0 discriminator 3
  43 0006 2046     		mov	r0, r4
  44 0008 FFF7FEFF 		bl	AMux_Unset
  45              	.LVL2:
  40:Generated_Source\PSoC5/AMux.c ****     {
  46              		.loc 1 40 0 discriminator 3
  47 000c 0134     		adds	r4, r4, #1
  48              	.LVL3:
  49 000e E4B2     		uxtb	r4, r4
  50              	.LVL4:
  51              	.L2:
  40:Generated_Source\PSoC5/AMux.c ****     {
  52              		.loc 1 40 0 is_stmt 0 discriminator 1
  53 0010 022C     		cmp	r4, #2
  54 0012 F8D9     		bls	.L3
  44:Generated_Source\PSoC5/AMux.c **** #else
  45:Generated_Source\PSoC5/AMux.c ****         AMux_CYAMUXSIDE_A_Unset(chan);
  46:Generated_Source\PSoC5/AMux.c ****         AMux_CYAMUXSIDE_B_Unset(chan);
  47:Generated_Source\PSoC5/AMux.c **** #endif
  48:Generated_Source\PSoC5/AMux.c ****     }
  49:Generated_Source\PSoC5/AMux.c **** 
  50:Generated_Source\PSoC5/AMux.c ****     AMux_lastChannel = AMux_NULL_CHANNEL;
  55              		.loc 1 50 0 is_stmt 1
  56 0014 FF22     		movs	r2, #255
  57 0016 014B     		ldr	r3, .L5
  58 0018 1A70     		strb	r2, [r3]
  59 001a 10BD     		pop	{r4, pc}
  60              	.LVL5:
  61              	.L6:
  62              		.align	2
ARM GAS  C:\Users\CALEBC~1\AppData\Local\Temp\ccrEEWCn.s 			page 3


  63              	.L5:
  64 001c 00000000 		.word	.LANCHOR0
  65              		.cfi_endproc
  66              	.LFE0:
  67              		.size	AMux_Start, .-AMux_Start
  68              		.section	.text.AMux_FastSelect,"ax",%progbits
  69              		.align	2
  70              		.global	AMux_FastSelect
  71              		.thumb
  72              		.thumb_func
  73              		.type	AMux_FastSelect, %function
  74              	AMux_FastSelect:
  75              	.LFB1:
  51:Generated_Source\PSoC5/AMux.c **** }
  52:Generated_Source\PSoC5/AMux.c **** 
  53:Generated_Source\PSoC5/AMux.c **** 
  54:Generated_Source\PSoC5/AMux.c **** #if (!AMux_ATMOSTONE)
  55:Generated_Source\PSoC5/AMux.c **** /*******************************************************************************
  56:Generated_Source\PSoC5/AMux.c **** * Function Name: AMux_Select
  57:Generated_Source\PSoC5/AMux.c **** ********************************************************************************
  58:Generated_Source\PSoC5/AMux.c **** * Summary:
  59:Generated_Source\PSoC5/AMux.c **** *  This functions first disconnects all channels then connects the given
  60:Generated_Source\PSoC5/AMux.c **** *  channel.
  61:Generated_Source\PSoC5/AMux.c **** *
  62:Generated_Source\PSoC5/AMux.c **** * Parameters:
  63:Generated_Source\PSoC5/AMux.c **** *  channel:  The channel to connect to the common terminal.
  64:Generated_Source\PSoC5/AMux.c **** *
  65:Generated_Source\PSoC5/AMux.c **** * Return:
  66:Generated_Source\PSoC5/AMux.c **** *  void
  67:Generated_Source\PSoC5/AMux.c **** *
  68:Generated_Source\PSoC5/AMux.c **** *******************************************************************************/
  69:Generated_Source\PSoC5/AMux.c **** void AMux_Select(uint8 channel) 
  70:Generated_Source\PSoC5/AMux.c **** {
  71:Generated_Source\PSoC5/AMux.c ****     AMux_DisconnectAll();        /* Disconnect all previous connections */
  72:Generated_Source\PSoC5/AMux.c ****     AMux_Connect(channel);       /* Make the given selection */
  73:Generated_Source\PSoC5/AMux.c ****     AMux_lastChannel = channel;  /* Update last channel */
  74:Generated_Source\PSoC5/AMux.c **** }
  75:Generated_Source\PSoC5/AMux.c **** #endif
  76:Generated_Source\PSoC5/AMux.c **** 
  77:Generated_Source\PSoC5/AMux.c **** 
  78:Generated_Source\PSoC5/AMux.c **** /*******************************************************************************
  79:Generated_Source\PSoC5/AMux.c **** * Function Name: AMux_FastSelect
  80:Generated_Source\PSoC5/AMux.c **** ********************************************************************************
  81:Generated_Source\PSoC5/AMux.c **** * Summary:
  82:Generated_Source\PSoC5/AMux.c **** *  This function first disconnects the last connection made with FastSelect or
  83:Generated_Source\PSoC5/AMux.c **** *  Select, then connects the given channel. The FastSelect function is similar
  84:Generated_Source\PSoC5/AMux.c **** *  to the Select function, except it is faster since it only disconnects the
  85:Generated_Source\PSoC5/AMux.c **** *  last channel selected rather than all channels.
  86:Generated_Source\PSoC5/AMux.c **** *
  87:Generated_Source\PSoC5/AMux.c **** * Parameters:
  88:Generated_Source\PSoC5/AMux.c **** *  channel:  The channel to connect to the common terminal.
  89:Generated_Source\PSoC5/AMux.c **** *
  90:Generated_Source\PSoC5/AMux.c **** * Return:
  91:Generated_Source\PSoC5/AMux.c **** *  void
  92:Generated_Source\PSoC5/AMux.c **** *
  93:Generated_Source\PSoC5/AMux.c **** *******************************************************************************/
  94:Generated_Source\PSoC5/AMux.c **** void AMux_FastSelect(uint8 channel) 
ARM GAS  C:\Users\CALEBC~1\AppData\Local\Temp\ccrEEWCn.s 			page 4


  95:Generated_Source\PSoC5/AMux.c **** {
  76              		.loc 1 95 0
  77              		.cfi_startproc
  78              		@ args = 0, pretend = 0, frame = 0
  79              		@ frame_needed = 0, uses_anonymous_args = 0
  80              	.LVL6:
  81 0000 10B5     		push	{r4, lr}
  82              		.cfi_def_cfa_offset 8
  83              		.cfi_offset 4, -8
  84              		.cfi_offset 14, -4
  85 0002 0446     		mov	r4, r0
  96:Generated_Source\PSoC5/AMux.c ****     /* Disconnect the last valid channel */
  97:Generated_Source\PSoC5/AMux.c ****     if( AMux_lastChannel != AMux_NULL_CHANNEL)
  86              		.loc 1 97 0
  87 0004 054B     		ldr	r3, .L10
  88 0006 1878     		ldrb	r0, [r3]	@ zero_extendqisi2
  89              	.LVL7:
  90 0008 FF28     		cmp	r0, #255
  91 000a 01D0     		beq	.L8
  98:Generated_Source\PSoC5/AMux.c ****     {
  99:Generated_Source\PSoC5/AMux.c ****         AMux_Disconnect(AMux_lastChannel);
  92              		.loc 1 99 0
  93 000c FFF7FEFF 		bl	AMux_Unset
  94              	.LVL8:
  95              	.L8:
 100:Generated_Source\PSoC5/AMux.c ****     }
 101:Generated_Source\PSoC5/AMux.c **** 
 102:Generated_Source\PSoC5/AMux.c ****     /* Make the new channel connection */
 103:Generated_Source\PSoC5/AMux.c **** #if (AMux_MUXTYPE == AMux_MUX_SINGLE)
 104:Generated_Source\PSoC5/AMux.c ****     AMux_Set(channel);
  96              		.loc 1 104 0
  97 0010 2046     		mov	r0, r4
  98 0012 FFF7FEFF 		bl	AMux_Set
  99              	.LVL9:
 105:Generated_Source\PSoC5/AMux.c **** #else
 106:Generated_Source\PSoC5/AMux.c ****     AMux_CYAMUXSIDE_A_Set(channel);
 107:Generated_Source\PSoC5/AMux.c ****     AMux_CYAMUXSIDE_B_Set(channel);
 108:Generated_Source\PSoC5/AMux.c **** #endif
 109:Generated_Source\PSoC5/AMux.c **** 
 110:Generated_Source\PSoC5/AMux.c **** 
 111:Generated_Source\PSoC5/AMux.c ****     AMux_lastChannel = channel;   /* Update last channel */
 100              		.loc 1 111 0
 101 0016 014B     		ldr	r3, .L10
 102 0018 1C70     		strb	r4, [r3]
 103 001a 10BD     		pop	{r4, pc}
 104              	.L11:
 105              		.align	2
 106              	.L10:
 107 001c 00000000 		.word	.LANCHOR0
 108              		.cfi_endproc
 109              	.LFE1:
 110              		.size	AMux_FastSelect, .-AMux_FastSelect
 111              		.section	.text.AMux_DisconnectAll,"ax",%progbits
 112              		.align	2
 113              		.global	AMux_DisconnectAll
 114              		.thumb
 115              		.thumb_func
ARM GAS  C:\Users\CALEBC~1\AppData\Local\Temp\ccrEEWCn.s 			page 5


 116              		.type	AMux_DisconnectAll, %function
 117              	AMux_DisconnectAll:
 118              	.LFB2:
 112:Generated_Source\PSoC5/AMux.c **** }
 113:Generated_Source\PSoC5/AMux.c **** 
 114:Generated_Source\PSoC5/AMux.c **** 
 115:Generated_Source\PSoC5/AMux.c **** #if (AMux_MUXTYPE == AMux_MUX_DIFF)
 116:Generated_Source\PSoC5/AMux.c **** #if (!AMux_ATMOSTONE)
 117:Generated_Source\PSoC5/AMux.c **** /*******************************************************************************
 118:Generated_Source\PSoC5/AMux.c **** * Function Name: AMux_Connect
 119:Generated_Source\PSoC5/AMux.c **** ********************************************************************************
 120:Generated_Source\PSoC5/AMux.c **** * Summary:
 121:Generated_Source\PSoC5/AMux.c **** *  This function connects the given channel without affecting other connections.
 122:Generated_Source\PSoC5/AMux.c **** *
 123:Generated_Source\PSoC5/AMux.c **** * Parameters:
 124:Generated_Source\PSoC5/AMux.c **** *  channel:  The channel to connect to the common terminal.
 125:Generated_Source\PSoC5/AMux.c **** *
 126:Generated_Source\PSoC5/AMux.c **** * Return:
 127:Generated_Source\PSoC5/AMux.c **** *  void
 128:Generated_Source\PSoC5/AMux.c **** *
 129:Generated_Source\PSoC5/AMux.c **** *******************************************************************************/
 130:Generated_Source\PSoC5/AMux.c **** void AMux_Connect(uint8 channel) 
 131:Generated_Source\PSoC5/AMux.c **** {
 132:Generated_Source\PSoC5/AMux.c ****     AMux_CYAMUXSIDE_A_Set(channel);
 133:Generated_Source\PSoC5/AMux.c ****     AMux_CYAMUXSIDE_B_Set(channel);
 134:Generated_Source\PSoC5/AMux.c **** }
 135:Generated_Source\PSoC5/AMux.c **** #endif
 136:Generated_Source\PSoC5/AMux.c **** 
 137:Generated_Source\PSoC5/AMux.c **** /*******************************************************************************
 138:Generated_Source\PSoC5/AMux.c **** * Function Name: AMux_Disconnect
 139:Generated_Source\PSoC5/AMux.c **** ********************************************************************************
 140:Generated_Source\PSoC5/AMux.c **** * Summary:
 141:Generated_Source\PSoC5/AMux.c **** *  This function disconnects the given channel from the common or output
 142:Generated_Source\PSoC5/AMux.c **** *  terminal without affecting other connections.
 143:Generated_Source\PSoC5/AMux.c **** *
 144:Generated_Source\PSoC5/AMux.c **** * Parameters:
 145:Generated_Source\PSoC5/AMux.c **** *  channel:  The channel to disconnect from the common terminal.
 146:Generated_Source\PSoC5/AMux.c **** *
 147:Generated_Source\PSoC5/AMux.c **** * Return:
 148:Generated_Source\PSoC5/AMux.c **** *  void
 149:Generated_Source\PSoC5/AMux.c **** *
 150:Generated_Source\PSoC5/AMux.c **** *******************************************************************************/
 151:Generated_Source\PSoC5/AMux.c **** void AMux_Disconnect(uint8 channel) 
 152:Generated_Source\PSoC5/AMux.c **** {
 153:Generated_Source\PSoC5/AMux.c ****     AMux_CYAMUXSIDE_A_Unset(channel);
 154:Generated_Source\PSoC5/AMux.c ****     AMux_CYAMUXSIDE_B_Unset(channel);
 155:Generated_Source\PSoC5/AMux.c **** }
 156:Generated_Source\PSoC5/AMux.c **** #endif
 157:Generated_Source\PSoC5/AMux.c **** 
 158:Generated_Source\PSoC5/AMux.c **** #if (AMux_ATMOSTONE)
 159:Generated_Source\PSoC5/AMux.c **** /*******************************************************************************
 160:Generated_Source\PSoC5/AMux.c **** * Function Name: AMux_DisconnectAll
 161:Generated_Source\PSoC5/AMux.c **** ********************************************************************************
 162:Generated_Source\PSoC5/AMux.c **** * Summary:
 163:Generated_Source\PSoC5/AMux.c **** *  This function disconnects all channels.
 164:Generated_Source\PSoC5/AMux.c **** *
 165:Generated_Source\PSoC5/AMux.c **** * Parameters:
ARM GAS  C:\Users\CALEBC~1\AppData\Local\Temp\ccrEEWCn.s 			page 6


 166:Generated_Source\PSoC5/AMux.c **** *  void
 167:Generated_Source\PSoC5/AMux.c **** *
 168:Generated_Source\PSoC5/AMux.c **** * Return:
 169:Generated_Source\PSoC5/AMux.c **** *  void
 170:Generated_Source\PSoC5/AMux.c **** *
 171:Generated_Source\PSoC5/AMux.c **** *******************************************************************************/
 172:Generated_Source\PSoC5/AMux.c **** void AMux_DisconnectAll(void) 
 173:Generated_Source\PSoC5/AMux.c **** {
 119              		.loc 1 173 0
 120              		.cfi_startproc
 121              		@ args = 0, pretend = 0, frame = 0
 122              		@ frame_needed = 0, uses_anonymous_args = 0
 123 0000 08B5     		push	{r3, lr}
 124              		.cfi_def_cfa_offset 8
 125              		.cfi_offset 3, -8
 126              		.cfi_offset 14, -4
 174:Generated_Source\PSoC5/AMux.c ****     if(AMux_lastChannel != AMux_NULL_CHANNEL) 
 127              		.loc 1 174 0
 128 0002 054B     		ldr	r3, .L15
 129 0004 1878     		ldrb	r0, [r3]	@ zero_extendqisi2
 130 0006 FF28     		cmp	r0, #255
 131 0008 04D0     		beq	.L12
 175:Generated_Source\PSoC5/AMux.c ****     {
 176:Generated_Source\PSoC5/AMux.c ****         AMux_Disconnect(AMux_lastChannel);
 132              		.loc 1 176 0
 133 000a FFF7FEFF 		bl	AMux_Unset
 134              	.LVL10:
 177:Generated_Source\PSoC5/AMux.c ****         AMux_lastChannel = AMux_NULL_CHANNEL;
 135              		.loc 1 177 0
 136 000e FF22     		movs	r2, #255
 137 0010 014B     		ldr	r3, .L15
 138 0012 1A70     		strb	r2, [r3]
 139              	.L12:
 140 0014 08BD     		pop	{r3, pc}
 141              	.L16:
 142 0016 00BF     		.align	2
 143              	.L15:
 144 0018 00000000 		.word	.LANCHOR0
 145              		.cfi_endproc
 146              	.LFE2:
 147              		.size	AMux_DisconnectAll, .-AMux_DisconnectAll
 148              		.data
 149              		.set	.LANCHOR0,. + 0
 150              		.type	AMux_lastChannel, %object
 151              		.size	AMux_lastChannel, 1
 152              	AMux_lastChannel:
 153 0000 FF       		.byte	-1
 154              		.text
 155              	.Letext0:
 156              		.file 2 "Generated_Source\\PSoC5\\cyfitter_cfg.h"
 157              		.file 3 "Generated_Source\\PSoC5\\cytypes.h"