ARM GAS  C:\Users\CALEBC~1\AppData\Local\Temp\cc27EeNw.s 			page 1


   1              		.syntax unified
   2              		.cpu cortex-m3
   3              		.fpu softvfp
   4              		.eabi_attribute 20, 1
   5              		.eabi_attribute 21, 1
   6              		.eabi_attribute 23, 3
   7              		.eabi_attribute 24, 1
   8              		.eabi_attribute 25, 1
   9              		.eabi_attribute 26, 1
  10              		.eabi_attribute 30, 1
  11              		.eabi_attribute 34, 1
  12              		.eabi_attribute 18, 4
  13              		.thumb
  14              		.syntax unified
  15              		.file	"I2C.c"
  16              		.text
  17              	.Ltext0:
  18              		.cfi_sections	.debug_frame
  19              		.section	.text.I2C_Init,"ax",%progbits
  20              		.align	2
  21              		.global	I2C_Init
  22              		.thumb
  23              		.thumb_func
  24              		.type	I2C_Init, %function
  25              	I2C_Init:
  26              	.LFB63:
  27              		.file 1 "I2C.c"
   1:I2C.c         **** /* 
   2:I2C.c         ****  * File:   I2C.h
   3:I2C.c         ****  * Author: Caleb Cotter
   4:I2C.c         ****  * Ported for PSoC5LP from Uno32 Platform Driver written by Max Dunne
   5:I2C.c         ****  *
   6:I2C.c         ****  * Created on February 12, 2020, 8:53 PM
   7:I2C.c         ****  */
   8:I2C.c         **** 
   9:I2C.c         **** #include "project.h"
  10:I2C.c         **** #include "I2C.h"
  11:I2C.c         **** 
  12:I2C.c         **** void I2C_Init(){
  28              		.loc 1 12 0
  29              		.cfi_startproc
  30              		@ args = 0, pretend = 0, frame = 0
  31              		@ frame_needed = 0, uses_anonymous_args = 0
  32 0000 08B5     		push	{r3, lr}
  33              		.cfi_def_cfa_offset 8
  34              		.cfi_offset 3, -8
  35              		.cfi_offset 14, -4
  13:I2C.c         ****     I2C_Module_Start();
  36              		.loc 1 13 0
  37 0002 FFF7FEFF 		bl	I2C_Module_Start
  38              	.LVL0:
  39 0006 08BD     		pop	{r3, pc}
  40              		.cfi_endproc
  41              	.LFE63:
  42              		.size	I2C_Init, .-I2C_Init
  43              		.section	.text.I2C_ReadRegister,"ax",%progbits
  44              		.align	2
ARM GAS  C:\Users\CALEBC~1\AppData\Local\Temp\cc27EeNw.s 			page 2


  45              		.global	I2C_ReadRegister
  46              		.thumb
  47              		.thumb_func
  48              		.type	I2C_ReadRegister, %function
  49              	I2C_ReadRegister:
  50              	.LFB64:
  14:I2C.c         **** }
  15:I2C.c         **** 
  16:I2C.c         **** unsigned char I2C_ReadRegister(unsigned char I2CAddress, unsigned char deviceRegisterAddress){
  51              		.loc 1 16 0
  52              		.cfi_startproc
  53              		@ args = 0, pretend = 0, frame = 0
  54              		@ frame_needed = 0, uses_anonymous_args = 0
  55              	.LVL1:
  56 0000 38B5     		push	{r3, r4, r5, lr}
  57              		.cfi_def_cfa_offset 16
  58              		.cfi_offset 3, -16
  59              		.cfi_offset 4, -12
  60              		.cfi_offset 5, -8
  61              		.cfi_offset 14, -4
  62 0002 0446     		mov	r4, r0
  63 0004 0D46     		mov	r5, r1
  64              	.LVL2:
  17:I2C.c         ****     unsigned char status = 0;
  18:I2C.c         ****     unsigned char byte = 0;
  19:I2C.c         **** 
  20:I2C.c         ****     /* Send start condition and slave address, followed by write bit */ 
  21:I2C.c         ****     status = I2C_Module_MasterSendStart(I2CAddress, I2C_Module_WRITE_XFER_MODE);     
  65              		.loc 1 21 0
  66 0006 0021     		movs	r1, #0
  67              	.LVL3:
  68 0008 FFF7FEFF 		bl	I2C_Module_MasterSendStart
  69              	.LVL4:
  22:I2C.c         ****     
  23:I2C.c         ****     /* Check if the master status is error free */
  24:I2C.c         ****     if(status == I2C_Module_MSTR_NO_ERROR)
  70              		.loc 1 24 0
  71 000c 60B9     		cbnz	r0, .L5
  25:I2C.c         ****     {
  26:I2C.c         ****         status = I2C_Module_MasterWriteByte(deviceRegisterAddress);
  72              		.loc 1 26 0
  73 000e 2846     		mov	r0, r5
  74              	.LVL5:
  75 0010 FFF7FEFF 		bl	I2C_Module_MasterWriteByte
  76              	.LVL6:
  27:I2C.c         ****         
  28:I2C.c         ****         /* Send start condition and slave address, followed by read bit */
  29:I2C.c         ****         status = I2C_Module_MasterSendRestart(I2CAddress, I2C_Module_READ_XFER_MODE);
  77              		.loc 1 29 0
  78 0014 0121     		movs	r1, #1
  79 0016 2046     		mov	r0, r4
  80 0018 FFF7FEFF 		bl	I2C_Module_MasterSendRestart
  81              	.LVL7:
  30:I2C.c         **** 
  31:I2C.c         ****         /* Check if the master status is error free */
  32:I2C.c         ****         if(status == I2C_Module_MSTR_NO_ERROR)
  82              		.loc 1 32 0
ARM GAS  C:\Users\CALEBC~1\AppData\Local\Temp\cc27EeNw.s 			page 3


  83 001c 30B9     		cbnz	r0, .L6
  33:I2C.c         ****         {
  34:I2C.c         ****             /* Load the read buffer with the data read from slave, followed by ACK */
  35:I2C.c         ****             byte = I2C_Module_MasterReadByte(I2C_Module_ACK_DATA);
  84              		.loc 1 35 0
  85 001e 0120     		movs	r0, #1
  86              	.LVL8:
  87 0020 FFF7FEFF 		bl	I2C_Module_MasterReadByte
  88              	.LVL9:
  89 0024 0446     		mov	r4, r0
  90              	.LVL10:
  91 0026 02E0     		b	.L4
  92              	.LVL11:
  93              	.L5:
  18:I2C.c         **** 
  94              		.loc 1 18 0
  95 0028 0024     		movs	r4, #0
  96 002a 00E0     		b	.L4
  97              	.L6:
  98 002c 0024     		movs	r4, #0
  99              	.LVL12:
 100              	.L4:
  36:I2C.c         ****         }
  37:I2C.c         ****     }
  38:I2C.c         **** 
  39:I2C.c         ****     /* Send stop condition after the transaction is completed */
  40:I2C.c         ****     I2C_Module_MasterSendStop();
 101              		.loc 1 40 0
 102 002e FFF7FEFF 		bl	I2C_Module_MasterSendStop
 103              	.LVL13:
  41:I2C.c         ****     
  42:I2C.c         ****     return byte;
  43:I2C.c         **** }
 104              		.loc 1 43 0
 105 0032 2046     		mov	r0, r4
 106 0034 38BD     		pop	{r3, r4, r5, pc}
 107              		.cfi_endproc
 108              	.LFE64:
 109              		.size	I2C_ReadRegister, .-I2C_ReadRegister
 110 0036 00BF     		.section	.text.I2C_WriteReg,"ax",%progbits
 111              		.align	2
 112              		.global	I2C_WriteReg
 113              		.thumb
 114              		.thumb_func
 115              		.type	I2C_WriteReg, %function
 116              	I2C_WriteReg:
 117              	.LFB65:
  44:I2C.c         **** 
  45:I2C.c         **** unsigned char I2C_WriteReg(unsigned char I2CAddress, unsigned char deviceRegisterAddress, char data
 118              		.loc 1 45 0
 119              		.cfi_startproc
 120              		@ args = 0, pretend = 0, frame = 0
 121              		@ frame_needed = 0, uses_anonymous_args = 0
 122              	.LVL14:
 123 0000 70B5     		push	{r4, r5, r6, lr}
 124              		.cfi_def_cfa_offset 16
 125              		.cfi_offset 4, -16
ARM GAS  C:\Users\CALEBC~1\AppData\Local\Temp\cc27EeNw.s 			page 4


 126              		.cfi_offset 5, -12
 127              		.cfi_offset 6, -8
 128              		.cfi_offset 14, -4
 129 0002 0E46     		mov	r6, r1
 130 0004 1546     		mov	r5, r2
 131              	.LVL15:
  46:I2C.c         ****     unsigned char status = 0;
  47:I2C.c         **** 
  48:I2C.c         ****     /* Send start condition and slave address, followed by write bit */
  49:I2C.c         ****     status = I2C_Module_MasterSendStart(I2CAddress, I2C_Module_WRITE_XFER_MODE);     
 132              		.loc 1 49 0
 133 0006 0021     		movs	r1, #0
 134              	.LVL16:
 135 0008 FFF7FEFF 		bl	I2C_Module_MasterSendStart
 136              	.LVL17:
  50:I2C.c         ****     
  51:I2C.c         ****     /* Check if the master status is error free */
  52:I2C.c         ****     if(status == I2C_Module_MSTR_NO_ERROR)
 137              		.loc 1 52 0
 138 000c 0446     		mov	r4, r0
 139 000e 30B9     		cbnz	r0, .L9
  53:I2C.c         ****     {
  54:I2C.c         ****         status = I2C_Module_MasterWriteByte(deviceRegisterAddress);
 140              		.loc 1 54 0
 141 0010 3046     		mov	r0, r6
 142              	.LVL18:
 143 0012 FFF7FEFF 		bl	I2C_Module_MasterWriteByte
 144              	.LVL19:
  55:I2C.c         ****         status = I2C_Module_MasterWriteByte(data);
 145              		.loc 1 55 0
 146 0016 2846     		mov	r0, r5
 147 0018 FFF7FEFF 		bl	I2C_Module_MasterWriteByte
 148              	.LVL20:
 149 001c 0446     		mov	r4, r0
 150              	.LVL21:
 151              	.L9:
  56:I2C.c         ****     }
  57:I2C.c         ****     /* Send stop condition after the transaction is completed */
  58:I2C.c         ****     I2C_Module_MasterSendStop();
 152              		.loc 1 58 0
 153 001e FFF7FEFF 		bl	I2C_Module_MasterSendStop
 154              	.LVL22:
  59:I2C.c         ****     
  60:I2C.c         ****     return status;
  61:I2C.c         **** }
 155              		.loc 1 61 0
 156 0022 2046     		mov	r0, r4
 157 0024 70BD     		pop	{r4, r5, r6, pc}
 158              		.cfi_endproc
 159              	.LFE65:
 160              		.size	I2C_WriteReg, .-I2C_WriteReg
 161 0026 00BF     		.section	.text.I2C_ReadInt,"ax",%progbits
 162              		.align	2
 163              		.global	I2C_ReadInt
 164              		.thumb
 165              		.thumb_func
 166              		.type	I2C_ReadInt, %function
ARM GAS  C:\Users\CALEBC~1\AppData\Local\Temp\cc27EeNw.s 			page 5


 167              	I2C_ReadInt:
 168              	.LFB66:
  62:I2C.c         **** 
  63:I2C.c         **** int I2C_ReadInt(char I2CAddress, char deviceRegisterAddress, char isBigEndian){
 169              		.loc 1 63 0
 170              		.cfi_startproc
 171              		@ args = 0, pretend = 0, frame = 0
 172              		@ frame_needed = 0, uses_anonymous_args = 0
 173              	.LVL23:
 174 0000 70B5     		push	{r4, r5, r6, lr}
 175              		.cfi_def_cfa_offset 16
 176              		.cfi_offset 4, -16
 177              		.cfi_offset 5, -12
 178              		.cfi_offset 6, -8
 179              		.cfi_offset 14, -4
 180 0002 0446     		mov	r4, r0
 181 0004 0D46     		mov	r5, r1
 182 0006 1646     		mov	r6, r2
 183              	.LVL24:
  64:I2C.c         ****     unsigned char status = 0;
  65:I2C.c         ****     unsigned char upperByte = 0;
  66:I2C.c         ****     unsigned char lowerByte = 0;
  67:I2C.c         ****     int returnVal;
  68:I2C.c         ****     
  69:I2C.c         ****     /* Send start condition and slave address, followed by write bit */ 
  70:I2C.c         ****     status = I2C_Module_MasterSendStart(I2CAddress, I2C_Module_WRITE_XFER_MODE);     
 184              		.loc 1 70 0
 185 0008 0021     		movs	r1, #0
 186              	.LVL25:
 187 000a FFF7FEFF 		bl	I2C_Module_MasterSendStart
 188              	.LVL26:
  71:I2C.c         **** 
  72:I2C.c         ****     /* Check if the master status is error free */
  73:I2C.c         ****     if(status == I2C_Module_MSTR_NO_ERROR)
 189              		.loc 1 73 0
 190 000e 80B9     		cbnz	r0, .L15
  74:I2C.c         ****     {
  75:I2C.c         ****         status = I2C_Module_MasterWriteByte(deviceRegisterAddress);
 191              		.loc 1 75 0
 192 0010 2846     		mov	r0, r5
 193              	.LVL27:
 194 0012 FFF7FEFF 		bl	I2C_Module_MasterWriteByte
 195              	.LVL28:
  76:I2C.c         ****         
  77:I2C.c         ****         /* Send start condition and slave address, followed by read bit */
  78:I2C.c         ****         status = I2C_Module_MasterSendRestart(I2CAddress, I2C_Module_READ_XFER_MODE);
 196              		.loc 1 78 0
 197 0016 0121     		movs	r1, #1
 198 0018 2046     		mov	r0, r4
 199 001a FFF7FEFF 		bl	I2C_Module_MasterSendRestart
 200              	.LVL29:
  79:I2C.c         **** 
  80:I2C.c         ****         /* Check if the master status is error free */
  81:I2C.c         ****         if(status == I2C_Module_MSTR_NO_ERROR)
 201              		.loc 1 81 0
 202 001e 58B9     		cbnz	r0, .L16
  82:I2C.c         ****         {
ARM GAS  C:\Users\CALEBC~1\AppData\Local\Temp\cc27EeNw.s 			page 6


  83:I2C.c         ****             /* Load the read buffer with the data read from slave, followed by ACK */
  84:I2C.c         ****             upperByte = I2C_Module_MasterReadByte(I2C_Module_ACK_DATA);
 203              		.loc 1 84 0
 204 0020 0120     		movs	r0, #1
 205              	.LVL30:
 206 0022 FFF7FEFF 		bl	I2C_Module_MasterReadByte
 207              	.LVL31:
 208 0026 0446     		mov	r4, r0
 209              	.LVL32:
  85:I2C.c         ****             lowerByte = I2C_Module_MasterReadByte(I2C_Module_ACK_DATA);
 210              		.loc 1 85 0
 211 0028 0120     		movs	r0, #1
 212 002a FFF7FEFF 		bl	I2C_Module_MasterReadByte
 213              	.LVL33:
 214 002e 0546     		mov	r5, r0
 215              	.LVL34:
 216 0030 04E0     		b	.L12
 217              	.LVL35:
 218              	.L15:
  66:I2C.c         ****     int returnVal;
 219              		.loc 1 66 0
 220 0032 0025     		movs	r5, #0
  65:I2C.c         ****     unsigned char lowerByte = 0;
 221              		.loc 1 65 0
 222 0034 2C46     		mov	r4, r5
 223 0036 01E0     		b	.L12
 224              	.L16:
  66:I2C.c         ****     int returnVal;
 225              		.loc 1 66 0
 226 0038 0025     		movs	r5, #0
  65:I2C.c         ****     unsigned char lowerByte = 0;
 227              		.loc 1 65 0
 228 003a 2C46     		mov	r4, r5
 229              	.LVL36:
 230              	.L12:
  86:I2C.c         ****         }
  87:I2C.c         ****     }
  88:I2C.c         **** 
  89:I2C.c         ****     /* Send stop condition after the transaction is completed */
  90:I2C.c         ****     I2C_Module_MasterSendStop();
 231              		.loc 1 90 0
 232 003c FFF7FEFF 		bl	I2C_Module_MasterSendStop
 233              	.LVL37:
  91:I2C.c         ****     
  92:I2C.c         ****     if(isBigEndian){
 234              		.loc 1 92 0
 235 0040 16B1     		cbz	r6, .L13
  93:I2C.c         ****         returnVal = ((upperByte << 8) | lowerByte);
 236              		.loc 1 93 0
 237 0042 45EA0420 		orr	r0, r5, r4, lsl #8
 238              	.LVL38:
 239 0046 70BD     		pop	{r4, r5, r6, pc}
 240              	.LVL39:
 241              	.L13:
  94:I2C.c         ****     } else {
  95:I2C.c         ****         returnVal = ((lowerByte << 8) | upperByte);
 242              		.loc 1 95 0
ARM GAS  C:\Users\CALEBC~1\AppData\Local\Temp\cc27EeNw.s 			page 7


 243 0048 44EA0520 		orr	r0, r4, r5, lsl #8
 244              	.LVL40:
  96:I2C.c         ****     }
  97:I2C.c         ****     return returnVal;
  98:I2C.c         **** }...
 245              		.loc 1 98 0
 246 004c 70BD     		pop	{r4, r5, r6, pc}
 247              		.cfi_endproc
 248              	.LFE66:
 249              		.size	I2C_ReadInt, .-I2C_ReadInt
 250 004e 00BF     		.text
 251              	.Letext0:
 252              		.file 2 "c:\\program files (x86)\\cypress\\psoc creator\\4.2\\psoc creator\\import\\gnu\\arm\\5.4.
 253              		.file 3 "c:\\program files (x86)\\cypress\\psoc creator\\4.2\\psoc creator\\import\\gnu\\arm\\5.4.
 254              		.file 4 "Generated_Source\\PSoC5/I2C_Module.h"
 255              		.file 5 "Generated_Source\\PSoC5/core_cm3.h"