ARM GAS  C:\Users\CALEBC~1\AppData\Local\Temp\ccs3wCQG.s 			page 1


   1              		.syntax unified
   2              		.cpu cortex-m3
   3              		.fpu softvfp
   4              		.eabi_attribute 20, 1
   5              		.eabi_attribute 21, 1
   6              		.eabi_attribute 23, 3
   7              		.eabi_attribute 24, 1
   8              		.eabi_attribute 25, 1
   9              		.eabi_attribute 26, 1
  10              		.eabi_attribute 30, 1
  11              		.eabi_attribute 34, 1
  12              		.eabi_attribute 18, 4
  13              		.thumb
  14              		.syntax unified
  15              		.file	"matrixmath3.c"
  16              		.text
  17              	.Ltext0:
  18              		.cfi_sections	.debug_frame
  19              		.global	__aeabi_fmul
  20              		.global	__aeabi_fadd
  21              		.section	.text.Matrix3Multiply,"ax",%progbits
  22              		.align	2
  23              		.global	Matrix3Multiply
  24              		.thumb
  25              		.thumb_func
  26              		.type	Matrix3Multiply, %function
  27              	Matrix3Multiply:
  28              	.LFB1:
  29              		.file 1 "matrixmath3.c"
   1:matrixmath3.c **** /**
   2:matrixmath3.c ****  * matrixmath3.c
   3:matrixmath3.c ****  *
   4:matrixmath3.c ****  * Written by Caleb Cotter
   5:matrixmath3.c ****  * This file contains the implementations of a 3x3 matrix math library.
   6:matrixmath3.c ****  */
   7:matrixmath3.c **** 
   8:matrixmath3.c ****  //#define TEST_MATRIX_MATH_3
   9:matrixmath3.c **** 
  10:matrixmath3.c ****  // Header Files
  11:matrixmath3.c ****  #include "matrixmath3.h"
  12:matrixmath3.c **** 
  13:matrixmath3.c **** // Standard libraries
  14:matrixmath3.c **** #include <math.h>
  15:matrixmath3.c **** #include <stdio.h>
  16:matrixmath3.c **** 
  17:matrixmath3.c **** /******************************************************************************
  18:matrixmath3.c ****  * Matrix - Matrix Operations
  19:matrixmath3.c ****  *****************************************************************************/
  20:matrixmath3.c **** 
  21:matrixmath3.c **** void Matrix3Multiply(float mat1[3][3], float mat2[3][3], float result[3][3]) {
  30              		.loc 1 21 0
  31              		.cfi_startproc
  32              		@ args = 0, pretend = 0, frame = 0
  33              		@ frame_needed = 0, uses_anonymous_args = 0
  34              	.LVL0:
  35 0000 2DE9F047 		push	{r4, r5, r6, r7, r8, r9, r10, lr}
  36              		.cfi_def_cfa_offset 32
ARM GAS  C:\Users\CALEBC~1\AppData\Local\Temp\ccs3wCQG.s 			page 2


  37              		.cfi_offset 4, -32
  38              		.cfi_offset 5, -28
  39              		.cfi_offset 6, -24
  40              		.cfi_offset 7, -20
  41              		.cfi_offset 8, -16
  42              		.cfi_offset 9, -12
  43              		.cfi_offset 10, -8
  44              		.cfi_offset 14, -4
  45 0004 8146     		mov	r9, r0
  46 0006 8846     		mov	r8, r1
  47 0008 9246     		mov	r10, r2
  48              	.LVL1:
  22:matrixmath3.c ****     int i = 0, j = 0, k = 0;
  23:matrixmath3.c ****     float sum;
  24:matrixmath3.c ****     for (i = 0; i < 3; i++) {
  49              		.loc 1 24 0
  50 000a 0025     		movs	r5, #0
  51 000c 24E0     		b	.L2
  52              	.LVL2:
  53              	.L3:
  25:matrixmath3.c ****         for (j = 0; j < 3; j++) {
  26:matrixmath3.c ****           sum = 0;
  27:matrixmath3.c ****           for (k = 0; k <3; k++) {
  28:matrixmath3.c ****              sum += mat1[i][k] * mat2[k][j];
  54              		.loc 1 28 0 discriminator 3
  55 000e 05EB4502 		add	r2, r5, r5, lsl #1
  56 0012 9300     		lsls	r3, r2, #2
  57 0014 4B44     		add	r3, r3, r9
  58 0016 04EB4401 		add	r1, r4, r4, lsl #1
  59 001a 8A00     		lsls	r2, r1, #2
  60 001c 4244     		add	r2, r2, r8
  61 001e 52F82710 		ldr	r1, [r2, r7, lsl #2]	@ float
  62 0022 53F82400 		ldr	r0, [r3, r4, lsl #2]	@ float
  63 0026 FFF7FEFF 		bl	__aeabi_fmul
  64              	.LVL3:
  65 002a 0146     		mov	r1, r0
  66 002c 3046     		mov	r0, r6
  67 002e FFF7FEFF 		bl	__aeabi_fadd
  68              	.LVL4:
  69 0032 0646     		mov	r6, r0
  70              	.LVL5:
  27:matrixmath3.c ****              sum += mat1[i][k] * mat2[k][j];
  71              		.loc 1 27 0 discriminator 3
  72 0034 0134     		adds	r4, r4, #1
  73              	.LVL6:
  74 0036 01E0     		b	.L4
  75              	.LVL7:
  76              	.L6:
  77 0038 0026     		movs	r6, #0
  78 003a 0024     		movs	r4, #0
  79              	.L4:
  80              	.LVL8:
  27:matrixmath3.c ****              sum += mat1[i][k] * mat2[k][j];
  81              		.loc 1 27 0 is_stmt 0 discriminator 1
  82 003c 022C     		cmp	r4, #2
  83 003e E6DD     		ble	.L3
  29:matrixmath3.c ****           }
ARM GAS  C:\Users\CALEBC~1\AppData\Local\Temp\ccs3wCQG.s 			page 3


  30:matrixmath3.c ****           result[i][j] = sum;
  84              		.loc 1 30 0 is_stmt 1 discriminator 2
  85 0040 05EB4502 		add	r2, r5, r5, lsl #1
  86 0044 9300     		lsls	r3, r2, #2
  87 0046 5344     		add	r3, r3, r10
  88 0048 43F82760 		str	r6, [r3, r7, lsl #2]	@ float
  89              	.LVL9:
  25:matrixmath3.c ****           sum = 0;
  90              		.loc 1 25 0 discriminator 2
  91 004c 0137     		adds	r7, r7, #1
  92              	.LVL10:
  93 004e 00E0     		b	.L5
  94              	.LVL11:
  95              	.L7:
  96 0050 0027     		movs	r7, #0
  97              	.L5:
  98              	.LVL12:
  25:matrixmath3.c ****           sum = 0;
  99              		.loc 1 25 0 is_stmt 0 discriminator 1
 100 0052 022F     		cmp	r7, #2
 101 0054 F0DD     		ble	.L6
  24:matrixmath3.c ****         for (j = 0; j < 3; j++) {
 102              		.loc 1 24 0 is_stmt 1 discriminator 2
 103 0056 0135     		adds	r5, r5, #1
 104              	.LVL13:
 105              	.L2:
  24:matrixmath3.c ****         for (j = 0; j < 3; j++) {
 106              		.loc 1 24 0 is_stmt 0 discriminator 1
 107 0058 022D     		cmp	r5, #2
 108 005a F9DD     		ble	.L7
  31:matrixmath3.c ****           sum = 0;
  32:matrixmath3.c ****         }
  33:matrixmath3.c ****     }
  34:matrixmath3.c **** }
 109              		.loc 1 34 0 is_stmt 1
 110 005c BDE8F087 		pop	{r4, r5, r6, r7, r8, r9, r10, pc}
 111              		.cfi_endproc
 112              	.LFE1:
 113              		.size	Matrix3Multiply, .-Matrix3Multiply
 114              		.section	.text.Matrix3Add,"ax",%progbits
 115              		.align	2
 116              		.global	Matrix3Add
 117              		.thumb
 118              		.thumb_func
 119              		.type	Matrix3Add, %function
 120              	Matrix3Add:
 121              	.LFB2:
  35:matrixmath3.c **** 
  36:matrixmath3.c **** void Matrix3Add(float mat1[3][3], float mat2[3][3], float result[3][3]) {
 122              		.loc 1 36 0
 123              		.cfi_startproc
 124              		@ args = 0, pretend = 0, frame = 0
 125              		@ frame_needed = 0, uses_anonymous_args = 0
 126              	.LVL14:
 127 0000 2DE9F843 		push	{r3, r4, r5, r6, r7, r8, r9, lr}
 128              		.cfi_def_cfa_offset 32
 129              		.cfi_offset 3, -32
ARM GAS  C:\Users\CALEBC~1\AppData\Local\Temp\ccs3wCQG.s 			page 4


 130              		.cfi_offset 4, -28
 131              		.cfi_offset 5, -24
 132              		.cfi_offset 6, -20
 133              		.cfi_offset 7, -16
 134              		.cfi_offset 8, -12
 135              		.cfi_offset 9, -8
 136              		.cfi_offset 14, -4
 137 0004 8046     		mov	r8, r0
 138 0006 0F46     		mov	r7, r1
 139 0008 1646     		mov	r6, r2
 140              	.LVL15:
  37:matrixmath3.c ****     int i = 0, j = 0;
  38:matrixmath3.c ****     for (i = 0; i < 3; i++) {
 141              		.loc 1 38 0
 142 000a 0025     		movs	r5, #0
 143 000c 15E0     		b	.L10
 144              	.LVL16:
 145              	.L11:
  39:matrixmath3.c ****         for (j = 0; j < 3; j++) {
  40:matrixmath3.c ****             result[i][j] = mat1[i][j] + mat2[i][j];
 146              		.loc 1 40 0 discriminator 3
 147 000e 05EB4502 		add	r2, r5, r5, lsl #1
 148 0012 9300     		lsls	r3, r2, #2
 149 0014 06EB0309 		add	r9, r6, r3
 150 0018 08EB0302 		add	r2, r8, r3
 151 001c 3B44     		add	r3, r3, r7
 152 001e 53F82410 		ldr	r1, [r3, r4, lsl #2]	@ float
 153 0022 52F82400 		ldr	r0, [r2, r4, lsl #2]	@ float
 154 0026 FFF7FEFF 		bl	__aeabi_fadd
 155              	.LVL17:
 156 002a 49F82400 		str	r0, [r9, r4, lsl #2]	@ float
  39:matrixmath3.c ****         for (j = 0; j < 3; j++) {
 157              		.loc 1 39 0 discriminator 3
 158 002e 0134     		adds	r4, r4, #1
 159              	.LVL18:
 160 0030 00E0     		b	.L12
 161              	.LVL19:
 162              	.L13:
 163 0032 0024     		movs	r4, #0
 164              	.L12:
 165              	.LVL20:
  39:matrixmath3.c ****         for (j = 0; j < 3; j++) {
 166              		.loc 1 39 0 is_stmt 0 discriminator 1
 167 0034 022C     		cmp	r4, #2
 168 0036 EADD     		ble	.L11
  38:matrixmath3.c ****         for (j = 0; j < 3; j++) {
 169              		.loc 1 38 0 is_stmt 1 discriminator 2
 170 0038 0135     		adds	r5, r5, #1
 171              	.LVL21:
 172              	.L10:
  38:matrixmath3.c ****         for (j = 0; j < 3; j++) {
 173              		.loc 1 38 0 is_stmt 0 discriminator 1
 174 003a 022D     		cmp	r5, #2
 175 003c F9DD     		ble	.L13
  41:matrixmath3.c ****         }
  42:matrixmath3.c ****     }
  43:matrixmath3.c **** }
ARM GAS  C:\Users\CALEBC~1\AppData\Local\Temp\ccs3wCQG.s 			page 5


 176              		.loc 1 43 0 is_stmt 1
 177 003e BDE8F883 		pop	{r3, r4, r5, r6, r7, r8, r9, pc}
 178              		.cfi_endproc
 179              	.LFE2:
 180              		.size	Matrix3Add, .-Matrix3Add
 181              		.global	__aeabi_fsub
 182              		.global	__aeabi_f2d
 183              		.global	__aeabi_dcmplt
 184 0042 00BF     		.section	.text.Matrix3Equals,"ax",%progbits
 185              		.align	2
 186              		.global	Matrix3Equals
 187              		.thumb
 188              		.thumb_func
 189              		.type	Matrix3Equals, %function
 190              	Matrix3Equals:
 191              	.LFB3:
  44:matrixmath3.c **** 
  45:matrixmath3.c **** int Matrix3Equals(float mat1[3][3], float mat2[3][3]) {
 192              		.loc 1 45 0
 193              		.cfi_startproc
 194              		@ args = 0, pretend = 0, frame = 0
 195              		@ frame_needed = 0, uses_anonymous_args = 0
 196              	.LVL22:
 197 0000 2DE9F041 		push	{r4, r5, r6, r7, r8, lr}
 198              		.cfi_def_cfa_offset 24
 199              		.cfi_offset 4, -24
 200              		.cfi_offset 5, -20
 201              		.cfi_offset 6, -16
 202              		.cfi_offset 7, -12
 203              		.cfi_offset 8, -8
 204              		.cfi_offset 14, -4
 205 0004 0746     		mov	r7, r0
 206 0006 0E46     		mov	r6, r1
 207              	.LVL23:
  46:matrixmath3.c ****     int i = 0, j = 0;
  47:matrixmath3.c ****     int result = 1;
 208              		.loc 1 47 0
 209 0008 4FF00108 		mov	r8, #1
  48:matrixmath3.c ****     float d;
  49:matrixmath3.c ****     for (i = 0; i < 3; i++) {
 210              		.loc 1 49 0
 211 000c 0025     		movs	r5, #0
 212 000e 1DE0     		b	.L16
 213              	.LVL24:
 214              	.L19:
  50:matrixmath3.c ****         for (j = 0; j < 3; j++) {
  51:matrixmath3.c ****             d = fabs(mat1[i][j] - mat2[i][j]);
 215              		.loc 1 51 0
 216 0010 05EB4502 		add	r2, r5, r5, lsl #1
 217 0014 9300     		lsls	r3, r2, #2
 218 0016 FA18     		adds	r2, r7, r3
 219 0018 3344     		add	r3, r3, r6
 220 001a 53F82410 		ldr	r1, [r3, r4, lsl #2]	@ float
 221 001e 52F82400 		ldr	r0, [r2, r4, lsl #2]	@ float
 222 0022 FFF7FEFF 		bl	__aeabi_fsub
 223              	.LVL25:
 224 0026 20F00040 		bic	r0, r0, #-2147483648
ARM GAS  C:\Users\CALEBC~1\AppData\Local\Temp\ccs3wCQG.s 			page 6


 225              	.LVL26:
  52:matrixmath3.c ****             if (d < FP_DELTA) {
 226              		.loc 1 52 0
 227 002a FFF7FEFF 		bl	__aeabi_f2d
 228              	.LVL27:
 229 002e 0AA3     		adr	r3, .L26
 230 0030 D3E90023 		ldrd	r2, [r3]
 231 0034 FFF7FEFF 		bl	__aeabi_dcmplt
 232              	.LVL28:
 233 0038 28B1     		cbz	r0, .L24
  50:matrixmath3.c ****         for (j = 0; j < 3; j++) {
 234              		.loc 1 50 0
 235 003a 0134     		adds	r4, r4, #1
 236              	.LVL29:
 237 003c 00E0     		b	.L20
 238              	.LVL30:
 239              	.L22:
 240 003e 0024     		movs	r4, #0
 241              	.L20:
 242              	.LVL31:
  50:matrixmath3.c ****         for (j = 0; j < 3; j++) {
 243              		.loc 1 50 0 is_stmt 0 discriminator 1
 244 0040 022C     		cmp	r4, #2
 245 0042 E5DD     		ble	.L19
 246 0044 01E0     		b	.L17
 247              	.L24:
  53:matrixmath3.c ****                 continue;
  54:matrixmath3.c ****             } else {
  55:matrixmath3.c ****                 result = 0;
 248              		.loc 1 55 0 is_stmt 1
 249 0046 4FF00008 		mov	r8, #0
 250              	.LVL32:
 251              	.L17:
  49:matrixmath3.c ****         for (j = 0; j < 3; j++) {
 252              		.loc 1 49 0 discriminator 2
 253 004a 0135     		adds	r5, r5, #1
 254              	.LVL33:
 255              	.L16:
  49:matrixmath3.c ****         for (j = 0; j < 3; j++) {
 256              		.loc 1 49 0 is_stmt 0 discriminator 1
 257 004c 022D     		cmp	r5, #2
 258 004e F6DD     		ble	.L22
  56:matrixmath3.c ****                 break;
  57:matrixmath3.c ****             }
  58:matrixmath3.c ****         }
  59:matrixmath3.c ****     }
  60:matrixmath3.c ****     return result;
  61:matrixmath3.c **** }
 259              		.loc 1 61 0 is_stmt 1
 260 0050 4046     		mov	r0, r8
 261 0052 BDE8F081 		pop	{r4, r5, r6, r7, r8, pc}
 262              	.LVL34:
 263              	.L27:
 264 0056 00BF     		.align	3
 265              	.L26:
 266 0058 2D431CEB 		.word	-350469331
 267 005c E2361A3F 		.word	1058682594
ARM GAS  C:\Users\CALEBC~1\AppData\Local\Temp\ccs3wCQG.s 			page 7


 268              		.cfi_endproc
 269              	.LFE3:
 270              		.size	Matrix3Equals, .-Matrix3Equals
 271              		.section	.text.Matrix3ScalarMultiply,"ax",%progbits
 272              		.align	2
 273              		.global	Matrix3ScalarMultiply
 274              		.thumb
 275              		.thumb_func
 276              		.type	Matrix3ScalarMultiply, %function
 277              	Matrix3ScalarMultiply:
 278              	.LFB4:
  62:matrixmath3.c **** 
  63:matrixmath3.c **** /******************************************************************************
  64:matrixmath3.c ****  * Matrix - Scalar Operations
  65:matrixmath3.c ****  *****************************************************************************/
  66:matrixmath3.c **** 
  67:matrixmath3.c **** void Matrix3ScalarMultiply(float x, float mat[3][3], float result[3][3]) {
 279              		.loc 1 67 0
 280              		.cfi_startproc
 281              		@ args = 0, pretend = 0, frame = 0
 282              		@ frame_needed = 0, uses_anonymous_args = 0
 283              	.LVL35:
 284 0000 2DE9F843 		push	{r3, r4, r5, r6, r7, r8, r9, lr}
 285              		.cfi_def_cfa_offset 32
 286              		.cfi_offset 3, -32
 287              		.cfi_offset 4, -28
 288              		.cfi_offset 5, -24
 289              		.cfi_offset 6, -20
 290              		.cfi_offset 7, -16
 291              		.cfi_offset 8, -12
 292              		.cfi_offset 9, -8
 293              		.cfi_offset 14, -4
 294 0004 8046     		mov	r8, r0
 295 0006 0F46     		mov	r7, r1
 296 0008 1646     		mov	r6, r2
 297              	.LVL36:
  68:matrixmath3.c ****     int i = 0, j = 0;
  69:matrixmath3.c ****     for (i = 0; i < 3; i++) {
 298              		.loc 1 69 0
 299 000a 0025     		movs	r5, #0
 300 000c 12E0     		b	.L29
 301              	.LVL37:
 302              	.L30:
  70:matrixmath3.c ****         for (j = 0; j < 3; j++) {
  71:matrixmath3.c ****             result[i][j] = (mat[i][j] * x);
 303              		.loc 1 71 0 discriminator 3
 304 000e 05EB4502 		add	r2, r5, r5, lsl #1
 305 0012 9300     		lsls	r3, r2, #2
 306 0014 06EB0309 		add	r9, r6, r3
 307 0018 3B44     		add	r3, r3, r7
 308 001a 4146     		mov	r1, r8
 309 001c 53F82400 		ldr	r0, [r3, r4, lsl #2]	@ float
 310 0020 FFF7FEFF 		bl	__aeabi_fmul
 311              	.LVL38:
 312 0024 49F82400 		str	r0, [r9, r4, lsl #2]	@ float
  70:matrixmath3.c ****         for (j = 0; j < 3; j++) {
 313              		.loc 1 70 0 discriminator 3
ARM GAS  C:\Users\CALEBC~1\AppData\Local\Temp\ccs3wCQG.s 			page 8


 314 0028 0134     		adds	r4, r4, #1
 315              	.LVL39:
 316 002a 00E0     		b	.L31
 317              	.LVL40:
 318              	.L32:
 319 002c 0024     		movs	r4, #0
 320              	.L31:
 321              	.LVL41:
  70:matrixmath3.c ****         for (j = 0; j < 3; j++) {
 322              		.loc 1 70 0 is_stmt 0 discriminator 1
 323 002e 022C     		cmp	r4, #2
 324 0030 EDDD     		ble	.L30
  69:matrixmath3.c ****         for (j = 0; j < 3; j++) {
 325              		.loc 1 69 0 is_stmt 1 discriminator 2
 326 0032 0135     		adds	r5, r5, #1
 327              	.LVL42:
 328              	.L29:
  69:matrixmath3.c ****         for (j = 0; j < 3; j++) {
 329              		.loc 1 69 0 is_stmt 0 discriminator 1
 330 0034 022D     		cmp	r5, #2
 331 0036 F9DD     		ble	.L32
  72:matrixmath3.c ****         }
  73:matrixmath3.c ****     }
  74:matrixmath3.c **** }
 332              		.loc 1 74 0 is_stmt 1
 333 0038 BDE8F883 		pop	{r3, r4, r5, r6, r7, r8, r9, pc}
 334              		.cfi_endproc
 335              	.LFE4:
 336              		.size	Matrix3ScalarMultiply, .-Matrix3ScalarMultiply
 337              		.section	.text.Matrix3ScalarAdd,"ax",%progbits
 338              		.align	2
 339              		.global	Matrix3ScalarAdd
 340              		.thumb
 341              		.thumb_func
 342              		.type	Matrix3ScalarAdd, %function
 343              	Matrix3ScalarAdd:
 344              	.LFB5:
  75:matrixmath3.c **** 
  76:matrixmath3.c **** void Matrix3ScalarAdd(float x, float mat[3][3], float result[3][3]) {
 345              		.loc 1 76 0
 346              		.cfi_startproc
 347              		@ args = 0, pretend = 0, frame = 0
 348              		@ frame_needed = 0, uses_anonymous_args = 0
 349              	.LVL43:
 350 0000 2DE9F843 		push	{r3, r4, r5, r6, r7, r8, r9, lr}
 351              		.cfi_def_cfa_offset 32
 352              		.cfi_offset 3, -32
 353              		.cfi_offset 4, -28
 354              		.cfi_offset 5, -24
 355              		.cfi_offset 6, -20
 356              		.cfi_offset 7, -16
 357              		.cfi_offset 8, -12
 358              		.cfi_offset 9, -8
 359              		.cfi_offset 14, -4
 360 0004 8046     		mov	r8, r0
 361 0006 0F46     		mov	r7, r1
 362 0008 1646     		mov	r6, r2
ARM GAS  C:\Users\CALEBC~1\AppData\Local\Temp\ccs3wCQG.s 			page 9


 363              	.LVL44:
  77:matrixmath3.c ****     int i = 0, j = 0;
  78:matrixmath3.c ****     for (i = 0; i < 3; i++) {
 364              		.loc 1 78 0
 365 000a 0025     		movs	r5, #0
 366 000c 12E0     		b	.L35
 367              	.LVL45:
 368              	.L36:
  79:matrixmath3.c ****         for (j = 0; j < 3; j++) {
  80:matrixmath3.c ****             result[i][j] = (mat[i][j] + x);
 369              		.loc 1 80 0 discriminator 3
 370 000e 05EB4502 		add	r2, r5, r5, lsl #1
 371 0012 9300     		lsls	r3, r2, #2
 372 0014 06EB0309 		add	r9, r6, r3
 373 0018 3B44     		add	r3, r3, r7
 374 001a 4146     		mov	r1, r8
 375 001c 53F82400 		ldr	r0, [r3, r4, lsl #2]	@ float
 376 0020 FFF7FEFF 		bl	__aeabi_fadd
 377              	.LVL46:
 378 0024 49F82400 		str	r0, [r9, r4, lsl #2]	@ float
  79:matrixmath3.c ****         for (j = 0; j < 3; j++) {
 379              		.loc 1 79 0 discriminator 3
 380 0028 0134     		adds	r4, r4, #1
 381              	.LVL47:
 382 002a 00E0     		b	.L37
 383              	.LVL48:
 384              	.L38:
 385 002c 0024     		movs	r4, #0
 386              	.L37:
 387              	.LVL49:
  79:matrixmath3.c ****         for (j = 0; j < 3; j++) {
 388              		.loc 1 79 0 is_stmt 0 discriminator 1
 389 002e 022C     		cmp	r4, #2
 390 0030 EDDD     		ble	.L36
  78:matrixmath3.c ****         for (j = 0; j < 3; j++) {
 391              		.loc 1 78 0 is_stmt 1 discriminator 2
 392 0032 0135     		adds	r5, r5, #1
 393              	.LVL50:
 394              	.L35:
  78:matrixmath3.c ****         for (j = 0; j < 3; j++) {
 395              		.loc 1 78 0 is_stmt 0 discriminator 1
 396 0034 022D     		cmp	r5, #2
 397 0036 F9DD     		ble	.L38
  81:matrixmath3.c ****         }
  82:matrixmath3.c ****     }
  83:matrixmath3.c **** }
 398              		.loc 1 83 0 is_stmt 1
 399 0038 BDE8F883 		pop	{r3, r4, r5, r6, r7, r8, r9, pc}
 400              		.cfi_endproc
 401              	.LFE5:
 402              		.size	Matrix3ScalarAdd, .-Matrix3ScalarAdd
 403              		.section	.text.Matrix3VectorMultiply,"ax",%progbits
 404              		.align	2
 405              		.global	Matrix3VectorMultiply
 406              		.thumb
 407              		.thumb_func
 408              		.type	Matrix3VectorMultiply, %function
ARM GAS  C:\Users\CALEBC~1\AppData\Local\Temp\ccs3wCQG.s 			page 10


 409              	Matrix3VectorMultiply:
 410              	.LFB6:
  84:matrixmath3.c **** 
  85:matrixmath3.c **** /******************************************************************************
  86:matrixmath3.c ****  * Matrix - Vector Operations
  87:matrixmath3.c ****  *****************************************************************************/
  88:matrixmath3.c **** 
  89:matrixmath3.c **** void Matrix3VectorMultiply(float vec[3], float mat[3][3], float result[3]) {
 411              		.loc 1 89 0
 412              		.cfi_startproc
 413              		@ args = 0, pretend = 0, frame = 0
 414              		@ frame_needed = 0, uses_anonymous_args = 0
 415              	.LVL51:
 416 0000 2DE9F041 		push	{r4, r5, r6, r7, r8, lr}
 417              		.cfi_def_cfa_offset 24
 418              		.cfi_offset 4, -24
 419              		.cfi_offset 5, -20
 420              		.cfi_offset 6, -16
 421              		.cfi_offset 7, -12
 422              		.cfi_offset 8, -8
 423              		.cfi_offset 14, -4
 424 0004 8046     		mov	r8, r0
 425 0006 0F46     		mov	r7, r1
 426 0008 1646     		mov	r6, r2
 427              	.LVL52:
  90:matrixmath3.c ****   int i = 0, j = 0;
  91:matrixmath3.c ****   for (i = 0; i < 3; i++) {
 428              		.loc 1 91 0
 429 000a 0025     		movs	r5, #0
 430 000c 16E0     		b	.L41
 431              	.LVL53:
 432              	.L42:
  92:matrixmath3.c ****     for (j = 0; j < 3; j++) {
  93:matrixmath3.c ****       result[i] += vec[j] * mat[i][j];
 433              		.loc 1 93 0 discriminator 3
 434 000e 05EB4502 		add	r2, r5, r5, lsl #1
 435 0012 9300     		lsls	r3, r2, #2
 436 0014 3B44     		add	r3, r3, r7
 437 0016 53F82410 		ldr	r1, [r3, r4, lsl #2]	@ float
 438 001a 58F82400 		ldr	r0, [r8, r4, lsl #2]	@ float
 439 001e FFF7FEFF 		bl	__aeabi_fmul
 440              	.LVL54:
 441 0022 0146     		mov	r1, r0
 442 0024 56F82500 		ldr	r0, [r6, r5, lsl #2]	@ float
 443 0028 FFF7FEFF 		bl	__aeabi_fadd
 444              	.LVL55:
 445 002c 46F82500 		str	r0, [r6, r5, lsl #2]	@ float
  92:matrixmath3.c ****     for (j = 0; j < 3; j++) {
 446              		.loc 1 92 0 discriminator 3
 447 0030 0134     		adds	r4, r4, #1
 448              	.LVL56:
 449 0032 00E0     		b	.L43
 450              	.LVL57:
 451              	.L44:
 452 0034 0024     		movs	r4, #0
 453              	.L43:
 454              	.LVL58:
ARM GAS  C:\Users\CALEBC~1\AppData\Local\Temp\ccs3wCQG.s 			page 11


  92:matrixmath3.c ****     for (j = 0; j < 3; j++) {
 455              		.loc 1 92 0 is_stmt 0 discriminator 1
 456 0036 022C     		cmp	r4, #2
 457 0038 E9DD     		ble	.L42
  91:matrixmath3.c ****     for (j = 0; j < 3; j++) {
 458              		.loc 1 91 0 is_stmt 1 discriminator 2
 459 003a 0135     		adds	r5, r5, #1
 460              	.LVL59:
 461              	.L41:
  91:matrixmath3.c ****     for (j = 0; j < 3; j++) {
 462              		.loc 1 91 0 is_stmt 0 discriminator 1
 463 003c 022D     		cmp	r5, #2
 464 003e F9DD     		ble	.L44
  94:matrixmath3.c ****     }
  95:matrixmath3.c ****   }
  96:matrixmath3.c **** }
 465              		.loc 1 96 0 is_stmt 1
 466 0040 BDE8F081 		pop	{r4, r5, r6, r7, r8, pc}
 467              		.cfi_endproc
 468              	.LFE6:
 469              		.size	Matrix3VectorMultiply, .-Matrix3VectorMultiply
 470              		.section	.text.Matrix3Determinant,"ax",%progbits
 471              		.align	2
 472              		.global	Matrix3Determinant
 473              		.thumb
 474              		.thumb_func
 475              		.type	Matrix3Determinant, %function
 476              	Matrix3Determinant:
 477              	.LFB7:
  97:matrixmath3.c **** 
  98:matrixmath3.c **** /******************************************************************************
  99:matrixmath3.c ****  * Unary Matrix Operations
 100:matrixmath3.c ****  *****************************************************************************/
 101:matrixmath3.c **** 
 102:matrixmath3.c **** float Matrix3Determinant(float mat[3][3]) {
 478              		.loc 1 102 0
 479              		.cfi_startproc
 480              		@ args = 0, pretend = 0, frame = 8
 481              		@ frame_needed = 0, uses_anonymous_args = 0
 482              	.LVL60:
 483 0000 2DE9F04F 		push	{r4, r5, r6, r7, r8, r9, r10, fp, lr}
 484              		.cfi_def_cfa_offset 36
 485              		.cfi_offset 4, -36
 486              		.cfi_offset 5, -32
 487              		.cfi_offset 6, -28
 488              		.cfi_offset 7, -24
 489              		.cfi_offset 8, -20
 490              		.cfi_offset 9, -16
 491              		.cfi_offset 10, -12
 492              		.cfi_offset 11, -8
 493              		.cfi_offset 14, -4
 494 0004 83B0     		sub	sp, sp, #12
 495              		.cfi_def_cfa_offset 48
 496 0006 0446     		mov	r4, r0
 497              	.LVL61:
 103:matrixmath3.c ****     float determTotal = 0;
 104:matrixmath3.c ****     float leftRightDiag = 0;
ARM GAS  C:\Users\CALEBC~1\AppData\Local\Temp\ccs3wCQG.s 			page 12


 105:matrixmath3.c ****     float rightLeftDiag = 0;
 106:matrixmath3.c ****     leftRightDiag += (mat[0][0] * mat[1][1] * mat[2][2]);
 498              		.loc 1 106 0
 499 0008 0768     		ldr	r7, [r0]	@ float
 500 000a D0F810A0 		ldr	r10, [r0, #16]	@ float
 501 000e 5146     		mov	r1, r10
 502 0010 3846     		mov	r0, r7
 503              	.LVL62:
 504 0012 FFF7FEFF 		bl	__aeabi_fmul
 505              	.LVL63:
 506 0016 236A     		ldr	r3, [r4, #32]	@ float
 507 0018 0093     		str	r3, [sp]	@ float
 508 001a 1946     		mov	r1, r3
 509 001c FFF7FEFF 		bl	__aeabi_fmul
 510              	.LVL64:
 511 0020 0021     		movs	r1, #0
 512 0022 FFF7FEFF 		bl	__aeabi_fadd
 513              	.LVL65:
 514 0026 0646     		mov	r6, r0
 515              	.LVL66:
 107:matrixmath3.c ****     leftRightDiag += (mat[0][1] * mat[1][2] * mat[2][0]);
 516              		.loc 1 107 0
 517 0028 6568     		ldr	r5, [r4, #4]	@ float
 518 002a D4F81480 		ldr	r8, [r4, #20]	@ float
 519 002e 4146     		mov	r1, r8
 520 0030 2846     		mov	r0, r5
 521              	.LVL67:
 522 0032 FFF7FEFF 		bl	__aeabi_fmul
 523              	.LVL68:
 524 0036 D4F81890 		ldr	r9, [r4, #24]	@ float
 525 003a 4946     		mov	r1, r9
 526 003c FFF7FEFF 		bl	__aeabi_fmul
 527              	.LVL69:
 528 0040 0146     		mov	r1, r0
 529 0042 3046     		mov	r0, r6
 530 0044 FFF7FEFF 		bl	__aeabi_fadd
 531              	.LVL70:
 532 0048 0190     		str	r0, [sp, #4]	@ float
 533              	.LVL71:
 108:matrixmath3.c ****     leftRightDiag += (mat[0][2] * mat[1][0] * mat[2][1]);
 534              		.loc 1 108 0
 535 004a D4F808B0 		ldr	fp, [r4, #8]	@ float
 536 004e E668     		ldr	r6, [r4, #12]	@ float
 537 0050 3146     		mov	r1, r6
 538 0052 5846     		mov	r0, fp
 539              	.LVL72:
 540 0054 FFF7FEFF 		bl	__aeabi_fmul
 541              	.LVL73:
 542 0058 E469     		ldr	r4, [r4, #28]	@ float
 543              	.LVL74:
 544 005a 2146     		mov	r1, r4
 545 005c FFF7FEFF 		bl	__aeabi_fmul
 546              	.LVL75:
 547 0060 0146     		mov	r1, r0
 548 0062 0198     		ldr	r0, [sp, #4]	@ float
 549 0064 FFF7FEFF 		bl	__aeabi_fadd
 550              	.LVL76:
ARM GAS  C:\Users\CALEBC~1\AppData\Local\Temp\ccs3wCQG.s 			page 13


 551 0068 0190     		str	r0, [sp, #4]	@ float
 552              	.LVL77:
 109:matrixmath3.c **** 
 110:matrixmath3.c ****     rightLeftDiag += (mat[0][2] * mat[1][1] * mat[2][0]);
 553              		.loc 1 110 0
 554 006a 5946     		mov	r1, fp
 555 006c 5046     		mov	r0, r10
 556              	.LVL78:
 557 006e FFF7FEFF 		bl	__aeabi_fmul
 558              	.LVL79:
 559 0072 0146     		mov	r1, r0
 560 0074 4846     		mov	r0, r9
 561 0076 FFF7FEFF 		bl	__aeabi_fmul
 562              	.LVL80:
 563 007a 0021     		movs	r1, #0
 564 007c FFF7FEFF 		bl	__aeabi_fadd
 565              	.LVL81:
 566 0080 8146     		mov	r9, r0
 567              	.LVL82:
 111:matrixmath3.c ****     rightLeftDiag += (mat[0][0] * mat[1][2] * mat[2][1]);
 568              		.loc 1 111 0
 569 0082 4146     		mov	r1, r8
 570 0084 3846     		mov	r0, r7
 571              	.LVL83:
 572 0086 FFF7FEFF 		bl	__aeabi_fmul
 573              	.LVL84:
 574 008a 0146     		mov	r1, r0
 575 008c 2046     		mov	r0, r4
 576 008e FFF7FEFF 		bl	__aeabi_fmul
 577              	.LVL85:
 578 0092 0146     		mov	r1, r0
 579 0094 4846     		mov	r0, r9
 580 0096 FFF7FEFF 		bl	__aeabi_fadd
 581              	.LVL86:
 582 009a 0446     		mov	r4, r0
 583              	.LVL87:
 112:matrixmath3.c ****     rightLeftDiag += (mat[0][1] * mat[1][0] * mat[2][2]);
 584              		.loc 1 112 0
 585 009c 3146     		mov	r1, r6
 586 009e 2846     		mov	r0, r5
 587              	.LVL88:
 588 00a0 FFF7FEFF 		bl	__aeabi_fmul
 589              	.LVL89:
 590 00a4 0146     		mov	r1, r0
 591 00a6 0098     		ldr	r0, [sp]	@ float
 592 00a8 FFF7FEFF 		bl	__aeabi_fmul
 593              	.LVL90:
 594 00ac 0146     		mov	r1, r0
 595 00ae 2046     		mov	r0, r4
 596 00b0 FFF7FEFF 		bl	__aeabi_fadd
 597              	.LVL91:
 113:matrixmath3.c **** 
 114:matrixmath3.c ****     determTotal = leftRightDiag - rightLeftDiag;
 598              		.loc 1 114 0
 599 00b4 0146     		mov	r1, r0
 600 00b6 0198     		ldr	r0, [sp, #4]	@ float
 601              	.LVL92:
ARM GAS  C:\Users\CALEBC~1\AppData\Local\Temp\ccs3wCQG.s 			page 14


 602 00b8 FFF7FEFF 		bl	__aeabi_fsub
 603              	.LVL93:
 115:matrixmath3.c **** 
 116:matrixmath3.c ****     return determTotal;
 117:matrixmath3.c **** }
 604              		.loc 1 117 0
 605 00bc 03B0     		add	sp, sp, #12
 606              		.cfi_def_cfa_offset 36
 607              		@ sp needed
 608 00be BDE8F08F 		pop	{r4, r5, r6, r7, r8, r9, r10, fp, pc}
 609              		.cfi_endproc
 610              	.LFE7:
 611              		.size	Matrix3Determinant, .-Matrix3Determinant
 612 00c2 00BF     		.section	.text.Matrix3Trace,"ax",%progbits
 613              		.align	2
 614              		.global	Matrix3Trace
 615              		.thumb
 616              		.thumb_func
 617              		.type	Matrix3Trace, %function
 618              	Matrix3Trace:
 619              	.LFB8:
 118:matrixmath3.c **** 
 119:matrixmath3.c **** float Matrix3Trace(float mat[3][3]) {
 620              		.loc 1 119 0
 621              		.cfi_startproc
 622              		@ args = 0, pretend = 0, frame = 0
 623              		@ frame_needed = 0, uses_anonymous_args = 0
 624              	.LVL94:
 625 0000 70B5     		push	{r4, r5, r6, lr}
 626              		.cfi_def_cfa_offset 16
 627              		.cfi_offset 4, -16
 628              		.cfi_offset 5, -12
 629              		.cfi_offset 6, -8
 630              		.cfi_offset 14, -4
 631 0002 0646     		mov	r6, r0
 632              	.LVL95:
 120:matrixmath3.c ****     float traceTotal = 0;
 121:matrixmath3.c ****     int i = 0, j = 0;
 633              		.loc 1 121 0
 634 0004 0025     		movs	r5, #0
 122:matrixmath3.c ****     for (i = 0; i < 3; i++) {
 635              		.loc 1 122 0
 636 0006 2C46     		mov	r4, r5
 120:matrixmath3.c ****     float traceTotal = 0;
 637              		.loc 1 120 0
 638 0008 0020     		movs	r0, #0
 639              	.LVL96:
 640              		.loc 1 122 0
 641 000a 09E0     		b	.L49
 642              	.LVL97:
 643              	.L50:
 123:matrixmath3.c ****         traceTotal += mat[i][j];
 644              		.loc 1 123 0 discriminator 3
 645 000c 04EB4402 		add	r2, r4, r4, lsl #1
 646 0010 9300     		lsls	r3, r2, #2
 647 0012 3344     		add	r3, r3, r6
 648 0014 53F82510 		ldr	r1, [r3, r5, lsl #2]	@ float
ARM GAS  C:\Users\CALEBC~1\AppData\Local\Temp\ccs3wCQG.s 			page 15


 649 0018 FFF7FEFF 		bl	__aeabi_fadd
 650              	.LVL98:
 124:matrixmath3.c ****         j++;
 651              		.loc 1 124 0 discriminator 3
 652 001c 0135     		adds	r5, r5, #1
 653              	.LVL99:
 122:matrixmath3.c ****     for (i = 0; i < 3; i++) {
 654              		.loc 1 122 0 discriminator 3
 655 001e 0134     		adds	r4, r4, #1
 656              	.LVL100:
 657              	.L49:
 122:matrixmath3.c ****     for (i = 0; i < 3; i++) {
 658              		.loc 1 122 0 is_stmt 0 discriminator 1
 659 0020 022C     		cmp	r4, #2
 660 0022 F3DD     		ble	.L50
 125:matrixmath3.c ****     }
 126:matrixmath3.c ****     return traceTotal;
 127:matrixmath3.c **** }
 661              		.loc 1 127 0 is_stmt 1
 662 0024 70BD     		pop	{r4, r5, r6, pc}
 663              		.cfi_endproc
 664              	.LFE8:
 665              		.size	Matrix3Trace, .-Matrix3Trace
 666 0026 00BF     		.section	.text.Matrix3Transpose,"ax",%progbits
 667              		.align	2
 668              		.global	Matrix3Transpose
 669              		.thumb
 670              		.thumb_func
 671              		.type	Matrix3Transpose, %function
 672              	Matrix3Transpose:
 673              	.LFB9:
 128:matrixmath3.c **** 
 129:matrixmath3.c **** void Matrix3Transpose(float mat[3][3], float result[3][3]) {
 674              		.loc 1 129 0
 675              		.cfi_startproc
 676              		@ args = 0, pretend = 0, frame = 0
 677              		@ frame_needed = 0, uses_anonymous_args = 0
 678              		@ link register save eliminated.
 679              	.LVL101:
 680 0000 70B4     		push	{r4, r5, r6}
 681              		.cfi_def_cfa_offset 12
 682              		.cfi_offset 4, -12
 683              		.cfi_offset 5, -8
 684              		.cfi_offset 6, -4
 685              	.LVL102:
 130:matrixmath3.c ****     int i = 0, j = 0;
 131:matrixmath3.c ****     for (i = 0; i < 3; i++) {
 686              		.loc 1 131 0
 687 0002 0025     		movs	r5, #0
 688 0004 11E0     		b	.L53
 689              	.LVL103:
 690              	.L54:
 132:matrixmath3.c ****         for (j = 0; j < 3; j++) {
 133:matrixmath3.c ****             result[j][i] = mat[i][j];
 691              		.loc 1 133 0 discriminator 3
 692 0006 03EB4304 		add	r4, r3, r3, lsl #1
 693 000a A200     		lsls	r2, r4, #2
ARM GAS  C:\Users\CALEBC~1\AppData\Local\Temp\ccs3wCQG.s 			page 16


 694 000c 0A44     		add	r2, r2, r1
 695 000e 05EB4506 		add	r6, r5, r5, lsl #1
 696 0012 B400     		lsls	r4, r6, #2
 697 0014 0444     		add	r4, r4, r0
 698 0016 54F82340 		ldr	r4, [r4, r3, lsl #2]	@ float
 699 001a 42F82540 		str	r4, [r2, r5, lsl #2]	@ float
 132:matrixmath3.c ****         for (j = 0; j < 3; j++) {
 700              		.loc 1 132 0 discriminator 3
 701 001e 0133     		adds	r3, r3, #1
 702              	.LVL104:
 703 0020 00E0     		b	.L55
 704              	.LVL105:
 705              	.L56:
 706 0022 0023     		movs	r3, #0
 707              	.L55:
 708              	.LVL106:
 132:matrixmath3.c ****         for (j = 0; j < 3; j++) {
 709              		.loc 1 132 0 is_stmt 0 discriminator 1
 710 0024 022B     		cmp	r3, #2
 711 0026 EEDD     		ble	.L54
 131:matrixmath3.c ****         for (j = 0; j < 3; j++) {
 712              		.loc 1 131 0 is_stmt 1 discriminator 2
 713 0028 0135     		adds	r5, r5, #1
 714              	.LVL107:
 715              	.L53:
 131:matrixmath3.c ****         for (j = 0; j < 3; j++) {
 716              		.loc 1 131 0 is_stmt 0 discriminator 1
 717 002a 022D     		cmp	r5, #2
 718 002c F9DD     		ble	.L56
 134:matrixmath3.c ****         }
 135:matrixmath3.c ****     }
 136:matrixmath3.c **** }
 719              		.loc 1 136 0 is_stmt 1
 720 002e 70BC     		pop	{r4, r5, r6}
 721              		.cfi_restore 6
 722              		.cfi_restore 5
 723              		.cfi_restore 4
 724              		.cfi_def_cfa_offset 0
 725              	.LVL108:
 726 0030 7047     		bx	lr
 727              		.cfi_endproc
 728              	.LFE9:
 729              		.size	Matrix3Transpose, .-Matrix3Transpose
 730              		.global	__aeabi_fdiv
 731 0032 00BF     		.section	.text.Matrix3Inverse,"ax",%progbits
 732              		.align	2
 733              		.global	Matrix3Inverse
 734              		.thumb
 735              		.thumb_func
 736              		.type	Matrix3Inverse, %function
 737              	Matrix3Inverse:
 738              	.LFB10:
 137:matrixmath3.c **** 
 138:matrixmath3.c **** void Matrix3Inverse(float mat[3][3], float result[3][3]) {
 739              		.loc 1 138 0
 740              		.cfi_startproc
 741              		@ args = 0, pretend = 0, frame = 88
ARM GAS  C:\Users\CALEBC~1\AppData\Local\Temp\ccs3wCQG.s 			page 17


 742              		@ frame_needed = 0, uses_anonymous_args = 0
 743              	.LVL109:
 744 0000 2DE9F04F 		push	{r4, r5, r6, r7, r8, r9, r10, fp, lr}
 745              		.cfi_def_cfa_offset 36
 746              		.cfi_offset 4, -36
 747              		.cfi_offset 5, -32
 748              		.cfi_offset 6, -28
 749              		.cfi_offset 7, -24
 750              		.cfi_offset 8, -20
 751              		.cfi_offset 9, -16
 752              		.cfi_offset 10, -12
 753              		.cfi_offset 11, -8
 754              		.cfi_offset 14, -4
 755 0004 97B0     		sub	sp, sp, #92
 756              		.cfi_def_cfa_offset 128
 757 0006 0446     		mov	r4, r0
 758 0008 0391     		str	r1, [sp, #12]
 759              	.LVL110:
 139:matrixmath3.c ****     float determinateInv = 0;
 140:matrixmath3.c ****     float cofactorMat[3][3] = {{},{},{}};
 760              		.loc 1 140 0
 761 000a 2425     		movs	r5, #36
 762 000c 2A46     		mov	r2, r5
 763 000e 0021     		movs	r1, #0
 764              	.LVL111:
 765 0010 0DA8     		add	r0, sp, #52
 766              	.LVL112:
 767 0012 FFF7FEFF 		bl	memset
 768              	.LVL113:
 141:matrixmath3.c ****     float adjugateMat[3][3] = {{},{},{}};
 769              		.loc 1 141 0
 770 0016 2A46     		mov	r2, r5
 771 0018 0021     		movs	r1, #0
 772 001a 04A8     		add	r0, sp, #16
 773 001c FFF7FEFF 		bl	memset
 774              	.LVL114:
 142:matrixmath3.c **** 
 143:matrixmath3.c ****     cofactorMat[0][0] = (mat[1][1] * mat[2][2]) - (mat[1][2] * mat[2][1]);
 775              		.loc 1 143 0
 776 0020 2369     		ldr	r3, [r4, #16]	@ float
 777 0022 9846     		mov	r8, r3
 778 0024 D4F820B0 		ldr	fp, [r4, #32]	@ float
 779 0028 5946     		mov	r1, fp
 780 002a 1846     		mov	r0, r3
 781 002c FFF7FEFF 		bl	__aeabi_fmul
 782              	.LVL115:
 783 0030 0546     		mov	r5, r0
 784 0032 6769     		ldr	r7, [r4, #20]	@ float
 785 0034 D4F81C90 		ldr	r9, [r4, #28]	@ float
 786 0038 4946     		mov	r1, r9
 787 003a 3846     		mov	r0, r7
 788 003c FFF7FEFF 		bl	__aeabi_fmul
 789              	.LVL116:
 790 0040 0146     		mov	r1, r0
 791 0042 2846     		mov	r0, r5
 792 0044 FFF7FEFF 		bl	__aeabi_fsub
 793              	.LVL117:
ARM GAS  C:\Users\CALEBC~1\AppData\Local\Temp\ccs3wCQG.s 			page 18


 794 0048 0D90     		str	r0, [sp, #52]	@ float
 144:matrixmath3.c ****     cofactorMat[0][1] = (mat[1][2] * mat[2][0]) - (mat[1][0] * mat[2][2]);
 795              		.loc 1 144 0
 796 004a D4F818A0 		ldr	r10, [r4, #24]	@ float
 797 004e 5146     		mov	r1, r10
 798 0050 3846     		mov	r0, r7
 799 0052 FFF7FEFF 		bl	__aeabi_fmul
 800              	.LVL118:
 801 0056 0646     		mov	r6, r0
 802 0058 E568     		ldr	r5, [r4, #12]	@ float
 803 005a 2946     		mov	r1, r5
 804 005c 5846     		mov	r0, fp
 805 005e FFF7FEFF 		bl	__aeabi_fmul
 806              	.LVL119:
 807 0062 0146     		mov	r1, r0
 808 0064 3046     		mov	r0, r6
 809 0066 FFF7FEFF 		bl	__aeabi_fsub
 810              	.LVL120:
 811 006a 0E90     		str	r0, [sp, #56]	@ float
 145:matrixmath3.c ****     cofactorMat[0][2] = (mat[1][0] * mat[2][1]) - (mat[1][1] * mat[2][0]);
 812              		.loc 1 145 0
 813 006c 2946     		mov	r1, r5
 814 006e 4846     		mov	r0, r9
 815 0070 FFF7FEFF 		bl	__aeabi_fmul
 816              	.LVL121:
 817 0074 0646     		mov	r6, r0
 818 0076 5146     		mov	r1, r10
 819 0078 CDF80480 		str	r8, [sp, #4]	@ float
 820 007c 4046     		mov	r0, r8
 821 007e FFF7FEFF 		bl	__aeabi_fmul
 822              	.LVL122:
 823 0082 0146     		mov	r1, r0
 824 0084 3046     		mov	r0, r6
 825 0086 FFF7FEFF 		bl	__aeabi_fsub
 826              	.LVL123:
 827 008a 0F90     		str	r0, [sp, #60]	@ float
 146:matrixmath3.c ****     cofactorMat[1][0] = (mat[0][2] * mat[2][1]) - (mat[0][1] * mat[2][2]);
 828              		.loc 1 146 0
 829 008c D4F80880 		ldr	r8, [r4, #8]	@ float
 830 0090 4146     		mov	r1, r8
 831 0092 4846     		mov	r0, r9
 832 0094 FFF7FEFF 		bl	__aeabi_fmul
 833              	.LVL124:
 834 0098 0646     		mov	r6, r0
 835 009a 6368     		ldr	r3, [r4, #4]	@ float
 836 009c 0293     		str	r3, [sp, #8]	@ float
 837 009e 1946     		mov	r1, r3
 838 00a0 5846     		mov	r0, fp
 839 00a2 FFF7FEFF 		bl	__aeabi_fmul
 840              	.LVL125:
 841 00a6 0146     		mov	r1, r0
 842 00a8 3046     		mov	r0, r6
 843 00aa FFF7FEFF 		bl	__aeabi_fsub
 844              	.LVL126:
 845 00ae 1090     		str	r0, [sp, #64]	@ float
 147:matrixmath3.c ****     cofactorMat[1][1] = (mat[0][0] * mat[2][2]) - (mat[0][2] * mat[2][0]);
 846              		.loc 1 147 0
ARM GAS  C:\Users\CALEBC~1\AppData\Local\Temp\ccs3wCQG.s 			page 19


 847 00b0 2668     		ldr	r6, [r4]	@ float
 848 00b2 3146     		mov	r1, r6
 849 00b4 5846     		mov	r0, fp
 850 00b6 FFF7FEFF 		bl	__aeabi_fmul
 851              	.LVL127:
 852 00ba 8346     		mov	fp, r0
 853 00bc 4146     		mov	r1, r8
 854 00be 5046     		mov	r0, r10
 855 00c0 FFF7FEFF 		bl	__aeabi_fmul
 856              	.LVL128:
 857 00c4 0146     		mov	r1, r0
 858 00c6 5846     		mov	r0, fp
 859 00c8 FFF7FEFF 		bl	__aeabi_fsub
 860              	.LVL129:
 861 00cc 1190     		str	r0, [sp, #68]	@ float
 148:matrixmath3.c ****     cofactorMat[1][2] = (mat[0][1] * mat[2][0]) - (mat[0][0] * mat[2][1]);
 862              		.loc 1 148 0
 863 00ce DDF808B0 		ldr	fp, [sp, #8]	@ float
 864 00d2 5946     		mov	r1, fp
 865 00d4 5046     		mov	r0, r10
 866 00d6 FFF7FEFF 		bl	__aeabi_fmul
 867              	.LVL130:
 868 00da 8246     		mov	r10, r0
 869 00dc 3146     		mov	r1, r6
 870 00de 4846     		mov	r0, r9
 871 00e0 FFF7FEFF 		bl	__aeabi_fmul
 872              	.LVL131:
 873 00e4 0146     		mov	r1, r0
 874 00e6 5046     		mov	r0, r10
 875 00e8 FFF7FEFF 		bl	__aeabi_fsub
 876              	.LVL132:
 877 00ec 1290     		str	r0, [sp, #72]	@ float
 149:matrixmath3.c ****     cofactorMat[2][0] = (mat[0][1] * mat[1][2]) - (mat[0][2] * mat[1][1]);
 878              		.loc 1 149 0
 879 00ee 3946     		mov	r1, r7
 880 00f0 5846     		mov	r0, fp
 881 00f2 FFF7FEFF 		bl	__aeabi_fmul
 882              	.LVL133:
 883 00f6 8146     		mov	r9, r0
 884 00f8 DDF804A0 		ldr	r10, [sp, #4]	@ float
 885 00fc 5146     		mov	r1, r10
 886 00fe 4046     		mov	r0, r8
 887 0100 FFF7FEFF 		bl	__aeabi_fmul
 888              	.LVL134:
 889 0104 0146     		mov	r1, r0
 890 0106 4846     		mov	r0, r9
 891 0108 FFF7FEFF 		bl	__aeabi_fsub
 892              	.LVL135:
 893 010c 1390     		str	r0, [sp, #76]	@ float
 150:matrixmath3.c ****     cofactorMat[2][1] = (mat[0][2] * mat[1][0]) - (mat[0][0] * mat[1][2]);
 894              		.loc 1 150 0
 895 010e 2946     		mov	r1, r5
 896 0110 4046     		mov	r0, r8
 897 0112 FFF7FEFF 		bl	__aeabi_fmul
 898              	.LVL136:
 899 0116 8046     		mov	r8, r0
 900 0118 3946     		mov	r1, r7
ARM GAS  C:\Users\CALEBC~1\AppData\Local\Temp\ccs3wCQG.s 			page 20


 901 011a 3046     		mov	r0, r6
 902 011c FFF7FEFF 		bl	__aeabi_fmul
 903              	.LVL137:
 904 0120 0146     		mov	r1, r0
 905 0122 4046     		mov	r0, r8
 906 0124 FFF7FEFF 		bl	__aeabi_fsub
 907              	.LVL138:
 908 0128 1490     		str	r0, [sp, #80]	@ float
 151:matrixmath3.c ****     cofactorMat[2][2] = (mat[0][0] * mat[1][1]) - (mat[0][1] * mat[1][0]);
 909              		.loc 1 151 0
 910 012a 5146     		mov	r1, r10
 911 012c 3046     		mov	r0, r6
 912 012e FFF7FEFF 		bl	__aeabi_fmul
 913              	.LVL139:
 914 0132 0646     		mov	r6, r0
 915 0134 2946     		mov	r1, r5
 916 0136 5846     		mov	r0, fp
 917 0138 FFF7FEFF 		bl	__aeabi_fmul
 918              	.LVL140:
 919 013c 0146     		mov	r1, r0
 920 013e 3046     		mov	r0, r6
 921 0140 FFF7FEFF 		bl	__aeabi_fsub
 922              	.LVL141:
 923 0144 1590     		str	r0, [sp, #84]	@ float
 152:matrixmath3.c ****     Matrix3Transpose(cofactorMat, adjugateMat);
 924              		.loc 1 152 0
 925 0146 04A9     		add	r1, sp, #16
 926 0148 0DA8     		add	r0, sp, #52
 927 014a FFF7FEFF 		bl	Matrix3Transpose
 928              	.LVL142:
 153:matrixmath3.c ****     determinateInv = (1 / Matrix3Determinant(mat));
 929              		.loc 1 153 0
 930 014e 2046     		mov	r0, r4
 931 0150 FFF7FEFF 		bl	Matrix3Determinant
 932              	.LVL143:
 933 0154 0146     		mov	r1, r0
 934 0156 4FF07E50 		mov	r0, #1065353216
 935 015a FFF7FEFF 		bl	__aeabi_fdiv
 936              	.LVL144:
 154:matrixmath3.c ****     Matrix3ScalarMultiply(determinateInv, adjugateMat, result);
 937              		.loc 1 154 0
 938 015e 039A     		ldr	r2, [sp, #12]
 939 0160 04A9     		add	r1, sp, #16
 940 0162 FFF7FEFF 		bl	Matrix3ScalarMultiply
 941              	.LVL145:
 155:matrixmath3.c **** }
 942              		.loc 1 155 0
 943 0166 17B0     		add	sp, sp, #92
 944              		.cfi_def_cfa_offset 36
 945              		@ sp needed
 946 0168 BDE8F08F 		pop	{r4, r5, r6, r7, r8, r9, r10, fp, pc}
 947              		.cfi_endproc
 948              	.LFE10:
 949              		.size	Matrix3Inverse, .-Matrix3Inverse
 950              		.section	.text.Matrix3Print,"ax",%progbits
 951              		.align	2
 952              		.global	Matrix3Print
ARM GAS  C:\Users\CALEBC~1\AppData\Local\Temp\ccs3wCQG.s 			page 21


 953              		.thumb
 954              		.thumb_func
 955              		.type	Matrix3Print, %function
 956              	Matrix3Print:
 957              	.LFB11:
 156:matrixmath3.c **** 
 157:matrixmath3.c **** void Matrix3Print(float mat[3][3]) {
 958              		.loc 1 157 0
 959              		.cfi_startproc
 960              		@ args = 0, pretend = 0, frame = 0
 961              		@ frame_needed = 0, uses_anonymous_args = 0
 962              	.LVL146:
 963 0000 70B5     		push	{r4, r5, r6, lr}
 964              		.cfi_def_cfa_offset 16
 965              		.cfi_offset 4, -16
 966              		.cfi_offset 5, -12
 967              		.cfi_offset 6, -8
 968              		.cfi_offset 14, -4
 969 0002 0646     		mov	r6, r0
 970              	.LVL147:
 158:matrixmath3.c ****     int i = 0, j = 0;
 159:matrixmath3.c ****     printf(" -----------------------------------\n");
 971              		.loc 1 159 0
 972 0004 1048     		ldr	r0, .L66
 973              	.LVL148:
 974 0006 FFF7FEFF 		bl	puts
 975              	.LVL149:
 160:matrixmath3.c ****     for (i = 0; i < 3; i++) {
 976              		.loc 1 160 0
 977 000a 0025     		movs	r5, #0
 978 000c 15E0     		b	.L61
 979              	.LVL150:
 980              	.L62:
 161:matrixmath3.c ****         for (j = 0; j < 3; j++) {
 162:matrixmath3.c ****             printf("| % .6f ", (double) mat[i][j]);
 981              		.loc 1 162 0 discriminator 3
 982 000e 05EB4502 		add	r2, r5, r5, lsl #1
 983 0012 9300     		lsls	r3, r2, #2
 984 0014 3344     		add	r3, r3, r6
 985 0016 53F82400 		ldr	r0, [r3, r4, lsl #2]	@ float
 986 001a FFF7FEFF 		bl	__aeabi_f2d
 987              	.LVL151:
 988 001e 0246     		mov	r2, r0
 989 0020 0B46     		mov	r3, r1
 990 0022 0A48     		ldr	r0, .L66+4
 991 0024 FFF7FEFF 		bl	printf
 992              	.LVL152:
 161:matrixmath3.c ****         for (j = 0; j < 3; j++) {
 993              		.loc 1 161 0 discriminator 3
 994 0028 0134     		adds	r4, r4, #1
 995              	.LVL153:
 996 002a 00E0     		b	.L63
 997              	.LVL154:
 998              	.L64:
 999 002c 0024     		movs	r4, #0
 1000              	.L63:
 1001              	.LVL155:
ARM GAS  C:\Users\CALEBC~1\AppData\Local\Temp\ccs3wCQG.s 			page 22


 161:matrixmath3.c ****         for (j = 0; j < 3; j++) {
 1002              		.loc 1 161 0 is_stmt 0 discriminator 1
 1003 002e 022C     		cmp	r4, #2
 1004 0030 EDDD     		ble	.L62
 163:matrixmath3.c ****         }
 164:matrixmath3.c ****         printf("|\n -----------------------------------\n");
 1005              		.loc 1 164 0 is_stmt 1 discriminator 2
 1006 0032 0748     		ldr	r0, .L66+8
 1007 0034 FFF7FEFF 		bl	puts
 1008              	.LVL156:
 160:matrixmath3.c ****         for (j = 0; j < 3; j++) {
 1009              		.loc 1 160 0 discriminator 2
 1010 0038 0135     		adds	r5, r5, #1
 1011              	.LVL157:
 1012              	.L61:
 160:matrixmath3.c ****         for (j = 0; j < 3; j++) {
 1013              		.loc 1 160 0 is_stmt 0 discriminator 1
 1014 003a 022D     		cmp	r5, #2
 1015 003c F6DD     		ble	.L64
 165:matrixmath3.c ****     }
 166:matrixmath3.c ****     printf("\n");
 1016              		.loc 1 166 0 is_stmt 1
 1017 003e 0A20     		movs	r0, #10
 1018 0040 FFF7FEFF 		bl	putchar
 1019              	.LVL158:
 1020 0044 70BD     		pop	{r4, r5, r6, pc}
 1021              	.LVL159:
 1022              	.L67:
 1023 0046 00BF     		.align	2
 1024              	.L66:
 1025 0048 00000000 		.word	.LC0
 1026 004c 28000000 		.word	.LC1
 1027 0050 34000000 		.word	.LC2
 1028              		.cfi_endproc
 1029              	.LFE11:
 1030              		.size	Matrix3Print, .-Matrix3Print
 1031              		.section	.rodata.str1.4,"aMS",%progbits,1
 1032              		.align	2
 1033              	.LC0:
 1034 0000 202D2D2D 		.ascii	" -----------------------------------\000"
 1034      2D2D2D2D 
 1034      2D2D2D2D 
 1034      2D2D2D2D 
 1034      2D2D2D2D 
 1035 0025 000000   		.space	3
 1036              	.LC1:
 1037 0028 7C202520 		.ascii	"| % .6f \000"
 1037      2E366620 
 1037      00
 1038 0031 000000   		.space	3
 1039              	.LC2:
 1040 0034 7C0A202D 		.ascii	"|\012 -----------------------------------\000"
 1040      2D2D2D2D 
 1040      2D2D2D2D 
 1040      2D2D2D2D 
 1040      2D2D2D2D 
 1041              		.text
ARM GAS  C:\Users\CALEBC~1\AppData\Local\Temp\ccs3wCQG.s 			page 23


 1042              	.Letext0:
 1043              		.file 2 "<built-in>"
 1044              		.file 3 "c:\\program files (x86)\\cypress\\psoc creator\\4.2\\psoc creator\\import\\gnu\\arm\\5.4.