ARM GAS  C:\Users\CALEBC~1\AppData\Local\Temp\cchnwacN.s 			page 1


   1              		.syntax unified
   2              		.cpu cortex-m3
   3              		.fpu softvfp
   4              		.eabi_attribute 20, 1
   5              		.eabi_attribute 21, 1
   6              		.eabi_attribute 23, 3
   7              		.eabi_attribute 24, 1
   8              		.eabi_attribute 25, 1
   9              		.eabi_attribute 26, 1
  10              		.eabi_attribute 30, 1
  11              		.eabi_attribute 34, 1
  12              		.eabi_attribute 18, 4
  13              		.thumb
  14              		.syntax unified
  15              		.file	"MPU9250.c"
  16              		.text
  17              	.Ltext0:
  18              		.cfi_sections	.debug_frame
  19              		.section	.text.MPU9250_Init,"ax",%progbits
  20              		.align	2
  21              		.global	MPU9250_Init
  22              		.thumb
  23              		.thumb_func
  24              		.type	MPU9250_Init, %function
  25              	MPU9250_Init:
  26              	.LFB0:
  27              		.file 1 "MPU9250.c"
   1:MPU9250.c     **** #include "MPU9250.h"
   2:MPU9250.c     **** #include "I2C.h"
   3:MPU9250.c     **** 
   4:MPU9250.c     **** #ifdef MPU9250_TEST
   5:MPU9250.c     **** #include <stdio.h>
   6:MPU9250.c     **** #endif
   7:MPU9250.c     **** 
   8:MPU9250.c     **** /*******************************************************************************
   9:MPU9250.c     ****  * PRIVATE #DEFINES                                                            *
  10:MPU9250.c     ****  ******************************************************************************/
  11:MPU9250.c     **** 
  12:MPU9250.c     **** #define TRUE 1
  13:MPU9250.c     **** #define FALSE 0
  14:MPU9250.c     **** 
  15:MPU9250.c     **** //#define DEBUG_MPU_CHANNEL
  16:MPU9250.c     **** 
  17:MPU9250.c     **** #ifdef DEBUG_MPU_CHANNEL
  18:MPU9250.c     **** #define dbprintf(...) printf(__VA_ARGS__)
  19:MPU9250.c     **** #else
  20:MPU9250.c     **** #define dbprintf(...)
  21:MPU9250.c     **** #endif
  22:MPU9250.c     **** 
  23:MPU9250.c     **** #define MAG_I2C_ADDRESS 0x0C
  24:MPU9250.c     **** #define ACCGYR_I2C_ADDRESS 0x68
  25:MPU9250.c     **** 
  26:MPU9250.c     **** #define MAG_WHOAMI_VALUE 0x48
  27:MPU9250.c     **** #define MPU_WHOAMI_VALUE 0x71
  28:MPU9250.c     **** 
  29:MPU9250.c     **** /*******************************************************************************
  30:MPU9250.c     ****  * PRIVATE VARIABLES                                                           *
ARM GAS  C:\Users\CALEBC~1\AppData\Local\Temp\cchnwacN.s 			page 2


  31:MPU9250.c     ****  ******************************************************************************/
  32:MPU9250.c     **** 
  33:MPU9250.c     **** static enum {
  34:MPU9250.c     ****     AK_WHOAMI_REGISTER,
  35:MPU9250.c     ****     AK_HXL = 0x03,
  36:MPU9250.c     ****     AK_HXH,
  37:MPU9250.c     ****     AK_HYL,
  38:MPU9250.c     ****     AK_HYH,
  39:MPU9250.c     ****     AK_HZL,
  40:MPU9250.c     ****     AK_HZH,
  41:MPU9250.c     ****     AK_ST2 = 0x9,
  42:MPU9250.c     ****     AK_CNTL1 = 0xA,
  43:MPU9250.c     ****     AK_CNTL2
  44:MPU9250.c     **** } AK8963_REGISTERS;
  45:MPU9250.c     **** 
  46:MPU9250.c     **** static enum {
  47:MPU9250.c     ****     MPU_SMPLRT_DIV = 25,
  48:MPU9250.c     ****     MPU_CONFIG,
  49:MPU9250.c     ****     MPU_GYRO_CONFIG,
  50:MPU9250.c     ****     MPU_ACCEL_CONFIG,
  51:MPU9250.c     ****     MPU_ACCEL_CONFIG2,
  52:MPU9250.c     ****     MPU_INT_BYPASS_CONFIG = 55,
  53:MPU9250.c     ****     MPU_INT_CONFIG,
  54:MPU9250.c     ****     ACCEL_XOUT_H = 59,
  55:MPU9250.c     ****     ACCEL_XOUT_L,
  56:MPU9250.c     ****     ACCEL_YOUT_H,
  57:MPU9250.c     ****     ACCEL_YOUT_L,
  58:MPU9250.c     ****     ACCEL_ZOUT_H,
  59:MPU9250.c     ****     ACCEL_ZOUT_L,
  60:MPU9250.c     ****     GYRO_XOUT_H = 67,
  61:MPU9250.c     ****     GYRO_XOUT_L,
  62:MPU9250.c     ****     GYRO_YOUT_H,
  63:MPU9250.c     ****     GYRO_YOUT_L,
  64:MPU9250.c     ****     GYRO_ZOUT_H,
  65:MPU9250.c     ****     GYRO_ZOUT_L,
  66:MPU9250.c     ****     MPU_POWER_CTRL1 = 107,
  67:MPU9250.c     ****     MPU_WHOAMI_REGISTER = 117
  68:MPU9250.c     **** } MPU9250_REGISTERS;
  69:MPU9250.c     **** 
  70:MPU9250.c     **** /*******************************************************************************
  71:MPU9250.c     ****  * PUBLIC FUNCTIONS                                                           *
  72:MPU9250.c     ****  ******************************************************************************/
  73:MPU9250.c     **** 
  74:MPU9250.c     **** /**
  75:MPU9250.c     ****  * @Function MPU9250_Init(Rate)
  76:MPU9250.c     **** 
  77:MPU9250.c     ****  * @return 0 if error, 1 if succeeded
  78:MPU9250.c     ****  * @brief  Initializes the MPU 9250 for usage. This will set all sensors to approximately 100HZ
  79:MPU9250.c     ****  * and Accel: 2g,Gyro:  250dps and Mag: 16-bit for the sensors
  80:MPU9250.c     ****  * @author Max Dunne */
  81:MPU9250.c     **** char MPU9250_Init(void) {
  28              		.loc 1 81 0
  29              		.cfi_startproc
  30              		@ args = 0, pretend = 0, frame = 0
  31              		@ frame_needed = 0, uses_anonymous_args = 0
  32 0000 08B5     		push	{r3, lr}
  33              		.cfi_def_cfa_offset 8
ARM GAS  C:\Users\CALEBC~1\AppData\Local\Temp\cchnwacN.s 			page 3


  34              		.cfi_offset 3, -8
  35              		.cfi_offset 14, -4
  82:MPU9250.c     ****     unsigned int intReturn;
  83:MPU9250.c     ****     unsigned char byteReturn;
  84:MPU9250.c     **** 
  85:MPU9250.c     ****     I2C_Init();
  36              		.loc 1 85 0
  37 0002 FFF7FEFF 		bl	I2C_Init
  38              	.LVL0:
  86:MPU9250.c     **** 
  87:MPU9250.c     ****     // we have to configure the MPU first due to idiocy with the I2C setup internally
  88:MPU9250.c     ****     byteReturn = I2C_ReadRegister(ACCGYR_I2C_ADDRESS, MPU_WHOAMI_REGISTER);
  39              		.loc 1 88 0
  40 0006 7521     		movs	r1, #117
  41 0008 6820     		movs	r0, #104
  42 000a FFF7FEFF 		bl	I2C_ReadRegister
  43              	.LVL1:
  89:MPU9250.c     ****     //    printf("\r\n%X", byteReturn);
  90:MPU9250.c     ****     if (byteReturn != MPU_WHOAMI_VALUE) {
  44              		.loc 1 90 0
  45 000e 7128     		cmp	r0, #113
  46 0010 2FD1     		bne	.L3
  91:MPU9250.c     ****         return FALSE; // make sure we are talking to the right device first
  92:MPU9250.c     ****     }
  93:MPU9250.c     **** 
  94:MPU9250.c     ****     I2C_WriteReg(ACCGYR_I2C_ADDRESS, MPU_POWER_CTRL1, 0x01); // turn it on and hopefully use pll
  47              		.loc 1 94 0
  48 0012 0122     		movs	r2, #1
  49 0014 6B21     		movs	r1, #107
  50 0016 6820     		movs	r0, #104
  51              	.LVL2:
  52 0018 FFF7FEFF 		bl	I2C_WriteReg
  53              	.LVL3:
  95:MPU9250.c     **** 
  96:MPU9250.c     ****     I2C_WriteReg(ACCGYR_I2C_ADDRESS, MPU_CONFIG, 0x03); // don't really want a dlp but turning it o
  54              		.loc 1 96 0
  55 001c 0322     		movs	r2, #3
  56 001e 1A21     		movs	r1, #26
  57 0020 6820     		movs	r0, #104
  58 0022 FFF7FEFF 		bl	I2C_WriteReg
  59              	.LVL4:
  97:MPU9250.c     ****     // setting it to fastest bandwidth for the gyro
  98:MPU9250.c     ****     //byteReturn = I2C_ReadRegister(ACCGYR_I2C_ADDRESS,MPU_GYRO_CONFIG);
  99:MPU9250.c     ****     //printf("\r\ngyro config: %d",byteReturn);
 100:MPU9250.c     ****     I2C_WriteReg(ACCGYR_I2C_ADDRESS, MPU_GYRO_CONFIG, 0x00); //set scale on gyro to 250 degrees /s
  60              		.loc 1 100 0
  61 0026 0022     		movs	r2, #0
  62 0028 1B21     		movs	r1, #27
  63 002a 6820     		movs	r0, #104
  64 002c FFF7FEFF 		bl	I2C_WriteReg
  65              	.LVL5:
 101:MPU9250.c     ****     dbprintf("\r\nGYRO CONFIG Set To: 0X%X", I2C_ReadRegister(ACCGYR_I2C_ADDRESS, MPU_GYRO_CONFIG))
 102:MPU9250.c     ****     I2C_WriteReg(ACCGYR_I2C_ADDRESS, MPU_SMPLRT_DIV, 5); // set the output data rate to 100Hz
  66              		.loc 1 102 0
  67 0030 0522     		movs	r2, #5
  68 0032 1921     		movs	r1, #25
  69 0034 6820     		movs	r0, #104
ARM GAS  C:\Users\CALEBC~1\AppData\Local\Temp\cchnwacN.s 			page 4


  70 0036 FFF7FEFF 		bl	I2C_WriteReg
  71              	.LVL6:
 103:MPU9250.c     ****     dbprintf("\r\nSMART RATE Set To: 0X%X", I2C_ReadRegister(ACCGYR_I2C_ADDRESS, MPU_SMPLRT_DIV));
 104:MPU9250.c     **** 
 105:MPU9250.c     ****     // we now can configure the accelerometer
 106:MPU9250.c     **** 
 107:MPU9250.c     ****     I2C_WriteReg(ACCGYR_I2C_ADDRESS, MPU_ACCEL_CONFIG2, 0b1001);
  72              		.loc 1 107 0
  73 003a 0922     		movs	r2, #9
  74 003c 1D21     		movs	r1, #29
  75 003e 6820     		movs	r0, #104
  76 0040 FFF7FEFF 		bl	I2C_WriteReg
  77              	.LVL7:
 108:MPU9250.c     ****     //sets the bandwidth to 184 and internal to 1K, actually output controlled by smart divider
 109:MPU9250.c     ****     dbprintf("\r\nACCEL CONFIG2 Set To: 0X%X", I2C_ReadRegister(ACCGYR_I2C_ADDRESS, MPU_ACCEL_CONFI
 110:MPU9250.c     **** 
 111:MPU9250.c     ****     I2C_WriteReg(ACCGYR_I2C_ADDRESS, MPU_ACCEL_CONFIG, 0);
  78              		.loc 1 111 0
  79 0044 0022     		movs	r2, #0
  80 0046 1C21     		movs	r1, #28
  81 0048 6820     		movs	r0, #104
  82 004a FFF7FEFF 		bl	I2C_WriteReg
  83              	.LVL8:
 112:MPU9250.c     ****     dbprintf("\r\nACCEL CONFIG Set To: 0X%X", I2C_ReadRegister(ACCGYR_I2C_ADDRESS, MPU_ACCEL_CONFIG
 113:MPU9250.c     **** 
 114:MPU9250.c     ****     // finally we configure the I2C to allow us to talk to the mag
 115:MPU9250.c     ****     I2C_WriteReg(ACCGYR_I2C_ADDRESS, MPU_INT_BYPASS_CONFIG, 0x22);
  84              		.loc 1 115 0
  85 004e 2222     		movs	r2, #34
  86 0050 3721     		movs	r1, #55
  87 0052 6820     		movs	r0, #104
  88 0054 FFF7FEFF 		bl	I2C_WriteReg
  89              	.LVL9:
 116:MPU9250.c     ****     dbprintf("\r\nBypass CONFIG Set To: 0X%X", I2C_ReadRegister(ACCGYR_I2C_ADDRESS, MPU_INT_BYPASS_
 117:MPU9250.c     **** 
 118:MPU9250.c     **** 
 119:MPU9250.c     ****     byteReturn = I2C_ReadRegister(MAG_I2C_ADDRESS, AK_WHOAMI_REGISTER);
  90              		.loc 1 119 0
  91 0058 0021     		movs	r1, #0
  92 005a 0C20     		movs	r0, #12
  93 005c FFF7FEFF 		bl	I2C_ReadRegister
  94              	.LVL10:
 120:MPU9250.c     ****     //    printf("\r\n%X", byteReturn);
 121:MPU9250.c     ****     if (byteReturn != MAG_WHOAMI_VALUE) {
  95              		.loc 1 121 0
  96 0060 4828     		cmp	r0, #72
  97 0062 08D1     		bne	.L4
 122:MPU9250.c     ****         return FALSE; // make sure we are talking to the right device first
 123:MPU9250.c     ****     }
 124:MPU9250.c     **** 
 125:MPU9250.c     ****     //configure output rate and scale
 126:MPU9250.c     ****     //    I2C_WriteReg(MAG_I2C_ADDRESS,AK_CNTL1,0b0);
 127:MPU9250.c     ****     //    I2C_WriteReg(MAG_I2C_ADDRESS,AK_CNTL1,0b1111);
 128:MPU9250.c     ****     //    I2C_WriteReg(MAG_I2C_ADDRESS,AK_CNTL1,0b0);
 129:MPU9250.c     ****     I2C_WriteReg(MAG_I2C_ADDRESS, AK_CNTL1, 0b10110);
  98              		.loc 1 129 0
  99 0064 1622     		movs	r2, #22
ARM GAS  C:\Users\CALEBC~1\AppData\Local\Temp\cchnwacN.s 			page 5


 100 0066 0A21     		movs	r1, #10
 101 0068 0C20     		movs	r0, #12
 102              	.LVL11:
 103 006a FFF7FEFF 		bl	I2C_WriteReg
 104              	.LVL12:
 130:MPU9250.c     ****     dbprintf("\r\nMAG CNTL1 CONFIG Set To: 0X%X", I2C_ReadRegister(MAG_I2C_ADDRESS, AK_CNTL1));
 131:MPU9250.c     ****     return TRUE;
 105              		.loc 1 131 0
 106 006e 0120     		movs	r0, #1
 107 0070 08BD     		pop	{r3, pc}
 108              	.LVL13:
 109              	.L3:
  91:MPU9250.c     ****     }
 110              		.loc 1 91 0
 111 0072 0020     		movs	r0, #0
 112              	.LVL14:
 113 0074 08BD     		pop	{r3, pc}
 114              	.LVL15:
 115              	.L4:
 122:MPU9250.c     ****         return FALSE; // make sure we are talking to the right device first
 116              		.loc 1 122 0
 117 0076 0020     		movs	r0, #0
 118              	.LVL16:
 132:MPU9250.c     **** }
 119              		.loc 1 132 0
 120 0078 08BD     		pop	{r3, pc}
 121              		.cfi_endproc
 122              	.LFE0:
 123              		.size	MPU9250_Init, .-MPU9250_Init
 124 007a 00BF     		.section	.text.MPU9250_ReadAccelX,"ax",%progbits
 125              		.align	2
 126              		.global	MPU9250_ReadAccelX
 127              		.thumb
 128              		.thumb_func
 129              		.type	MPU9250_ReadAccelX, %function
 130              	MPU9250_ReadAccelX:
 131              	.LFB1:
 133:MPU9250.c     **** 
 134:MPU9250.c     **** /**
 135:MPU9250.c     ****  * @Function MPU9250_Read*()
 136:MPU9250.c     ****  * @param None
 137:MPU9250.c     ****  * @return Returns raw sensor reading
 138:MPU9250.c     ****  * @brief reads sensor axis as given by name
 139:MPU9250.c     ****  * @author Max Dunne*/
 140:MPU9250.c     **** int MPU9250_ReadAccelX(void) {
 132              		.loc 1 140 0
 133              		.cfi_startproc
 134              		@ args = 0, pretend = 0, frame = 0
 135              		@ frame_needed = 0, uses_anonymous_args = 0
 136 0000 08B5     		push	{r3, lr}
 137              		.cfi_def_cfa_offset 8
 138              		.cfi_offset 3, -8
 139              		.cfi_offset 14, -4
 141:MPU9250.c     ****     return I2C_ReadInt(ACCGYR_I2C_ADDRESS, ACCEL_XOUT_H, TRUE);
 140              		.loc 1 141 0
 141 0002 0122     		movs	r2, #1
 142 0004 3B21     		movs	r1, #59
ARM GAS  C:\Users\CALEBC~1\AppData\Local\Temp\cchnwacN.s 			page 6


 143 0006 6820     		movs	r0, #104
 144 0008 FFF7FEFF 		bl	I2C_ReadInt
 145              	.LVL17:
 142:MPU9250.c     **** }
 146              		.loc 1 142 0
 147 000c 08BD     		pop	{r3, pc}
 148              		.cfi_endproc
 149              	.LFE1:
 150              		.size	MPU9250_ReadAccelX, .-MPU9250_ReadAccelX
 151 000e 00BF     		.section	.text.MPU9250_ReadAccelY,"ax",%progbits
 152              		.align	2
 153              		.global	MPU9250_ReadAccelY
 154              		.thumb
 155              		.thumb_func
 156              		.type	MPU9250_ReadAccelY, %function
 157              	MPU9250_ReadAccelY:
 158              	.LFB2:
 143:MPU9250.c     **** 
 144:MPU9250.c     **** /**
 145:MPU9250.c     ****  * @Function MPU9250_Read*()
 146:MPU9250.c     ****  * @param None
 147:MPU9250.c     ****  * @return Returns raw sensor reading
 148:MPU9250.c     ****  * @brief reads sensor axis as given by name
 149:MPU9250.c     ****  * @author Max Dunne*/
 150:MPU9250.c     **** int MPU9250_ReadAccelY(void) {
 159              		.loc 1 150 0
 160              		.cfi_startproc
 161              		@ args = 0, pretend = 0, frame = 0
 162              		@ frame_needed = 0, uses_anonymous_args = 0
 163 0000 08B5     		push	{r3, lr}
 164              		.cfi_def_cfa_offset 8
 165              		.cfi_offset 3, -8
 166              		.cfi_offset 14, -4
 151:MPU9250.c     ****     return I2C_ReadInt(ACCGYR_I2C_ADDRESS, ACCEL_YOUT_H, TRUE);
 167              		.loc 1 151 0
 168 0002 0122     		movs	r2, #1
 169 0004 3D21     		movs	r1, #61
 170 0006 6820     		movs	r0, #104
 171 0008 FFF7FEFF 		bl	I2C_ReadInt
 172              	.LVL18:
 152:MPU9250.c     **** }
 173              		.loc 1 152 0
 174 000c 08BD     		pop	{r3, pc}
 175              		.cfi_endproc
 176              	.LFE2:
 177              		.size	MPU9250_ReadAccelY, .-MPU9250_ReadAccelY
 178 000e 00BF     		.section	.text.MPU9250_ReadAccelZ,"ax",%progbits
 179              		.align	2
 180              		.global	MPU9250_ReadAccelZ
 181              		.thumb
 182              		.thumb_func
 183              		.type	MPU9250_ReadAccelZ, %function
 184              	MPU9250_ReadAccelZ:
 185              	.LFB3:
 153:MPU9250.c     **** 
 154:MPU9250.c     **** /**
 155:MPU9250.c     ****  * @Function MPU9250_Read*()
ARM GAS  C:\Users\CALEBC~1\AppData\Local\Temp\cchnwacN.s 			page 7


 156:MPU9250.c     ****  * @param None
 157:MPU9250.c     ****  * @return Returns raw sensor reading
 158:MPU9250.c     ****  * @brief reads sensor axis as given by name
 159:MPU9250.c     ****  * @author Max Dunne*/
 160:MPU9250.c     **** int MPU9250_ReadAccelZ(void) {
 186              		.loc 1 160 0
 187              		.cfi_startproc
 188              		@ args = 0, pretend = 0, frame = 0
 189              		@ frame_needed = 0, uses_anonymous_args = 0
 190 0000 08B5     		push	{r3, lr}
 191              		.cfi_def_cfa_offset 8
 192              		.cfi_offset 3, -8
 193              		.cfi_offset 14, -4
 161:MPU9250.c     ****     return I2C_ReadInt(ACCGYR_I2C_ADDRESS, ACCEL_ZOUT_H, TRUE);
 194              		.loc 1 161 0
 195 0002 0122     		movs	r2, #1
 196 0004 3F21     		movs	r1, #63
 197 0006 6820     		movs	r0, #104
 198 0008 FFF7FEFF 		bl	I2C_ReadInt
 199              	.LVL19:
 162:MPU9250.c     **** }
 200              		.loc 1 162 0
 201 000c 08BD     		pop	{r3, pc}
 202              		.cfi_endproc
 203              	.LFE3:
 204              		.size	MPU9250_ReadAccelZ, .-MPU9250_ReadAccelZ
 205 000e 00BF     		.section	.text.MPU9250_ReadGyroX,"ax",%progbits
 206              		.align	2
 207              		.global	MPU9250_ReadGyroX
 208              		.thumb
 209              		.thumb_func
 210              		.type	MPU9250_ReadGyroX, %function
 211              	MPU9250_ReadGyroX:
 212              	.LFB4:
 163:MPU9250.c     **** 
 164:MPU9250.c     **** /**
 165:MPU9250.c     ****  * @Function MPU9250_Read*()
 166:MPU9250.c     ****  * @param None
 167:MPU9250.c     ****  * @return Returns raw sensor reading
 168:MPU9250.c     ****  * @brief reads sensor axis as given by name
 169:MPU9250.c     ****  * @author Max Dunne*/
 170:MPU9250.c     **** int MPU9250_ReadGyroX(void) {
 213              		.loc 1 170 0
 214              		.cfi_startproc
 215              		@ args = 0, pretend = 0, frame = 0
 216              		@ frame_needed = 0, uses_anonymous_args = 0
 217 0000 08B5     		push	{r3, lr}
 218              		.cfi_def_cfa_offset 8
 219              		.cfi_offset 3, -8
 220              		.cfi_offset 14, -4
 171:MPU9250.c     ****     return I2C_ReadInt(ACCGYR_I2C_ADDRESS, GYRO_XOUT_H, TRUE);
 221              		.loc 1 171 0
 222 0002 0122     		movs	r2, #1
 223 0004 4321     		movs	r1, #67
 224 0006 6820     		movs	r0, #104
 225 0008 FFF7FEFF 		bl	I2C_ReadInt
 226              	.LVL20:
ARM GAS  C:\Users\CALEBC~1\AppData\Local\Temp\cchnwacN.s 			page 8


 172:MPU9250.c     **** }
 227              		.loc 1 172 0
 228 000c 08BD     		pop	{r3, pc}
 229              		.cfi_endproc
 230              	.LFE4:
 231              		.size	MPU9250_ReadGyroX, .-MPU9250_ReadGyroX
 232 000e 00BF     		.section	.text.MPU9250_ReadGyroY,"ax",%progbits
 233              		.align	2
 234              		.global	MPU9250_ReadGyroY
 235              		.thumb
 236              		.thumb_func
 237              		.type	MPU9250_ReadGyroY, %function
 238              	MPU9250_ReadGyroY:
 239              	.LFB5:
 173:MPU9250.c     **** 
 174:MPU9250.c     **** /**
 175:MPU9250.c     ****  * @Function MPU9250_Read*()
 176:MPU9250.c     ****  * @param None
 177:MPU9250.c     ****  * @return Returns raw sensor reading
 178:MPU9250.c     ****  * @brief reads sensor axis as given by name
 179:MPU9250.c     ****  * @author Max Dunne*/
 180:MPU9250.c     **** int MPU9250_ReadGyroY(void) {
 240              		.loc 1 180 0
 241              		.cfi_startproc
 242              		@ args = 0, pretend = 0, frame = 0
 243              		@ frame_needed = 0, uses_anonymous_args = 0
 244 0000 08B5     		push	{r3, lr}
 245              		.cfi_def_cfa_offset 8
 246              		.cfi_offset 3, -8
 247              		.cfi_offset 14, -4
 181:MPU9250.c     ****     return I2C_ReadInt(ACCGYR_I2C_ADDRESS, GYRO_YOUT_H, TRUE);
 248              		.loc 1 181 0
 249 0002 0122     		movs	r2, #1
 250 0004 4521     		movs	r1, #69
 251 0006 6820     		movs	r0, #104
 252 0008 FFF7FEFF 		bl	I2C_ReadInt
 253              	.LVL21:
 182:MPU9250.c     **** }
 254              		.loc 1 182 0
 255 000c 08BD     		pop	{r3, pc}
 256              		.cfi_endproc
 257              	.LFE5:
 258              		.size	MPU9250_ReadGyroY, .-MPU9250_ReadGyroY
 259 000e 00BF     		.section	.text.MPU9250_ReadGyroZ,"ax",%progbits
 260              		.align	2
 261              		.global	MPU9250_ReadGyroZ
 262              		.thumb
 263              		.thumb_func
 264              		.type	MPU9250_ReadGyroZ, %function
 265              	MPU9250_ReadGyroZ:
 266              	.LFB6:
 183:MPU9250.c     **** 
 184:MPU9250.c     **** /**
 185:MPU9250.c     ****  * @Function MPU9250_Read*()
 186:MPU9250.c     ****  * @param None
 187:MPU9250.c     ****  * @return Returns raw sensor reading
 188:MPU9250.c     ****  * @brief reads sensor axis as given by name
ARM GAS  C:\Users\CALEBC~1\AppData\Local\Temp\cchnwacN.s 			page 9


 189:MPU9250.c     ****  * @author Max Dunne*/
 190:MPU9250.c     **** int MPU9250_ReadGyroZ(void) {
 267              		.loc 1 190 0
 268              		.cfi_startproc
 269              		@ args = 0, pretend = 0, frame = 0
 270              		@ frame_needed = 0, uses_anonymous_args = 0
 271 0000 08B5     		push	{r3, lr}
 272              		.cfi_def_cfa_offset 8
 273              		.cfi_offset 3, -8
 274              		.cfi_offset 14, -4
 191:MPU9250.c     ****     return I2C_ReadInt(ACCGYR_I2C_ADDRESS, GYRO_ZOUT_H, TRUE);
 275              		.loc 1 191 0
 276 0002 0122     		movs	r2, #1
 277 0004 4721     		movs	r1, #71
 278 0006 6820     		movs	r0, #104
 279 0008 FFF7FEFF 		bl	I2C_ReadInt
 280              	.LVL22:
 192:MPU9250.c     **** }
 281              		.loc 1 192 0
 282 000c 08BD     		pop	{r3, pc}
 283              		.cfi_endproc
 284              	.LFE6:
 285              		.size	MPU9250_ReadGyroZ, .-MPU9250_ReadGyroZ
 286 000e 00BF     		.section	.text.MPU9250_ReadMagX,"ax",%progbits
 287              		.align	2
 288              		.global	MPU9250_ReadMagX
 289              		.thumb
 290              		.thumb_func
 291              		.type	MPU9250_ReadMagX, %function
 292              	MPU9250_ReadMagX:
 293              	.LFB7:
 193:MPU9250.c     **** 
 194:MPU9250.c     **** /**
 195:MPU9250.c     ****  * @Function MPU9250_Read*()
 196:MPU9250.c     ****  * @param None
 197:MPU9250.c     ****  * @return Returns raw sensor reading
 198:MPU9250.c     ****  * @brief reads sensor axis as given by name
 199:MPU9250.c     ****  * @author Max Dunne*/
 200:MPU9250.c     **** int MPU9250_ReadMagX(void) {
 294              		.loc 1 200 0
 295              		.cfi_startproc
 296              		@ args = 0, pretend = 0, frame = 0
 297              		@ frame_needed = 0, uses_anonymous_args = 0
 298 0000 10B5     		push	{r4, lr}
 299              		.cfi_def_cfa_offset 8
 300              		.cfi_offset 4, -8
 301              		.cfi_offset 14, -4
 201:MPU9250.c     ****     short SensorValue = I2C_ReadInt(MAG_I2C_ADDRESS, AK_HXL, FALSE);
 302              		.loc 1 201 0
 303 0002 0022     		movs	r2, #0
 304 0004 0321     		movs	r1, #3
 305 0006 0C20     		movs	r0, #12
 306 0008 FFF7FEFF 		bl	I2C_ReadInt
 307              	.LVL23:
 308 000c 04B2     		sxth	r4, r0
 309              	.LVL24:
 202:MPU9250.c     ****     I2C_ReadRegister(MAG_I2C_ADDRESS, AK_ST2);
ARM GAS  C:\Users\CALEBC~1\AppData\Local\Temp\cchnwacN.s 			page 10


 310              		.loc 1 202 0
 311 000e 0921     		movs	r1, #9
 312 0010 0C20     		movs	r0, #12
 313 0012 FFF7FEFF 		bl	I2C_ReadRegister
 314              	.LVL25:
 203:MPU9250.c     ****     return SensorValue;
 204:MPU9250.c     **** }
 315              		.loc 1 204 0
 316 0016 2046     		mov	r0, r4
 317 0018 10BD     		pop	{r4, pc}
 318              		.cfi_endproc
 319              	.LFE7:
 320              		.size	MPU9250_ReadMagX, .-MPU9250_ReadMagX
 321 001a 00BF     		.section	.text.MPU9250_ReadMagY,"ax",%progbits
 322              		.align	2
 323              		.global	MPU9250_ReadMagY
 324              		.thumb
 325              		.thumb_func
 326              		.type	MPU9250_ReadMagY, %function
 327              	MPU9250_ReadMagY:
 328              	.LFB8:
 205:MPU9250.c     **** 
 206:MPU9250.c     **** /**
 207:MPU9250.c     ****  * @Function MPU9250_Read*()
 208:MPU9250.c     ****  * @param None
 209:MPU9250.c     ****  * @return Returns raw sensor reading
 210:MPU9250.c     ****  * @brief reads sensor axis as given by name
 211:MPU9250.c     ****  * @author Max Dunne*/
 212:MPU9250.c     **** int MPU9250_ReadMagY(void) {
 329              		.loc 1 212 0
 330              		.cfi_startproc
 331              		@ args = 0, pretend = 0, frame = 0
 332              		@ frame_needed = 0, uses_anonymous_args = 0
 333 0000 10B5     		push	{r4, lr}
 334              		.cfi_def_cfa_offset 8
 335              		.cfi_offset 4, -8
 336              		.cfi_offset 14, -4
 213:MPU9250.c     ****     short SensorValue = I2C_ReadInt(MAG_I2C_ADDRESS, AK_HYL, FALSE);
 337              		.loc 1 213 0
 338 0002 0022     		movs	r2, #0
 339 0004 0521     		movs	r1, #5
 340 0006 0C20     		movs	r0, #12
 341 0008 FFF7FEFF 		bl	I2C_ReadInt
 342              	.LVL26:
 343 000c 04B2     		sxth	r4, r0
 344              	.LVL27:
 214:MPU9250.c     ****     I2C_ReadRegister(MAG_I2C_ADDRESS, AK_ST2);
 345              		.loc 1 214 0
 346 000e 0921     		movs	r1, #9
 347 0010 0C20     		movs	r0, #12
 348 0012 FFF7FEFF 		bl	I2C_ReadRegister
 349              	.LVL28:
 215:MPU9250.c     ****     return SensorValue;
 216:MPU9250.c     **** }
 350              		.loc 1 216 0
 351 0016 2046     		mov	r0, r4
 352 0018 10BD     		pop	{r4, pc}
ARM GAS  C:\Users\CALEBC~1\AppData\Local\Temp\cchnwacN.s 			page 11


 353              		.cfi_endproc
 354              	.LFE8:
 355              		.size	MPU9250_ReadMagY, .-MPU9250_ReadMagY
 356 001a 00BF     		.section	.text.MPU9250_ReadMagZ,"ax",%progbits
 357              		.align	2
 358              		.global	MPU9250_ReadMagZ
 359              		.thumb
 360              		.thumb_func
 361              		.type	MPU9250_ReadMagZ, %function
 362              	MPU9250_ReadMagZ:
 363              	.LFB9:
 217:MPU9250.c     **** 
 218:MPU9250.c     **** /**
 219:MPU9250.c     ****  * @Function MPU9250_Read*()
 220:MPU9250.c     ****  * @param None
 221:MPU9250.c     ****  * @return Returns raw sensor reading
 222:MPU9250.c     ****  * @brief reads sensor axis as given by name
 223:MPU9250.c     ****  * @author Max Dunne*/
 224:MPU9250.c     **** int MPU9250_ReadMagZ(void) {
 364              		.loc 1 224 0
 365              		.cfi_startproc
 366              		@ args = 0, pretend = 0, frame = 0
 367              		@ frame_needed = 0, uses_anonymous_args = 0
 368 0000 10B5     		push	{r4, lr}
 369              		.cfi_def_cfa_offset 8
 370              		.cfi_offset 4, -8
 371              		.cfi_offset 14, -4
 225:MPU9250.c     ****     short SensorValue = I2C_ReadInt(MAG_I2C_ADDRESS, AK_HZL, FALSE);
 372              		.loc 1 225 0
 373 0002 0022     		movs	r2, #0
 374 0004 0721     		movs	r1, #7
 375 0006 0C20     		movs	r0, #12
 376 0008 FFF7FEFF 		bl	I2C_ReadInt
 377              	.LVL29:
 378 000c 04B2     		sxth	r4, r0
 379              	.LVL30:
 226:MPU9250.c     ****     I2C_ReadRegister(MAG_I2C_ADDRESS, AK_ST2);
 380              		.loc 1 226 0
 381 000e 0921     		movs	r1, #9
 382 0010 0C20     		movs	r0, #12
 383 0012 FFF7FEFF 		bl	I2C_ReadRegister
 384              	.LVL31:
 227:MPU9250.c     ****     return SensorValue;
 228:MPU9250.c     **** }
 385              		.loc 1 228 0
 386 0016 2046     		mov	r0, r4
 387 0018 10BD     		pop	{r4, pc}
 388              		.cfi_endproc
 389              	.LFE9:
 390              		.size	MPU9250_ReadMagZ, .-MPU9250_ReadMagZ
 391 001a 00BF     		.text
 392              	.Letext0:
 393              		.file 2 "I2C.h"