ARM GAS  C:\Users\CALEBC~1\AppData\Local\Temp\cceKvHOu.s 			page 1


   1              		.syntax unified
   2              		.cpu cortex-m3
   3              		.fpu softvfp
   4              		.eabi_attribute 20, 1
   5              		.eabi_attribute 21, 1
   6              		.eabi_attribute 23, 3
   7              		.eabi_attribute 24, 1
   8              		.eabi_attribute 25, 1
   9              		.eabi_attribute 26, 1
  10              		.eabi_attribute 30, 1
  11              		.eabi_attribute 34, 1
  12              		.eabi_attribute 18, 4
  13              		.thumb
  14              		.syntax unified
  15              		.file	"NMEA0183.c"
  16              		.text
  17              	.Ltext0:
  18              		.cfi_sections	.debug_frame
  19              		.section	.text.StringChecksum,"ax",%progbits
  20              		.align	2
  21              		.global	StringChecksum
  22              		.thumb
  23              		.thumb_func
  24              		.type	StringChecksum, %function
  25              	StringChecksum:
  26              	.LFB64:
  27              		.file 1 "NMEA0183.c"
   1:NMEA0183.c    **** /* ========================================
   2:NMEA0183.c    ****  * FILE:   NMEA0183.c
   3:NMEA0183.c    ****  * AUTHOR: Caleb Cotter
   4:NMEA0183.c    ****  *
   5:NMEA0183.c    ****  * CREATED ON FEBRUARY 24, 2020, 1:25 PM
   6:NMEA0183.c    ****  *
   7:NMEA0183.c    ****  * ========================================
   8:NMEA0183.c    ****  *
   9:NMEA0183.c    ****  * Copyright SLUGSAT, 2020
  10:NMEA0183.c    ****  * All Rights Reserved
  11:NMEA0183.c    ****  * UNPUBLISHED, LICENSED SOFTWARE.
  12:NMEA0183.c    ****  *
  13:NMEA0183.c    ****  * CONFIDENTIAL AND PROPRIETARY INFORMATION
  14:NMEA0183.c    ****  * WHICH IS THE PROPERTY OF SLUGSAT.
  15:NMEA0183.c    ****  *
  16:NMEA0183.c    ****  * ========================================
  17:NMEA0183.c    **** */
  18:NMEA0183.c    **** 
  19:NMEA0183.c    **** #include "NMEA0183.h"
  20:NMEA0183.c    **** 
  21:NMEA0183.c    **** /******************************************************************************
  22:NMEA0183.c    ****  * Private Functions                                                          *  
  23:NMEA0183.c    ****  ******************************************************************************/
  24:NMEA0183.c    **** 
  25:NMEA0183.c    **** uint8_t StringChecksum(char * string) {
  28              		.loc 1 25 0
  29              		.cfi_startproc
  30              		@ args = 0, pretend = 0, frame = 0
  31              		@ frame_needed = 0, uses_anonymous_args = 0
  32              	.LVL0:
ARM GAS  C:\Users\CALEBC~1\AppData\Local\Temp\cceKvHOu.s 			page 2


  33 0000 10B5     		push	{r4, lr}
  34              		.cfi_def_cfa_offset 8
  35              		.cfi_offset 4, -8
  36              		.cfi_offset 14, -4
  37 0002 0446     		mov	r4, r0
  26:NMEA0183.c    **** 
  27:NMEA0183.c    ****     //Local Variables
  28:NMEA0183.c    ****     int stringLength = strlen(string);
  38              		.loc 1 28 0
  39 0004 FFF7FEFF 		bl	strlen
  40              	.LVL1:
  29:NMEA0183.c    ****     int i;
  30:NMEA0183.c    ****     uint8_t checksum = 0x00;
  41              		.loc 1 30 0
  42 0008 0022     		movs	r2, #0
  31:NMEA0183.c    **** 
  32:NMEA0183.c    ****     //Calculate One-Byte XOR Checksum
  33:NMEA0183.c    ****     for (i = 0; i < stringLength; i++) {
  43              		.loc 1 33 0
  44 000a 1346     		mov	r3, r2
  45 000c 02E0     		b	.L2
  46              	.LVL2:
  47              	.L3:
  34:NMEA0183.c    ****         checksum ^= string[i];
  48              		.loc 1 34 0 discriminator 3
  49 000e E15C     		ldrb	r1, [r4, r3]	@ zero_extendqisi2
  50 0010 4A40     		eors	r2, r2, r1
  51              	.LVL3:
  33:NMEA0183.c    ****         checksum ^= string[i];
  52              		.loc 1 33 0 discriminator 3
  53 0012 0133     		adds	r3, r3, #1
  54              	.LVL4:
  55              	.L2:
  33:NMEA0183.c    ****         checksum ^= string[i];
  56              		.loc 1 33 0 is_stmt 0 discriminator 1
  57 0014 8342     		cmp	r3, r0
  58 0016 FADB     		blt	.L3
  35:NMEA0183.c    ****     }
  36:NMEA0183.c    ****     return checksum;
  37:NMEA0183.c    **** }
  59              		.loc 1 37 0 is_stmt 1
  60 0018 1046     		mov	r0, r2
  61              	.LVL5:
  62 001a 10BD     		pop	{r4, pc}
  63              		.cfi_endproc
  64              	.LFE64:
  65              		.size	StringChecksum, .-StringChecksum
  66              		.section	.text.AsciiToInt,"ax",%progbits
  67              		.align	2
  68              		.global	AsciiToInt
  69              		.thumb
  70              		.thumb_func
  71              		.type	AsciiToInt, %function
  72              	AsciiToInt:
  73              	.LFB65:
  38:NMEA0183.c    **** 
  39:NMEA0183.c    **** uint8_t AsciiToInt(char letter) {
ARM GAS  C:\Users\CALEBC~1\AppData\Local\Temp\cceKvHOu.s 			page 3


  74              		.loc 1 39 0
  75              		.cfi_startproc
  76              		@ args = 0, pretend = 0, frame = 0
  77              		@ frame_needed = 0, uses_anonymous_args = 0
  78              		@ link register save eliminated.
  79              	.LVL6:
  40:NMEA0183.c    ****     switch (letter) {
  80              		.loc 1 40 0
  81 0000 A0F13003 		sub	r3, r0, #48
  82 0004 362B     		cmp	r3, #54
  83 0006 26D8     		bhi	.L11
  84 0008 DFE803F0 		tbb	[pc, r3]
  85              	.L8:
  86 000c 1C       		.byte	(.L7-.L8)/2
  87 000d 1C       		.byte	(.L7-.L8)/2
  88 000e 1C       		.byte	(.L7-.L8)/2
  89 000f 1C       		.byte	(.L7-.L8)/2
  90 0010 1C       		.byte	(.L7-.L8)/2
  91 0011 1C       		.byte	(.L7-.L8)/2
  92 0012 1C       		.byte	(.L7-.L8)/2
  93 0013 1C       		.byte	(.L7-.L8)/2
  94 0014 1C       		.byte	(.L7-.L8)/2
  95 0015 1C       		.byte	(.L7-.L8)/2
  96 0016 25       		.byte	(.L11-.L8)/2
  97 0017 25       		.byte	(.L11-.L8)/2
  98 0018 25       		.byte	(.L11-.L8)/2
  99 0019 25       		.byte	(.L11-.L8)/2
 100 001a 25       		.byte	(.L11-.L8)/2
 101 001b 25       		.byte	(.L11-.L8)/2
 102 001c 25       		.byte	(.L11-.L8)/2
 103 001d 22       		.byte	(.L9-.L8)/2
 104 001e 22       		.byte	(.L9-.L8)/2
 105 001f 22       		.byte	(.L9-.L8)/2
 106 0020 22       		.byte	(.L9-.L8)/2
 107 0021 22       		.byte	(.L9-.L8)/2
 108 0022 22       		.byte	(.L9-.L8)/2
 109 0023 25       		.byte	(.L11-.L8)/2
 110 0024 25       		.byte	(.L11-.L8)/2
 111 0025 25       		.byte	(.L11-.L8)/2
 112 0026 25       		.byte	(.L11-.L8)/2
 113 0027 25       		.byte	(.L11-.L8)/2
 114 0028 25       		.byte	(.L11-.L8)/2
 115 0029 25       		.byte	(.L11-.L8)/2
 116 002a 25       		.byte	(.L11-.L8)/2
 117 002b 25       		.byte	(.L11-.L8)/2
 118 002c 25       		.byte	(.L11-.L8)/2
 119 002d 25       		.byte	(.L11-.L8)/2
 120 002e 25       		.byte	(.L11-.L8)/2
 121 002f 25       		.byte	(.L11-.L8)/2
 122 0030 25       		.byte	(.L11-.L8)/2
 123 0031 25       		.byte	(.L11-.L8)/2
 124 0032 25       		.byte	(.L11-.L8)/2
 125 0033 25       		.byte	(.L11-.L8)/2
 126 0034 25       		.byte	(.L11-.L8)/2
 127 0035 25       		.byte	(.L11-.L8)/2
 128 0036 25       		.byte	(.L11-.L8)/2
 129 0037 25       		.byte	(.L11-.L8)/2
ARM GAS  C:\Users\CALEBC~1\AppData\Local\Temp\cceKvHOu.s 			page 4


 130 0038 25       		.byte	(.L11-.L8)/2
 131 0039 25       		.byte	(.L11-.L8)/2
 132 003a 25       		.byte	(.L11-.L8)/2
 133 003b 25       		.byte	(.L11-.L8)/2
 134 003c 25       		.byte	(.L11-.L8)/2
 135 003d 1F       		.byte	(.L10-.L8)/2
 136 003e 1F       		.byte	(.L10-.L8)/2
 137 003f 1F       		.byte	(.L10-.L8)/2
 138 0040 1F       		.byte	(.L10-.L8)/2
 139 0041 1F       		.byte	(.L10-.L8)/2
 140 0042 1F       		.byte	(.L10-.L8)/2
 141 0043 00       		.p2align 1
 142              	.L7:
  41:NMEA0183.c    ****         case '0'...'9':
  42:NMEA0183.c    ****             return (letter - 48);
 143              		.loc 1 42 0
 144 0044 3038     		subs	r0, r0, #48
 145              	.LVL7:
 146 0046 C0B2     		uxtb	r0, r0
 147 0048 7047     		bx	lr
 148              	.LVL8:
 149              	.L10:
  43:NMEA0183.c    ****             break;
  44:NMEA0183.c    ****         case 'a'...'f':
  45:NMEA0183.c    ****             return (letter - 87);
 150              		.loc 1 45 0
 151 004a 5738     		subs	r0, r0, #87
 152              	.LVL9:
 153 004c C0B2     		uxtb	r0, r0
 154 004e 7047     		bx	lr
 155              	.LVL10:
 156              	.L9:
  46:NMEA0183.c    ****             break;
  47:NMEA0183.c    ****         case 'A'...'F':
  48:NMEA0183.c    ****             return (letter - 55);
 157              		.loc 1 48 0
 158 0050 3738     		subs	r0, r0, #55
 159              	.LVL11:
 160 0052 C0B2     		uxtb	r0, r0
 161 0054 7047     		bx	lr
 162              	.LVL12:
 163              	.L11:
  49:NMEA0183.c    ****             break;
  50:NMEA0183.c    ****     }
  51:NMEA0183.c    ****     return -1;
 164              		.loc 1 51 0
 165 0056 FF20     		movs	r0, #255
 166              	.LVL13:
  52:NMEA0183.c    **** }
 167              		.loc 1 52 0
 168 0058 7047     		bx	lr
 169              		.cfi_endproc
 170              	.LFE65:
 171              		.size	AsciiToInt, .-AsciiToInt
 172 005a 00BF     		.section	.text.NMEA0183_EncodeMsg,"ax",%progbits
 173              		.align	2
 174              		.global	NMEA0183_EncodeMsg
ARM GAS  C:\Users\CALEBC~1\AppData\Local\Temp\cceKvHOu.s 			page 5


 175              		.thumb
 176              		.thumb_func
 177              		.type	NMEA0183_EncodeMsg, %function
 178              	NMEA0183_EncodeMsg:
 179              	.LFB66:
  53:NMEA0183.c    **** 
  54:NMEA0183.c    **** /******************************************************************************
  55:NMEA0183.c    ****  * Public Functions                                                           *  
  56:NMEA0183.c    ****  ******************************************************************************/
  57:NMEA0183.c    **** 
  58:NMEA0183.c    **** void NMEA0183_Init();
  59:NMEA0183.c    **** 
  60:NMEA0183.c    **** int NMEA0183_DecodeMsg(char * message);
  61:NMEA0183.c    **** 
  62:NMEA0183.c    **** int NMEA0183_EncodeMsg(uint8 * msg, char * id, char * payload){
 180              		.loc 1 62 0
 181              		.cfi_startproc
 182              		@ args = 0, pretend = 0, frame = 64
 183              		@ frame_needed = 0, uses_anonymous_args = 0
 184              	.LVL14:
 185 0000 10B5     		push	{r4, lr}
 186              		.cfi_def_cfa_offset 8
 187              		.cfi_offset 4, -8
 188              		.cfi_offset 14, -4
 189 0002 90B0     		sub	sp, sp, #64
 190              		.cfi_def_cfa_offset 72
 191 0004 0446     		mov	r4, r0
  63:NMEA0183.c    ****     char temp[MAX_MSG_LENGTH];
  64:NMEA0183.c    ****     uint8_t checksum;
  65:NMEA0183.c    ****     
  66:NMEA0183.c    ****     // Build Message and Calc Checksum
  67:NMEA0183.c    ****     sprintf(temp,"%s,%s", id, payload);
 192              		.loc 1 67 0
 193 0006 1346     		mov	r3, r2
 194 0008 0A46     		mov	r2, r1
 195              	.LVL15:
 196 000a 0849     		ldr	r1, .L14
 197              	.LVL16:
 198 000c 6846     		mov	r0, sp
 199              	.LVL17:
 200 000e FFF7FEFF 		bl	sprintf
 201              	.LVL18:
  68:NMEA0183.c    ****     checksum = StringChecksum(temp);
 202              		.loc 1 68 0
 203 0012 6846     		mov	r0, sp
 204 0014 FFF7FEFF 		bl	StringChecksum
 205              	.LVL19:
  69:NMEA0183.c    ****     
  70:NMEA0183.c    ****     // Add Checksum to Message
  71:NMEA0183.c    ****     sprintf(msg,"$%s*%2x\n",temp,checksum);
 206              		.loc 1 71 0
 207 0018 0346     		mov	r3, r0
 208 001a 6A46     		mov	r2, sp
 209 001c 0449     		ldr	r1, .L14+4
 210 001e 2046     		mov	r0, r4
 211              	.LVL20:
 212 0020 FFF7FEFF 		bl	sprintf
ARM GAS  C:\Users\CALEBC~1\AppData\Local\Temp\cceKvHOu.s 			page 6


 213              	.LVL21:
  72:NMEA0183.c    ****     
  73:NMEA0183.c    ****     return 0;
  74:NMEA0183.c    **** }
 214              		.loc 1 74 0
 215 0024 0020     		movs	r0, #0
 216 0026 10B0     		add	sp, sp, #64
 217              		.cfi_def_cfa_offset 8
 218              		@ sp needed
 219 0028 10BD     		pop	{r4, pc}
 220              	.LVL22:
 221              	.L15:
 222 002a 00BF     		.align	2
 223              	.L14:
 224 002c 00000000 		.word	.LC0
 225 0030 08000000 		.word	.LC1
 226              		.cfi_endproc
 227              	.LFE66:
 228              		.size	NMEA0183_EncodeMsg, .-NMEA0183_EncodeMsg
 229              		.section	.rodata.str1.4,"aMS",%progbits,1
 230              		.align	2
 231              	.LC0:
 232 0000 25732C25 		.ascii	"%s,%s\000"
 232      7300
 233 0006 0000     		.space	2
 234              	.LC1:
 235 0008 2425732A 		.ascii	"$%s*%2x\012\000"
 235      2532780A 
 235      00
 236              		.text
 237              	.Letext0:
 238              		.file 2 "c:\\program files (x86)\\cypress\\psoc creator\\4.2\\psoc creator\\import\\gnu\\arm\\5.4.
 239              		.file 3 "c:\\program files (x86)\\cypress\\psoc creator\\4.2\\psoc creator\\import\\gnu\\arm\\5.4.
 240              		.file 4 "Generated_Source\\PSoC5/cytypes.h"
 241              		.file 5 "c:\\program files (x86)\\cypress\\psoc creator\\4.2\\psoc creator\\import\\gnu\\arm\\5.4.
 242              		.file 6 "c:\\program files (x86)\\cypress\\psoc creator\\4.2\\psoc creator\\import\\gnu\\arm\\5.4.
 243              		.file 7 "Generated_Source\\PSoC5/core_cm3.h"