ARM GAS  C:\Users\CALEBC~1\AppData\Local\Temp\ccZKrAJt.s 			page 1


   1              		.syntax unified
   2              		.cpu cortex-m3
   3              		.fpu softvfp
   4              		.eabi_attribute 20, 1
   5              		.eabi_attribute 21, 1
   6              		.eabi_attribute 23, 3
   7              		.eabi_attribute 24, 1
   8              		.eabi_attribute 25, 1
   9              		.eabi_attribute 26, 1
  10              		.eabi_attribute 30, 1
  11              		.eabi_attribute 34, 1
  12              		.eabi_attribute 18, 4
  13              		.thumb
  14              		.syntax unified
  15              		.file	"PID_Timer_PM.c"
  16              		.text
  17              	.Ltext0:
  18              		.cfi_sections	.debug_frame
  19              		.section	.text.PID_Timer_SaveConfig,"ax",%progbits
  20              		.align	2
  21              		.global	PID_Timer_SaveConfig
  22              		.thumb
  23              		.thumb_func
  24              		.type	PID_Timer_SaveConfig, %function
  25              	PID_Timer_SaveConfig:
  26              	.LFB0:
  27              		.file 1 "Generated_Source\\PSoC5\\PID_Timer_PM.c"
   1:Generated_Source\PSoC5/PID_Timer_PM.c **** /*******************************************************************************
   2:Generated_Source\PSoC5/PID_Timer_PM.c **** * File Name: PID_Timer_PM.c
   3:Generated_Source\PSoC5/PID_Timer_PM.c **** * Version 2.80
   4:Generated_Source\PSoC5/PID_Timer_PM.c **** *
   5:Generated_Source\PSoC5/PID_Timer_PM.c **** *  Description:
   6:Generated_Source\PSoC5/PID_Timer_PM.c **** *     This file provides the power management source code to API for the
   7:Generated_Source\PSoC5/PID_Timer_PM.c **** *     Timer.
   8:Generated_Source\PSoC5/PID_Timer_PM.c **** *
   9:Generated_Source\PSoC5/PID_Timer_PM.c **** *   Note:
  10:Generated_Source\PSoC5/PID_Timer_PM.c **** *     None
  11:Generated_Source\PSoC5/PID_Timer_PM.c **** *
  12:Generated_Source\PSoC5/PID_Timer_PM.c **** *******************************************************************************
  13:Generated_Source\PSoC5/PID_Timer_PM.c **** * Copyright 2008-2017, Cypress Semiconductor Corporation.  All rights reserved.
  14:Generated_Source\PSoC5/PID_Timer_PM.c **** * You may use this file only in accordance with the license, terms, conditions,
  15:Generated_Source\PSoC5/PID_Timer_PM.c **** * disclaimers, and limitations in the end user license agreement accompanying
  16:Generated_Source\PSoC5/PID_Timer_PM.c **** * the software package with which this file was provided.
  17:Generated_Source\PSoC5/PID_Timer_PM.c **** ********************************************************************************/
  18:Generated_Source\PSoC5/PID_Timer_PM.c **** 
  19:Generated_Source\PSoC5/PID_Timer_PM.c **** #include "PID_Timer.h"
  20:Generated_Source\PSoC5/PID_Timer_PM.c **** 
  21:Generated_Source\PSoC5/PID_Timer_PM.c **** static PID_Timer_backupStruct PID_Timer_backup;
  22:Generated_Source\PSoC5/PID_Timer_PM.c **** 
  23:Generated_Source\PSoC5/PID_Timer_PM.c **** 
  24:Generated_Source\PSoC5/PID_Timer_PM.c **** /*******************************************************************************
  25:Generated_Source\PSoC5/PID_Timer_PM.c **** * Function Name: PID_Timer_SaveConfig
  26:Generated_Source\PSoC5/PID_Timer_PM.c **** ********************************************************************************
  27:Generated_Source\PSoC5/PID_Timer_PM.c **** *
  28:Generated_Source\PSoC5/PID_Timer_PM.c **** * Summary:
  29:Generated_Source\PSoC5/PID_Timer_PM.c **** *     Save the current user configuration
  30:Generated_Source\PSoC5/PID_Timer_PM.c **** *
ARM GAS  C:\Users\CALEBC~1\AppData\Local\Temp\ccZKrAJt.s 			page 2


  31:Generated_Source\PSoC5/PID_Timer_PM.c **** * Parameters:
  32:Generated_Source\PSoC5/PID_Timer_PM.c **** *  void
  33:Generated_Source\PSoC5/PID_Timer_PM.c **** *
  34:Generated_Source\PSoC5/PID_Timer_PM.c **** * Return:
  35:Generated_Source\PSoC5/PID_Timer_PM.c **** *  void
  36:Generated_Source\PSoC5/PID_Timer_PM.c **** *
  37:Generated_Source\PSoC5/PID_Timer_PM.c **** * Global variables:
  38:Generated_Source\PSoC5/PID_Timer_PM.c **** *  PID_Timer_backup:  Variables of this global structure are modified to
  39:Generated_Source\PSoC5/PID_Timer_PM.c **** *  store the values of non retention configuration registers when Sleep() API is
  40:Generated_Source\PSoC5/PID_Timer_PM.c **** *  called.
  41:Generated_Source\PSoC5/PID_Timer_PM.c **** *
  42:Generated_Source\PSoC5/PID_Timer_PM.c **** *******************************************************************************/
  43:Generated_Source\PSoC5/PID_Timer_PM.c **** void PID_Timer_SaveConfig(void) 
  44:Generated_Source\PSoC5/PID_Timer_PM.c **** {
  28              		.loc 1 44 0
  29              		.cfi_startproc
  30              		@ args = 0, pretend = 0, frame = 0
  31              		@ frame_needed = 0, uses_anonymous_args = 0
  32              		@ link register save eliminated.
  33 0000 7047     		bx	lr
  34              		.cfi_endproc
  35              	.LFE0:
  36              		.size	PID_Timer_SaveConfig, .-PID_Timer_SaveConfig
  37 0002 00BF     		.section	.text.PID_Timer_RestoreConfig,"ax",%progbits
  38              		.align	2
  39              		.global	PID_Timer_RestoreConfig
  40              		.thumb
  41              		.thumb_func
  42              		.type	PID_Timer_RestoreConfig, %function
  43              	PID_Timer_RestoreConfig:
  44              	.LFB1:
  45:Generated_Source\PSoC5/PID_Timer_PM.c ****     #if (!PID_Timer_UsingFixedFunction)
  46:Generated_Source\PSoC5/PID_Timer_PM.c ****         PID_Timer_backup.TimerUdb = PID_Timer_ReadCounter();
  47:Generated_Source\PSoC5/PID_Timer_PM.c ****         PID_Timer_backup.InterruptMaskValue = PID_Timer_STATUS_MASK;
  48:Generated_Source\PSoC5/PID_Timer_PM.c ****         #if (PID_Timer_UsingHWCaptureCounter)
  49:Generated_Source\PSoC5/PID_Timer_PM.c ****             PID_Timer_backup.TimerCaptureCounter = PID_Timer_ReadCaptureCount();
  50:Generated_Source\PSoC5/PID_Timer_PM.c ****         #endif /* Back Up capture counter register  */
  51:Generated_Source\PSoC5/PID_Timer_PM.c **** 
  52:Generated_Source\PSoC5/PID_Timer_PM.c ****         #if(!PID_Timer_UDB_CONTROL_REG_REMOVED)
  53:Generated_Source\PSoC5/PID_Timer_PM.c ****             PID_Timer_backup.TimerControlRegister = PID_Timer_ReadControlRegister();
  54:Generated_Source\PSoC5/PID_Timer_PM.c ****         #endif /* Backup the enable state of the Timer component */
  55:Generated_Source\PSoC5/PID_Timer_PM.c ****     #endif /* Backup non retention registers in UDB implementation. All fixed function registers ar
  56:Generated_Source\PSoC5/PID_Timer_PM.c **** }
  57:Generated_Source\PSoC5/PID_Timer_PM.c **** 
  58:Generated_Source\PSoC5/PID_Timer_PM.c **** 
  59:Generated_Source\PSoC5/PID_Timer_PM.c **** /*******************************************************************************
  60:Generated_Source\PSoC5/PID_Timer_PM.c **** * Function Name: PID_Timer_RestoreConfig
  61:Generated_Source\PSoC5/PID_Timer_PM.c **** ********************************************************************************
  62:Generated_Source\PSoC5/PID_Timer_PM.c **** *
  63:Generated_Source\PSoC5/PID_Timer_PM.c **** * Summary:
  64:Generated_Source\PSoC5/PID_Timer_PM.c **** *  Restores the current user configuration.
  65:Generated_Source\PSoC5/PID_Timer_PM.c **** *
  66:Generated_Source\PSoC5/PID_Timer_PM.c **** * Parameters:
  67:Generated_Source\PSoC5/PID_Timer_PM.c **** *  void
  68:Generated_Source\PSoC5/PID_Timer_PM.c **** *
  69:Generated_Source\PSoC5/PID_Timer_PM.c **** * Return:
  70:Generated_Source\PSoC5/PID_Timer_PM.c **** *  void
ARM GAS  C:\Users\CALEBC~1\AppData\Local\Temp\ccZKrAJt.s 			page 3


  71:Generated_Source\PSoC5/PID_Timer_PM.c **** *
  72:Generated_Source\PSoC5/PID_Timer_PM.c **** * Global variables:
  73:Generated_Source\PSoC5/PID_Timer_PM.c **** *  PID_Timer_backup:  Variables of this global structure are used to
  74:Generated_Source\PSoC5/PID_Timer_PM.c **** *  restore the values of non retention registers on wakeup from sleep mode.
  75:Generated_Source\PSoC5/PID_Timer_PM.c **** *
  76:Generated_Source\PSoC5/PID_Timer_PM.c **** *******************************************************************************/
  77:Generated_Source\PSoC5/PID_Timer_PM.c **** void PID_Timer_RestoreConfig(void) 
  78:Generated_Source\PSoC5/PID_Timer_PM.c **** {   
  45              		.loc 1 78 0
  46              		.cfi_startproc
  47              		@ args = 0, pretend = 0, frame = 0
  48              		@ frame_needed = 0, uses_anonymous_args = 0
  49              		@ link register save eliminated.
  50 0000 7047     		bx	lr
  51              		.cfi_endproc
  52              	.LFE1:
  53              		.size	PID_Timer_RestoreConfig, .-PID_Timer_RestoreConfig
  54 0002 00BF     		.section	.text.PID_Timer_Sleep,"ax",%progbits
  55              		.align	2
  56              		.global	PID_Timer_Sleep
  57              		.thumb
  58              		.thumb_func
  59              		.type	PID_Timer_Sleep, %function
  60              	PID_Timer_Sleep:
  61              	.LFB2:
  79:Generated_Source\PSoC5/PID_Timer_PM.c ****     #if (!PID_Timer_UsingFixedFunction)
  80:Generated_Source\PSoC5/PID_Timer_PM.c **** 
  81:Generated_Source\PSoC5/PID_Timer_PM.c ****         PID_Timer_WriteCounter(PID_Timer_backup.TimerUdb);
  82:Generated_Source\PSoC5/PID_Timer_PM.c ****         PID_Timer_STATUS_MASK =PID_Timer_backup.InterruptMaskValue;
  83:Generated_Source\PSoC5/PID_Timer_PM.c ****         #if (PID_Timer_UsingHWCaptureCounter)
  84:Generated_Source\PSoC5/PID_Timer_PM.c ****             PID_Timer_SetCaptureCount(PID_Timer_backup.TimerCaptureCounter);
  85:Generated_Source\PSoC5/PID_Timer_PM.c ****         #endif /* Restore Capture counter register*/
  86:Generated_Source\PSoC5/PID_Timer_PM.c **** 
  87:Generated_Source\PSoC5/PID_Timer_PM.c ****         #if(!PID_Timer_UDB_CONTROL_REG_REMOVED)
  88:Generated_Source\PSoC5/PID_Timer_PM.c ****             PID_Timer_WriteControlRegister(PID_Timer_backup.TimerControlRegister);
  89:Generated_Source\PSoC5/PID_Timer_PM.c ****         #endif /* Restore the enable state of the Timer component */
  90:Generated_Source\PSoC5/PID_Timer_PM.c ****     #endif /* Restore non retention registers in the UDB implementation only */
  91:Generated_Source\PSoC5/PID_Timer_PM.c **** }
  92:Generated_Source\PSoC5/PID_Timer_PM.c **** 
  93:Generated_Source\PSoC5/PID_Timer_PM.c **** 
  94:Generated_Source\PSoC5/PID_Timer_PM.c **** /*******************************************************************************
  95:Generated_Source\PSoC5/PID_Timer_PM.c **** * Function Name: PID_Timer_Sleep
  96:Generated_Source\PSoC5/PID_Timer_PM.c **** ********************************************************************************
  97:Generated_Source\PSoC5/PID_Timer_PM.c **** *
  98:Generated_Source\PSoC5/PID_Timer_PM.c **** * Summary:
  99:Generated_Source\PSoC5/PID_Timer_PM.c **** *     Stop and Save the user configuration
 100:Generated_Source\PSoC5/PID_Timer_PM.c **** *
 101:Generated_Source\PSoC5/PID_Timer_PM.c **** * Parameters:
 102:Generated_Source\PSoC5/PID_Timer_PM.c **** *  void
 103:Generated_Source\PSoC5/PID_Timer_PM.c **** *
 104:Generated_Source\PSoC5/PID_Timer_PM.c **** * Return:
 105:Generated_Source\PSoC5/PID_Timer_PM.c **** *  void
 106:Generated_Source\PSoC5/PID_Timer_PM.c **** *
 107:Generated_Source\PSoC5/PID_Timer_PM.c **** * Global variables:
 108:Generated_Source\PSoC5/PID_Timer_PM.c **** *  PID_Timer_backup.TimerEnableState:  Is modified depending on the
 109:Generated_Source\PSoC5/PID_Timer_PM.c **** *  enable state of the block before entering sleep mode.
 110:Generated_Source\PSoC5/PID_Timer_PM.c **** *
ARM GAS  C:\Users\CALEBC~1\AppData\Local\Temp\ccZKrAJt.s 			page 4


 111:Generated_Source\PSoC5/PID_Timer_PM.c **** *******************************************************************************/
 112:Generated_Source\PSoC5/PID_Timer_PM.c **** void PID_Timer_Sleep(void) 
 113:Generated_Source\PSoC5/PID_Timer_PM.c **** {
  62              		.loc 1 113 0
  63              		.cfi_startproc
  64              		@ args = 0, pretend = 0, frame = 0
  65              		@ frame_needed = 0, uses_anonymous_args = 0
  66              		.loc 1 113 0
  67 0000 08B5     		push	{r3, lr}
  68              		.cfi_def_cfa_offset 8
  69              		.cfi_offset 3, -8
  70              		.cfi_offset 14, -4
 114:Generated_Source\PSoC5/PID_Timer_PM.c ****     #if(!PID_Timer_UDB_CONTROL_REG_REMOVED)
 115:Generated_Source\PSoC5/PID_Timer_PM.c ****         /* Save Counter's enable state */
 116:Generated_Source\PSoC5/PID_Timer_PM.c ****         if(PID_Timer_CTRL_ENABLE == (PID_Timer_CONTROL & PID_Timer_CTRL_ENABLE))
  71              		.loc 1 116 0
  72 0002 074B     		ldr	r3, .L7
  73 0004 1B78     		ldrb	r3, [r3]	@ zero_extendqisi2
  74 0006 13F0010F 		tst	r3, #1
  75 000a 03D0     		beq	.L4
 117:Generated_Source\PSoC5/PID_Timer_PM.c ****         {
 118:Generated_Source\PSoC5/PID_Timer_PM.c ****             /* Timer is enabled */
 119:Generated_Source\PSoC5/PID_Timer_PM.c ****             PID_Timer_backup.TimerEnableState = 1u;
  76              		.loc 1 119 0
  77 000c 0122     		movs	r2, #1
  78 000e 054B     		ldr	r3, .L7+4
  79 0010 1A70     		strb	r2, [r3]
  80 0012 02E0     		b	.L5
  81              	.L4:
 120:Generated_Source\PSoC5/PID_Timer_PM.c ****         }
 121:Generated_Source\PSoC5/PID_Timer_PM.c ****         else
 122:Generated_Source\PSoC5/PID_Timer_PM.c ****         {
 123:Generated_Source\PSoC5/PID_Timer_PM.c ****             /* Timer is disabled */
 124:Generated_Source\PSoC5/PID_Timer_PM.c ****             PID_Timer_backup.TimerEnableState = 0u;
  82              		.loc 1 124 0
  83 0014 0022     		movs	r2, #0
  84 0016 034B     		ldr	r3, .L7+4
  85 0018 1A70     		strb	r2, [r3]
  86              	.L5:
 125:Generated_Source\PSoC5/PID_Timer_PM.c ****         }
 126:Generated_Source\PSoC5/PID_Timer_PM.c ****     #endif /* Back up enable state from the Timer control register */
 127:Generated_Source\PSoC5/PID_Timer_PM.c ****     PID_Timer_Stop();
  87              		.loc 1 127 0
  88 001a FFF7FEFF 		bl	PID_Timer_Stop
  89              	.LVL0:
  90 001e 08BD     		pop	{r3, pc}
  91              	.L8:
  92              		.align	2
  93              	.L7:
  94 0020 004F0040 		.word	1073762048
  95 0024 00000000 		.word	.LANCHOR0
  96              		.cfi_endproc
  97              	.LFE2:
  98              		.size	PID_Timer_Sleep, .-PID_Timer_Sleep
  99              		.section	.text.PID_Timer_Wakeup,"ax",%progbits
 100              		.align	2
 101              		.global	PID_Timer_Wakeup
ARM GAS  C:\Users\CALEBC~1\AppData\Local\Temp\ccZKrAJt.s 			page 5


 102              		.thumb
 103              		.thumb_func
 104              		.type	PID_Timer_Wakeup, %function
 105              	PID_Timer_Wakeup:
 106              	.LFB3:
 128:Generated_Source\PSoC5/PID_Timer_PM.c ****     PID_Timer_SaveConfig();
 129:Generated_Source\PSoC5/PID_Timer_PM.c **** }
 130:Generated_Source\PSoC5/PID_Timer_PM.c **** 
 131:Generated_Source\PSoC5/PID_Timer_PM.c **** 
 132:Generated_Source\PSoC5/PID_Timer_PM.c **** /*******************************************************************************
 133:Generated_Source\PSoC5/PID_Timer_PM.c **** * Function Name: PID_Timer_Wakeup
 134:Generated_Source\PSoC5/PID_Timer_PM.c **** ********************************************************************************
 135:Generated_Source\PSoC5/PID_Timer_PM.c **** *
 136:Generated_Source\PSoC5/PID_Timer_PM.c **** * Summary:
 137:Generated_Source\PSoC5/PID_Timer_PM.c **** *  Restores and enables the user configuration
 138:Generated_Source\PSoC5/PID_Timer_PM.c **** *
 139:Generated_Source\PSoC5/PID_Timer_PM.c **** * Parameters:
 140:Generated_Source\PSoC5/PID_Timer_PM.c **** *  void
 141:Generated_Source\PSoC5/PID_Timer_PM.c **** *
 142:Generated_Source\PSoC5/PID_Timer_PM.c **** * Return:
 143:Generated_Source\PSoC5/PID_Timer_PM.c **** *  void
 144:Generated_Source\PSoC5/PID_Timer_PM.c **** *
 145:Generated_Source\PSoC5/PID_Timer_PM.c **** * Global variables:
 146:Generated_Source\PSoC5/PID_Timer_PM.c **** *  PID_Timer_backup.enableState:  Is used to restore the enable state of
 147:Generated_Source\PSoC5/PID_Timer_PM.c **** *  block on wakeup from sleep mode.
 148:Generated_Source\PSoC5/PID_Timer_PM.c **** *
 149:Generated_Source\PSoC5/PID_Timer_PM.c **** *******************************************************************************/
 150:Generated_Source\PSoC5/PID_Timer_PM.c **** void PID_Timer_Wakeup(void) 
 151:Generated_Source\PSoC5/PID_Timer_PM.c **** {
 107              		.loc 1 151 0
 108              		.cfi_startproc
 109              		@ args = 0, pretend = 0, frame = 0
 110              		@ frame_needed = 0, uses_anonymous_args = 0
 111 0000 08B5     		push	{r3, lr}
 112              		.cfi_def_cfa_offset 8
 113              		.cfi_offset 3, -8
 114              		.cfi_offset 14, -4
 152:Generated_Source\PSoC5/PID_Timer_PM.c ****     PID_Timer_RestoreConfig();
 153:Generated_Source\PSoC5/PID_Timer_PM.c ****     #if(!PID_Timer_UDB_CONTROL_REG_REMOVED)
 154:Generated_Source\PSoC5/PID_Timer_PM.c ****         if(PID_Timer_backup.TimerEnableState == 1u)
 115              		.loc 1 154 0
 116 0002 034B     		ldr	r3, .L12
 117 0004 1B78     		ldrb	r3, [r3]	@ zero_extendqisi2
 118 0006 012B     		cmp	r3, #1
 119 0008 01D1     		bne	.L9
 155:Generated_Source\PSoC5/PID_Timer_PM.c ****         {     /* Enable Timer's operation */
 156:Generated_Source\PSoC5/PID_Timer_PM.c ****                 PID_Timer_Enable();
 120              		.loc 1 156 0
 121 000a FFF7FEFF 		bl	PID_Timer_Enable
 122              	.LVL1:
 123              	.L9:
 124 000e 08BD     		pop	{r3, pc}
 125              	.L13:
 126              		.align	2
 127              	.L12:
 128 0010 00000000 		.word	.LANCHOR0
 129              		.cfi_endproc
ARM GAS  C:\Users\CALEBC~1\AppData\Local\Temp\ccZKrAJt.s 			page 6


 130              	.LFE3:
 131              		.size	PID_Timer_Wakeup, .-PID_Timer_Wakeup
 132              		.bss
 133              		.align	2
 134              		.set	.LANCHOR0,. + 0
 135              		.type	PID_Timer_backup, %object
 136              		.size	PID_Timer_backup, 1
 137              	PID_Timer_backup:
 138 0000 00       		.space	1
 139              		.text
 140              	.Letext0:
 141              		.file 2 "Generated_Source\\PSoC5\\cytypes.h"
 142              		.file 3 "Generated_Source\\PSoC5\\PID_Timer.h"