ARM GAS  C:\Users\CALEBC~1\AppData\Local\Temp\ccNn0jXr.s 			page 1


   1              		.syntax unified
   2              		.cpu cortex-m3
   3              		.fpu softvfp
   4              		.eabi_attribute 20, 1
   5              		.eabi_attribute 21, 1
   6              		.eabi_attribute 23, 3
   7              		.eabi_attribute 24, 1
   8              		.eabi_attribute 25, 1
   9              		.eabi_attribute 26, 1
  10              		.eabi_attribute 30, 1
  11              		.eabi_attribute 34, 1
  12              		.eabi_attribute 18, 4
  13              		.thumb
  14              		.syntax unified
  15              		.file	"USBFS_pm.c"
  16              		.text
  17              	.Ltext0:
  18              		.cfi_sections	.debug_frame
  19              		.section	.text.USBFS_DP_ISR,"ax",%progbits
  20              		.align	2
  21              		.global	USBFS_DP_ISR
  22              		.thumb
  23              		.thumb_func
  24              		.type	USBFS_DP_ISR, %function
  25              	USBFS_DP_ISR:
  26              	.LFB0:
  27              		.file 1 "Generated_Source\\PSoC5\\USBFS_pm.c"
   1:Generated_Source\PSoC5/USBFS_pm.c **** /***************************************************************************//**
   2:Generated_Source\PSoC5/USBFS_pm.c **** * \file USBFS_pm.c
   3:Generated_Source\PSoC5/USBFS_pm.c **** * \version 3.10
   4:Generated_Source\PSoC5/USBFS_pm.c **** *
   5:Generated_Source\PSoC5/USBFS_pm.c **** * \brief
   6:Generated_Source\PSoC5/USBFS_pm.c **** *  This file provides Suspend/Resume APIs implementation.
   7:Generated_Source\PSoC5/USBFS_pm.c **** *
   8:Generated_Source\PSoC5/USBFS_pm.c **** ********************************************************************************
   9:Generated_Source\PSoC5/USBFS_pm.c **** * \copyright
  10:Generated_Source\PSoC5/USBFS_pm.c **** * Copyright 2008-2016, Cypress Semiconductor Corporation.  All rights reserved.
  11:Generated_Source\PSoC5/USBFS_pm.c **** * You may use this file only in accordance with the license, terms, conditions,
  12:Generated_Source\PSoC5/USBFS_pm.c **** * disclaimers, and limitations in the end user license agreement accompanying
  13:Generated_Source\PSoC5/USBFS_pm.c **** * the software package with which this file was provided.
  14:Generated_Source\PSoC5/USBFS_pm.c **** *******************************************************************************/
  15:Generated_Source\PSoC5/USBFS_pm.c **** 
  16:Generated_Source\PSoC5/USBFS_pm.c **** #include "USBFS_pvt.h"
  17:Generated_Source\PSoC5/USBFS_pm.c **** #include "USBFS_Dp.h"
  18:Generated_Source\PSoC5/USBFS_pm.c **** #include "cyapicallbacks.h"
  19:Generated_Source\PSoC5/USBFS_pm.c **** 
  20:Generated_Source\PSoC5/USBFS_pm.c **** /***************************************
  21:Generated_Source\PSoC5/USBFS_pm.c **** * Custom Declarations
  22:Generated_Source\PSoC5/USBFS_pm.c **** ***************************************/
  23:Generated_Source\PSoC5/USBFS_pm.c **** /* `#START PM_CUSTOM_DECLARATIONS` Place your declaration here */
  24:Generated_Source\PSoC5/USBFS_pm.c **** 
  25:Generated_Source\PSoC5/USBFS_pm.c **** /* `#END` */
  26:Generated_Source\PSoC5/USBFS_pm.c **** 
  27:Generated_Source\PSoC5/USBFS_pm.c **** 
  28:Generated_Source\PSoC5/USBFS_pm.c **** /***************************************
  29:Generated_Source\PSoC5/USBFS_pm.c **** * Local data allocation
  30:Generated_Source\PSoC5/USBFS_pm.c **** ***************************************/
ARM GAS  C:\Users\CALEBC~1\AppData\Local\Temp\ccNn0jXr.s 			page 2


  31:Generated_Source\PSoC5/USBFS_pm.c **** 
  32:Generated_Source\PSoC5/USBFS_pm.c **** static USBFS_BACKUP_STRUCT  USBFS_backup;
  33:Generated_Source\PSoC5/USBFS_pm.c **** 
  34:Generated_Source\PSoC5/USBFS_pm.c **** #if (USBFS_DP_ISR_ACTIVE)
  35:Generated_Source\PSoC5/USBFS_pm.c ****     /*******************************************************************************
  36:Generated_Source\PSoC5/USBFS_pm.c ****     * Function Name: USBFS_DP_ISR
  37:Generated_Source\PSoC5/USBFS_pm.c ****     ****************************************************************************//**
  38:Generated_Source\PSoC5/USBFS_pm.c ****     *
  39:Generated_Source\PSoC5/USBFS_pm.c ****     *  This Interrupt Service Routine handles DP pin changes for wake-up from
  40:Generated_Source\PSoC5/USBFS_pm.c ****     *  the sleep mode.
  41:Generated_Source\PSoC5/USBFS_pm.c ****     *
  42:Generated_Source\PSoC5/USBFS_pm.c ****     *******************************************************************************/
  43:Generated_Source\PSoC5/USBFS_pm.c ****     CY_ISR(USBFS_DP_ISR)
  44:Generated_Source\PSoC5/USBFS_pm.c ****     {
  28              		.loc 1 44 0
  29              		.cfi_startproc
  30              		@ args = 0, pretend = 0, frame = 0
  31              		@ frame_needed = 0, uses_anonymous_args = 0
  32 0000 08B5     		push	{r3, lr}
  33              		.cfi_def_cfa_offset 8
  34              		.cfi_offset 3, -8
  35              		.cfi_offset 14, -4
  45:Generated_Source\PSoC5/USBFS_pm.c ****     #ifdef USBFS_DP_ISR_ENTRY_CALLBACK
  46:Generated_Source\PSoC5/USBFS_pm.c ****         USBFS_DP_ISR_EntryCallback();
  47:Generated_Source\PSoC5/USBFS_pm.c ****     #endif /* (USBFS_DP_ISR_ENTRY_CALLBACK) */
  48:Generated_Source\PSoC5/USBFS_pm.c **** 
  49:Generated_Source\PSoC5/USBFS_pm.c ****         /* `#START DP_USER_CODE` Place your code here */
  50:Generated_Source\PSoC5/USBFS_pm.c **** 
  51:Generated_Source\PSoC5/USBFS_pm.c ****         /* `#END` */
  52:Generated_Source\PSoC5/USBFS_pm.c **** 
  53:Generated_Source\PSoC5/USBFS_pm.c ****         (void) USBFS_Dp_ClearInterrupt();
  36              		.loc 1 53 0
  37 0002 FFF7FEFF 		bl	USBFS_Dp_ClearInterrupt
  38              	.LVL0:
  39 0006 08BD     		pop	{r3, pc}
  40              		.cfi_endproc
  41              	.LFE0:
  42              		.size	USBFS_DP_ISR, .-USBFS_DP_ISR
  43              		.section	.text.USBFS_SaveConfig,"ax",%progbits
  44              		.align	2
  45              		.global	USBFS_SaveConfig
  46              		.thumb
  47              		.thumb_func
  48              		.type	USBFS_SaveConfig, %function
  49              	USBFS_SaveConfig:
  50              	.LFB1:
  54:Generated_Source\PSoC5/USBFS_pm.c **** 		
  55:Generated_Source\PSoC5/USBFS_pm.c **** 	#ifdef USBFS_DP_ISR_EXIT_CALLBACK
  56:Generated_Source\PSoC5/USBFS_pm.c ****         USBFS_DP_ISR_ExitCallback();
  57:Generated_Source\PSoC5/USBFS_pm.c ****     #endif /* (USBFS_DP_ISR_EXIT_CALLBACK) */
  58:Generated_Source\PSoC5/USBFS_pm.c ****     }
  59:Generated_Source\PSoC5/USBFS_pm.c **** #endif /* (USBFS_DP_ISR_ACTIVE) */
  60:Generated_Source\PSoC5/USBFS_pm.c **** 
  61:Generated_Source\PSoC5/USBFS_pm.c **** 
  62:Generated_Source\PSoC5/USBFS_pm.c **** /*******************************************************************************
  63:Generated_Source\PSoC5/USBFS_pm.c **** * Function Name: USBFS_SaveConfig
  64:Generated_Source\PSoC5/USBFS_pm.c **** ****************************************************************************//**
ARM GAS  C:\Users\CALEBC~1\AppData\Local\Temp\ccNn0jXr.s 			page 3


  65:Generated_Source\PSoC5/USBFS_pm.c **** *
  66:Generated_Source\PSoC5/USBFS_pm.c **** *  Saves the current user configuration.
  67:Generated_Source\PSoC5/USBFS_pm.c **** *
  68:Generated_Source\PSoC5/USBFS_pm.c **** * \reentrant
  69:Generated_Source\PSoC5/USBFS_pm.c **** *  No.
  70:Generated_Source\PSoC5/USBFS_pm.c **** *
  71:Generated_Source\PSoC5/USBFS_pm.c **** *******************************************************************************/
  72:Generated_Source\PSoC5/USBFS_pm.c **** void USBFS_SaveConfig(void) 
  73:Generated_Source\PSoC5/USBFS_pm.c **** {
  51              		.loc 1 73 0
  52              		.cfi_startproc
  53              		@ args = 0, pretend = 0, frame = 0
  54              		@ frame_needed = 0, uses_anonymous_args = 0
  55              		@ link register save eliminated.
  56 0000 7047     		bx	lr
  57              		.cfi_endproc
  58              	.LFE1:
  59              		.size	USBFS_SaveConfig, .-USBFS_SaveConfig
  60 0002 00BF     		.section	.text.USBFS_RestoreConfig,"ax",%progbits
  61              		.align	2
  62              		.global	USBFS_RestoreConfig
  63              		.thumb
  64              		.thumb_func
  65              		.type	USBFS_RestoreConfig, %function
  66              	USBFS_RestoreConfig:
  67              	.LFB2:
  74:Generated_Source\PSoC5/USBFS_pm.c ****     /* Empty function added for the compatibility purpose. */
  75:Generated_Source\PSoC5/USBFS_pm.c **** }
  76:Generated_Source\PSoC5/USBFS_pm.c **** 
  77:Generated_Source\PSoC5/USBFS_pm.c **** 
  78:Generated_Source\PSoC5/USBFS_pm.c **** /*******************************************************************************
  79:Generated_Source\PSoC5/USBFS_pm.c **** * Function Name: USBFS_RestoreConfig
  80:Generated_Source\PSoC5/USBFS_pm.c **** ****************************************************************************//**
  81:Generated_Source\PSoC5/USBFS_pm.c **** *
  82:Generated_Source\PSoC5/USBFS_pm.c **** *  Restores the current user configuration.
  83:Generated_Source\PSoC5/USBFS_pm.c **** *
  84:Generated_Source\PSoC5/USBFS_pm.c **** * \reentrant
  85:Generated_Source\PSoC5/USBFS_pm.c **** *  No.
  86:Generated_Source\PSoC5/USBFS_pm.c **** *
  87:Generated_Source\PSoC5/USBFS_pm.c **** *******************************************************************************/
  88:Generated_Source\PSoC5/USBFS_pm.c **** void USBFS_RestoreConfig(void) 
  89:Generated_Source\PSoC5/USBFS_pm.c **** {
  68              		.loc 1 89 0
  69              		.cfi_startproc
  70              		@ args = 0, pretend = 0, frame = 0
  71              		@ frame_needed = 0, uses_anonymous_args = 0
  72              		.loc 1 89 0
  73 0000 08B5     		push	{r3, lr}
  74              		.cfi_def_cfa_offset 8
  75              		.cfi_offset 3, -8
  76              		.cfi_offset 14, -4
  90:Generated_Source\PSoC5/USBFS_pm.c ****     if (USBFS_configuration != 0u)
  77              		.loc 1 90 0
  78 0002 054B     		ldr	r3, .L7
  79 0004 1B78     		ldrb	r3, [r3]	@ zero_extendqisi2
  80 0006 13F0FF0F 		tst	r3, #255
  81 000a 03D0     		beq	.L4
ARM GAS  C:\Users\CALEBC~1\AppData\Local\Temp\ccNn0jXr.s 			page 4


  91:Generated_Source\PSoC5/USBFS_pm.c ****     {
  92:Generated_Source\PSoC5/USBFS_pm.c ****         USBFS_ConfigReg();
  82              		.loc 1 92 0
  83 000c FFF7FEFF 		bl	USBFS_ConfigReg
  84              	.LVL1:
  93:Generated_Source\PSoC5/USBFS_pm.c ****         USBFS_EpStateInit();
  85              		.loc 1 93 0
  86 0010 FFF7FEFF 		bl	USBFS_EpStateInit
  87              	.LVL2:
  88              	.L4:
  89 0014 08BD     		pop	{r3, pc}
  90              	.L8:
  91 0016 00BF     		.align	2
  92              	.L7:
  93 0018 00000000 		.word	USBFS_configuration
  94              		.cfi_endproc
  95              	.LFE2:
  96              		.size	USBFS_RestoreConfig, .-USBFS_RestoreConfig
  97              		.section	.text.USBFS_Suspend,"ax",%progbits
  98              		.align	2
  99              		.global	USBFS_Suspend
 100              		.thumb
 101              		.thumb_func
 102              		.type	USBFS_Suspend, %function
 103              	USBFS_Suspend:
 104              	.LFB3:
  94:Generated_Source\PSoC5/USBFS_pm.c ****     }
  95:Generated_Source\PSoC5/USBFS_pm.c **** }
  96:Generated_Source\PSoC5/USBFS_pm.c **** 
  97:Generated_Source\PSoC5/USBFS_pm.c **** 
  98:Generated_Source\PSoC5/USBFS_pm.c **** /*******************************************************************************
  99:Generated_Source\PSoC5/USBFS_pm.c **** * Function Name: USBFS_Suspend
 100:Generated_Source\PSoC5/USBFS_pm.c **** ****************************************************************************//**
 101:Generated_Source\PSoC5/USBFS_pm.c **** *
 102:Generated_Source\PSoC5/USBFS_pm.c **** *  This function prepares the USBFS component to enter low power mode. The 
 103:Generated_Source\PSoC5/USBFS_pm.c **** *  interrupt on falling edge on Dp pin is configured to wakeup device when the 
 104:Generated_Source\PSoC5/USBFS_pm.c **** *  host drives resume condition. The pull-up is enabled on the Dp line while 
 105:Generated_Source\PSoC5/USBFS_pm.c **** *  device is in low power mode. The supported low power modes are Deep Sleep 
 106:Generated_Source\PSoC5/USBFS_pm.c **** *  (PSoC 4200L) and Sleep (PSoC 3/ PSoC 5LP).
 107:Generated_Source\PSoC5/USBFS_pm.c **** *  
 108:Generated_Source\PSoC5/USBFS_pm.c **** *  *Note* For PSoC 4200L devices, this function should not be called before 
 109:Generated_Source\PSoC5/USBFS_pm.c **** *  entering Sleep.
 110:Generated_Source\PSoC5/USBFS_pm.c **** *  
 111:Generated_Source\PSoC5/USBFS_pm.c **** *  *Note* After enter low power mode, the data which is left in the IN or OUT 
 112:Generated_Source\PSoC5/USBFS_pm.c **** *  endpoint buffers is not restored after wakeup and lost. Therefore it should 
 113:Generated_Source\PSoC5/USBFS_pm.c **** *  be stored in the SRAM for OUT endpoint or read by the host for IN endpoint 
 114:Generated_Source\PSoC5/USBFS_pm.c **** *  before enter low power mode.
 115:Generated_Source\PSoC5/USBFS_pm.c **** *
 116:Generated_Source\PSoC5/USBFS_pm.c **** * \globalvars
 117:Generated_Source\PSoC5/USBFS_pm.c **** *  USBFS_backup.enable:  modified.
 118:Generated_Source\PSoC5/USBFS_pm.c **** *
 119:Generated_Source\PSoC5/USBFS_pm.c **** * \reentrant
 120:Generated_Source\PSoC5/USBFS_pm.c **** *  No.
 121:Generated_Source\PSoC5/USBFS_pm.c **** *
 122:Generated_Source\PSoC5/USBFS_pm.c **** *******************************************************************************/
 123:Generated_Source\PSoC5/USBFS_pm.c **** void USBFS_Suspend(void) 
 124:Generated_Source\PSoC5/USBFS_pm.c **** {
ARM GAS  C:\Users\CALEBC~1\AppData\Local\Temp\ccNn0jXr.s 			page 5


 105              		.loc 1 124 0
 106              		.cfi_startproc
 107              		@ args = 0, pretend = 0, frame = 0
 108              		@ frame_needed = 0, uses_anonymous_args = 0
 109 0000 F8B5     		push	{r3, r4, r5, r6, r7, lr}
 110              		.cfi_def_cfa_offset 24
 111              		.cfi_offset 3, -24
 112              		.cfi_offset 4, -20
 113              		.cfi_offset 5, -16
 114              		.cfi_offset 6, -12
 115              		.cfi_offset 7, -8
 116              		.cfi_offset 14, -4
 125:Generated_Source\PSoC5/USBFS_pm.c ****     uint8 enableInterrupts;
 126:Generated_Source\PSoC5/USBFS_pm.c **** 
 127:Generated_Source\PSoC5/USBFS_pm.c ****     enableInterrupts = CyEnterCriticalSection();
 117              		.loc 1 127 0
 118 0002 FFF7FEFF 		bl	CyEnterCriticalSection
 119              	.LVL3:
 120 0006 0446     		mov	r4, r0
 121              	.LVL4:
 128:Generated_Source\PSoC5/USBFS_pm.c **** 
 129:Generated_Source\PSoC5/USBFS_pm.c ****     if (0u != (USBFS_CR0_REG & USBFS_CR0_ENABLE))
 122              		.loc 1 129 0
 123 0008 294B     		ldr	r3, .L13
 124 000a 1B78     		ldrb	r3, [r3]	@ zero_extendqisi2
 125 000c 13F0800F 		tst	r3, #128
 126 0010 3ED0     		beq	.L10
 130:Generated_Source\PSoC5/USBFS_pm.c ****     {
 131:Generated_Source\PSoC5/USBFS_pm.c ****         /* USB block is enabled. */
 132:Generated_Source\PSoC5/USBFS_pm.c ****         USBFS_backup.enableState = 1u;
 127              		.loc 1 132 0
 128 0012 284F     		ldr	r7, .L13+4
 129 0014 0126     		movs	r6, #1
 130 0016 3E70     		strb	r6, [r7]
 133:Generated_Source\PSoC5/USBFS_pm.c **** 
 134:Generated_Source\PSoC5/USBFS_pm.c ****     #if (USBFS_EP_MANAGEMENT_DMA)
 135:Generated_Source\PSoC5/USBFS_pm.c ****         USBFS_Stop_DMA(USBFS_MAX_EP);
 131              		.loc 1 135 0
 132 0018 0920     		movs	r0, #9
 133 001a FFF7FEFF 		bl	USBFS_Stop_DMA
 134              	.LVL5:
 136:Generated_Source\PSoC5/USBFS_pm.c ****     #endif /* (USBFS_EP_MANAGEMENT_DMA) */
 137:Generated_Source\PSoC5/USBFS_pm.c **** 
 138:Generated_Source\PSoC5/USBFS_pm.c ****     #if (CY_PSOC4)
 139:Generated_Source\PSoC5/USBFS_pm.c ****         /* Suspend enter sequence. */
 140:Generated_Source\PSoC5/USBFS_pm.c ****         USBFS_POWER_CTRL_REG |= (USBFS_POWER_CTRL_SUSPEND |
 141:Generated_Source\PSoC5/USBFS_pm.c ****                                             USBFS_POWER_CTRL_SUSPEND_DEL);
 142:Generated_Source\PSoC5/USBFS_pm.c **** 
 143:Generated_Source\PSoC5/USBFS_pm.c ****         /* Store state of USB regulator and disable it. */
 144:Generated_Source\PSoC5/USBFS_pm.c ****         USBFS_backup.mode = (uint8)  (USBFS_CR1_REG & USBFS_CR1_REG_ENABLE);
 145:Generated_Source\PSoC5/USBFS_pm.c ****         USBFS_CR1_REG    &= (uint32) ~USBFS_CR1_REG_ENABLE;
 146:Generated_Source\PSoC5/USBFS_pm.c ****         
 147:Generated_Source\PSoC5/USBFS_pm.c ****         /* Store SIE interrupt sources. Valid bits are 0 - 4. */
 148:Generated_Source\PSoC5/USBFS_pm.c ****         USBFS_backup.intrSeiMask = (uint8) USBFS_INTR_SIE_MASK_REG;
 149:Generated_Source\PSoC5/USBFS_pm.c **** 
 150:Generated_Source\PSoC5/USBFS_pm.c ****     #else
 151:Generated_Source\PSoC5/USBFS_pm.c ****         /* Ensure USB transmit enable is low (USB_USBIO_CR0.ten). - Manual Transmission - Disabled.
ARM GAS  C:\Users\CALEBC~1\AppData\Local\Temp\ccNn0jXr.s 			page 6


 152:Generated_Source\PSoC5/USBFS_pm.c ****         USBFS_USBIO_CR0_REG &= (uint8) ~USBFS_USBIO_CR0_TEN;
 135              		.loc 1 152 0
 136 001e 264A     		ldr	r2, .L13+8
 137 0020 1378     		ldrb	r3, [r2]	@ zero_extendqisi2
 138 0022 03F07F03 		and	r3, r3, #127
 139 0026 1370     		strb	r3, [r2]
 153:Generated_Source\PSoC5/USBFS_pm.c ****         CyDelayUs(USBFS_WAIT_REG_STABILITY_50NS);  /*~50ns delay. */
 140              		.loc 1 153 0
 141 0028 0020     		movs	r0, #0
 142 002a FFF7FEFF 		bl	CyDelayUs
 143              	.LVL6:
 154:Generated_Source\PSoC5/USBFS_pm.c **** 
 155:Generated_Source\PSoC5/USBFS_pm.c ****         /* Disable the USBIO by asserting PM.USB_CR0.fsusbio_pd_n(Inverted) and pd_pullup_hv(Invert
 156:Generated_Source\PSoC5/USBFS_pm.c ****         USBFS_PM_USB_CR0_REG &= (uint8) ~(USBFS_PM_USB_CR0_PD_N |
 144              		.loc 1 156 0
 145 002e 234D     		ldr	r5, .L13+12
 146 0030 2B78     		ldrb	r3, [r5]	@ zero_extendqisi2
 147 0032 03F0F903 		and	r3, r3, #249
 148 0036 2B70     		strb	r3, [r5]
 157:Generated_Source\PSoC5/USBFS_pm.c ****                                                      USBFS_PM_USB_CR0_PD_PULLUP_N);
 158:Generated_Source\PSoC5/USBFS_pm.c **** 
 159:Generated_Source\PSoC5/USBFS_pm.c ****         /* Disable the SIE. */
 160:Generated_Source\PSoC5/USBFS_pm.c ****         USBFS_CR0_REG &= (uint8) ~USBFS_CR0_ENABLE;
 149              		.loc 1 160 0
 150 0038 1D4A     		ldr	r2, .L13
 151 003a 1378     		ldrb	r3, [r2]	@ zero_extendqisi2
 152 003c 03F07F03 		and	r3, r3, #127
 153 0040 1370     		strb	r3, [r2]
 161:Generated_Source\PSoC5/USBFS_pm.c **** 
 162:Generated_Source\PSoC5/USBFS_pm.c ****         CyDelayUs(USBFS_WAIT_REG_STABILITY_50NS);  /* ~50ns delay. */
 154              		.loc 1 162 0
 155 0042 0020     		movs	r0, #0
 156 0044 FFF7FEFF 		bl	CyDelayUs
 157              	.LVL7:
 163:Generated_Source\PSoC5/USBFS_pm.c ****         /* Store mode and disable VRegulator. */
 164:Generated_Source\PSoC5/USBFS_pm.c ****         USBFS_backup.mode = (uint8) (USBFS_CR1_REG & USBFS_CR1_REG_ENABLE);
 158              		.loc 1 164 0
 159 0048 1D4B     		ldr	r3, .L13+16
 160 004a 1A78     		ldrb	r2, [r3]	@ zero_extendqisi2
 161 004c 3240     		ands	r2, r2, r6
 162 004e 7A70     		strb	r2, [r7, #1]
 165:Generated_Source\PSoC5/USBFS_pm.c ****         USBFS_CR1_REG    &= (uint8) ~USBFS_CR1_REG_ENABLE;
 163              		.loc 1 165 0
 164 0050 1A78     		ldrb	r2, [r3]	@ zero_extendqisi2
 165 0052 02F0FE02 		and	r2, r2, #254
 166 0056 1A70     		strb	r2, [r3]
 166:Generated_Source\PSoC5/USBFS_pm.c **** 
 167:Generated_Source\PSoC5/USBFS_pm.c ****         CyDelayUs(USBFS_WAIT_REG_STABILITY_1US); /* min 0.5us delay required. */
 167              		.loc 1 167 0
 168 0058 3046     		mov	r0, r6
 169 005a FFF7FEFF 		bl	CyDelayUs
 170              	.LVL8:
 168:Generated_Source\PSoC5/USBFS_pm.c **** 
 169:Generated_Source\PSoC5/USBFS_pm.c ****         /* Disable the USBIO reference by setting PM.USB_CR0.fsusbio_ref_en.*/
 170:Generated_Source\PSoC5/USBFS_pm.c ****         USBFS_PM_USB_CR0_REG &= (uint8) ~USBFS_PM_USB_CR0_REF_EN;
 171              		.loc 1 170 0
 172 005e 2B78     		ldrb	r3, [r5]	@ zero_extendqisi2
ARM GAS  C:\Users\CALEBC~1\AppData\Local\Temp\ccNn0jXr.s 			page 7


 173 0060 03F0FE03 		and	r3, r3, #254
 174 0064 2B70     		strb	r3, [r5]
 171:Generated_Source\PSoC5/USBFS_pm.c **** 
 172:Generated_Source\PSoC5/USBFS_pm.c ****         /* Switch DP and DM terminals to GPIO mode and disconnect 1.5k pull-up. */
 173:Generated_Source\PSoC5/USBFS_pm.c ****         USBFS_USBIO_CR1_REG |= USBFS_USBIO_CR1_IOMODE;
 175              		.loc 1 173 0
 176 0066 174A     		ldr	r2, .L13+20
 177 0068 1378     		ldrb	r3, [r2]	@ zero_extendqisi2
 178 006a 43F02003 		orr	r3, r3, #32
 179 006e 1370     		strb	r3, [r2]
 174:Generated_Source\PSoC5/USBFS_pm.c **** 
 175:Generated_Source\PSoC5/USBFS_pm.c ****         /* Disable USBFS block. */
 176:Generated_Source\PSoC5/USBFS_pm.c ****         /* Clear power active and standby mode templates: disable USB block. */
 177:Generated_Source\PSoC5/USBFS_pm.c ****         USBFS_PM_ACT_CFG_REG  &= (uint8) ~USBFS_PM_ACT_EN_FSUSB;
 180              		.loc 1 177 0
 181 0070 A2F5E352 		sub	r2, r2, #7264
 182 0074 0D3A     		subs	r2, r2, #13
 183 0076 1378     		ldrb	r3, [r2]	@ zero_extendqisi2
 184 0078 03F0FE03 		and	r3, r3, #254
 185 007c 1370     		strb	r3, [r2]
 178:Generated_Source\PSoC5/USBFS_pm.c ****         USBFS_PM_STBY_CFG_REG &= (uint8) ~USBFS_PM_STBY_EN_FSUSB;
 186              		.loc 1 178 0
 187 007e 1032     		adds	r2, r2, #16
 188 0080 1378     		ldrb	r3, [r2]	@ zero_extendqisi2
 189 0082 03F0FE03 		and	r3, r3, #254
 190 0086 1370     		strb	r3, [r2]
 179:Generated_Source\PSoC5/USBFS_pm.c **** 
 180:Generated_Source\PSoC5/USBFS_pm.c ****         CyDelayUs(USBFS_WAIT_REG_STABILITY_1US); /* min 0.5us delay required. */
 191              		.loc 1 180 0
 192 0088 3046     		mov	r0, r6
 193 008a FFF7FEFF 		bl	CyDelayUs
 194              	.LVL9:
 195 008e 02E0     		b	.L11
 196              	.L10:
 181:Generated_Source\PSoC5/USBFS_pm.c ****     #endif /* (CY_PSOC4) */
 182:Generated_Source\PSoC5/USBFS_pm.c ****     }
 183:Generated_Source\PSoC5/USBFS_pm.c ****     else
 184:Generated_Source\PSoC5/USBFS_pm.c ****     {
 185:Generated_Source\PSoC5/USBFS_pm.c ****         USBFS_backup.enableState = 0u;
 197              		.loc 1 185 0
 198 0090 0022     		movs	r2, #0
 199 0092 084B     		ldr	r3, .L13+4
 200 0094 1A70     		strb	r2, [r3]
 201              	.L11:
 186:Generated_Source\PSoC5/USBFS_pm.c ****     }
 187:Generated_Source\PSoC5/USBFS_pm.c **** 
 188:Generated_Source\PSoC5/USBFS_pm.c ****     CyExitCriticalSection(enableInterrupts);
 202              		.loc 1 188 0
 203 0096 2046     		mov	r0, r4
 204 0098 FFF7FEFF 		bl	CyExitCriticalSection
 205              	.LVL10:
 189:Generated_Source\PSoC5/USBFS_pm.c **** 
 190:Generated_Source\PSoC5/USBFS_pm.c **** #if (USBFS_DP_ISR_ACTIVE)
 191:Generated_Source\PSoC5/USBFS_pm.c ****     /* Clear active mode Dp interrupt source history. */
 192:Generated_Source\PSoC5/USBFS_pm.c ****     (void) USBFS_Dp_ClearInterrupt();
 206              		.loc 1 192 0
 207 009c FFF7FEFF 		bl	USBFS_Dp_ClearInterrupt
ARM GAS  C:\Users\CALEBC~1\AppData\Local\Temp\ccNn0jXr.s 			page 8


 208              	.LVL11:
 193:Generated_Source\PSoC5/USBFS_pm.c ****     CyIntClearPending(USBFS_DP_INTC_VECT_NUM);
 209              		.loc 1 193 0
 210 00a0 4FF48053 		mov	r3, #4096
 211 00a4 084A     		ldr	r2, .L13+24
 212 00a6 1360     		str	r3, [r2]
 194:Generated_Source\PSoC5/USBFS_pm.c **** 
 195:Generated_Source\PSoC5/USBFS_pm.c ****     CyIntEnable      (USBFS_DP_INTC_VECT_NUM);
 213              		.loc 1 195 0
 214 00a8 A2F5C072 		sub	r2, r2, #384
 215 00ac 1360     		str	r3, [r2]
 216 00ae F8BD     		pop	{r3, r4, r5, r6, r7, pc}
 217              	.LVL12:
 218              	.L14:
 219              		.align	2
 220              	.L13:
 221 00b0 08600040 		.word	1073766408
 222 00b4 00000000 		.word	.LANCHOR0
 223 00b8 10600040 		.word	1073766416
 224 00bc 94430040 		.word	1073759124
 225 00c0 09600040 		.word	1073766409
 226 00c4 12600040 		.word	1073766418
 227 00c8 80E200E0 		.word	-536812928
 228              		.cfi_endproc
 229              	.LFE3:
 230              		.size	USBFS_Suspend, .-USBFS_Suspend
 231              		.section	.text.USBFS_Resume,"ax",%progbits
 232              		.align	2
 233              		.global	USBFS_Resume
 234              		.thumb
 235              		.thumb_func
 236              		.type	USBFS_Resume, %function
 237              	USBFS_Resume:
 238              	.LFB4:
 196:Generated_Source\PSoC5/USBFS_pm.c **** #endif /* (USBFS_DP_ISR_ACTIVE). */
 197:Generated_Source\PSoC5/USBFS_pm.c **** }
 198:Generated_Source\PSoC5/USBFS_pm.c **** 
 199:Generated_Source\PSoC5/USBFS_pm.c **** 
 200:Generated_Source\PSoC5/USBFS_pm.c **** /*******************************************************************************
 201:Generated_Source\PSoC5/USBFS_pm.c **** * Function Name: USBFS_Resume
 202:Generated_Source\PSoC5/USBFS_pm.c **** ****************************************************************************//**
 203:Generated_Source\PSoC5/USBFS_pm.c **** *
 204:Generated_Source\PSoC5/USBFS_pm.c **** *  This function prepares the USBFS component for active mode operation after 
 205:Generated_Source\PSoC5/USBFS_pm.c **** *  exit low power mode. It restores the component active mode configuration such 
 206:Generated_Source\PSoC5/USBFS_pm.c **** *  as device address assigned previously by the host, endpoints buffer and disables 
 207:Generated_Source\PSoC5/USBFS_pm.c **** *  interrupt on Dp pin.
 208:Generated_Source\PSoC5/USBFS_pm.c **** *  The supported low power modes are Deep Sleep (PSoC 4200L) and Sleep 
 209:Generated_Source\PSoC5/USBFS_pm.c **** *  (PSoC 3/ PSoC 5LP).
 210:Generated_Source\PSoC5/USBFS_pm.c **** *  
 211:Generated_Source\PSoC5/USBFS_pm.c **** *  *Note* For PSoC 4200L devices, this function should not be called after 
 212:Generated_Source\PSoC5/USBFS_pm.c **** *  exiting Sleep.
 213:Generated_Source\PSoC5/USBFS_pm.c **** *  
 214:Generated_Source\PSoC5/USBFS_pm.c **** *  *Note* To resume communication with the host, the data endpoints must be 
 215:Generated_Source\PSoC5/USBFS_pm.c **** *  managed: the OUT endpoints must be enabled and IN endpoints must be loaded 
 216:Generated_Source\PSoC5/USBFS_pm.c **** *  with data. For DMA with Automatic Buffer Management, all endpoints buffers 
 217:Generated_Source\PSoC5/USBFS_pm.c **** *  must be initialized again before making them available to the host.
 218:Generated_Source\PSoC5/USBFS_pm.c **** *
ARM GAS  C:\Users\CALEBC~1\AppData\Local\Temp\ccNn0jXr.s 			page 9


 219:Generated_Source\PSoC5/USBFS_pm.c **** *
 220:Generated_Source\PSoC5/USBFS_pm.c **** * \globalvars
 221:Generated_Source\PSoC5/USBFS_pm.c **** *  USBFS_backup - checked.
 222:Generated_Source\PSoC5/USBFS_pm.c **** *
 223:Generated_Source\PSoC5/USBFS_pm.c **** * \reentrant
 224:Generated_Source\PSoC5/USBFS_pm.c **** *  No.
 225:Generated_Source\PSoC5/USBFS_pm.c **** *
 226:Generated_Source\PSoC5/USBFS_pm.c **** *******************************************************************************/
 227:Generated_Source\PSoC5/USBFS_pm.c **** void USBFS_Resume(void) 
 228:Generated_Source\PSoC5/USBFS_pm.c **** {
 239              		.loc 1 228 0
 240              		.cfi_startproc
 241              		@ args = 0, pretend = 0, frame = 0
 242              		@ frame_needed = 0, uses_anonymous_args = 0
 243 0000 38B5     		push	{r3, r4, r5, lr}
 244              		.cfi_def_cfa_offset 16
 245              		.cfi_offset 3, -16
 246              		.cfi_offset 4, -12
 247              		.cfi_offset 5, -8
 248              		.cfi_offset 14, -4
 229:Generated_Source\PSoC5/USBFS_pm.c ****     uint8 enableInterrupts;
 230:Generated_Source\PSoC5/USBFS_pm.c **** 
 231:Generated_Source\PSoC5/USBFS_pm.c ****     enableInterrupts = CyEnterCriticalSection();
 249              		.loc 1 231 0
 250 0002 FFF7FEFF 		bl	CyEnterCriticalSection
 251              	.LVL13:
 252 0006 0546     		mov	r5, r0
 253              	.LVL14:
 232:Generated_Source\PSoC5/USBFS_pm.c **** 
 233:Generated_Source\PSoC5/USBFS_pm.c ****     if (0u != USBFS_backup.enableState)
 254              		.loc 1 233 0
 255 0008 264B     		ldr	r3, .L18
 256 000a 1B78     		ldrb	r3, [r3]	@ zero_extendqisi2
 257 000c 002B     		cmp	r3, #0
 258 000e 45D0     		beq	.L16
 234:Generated_Source\PSoC5/USBFS_pm.c ****     {
 235:Generated_Source\PSoC5/USBFS_pm.c ****     #if (USBFS_DP_ISR_ACTIVE)
 236:Generated_Source\PSoC5/USBFS_pm.c ****         CyIntDisable(USBFS_DP_INTC_VECT_NUM);
 259              		.loc 1 236 0
 260 0010 4FF48052 		mov	r2, #4096
 261 0014 244B     		ldr	r3, .L18+4
 262 0016 1A60     		str	r2, [r3]
 237:Generated_Source\PSoC5/USBFS_pm.c ****     #endif /* (USBFS_DP_ISR_ACTIVE) */
 238:Generated_Source\PSoC5/USBFS_pm.c **** 
 239:Generated_Source\PSoC5/USBFS_pm.c ****     #if (CY_PSOC4)
 240:Generated_Source\PSoC5/USBFS_pm.c ****         /* Enable clock to USB IP. */
 241:Generated_Source\PSoC5/USBFS_pm.c ****         USBFS_USB_CLK_EN_REG |= USBFS_USB_CLK_CSR_CLK_EN;
 242:Generated_Source\PSoC5/USBFS_pm.c **** 
 243:Generated_Source\PSoC5/USBFS_pm.c ****         /* Restore arbiter configuration for DMA transfers. */
 244:Generated_Source\PSoC5/USBFS_pm.c ****         #if (USBFS_EP_MANAGEMENT_DMA)
 245:Generated_Source\PSoC5/USBFS_pm.c ****             #if (USBFS_ARB_ISR_ACTIVE)
 246:Generated_Source\PSoC5/USBFS_pm.c ****                 /* Enable ARB EP interrupt sources. */
 247:Generated_Source\PSoC5/USBFS_pm.c ****                 USBFS_ARB_INT_EN_REG = USBFS_DEFAULT_ARB_INT_EN;
 248:Generated_Source\PSoC5/USBFS_pm.c ****             #endif /* (USBFS_EP_MANAGEMENT_DMA) */
 249:Generated_Source\PSoC5/USBFS_pm.c **** 
 250:Generated_Source\PSoC5/USBFS_pm.c ****             /* Configure arbiter for Manual or Auto DMA operation and clear 
 251:Generated_Source\PSoC5/USBFS_pm.c ****             * configuration completion. 
ARM GAS  C:\Users\CALEBC~1\AppData\Local\Temp\ccNn0jXr.s 			page 10


 252:Generated_Source\PSoC5/USBFS_pm.c ****             */
 253:Generated_Source\PSoC5/USBFS_pm.c ****             USBFS_ARB_CFG_REG = USBFS_DEFAULT_ARB_CFG;
 254:Generated_Source\PSoC5/USBFS_pm.c ****         #endif /* (USBFS_EP_MANAGEMENT_DMA) */
 255:Generated_Source\PSoC5/USBFS_pm.c **** 
 256:Generated_Source\PSoC5/USBFS_pm.c ****         /* Restore level (hi, lo, med) for each interrupt source. */
 257:Generated_Source\PSoC5/USBFS_pm.c ****         USBFS_INTR_LVL_SEL_REG = USBFS_DEFAULT_INTR_LVL_SEL;
 258:Generated_Source\PSoC5/USBFS_pm.c ****         
 259:Generated_Source\PSoC5/USBFS_pm.c ****         /* Store SIE interrupt sources. */
 260:Generated_Source\PSoC5/USBFS_pm.c ****         USBFS_INTR_SIE_MASK_REG = (uint32) USBFS_backup.intrSeiMask;
 261:Generated_Source\PSoC5/USBFS_pm.c **** 
 262:Generated_Source\PSoC5/USBFS_pm.c ****         /* Set EP0.CR: ACK Setup, NAK IN/OUT. */
 263:Generated_Source\PSoC5/USBFS_pm.c ****         USBFS_EP0_CR_REG = USBFS_MODE_NAK_IN_OUT;
 264:Generated_Source\PSoC5/USBFS_pm.c **** 
 265:Generated_Source\PSoC5/USBFS_pm.c ****         /* Restore data EP1-8 configuration. */
 266:Generated_Source\PSoC5/USBFS_pm.c ****         USBFS_RestoreConfig();
 267:Generated_Source\PSoC5/USBFS_pm.c **** 
 268:Generated_Source\PSoC5/USBFS_pm.c ****         /* Restore state of USB regulator and wait until it supples stable power. */
 269:Generated_Source\PSoC5/USBFS_pm.c ****         USBFS_CR1_REG |= USBFS_backup.mode;
 270:Generated_Source\PSoC5/USBFS_pm.c ****         CyDelayUs(USBFS_WAIT_VREF_STABILITY);
 271:Generated_Source\PSoC5/USBFS_pm.c **** 
 272:Generated_Source\PSoC5/USBFS_pm.c ****         /* Suspend exit sequence. */
 273:Generated_Source\PSoC5/USBFS_pm.c ****         USBFS_POWER_CTRL_REG &= (uint32) ~USBFS_POWER_CTRL_SUSPEND;
 274:Generated_Source\PSoC5/USBFS_pm.c ****         CyDelayUs(USBFS_WAIT_SUSPEND_DEL_DISABLE);
 275:Generated_Source\PSoC5/USBFS_pm.c ****         USBFS_POWER_CTRL_REG &= (uint32) ~USBFS_POWER_CTRL_SUSPEND_DEL;
 276:Generated_Source\PSoC5/USBFS_pm.c **** 
 277:Generated_Source\PSoC5/USBFS_pm.c ****     #else
 278:Generated_Source\PSoC5/USBFS_pm.c ****         /* Set power active and standby mode templates: enable USB block. */
 279:Generated_Source\PSoC5/USBFS_pm.c ****         USBFS_PM_ACT_CFG_REG  |= USBFS_PM_ACT_EN_FSUSB;
 263              		.loc 1 279 0
 264 0018 244A     		ldr	r2, .L18+8
 265 001a 1378     		ldrb	r3, [r2]	@ zero_extendqisi2
 266 001c 43F00103 		orr	r3, r3, #1
 267 0020 1370     		strb	r3, [r2]
 280:Generated_Source\PSoC5/USBFS_pm.c ****         USBFS_PM_STBY_CFG_REG |= USBFS_PM_STBY_EN_FSUSB;
 268              		.loc 1 280 0
 269 0022 1032     		adds	r2, r2, #16
 270 0024 1378     		ldrb	r3, [r2]	@ zero_extendqisi2
 271 0026 43F00103 		orr	r3, r3, #1
 272 002a 1370     		strb	r3, [r2]
 281:Generated_Source\PSoC5/USBFS_pm.c **** 
 282:Generated_Source\PSoC5/USBFS_pm.c ****         /* Enable core clock. */
 283:Generated_Source\PSoC5/USBFS_pm.c ****         USBFS_USB_CLK_EN_REG |= USBFS_USB_CLK_ENABLE;
 273              		.loc 1 283 0
 274 002c 02F5E752 		add	r2, r2, #7392
 275 0030 0832     		adds	r2, r2, #8
 276 0032 1378     		ldrb	r3, [r2]	@ zero_extendqisi2
 277 0034 43F00103 		orr	r3, r3, #1
 278 0038 1370     		strb	r3, [r2]
 284:Generated_Source\PSoC5/USBFS_pm.c **** 
 285:Generated_Source\PSoC5/USBFS_pm.c ****         /* Enable the USBIO reference by setting PM.USB_CR0.fsusbio_ref_en.*/
 286:Generated_Source\PSoC5/USBFS_pm.c ****         USBFS_PM_USB_CR0_REG |= USBFS_PM_USB_CR0_REF_EN;
 279              		.loc 1 286 0
 280 003a 1D4C     		ldr	r4, .L18+12
 281 003c 2378     		ldrb	r3, [r4]	@ zero_extendqisi2
 282 003e 43F00103 		orr	r3, r3, #1
 283 0042 2370     		strb	r3, [r4]
 287:Generated_Source\PSoC5/USBFS_pm.c **** 
ARM GAS  C:\Users\CALEBC~1\AppData\Local\Temp\ccNn0jXr.s 			page 11


 288:Generated_Source\PSoC5/USBFS_pm.c ****         /* The reference is available ~40us after power restored. */
 289:Generated_Source\PSoC5/USBFS_pm.c ****         CyDelayUs(USBFS_WAIT_VREF_RESTORE);
 284              		.loc 1 289 0
 285 0044 2820     		movs	r0, #40
 286 0046 FFF7FEFF 		bl	CyDelayUs
 287              	.LVL15:
 290:Generated_Source\PSoC5/USBFS_pm.c ****         /* Restore state of USB regulator and wait until it supples stable power. */
 291:Generated_Source\PSoC5/USBFS_pm.c ****         USBFS_CR1_REG |= USBFS_backup.mode;
 288              		.loc 1 291 0
 289 004a 1A4A     		ldr	r2, .L18+16
 290 004c 1178     		ldrb	r1, [r2]	@ zero_extendqisi2
 291 004e 154B     		ldr	r3, .L18
 292 0050 5B78     		ldrb	r3, [r3, #1]	@ zero_extendqisi2
 293 0052 0B43     		orrs	r3, r3, r1
 294 0054 1370     		strb	r3, [r2]
 292:Generated_Source\PSoC5/USBFS_pm.c ****         CyDelayUs(USBFS_WAIT_VREF_STABILITY);   /*~50ns delay. */
 295              		.loc 1 292 0
 296 0056 0020     		movs	r0, #0
 297 0058 FFF7FEFF 		bl	CyDelayUs
 298              	.LVL16:
 293:Generated_Source\PSoC5/USBFS_pm.c **** 
 294:Generated_Source\PSoC5/USBFS_pm.c ****         /* Enable USBIO. */
 295:Generated_Source\PSoC5/USBFS_pm.c ****         USBFS_PM_USB_CR0_REG |= USBFS_PM_USB_CR0_PD_N;
 299              		.loc 1 295 0
 300 005c 2378     		ldrb	r3, [r4]	@ zero_extendqisi2
 301 005e 43F00203 		orr	r3, r3, #2
 302 0062 2370     		strb	r3, [r4]
 296:Generated_Source\PSoC5/USBFS_pm.c ****         CyDelayUs(USBFS_WAIT_PD_PULLUP_N_ENABLE);
 303              		.loc 1 296 0
 304 0064 0220     		movs	r0, #2
 305 0066 FFF7FEFF 		bl	CyDelayUs
 306              	.LVL17:
 297:Generated_Source\PSoC5/USBFS_pm.c ****         /* Set the USBIO pull-up enable. */
 298:Generated_Source\PSoC5/USBFS_pm.c ****         USBFS_PM_USB_CR0_REG |= USBFS_PM_USB_CR0_PD_PULLUP_N;
 307              		.loc 1 298 0
 308 006a 2378     		ldrb	r3, [r4]	@ zero_extendqisi2
 309 006c 43F00403 		orr	r3, r3, #4
 310 0070 2370     		strb	r3, [r4]
 299:Generated_Source\PSoC5/USBFS_pm.c **** 
 300:Generated_Source\PSoC5/USBFS_pm.c ****         /* Restore arbiter configuration for DMA transfers. */
 301:Generated_Source\PSoC5/USBFS_pm.c ****         #if (USBFS_EP_MANAGEMENT_DMA)
 302:Generated_Source\PSoC5/USBFS_pm.c ****             #if (USBFS_ARB_ISR_ACTIVE)
 303:Generated_Source\PSoC5/USBFS_pm.c ****                 /* Enable ARB EP interrupt sources. */
 304:Generated_Source\PSoC5/USBFS_pm.c ****                 USBFS_ARB_INT_EN_REG = USBFS_DEFAULT_ARB_INT_EN;
 311              		.loc 1 304 0
 312 0072 0323     		movs	r3, #3
 313 0074 104A     		ldr	r2, .L18+20
 314 0076 1370     		strb	r3, [r2]
 305:Generated_Source\PSoC5/USBFS_pm.c ****             #endif /* (USBFS_EP_MANAGEMENT_DMA) */
 306:Generated_Source\PSoC5/USBFS_pm.c **** 
 307:Generated_Source\PSoC5/USBFS_pm.c ****             /* Configure arbiter for Manual or Auto DMA operation and clear 
 308:Generated_Source\PSoC5/USBFS_pm.c ****             * configuration completion. 
 309:Generated_Source\PSoC5/USBFS_pm.c ****             */
 310:Generated_Source\PSoC5/USBFS_pm.c ****             USBFS_ARB_CFG_REG = USBFS_DEFAULT_ARB_CFG;
 315              		.loc 1 310 0
 316 0078 2021     		movs	r1, #32
 317 007a 023A     		subs	r2, r2, #2
ARM GAS  C:\Users\CALEBC~1\AppData\Local\Temp\ccNn0jXr.s 			page 12


 318 007c 1170     		strb	r1, [r2]
 311:Generated_Source\PSoC5/USBFS_pm.c ****         #endif /* (USBFS_EP_MANAGEMENT_DMA) */
 312:Generated_Source\PSoC5/USBFS_pm.c **** 
 313:Generated_Source\PSoC5/USBFS_pm.c ****         /* Set EP0.CR: ACK Setup, STALL IN/OUT. */
 314:Generated_Source\PSoC5/USBFS_pm.c ****         USBFS_EP0_CR_REG = USBFS_MODE_STALL_IN_OUT;
 319              		.loc 1 314 0
 320 007e 743A     		subs	r2, r2, #116
 321 0080 1370     		strb	r3, [r2]
 315:Generated_Source\PSoC5/USBFS_pm.c **** 
 316:Generated_Source\PSoC5/USBFS_pm.c ****         /* Enable the USB IP to respond to USB traffic with the last address. */
 317:Generated_Source\PSoC5/USBFS_pm.c ****         USBFS_CR0_REG |= USBFS_CR0_ENABLE;
 322              		.loc 1 317 0
 323 0082 203A     		subs	r2, r2, #32
 324 0084 1378     		ldrb	r3, [r2]	@ zero_extendqisi2
 325 0086 43F08003 		orr	r3, r3, #128
 326 008a 1370     		strb	r3, [r2]
 318:Generated_Source\PSoC5/USBFS_pm.c ****         CyDelayCycles(USBFS_WAIT_CR0_REG_STABILITY);
 327              		.loc 1 318 0
 328 008c 0120     		movs	r0, #1
 329 008e FFF7FEFF 		bl	CyDelayCycles
 330              	.LVL18:
 319:Generated_Source\PSoC5/USBFS_pm.c **** 
 320:Generated_Source\PSoC5/USBFS_pm.c ****         /* Enable D+ pull-up and keep USB control on IO. */
 321:Generated_Source\PSoC5/USBFS_pm.c ****         USBFS_USBIO_CR1_REG = USBFS_USBIO_CR1_USBPUEN;
 331              		.loc 1 321 0
 332 0092 0422     		movs	r2, #4
 333 0094 094B     		ldr	r3, .L18+24
 334 0096 1A70     		strb	r2, [r3]
 322:Generated_Source\PSoC5/USBFS_pm.c **** 
 323:Generated_Source\PSoC5/USBFS_pm.c ****         /* Restore data EP1-8 configuration. */
 324:Generated_Source\PSoC5/USBFS_pm.c ****         USBFS_RestoreConfig();
 335              		.loc 1 324 0
 336 0098 FFF7FEFF 		bl	USBFS_RestoreConfig
 337              	.LVL19:
 338              	.L16:
 325:Generated_Source\PSoC5/USBFS_pm.c ****     #endif /* (CY_PSOC4) */
 326:Generated_Source\PSoC5/USBFS_pm.c ****     }
 327:Generated_Source\PSoC5/USBFS_pm.c **** 
 328:Generated_Source\PSoC5/USBFS_pm.c ****     CyExitCriticalSection(enableInterrupts);
 339              		.loc 1 328 0
 340 009c 2846     		mov	r0, r5
 341 009e FFF7FEFF 		bl	CyExitCriticalSection
 342              	.LVL20:
 343 00a2 38BD     		pop	{r3, r4, r5, pc}
 344              	.LVL21:
 345              	.L19:
 346              		.align	2
 347              	.L18:
 348 00a4 00000000 		.word	.LANCHOR0
 349 00a8 80E100E0 		.word	-536813184
 350 00ac A5430040 		.word	1073759141
 351 00b0 94430040 		.word	1073759124
 352 00b4 09600040 		.word	1073766409
 353 00b8 9E600040 		.word	1073766558
 354 00bc 12600040 		.word	1073766418
 355              		.cfi_endproc
 356              	.LFE4:
ARM GAS  C:\Users\CALEBC~1\AppData\Local\Temp\ccNn0jXr.s 			page 13


 357              		.size	USBFS_Resume, .-USBFS_Resume
 358              		.bss
 359              		.align	2
 360              		.set	.LANCHOR0,. + 0
 361              		.type	USBFS_backup, %object
 362              		.size	USBFS_backup, 2
 363              	USBFS_backup:
 364 0000 0000     		.space	2
 365              		.text
 366              	.Letext0:
 367              		.file 2 "Generated_Source\\PSoC5\\cytypes.h"
 368              		.file 3 "Generated_Source\\PSoC5\\USBFS.h"
 369              		.file 4 "Generated_Source\\PSoC5\\USBFS_Dp.h"
 370              		.file 5 "Generated_Source\\PSoC5\\USBFS_pvt.h"
 371              		.file 6 "Generated_Source\\PSoC5\\CyLib.h"