ARM GAS  C:\Users\CALEBC~1\AppData\Local\Temp\ccBuh6Ys.s 			page 1


   1              		.syntax unified
   2              		.cpu cortex-m3
   3              		.fpu softvfp
   4              		.eabi_attribute 20, 1
   5              		.eabi_attribute 21, 1
   6              		.eabi_attribute 23, 3
   7              		.eabi_attribute 24, 1
   8              		.eabi_attribute 25, 1
   9              		.eabi_attribute 26, 1
  10              		.eabi_attribute 30, 1
  11              		.eabi_attribute 34, 1
  12              		.eabi_attribute 18, 4
  13              		.thumb
  14              		.syntax unified
  15              		.file	"USBFS_std.c"
  16              		.text
  17              	.Ltext0:
  18              		.cfi_sections	.debug_frame
  19              		.section	.text.USBFS_ReadDieID,"ax",%progbits
  20              		.align	2
  21              		.global	USBFS_ReadDieID
  22              		.thumb
  23              		.thumb_func
  24              		.type	USBFS_ReadDieID, %function
  25              	USBFS_ReadDieID:
  26              	.LFB1:
  27              		.file 1 "Generated_Source\\PSoC5\\USBFS_std.c"
   1:Generated_Source\PSoC5/USBFS_std.c **** /***************************************************************************//**
   2:Generated_Source\PSoC5/USBFS_std.c **** * \file USBFS_std.c
   3:Generated_Source\PSoC5/USBFS_std.c **** * \version 3.10
   4:Generated_Source\PSoC5/USBFS_std.c **** *
   5:Generated_Source\PSoC5/USBFS_std.c **** * \brief
   6:Generated_Source\PSoC5/USBFS_std.c **** *  This file contains the USB Standard request handler.
   7:Generated_Source\PSoC5/USBFS_std.c **** *
   8:Generated_Source\PSoC5/USBFS_std.c **** ********************************************************************************
   9:Generated_Source\PSoC5/USBFS_std.c **** * \copyright
  10:Generated_Source\PSoC5/USBFS_std.c **** * Copyright 2008-2016, Cypress Semiconductor Corporation.  All rights reserved.
  11:Generated_Source\PSoC5/USBFS_std.c **** * You may use this file only in accordance with the license, terms, conditions,
  12:Generated_Source\PSoC5/USBFS_std.c **** * disclaimers, and limitations in the end user license agreement accompanying
  13:Generated_Source\PSoC5/USBFS_std.c **** * the software package with which this file was provided.
  14:Generated_Source\PSoC5/USBFS_std.c **** *******************************************************************************/
  15:Generated_Source\PSoC5/USBFS_std.c **** 
  16:Generated_Source\PSoC5/USBFS_std.c **** #include "USBFS_pvt.h"
  17:Generated_Source\PSoC5/USBFS_std.c **** 
  18:Generated_Source\PSoC5/USBFS_std.c **** /***************************************
  19:Generated_Source\PSoC5/USBFS_std.c **** *   Static data allocation
  20:Generated_Source\PSoC5/USBFS_std.c **** ***************************************/
  21:Generated_Source\PSoC5/USBFS_std.c **** 
  22:Generated_Source\PSoC5/USBFS_std.c **** #if defined(USBFS_ENABLE_FWSN_STRING)
  23:Generated_Source\PSoC5/USBFS_std.c ****     static volatile uint8* USBFS_fwSerialNumberStringDescriptor;
  24:Generated_Source\PSoC5/USBFS_std.c ****     static volatile uint8  USBFS_snStringConfirm = USBFS_FALSE;
  25:Generated_Source\PSoC5/USBFS_std.c **** #endif  /* (USBFS_ENABLE_FWSN_STRING) */
  26:Generated_Source\PSoC5/USBFS_std.c **** 
  27:Generated_Source\PSoC5/USBFS_std.c **** #if defined(USBFS_ENABLE_FWSN_STRING)
  28:Generated_Source\PSoC5/USBFS_std.c ****     /***************************************************************************
  29:Generated_Source\PSoC5/USBFS_std.c ****     * Function Name: USBFS_SerialNumString
  30:Generated_Source\PSoC5/USBFS_std.c ****     ************************************************************************//**
ARM GAS  C:\Users\CALEBC~1\AppData\Local\Temp\ccBuh6Ys.s 			page 2


  31:Generated_Source\PSoC5/USBFS_std.c ****     *
  32:Generated_Source\PSoC5/USBFS_std.c ****     *  This function is available only when the User Call Back option in the 
  33:Generated_Source\PSoC5/USBFS_std.c ****     *  Serial Number String descriptor properties is selected. Application 
  34:Generated_Source\PSoC5/USBFS_std.c ****     *  firmware can provide the source of the USB device serial number string 
  35:Generated_Source\PSoC5/USBFS_std.c ****     *  descriptor during run time. The default string is used if the application 
  36:Generated_Source\PSoC5/USBFS_std.c ****     *  firmware does not use this function or sets the wrong string descriptor.
  37:Generated_Source\PSoC5/USBFS_std.c ****     *
  38:Generated_Source\PSoC5/USBFS_std.c ****     *  \param snString:  Pointer to the user-defined string descriptor. The 
  39:Generated_Source\PSoC5/USBFS_std.c ****     *  string descriptor should meet the Universal Serial Bus Specification 
  40:Generated_Source\PSoC5/USBFS_std.c ****     *  revision 2.0 chapter 9.6.7
  41:Generated_Source\PSoC5/USBFS_std.c ****     *  Offset|Size|Value|Description
  42:Generated_Source\PSoC5/USBFS_std.c ****     *  ------|----|------|---------------------------------
  43:Generated_Source\PSoC5/USBFS_std.c ****     *  0     |1   |N     |Size of this descriptor in bytes
  44:Generated_Source\PSoC5/USBFS_std.c ****     *  1     |1   |0x03  |STRING Descriptor Type
  45:Generated_Source\PSoC5/USBFS_std.c ****     *  2     |N-2 |Number|UNICODE encoded string
  46:Generated_Source\PSoC5/USBFS_std.c ****     *  
  47:Generated_Source\PSoC5/USBFS_std.c ****     * *For example:* uint8 snString[16]={0x0E,0x03,'F',0,'W',0,'S',0,'N',0,'0',0,'1',0};
  48:Generated_Source\PSoC5/USBFS_std.c ****     *
  49:Generated_Source\PSoC5/USBFS_std.c ****     * \reentrant
  50:Generated_Source\PSoC5/USBFS_std.c ****     *  No.
  51:Generated_Source\PSoC5/USBFS_std.c ****     *
  52:Generated_Source\PSoC5/USBFS_std.c ****     ***************************************************************************/
  53:Generated_Source\PSoC5/USBFS_std.c ****     void  USBFS_SerialNumString(uint8 snString[]) 
  54:Generated_Source\PSoC5/USBFS_std.c ****     {
  55:Generated_Source\PSoC5/USBFS_std.c ****         USBFS_snStringConfirm = USBFS_FALSE;
  56:Generated_Source\PSoC5/USBFS_std.c ****         
  57:Generated_Source\PSoC5/USBFS_std.c ****         if (snString != NULL)
  58:Generated_Source\PSoC5/USBFS_std.c ****         {
  59:Generated_Source\PSoC5/USBFS_std.c ****             /* Check descriptor validation */
  60:Generated_Source\PSoC5/USBFS_std.c ****             if ((snString[0u] > 1u) && (snString[1u] == USBFS_DESCR_STRING))
  61:Generated_Source\PSoC5/USBFS_std.c ****             {
  62:Generated_Source\PSoC5/USBFS_std.c ****                 USBFS_fwSerialNumberStringDescriptor = snString;
  63:Generated_Source\PSoC5/USBFS_std.c ****                 USBFS_snStringConfirm = USBFS_TRUE;
  64:Generated_Source\PSoC5/USBFS_std.c ****             }
  65:Generated_Source\PSoC5/USBFS_std.c ****         }
  66:Generated_Source\PSoC5/USBFS_std.c ****     }
  67:Generated_Source\PSoC5/USBFS_std.c **** #endif  /* USBFS_ENABLE_FWSN_STRING */
  68:Generated_Source\PSoC5/USBFS_std.c **** 
  69:Generated_Source\PSoC5/USBFS_std.c **** 
  70:Generated_Source\PSoC5/USBFS_std.c **** /*******************************************************************************
  71:Generated_Source\PSoC5/USBFS_std.c **** * Function Name: USBFS_HandleStandardRqst
  72:Generated_Source\PSoC5/USBFS_std.c **** ****************************************************************************//**
  73:Generated_Source\PSoC5/USBFS_std.c **** *
  74:Generated_Source\PSoC5/USBFS_std.c **** *  This Routine dispatches standard requests
  75:Generated_Source\PSoC5/USBFS_std.c **** *
  76:Generated_Source\PSoC5/USBFS_std.c **** *
  77:Generated_Source\PSoC5/USBFS_std.c **** * \return
  78:Generated_Source\PSoC5/USBFS_std.c **** *  TRUE if request handled.
  79:Generated_Source\PSoC5/USBFS_std.c **** *
  80:Generated_Source\PSoC5/USBFS_std.c **** * \reentrant
  81:Generated_Source\PSoC5/USBFS_std.c **** *  No.
  82:Generated_Source\PSoC5/USBFS_std.c **** *
  83:Generated_Source\PSoC5/USBFS_std.c **** *******************************************************************************/
  84:Generated_Source\PSoC5/USBFS_std.c **** uint8 USBFS_HandleStandardRqst(void) 
  85:Generated_Source\PSoC5/USBFS_std.c **** {
  86:Generated_Source\PSoC5/USBFS_std.c ****     uint8 requestHandled = USBFS_FALSE;
  87:Generated_Source\PSoC5/USBFS_std.c ****     uint8 interfaceNumber;
ARM GAS  C:\Users\CALEBC~1\AppData\Local\Temp\ccBuh6Ys.s 			page 3


  88:Generated_Source\PSoC5/USBFS_std.c ****     uint8 configurationN;
  89:Generated_Source\PSoC5/USBFS_std.c ****     uint8 bmRequestType = USBFS_bmRequestTypeReg;
  90:Generated_Source\PSoC5/USBFS_std.c **** 
  91:Generated_Source\PSoC5/USBFS_std.c **** #if defined(USBFS_ENABLE_STRINGS)
  92:Generated_Source\PSoC5/USBFS_std.c ****     volatile uint8 *pStr = 0u;
  93:Generated_Source\PSoC5/USBFS_std.c ****     #if defined(USBFS_ENABLE_DESCRIPTOR_STRINGS)
  94:Generated_Source\PSoC5/USBFS_std.c ****         uint8 nStr;
  95:Generated_Source\PSoC5/USBFS_std.c ****         uint8 descrLength;
  96:Generated_Source\PSoC5/USBFS_std.c ****     #endif /* (USBFS_ENABLE_DESCRIPTOR_STRINGS) */
  97:Generated_Source\PSoC5/USBFS_std.c **** #endif /* (USBFS_ENABLE_STRINGS) */
  98:Generated_Source\PSoC5/USBFS_std.c ****     
  99:Generated_Source\PSoC5/USBFS_std.c ****     static volatile uint8 USBFS_tBuffer[USBFS_STATUS_LENGTH_MAX];
 100:Generated_Source\PSoC5/USBFS_std.c ****     const T_USBFS_LUT CYCODE *pTmp;
 101:Generated_Source\PSoC5/USBFS_std.c **** 
 102:Generated_Source\PSoC5/USBFS_std.c ****     USBFS_currentTD.count = 0u;
 103:Generated_Source\PSoC5/USBFS_std.c **** 
 104:Generated_Source\PSoC5/USBFS_std.c ****     if (USBFS_RQST_DIR_D2H == (bmRequestType & USBFS_RQST_DIR_MASK))
 105:Generated_Source\PSoC5/USBFS_std.c ****     {
 106:Generated_Source\PSoC5/USBFS_std.c ****         /* Control Read */
 107:Generated_Source\PSoC5/USBFS_std.c ****         switch (USBFS_bRequestReg)
 108:Generated_Source\PSoC5/USBFS_std.c ****         {
 109:Generated_Source\PSoC5/USBFS_std.c ****             case USBFS_GET_DESCRIPTOR:
 110:Generated_Source\PSoC5/USBFS_std.c ****                 if (USBFS_DESCR_DEVICE ==USBFS_wValueHiReg)
 111:Generated_Source\PSoC5/USBFS_std.c ****                 {
 112:Generated_Source\PSoC5/USBFS_std.c ****                     pTmp = USBFS_GetDeviceTablePtr();
 113:Generated_Source\PSoC5/USBFS_std.c ****                     USBFS_currentTD.pData = (volatile uint8 *)pTmp->p_list;
 114:Generated_Source\PSoC5/USBFS_std.c ****                     USBFS_currentTD.count = USBFS_DEVICE_DESCR_LENGTH;
 115:Generated_Source\PSoC5/USBFS_std.c ****                     
 116:Generated_Source\PSoC5/USBFS_std.c ****                     requestHandled  = USBFS_InitControlRead();
 117:Generated_Source\PSoC5/USBFS_std.c ****                 }
 118:Generated_Source\PSoC5/USBFS_std.c ****                 else if (USBFS_DESCR_CONFIG == USBFS_wValueHiReg)
 119:Generated_Source\PSoC5/USBFS_std.c ****                 {
 120:Generated_Source\PSoC5/USBFS_std.c ****                     pTmp = USBFS_GetConfigTablePtr((uint8) USBFS_wValueLoReg);
 121:Generated_Source\PSoC5/USBFS_std.c ****                     
 122:Generated_Source\PSoC5/USBFS_std.c ****                     /* Verify that requested descriptor exists */
 123:Generated_Source\PSoC5/USBFS_std.c ****                     if (pTmp != NULL)
 124:Generated_Source\PSoC5/USBFS_std.c ****                     {
 125:Generated_Source\PSoC5/USBFS_std.c ****                         USBFS_currentTD.pData = (volatile uint8 *)pTmp->p_list;
 126:Generated_Source\PSoC5/USBFS_std.c ****                         USBFS_currentTD.count = (uint16)((uint16)(USBFS_currentTD.pData)[USBFS_CONF
 127:Generated_Source\PSoC5/USBFS_std.c ****                                                                             (USBFS_currentTD.pData)
 128:Generated_Source\PSoC5/USBFS_std.c ****                         requestHandled  = USBFS_InitControlRead();
 129:Generated_Source\PSoC5/USBFS_std.c ****                     }
 130:Generated_Source\PSoC5/USBFS_std.c ****                 }
 131:Generated_Source\PSoC5/USBFS_std.c ****                 
 132:Generated_Source\PSoC5/USBFS_std.c ****             #if(USBFS_BOS_ENABLE)
 133:Generated_Source\PSoC5/USBFS_std.c ****                 else if (USBFS_DESCR_BOS == USBFS_wValueHiReg)
 134:Generated_Source\PSoC5/USBFS_std.c ****                 {
 135:Generated_Source\PSoC5/USBFS_std.c ****                     pTmp = USBFS_GetBOSPtr();
 136:Generated_Source\PSoC5/USBFS_std.c ****                     
 137:Generated_Source\PSoC5/USBFS_std.c ****                     /* Verify that requested descriptor exists */
 138:Generated_Source\PSoC5/USBFS_std.c ****                     if (pTmp != NULL)
 139:Generated_Source\PSoC5/USBFS_std.c ****                     {
 140:Generated_Source\PSoC5/USBFS_std.c ****                         USBFS_currentTD.pData = (volatile uint8 *)pTmp;
 141:Generated_Source\PSoC5/USBFS_std.c ****                         USBFS_currentTD.count = ((uint16)((uint16)(USBFS_currentTD.pData)[USBFS_BOS
 142:Generated_Source\PSoC5/USBFS_std.c ****                                                                              (USBFS_currentTD.pData
 143:Generated_Source\PSoC5/USBFS_std.c ****                         requestHandled  = USBFS_InitControlRead();
 144:Generated_Source\PSoC5/USBFS_std.c ****                     }
ARM GAS  C:\Users\CALEBC~1\AppData\Local\Temp\ccBuh6Ys.s 			page 4


 145:Generated_Source\PSoC5/USBFS_std.c ****                 }
 146:Generated_Source\PSoC5/USBFS_std.c ****             #endif /*(USBFS_BOS_ENABLE)*/
 147:Generated_Source\PSoC5/USBFS_std.c ****             
 148:Generated_Source\PSoC5/USBFS_std.c ****             #if defined(USBFS_ENABLE_STRINGS)
 149:Generated_Source\PSoC5/USBFS_std.c ****                 else if (USBFS_DESCR_STRING == USBFS_wValueHiReg)
 150:Generated_Source\PSoC5/USBFS_std.c ****                 {
 151:Generated_Source\PSoC5/USBFS_std.c ****                 /* Descriptor Strings */
 152:Generated_Source\PSoC5/USBFS_std.c ****                 #if defined(USBFS_ENABLE_DESCRIPTOR_STRINGS)
 153:Generated_Source\PSoC5/USBFS_std.c ****                     nStr = 0u;
 154:Generated_Source\PSoC5/USBFS_std.c ****                     pStr = (volatile uint8 *) &USBFS_STRING_DESCRIPTORS[0u];
 155:Generated_Source\PSoC5/USBFS_std.c ****                     
 156:Generated_Source\PSoC5/USBFS_std.c ****                     while ((USBFS_wValueLoReg > nStr) && (*pStr != 0u))
 157:Generated_Source\PSoC5/USBFS_std.c ****                     {
 158:Generated_Source\PSoC5/USBFS_std.c ****                         /* Read descriptor length from 1st byte */
 159:Generated_Source\PSoC5/USBFS_std.c ****                         descrLength = *pStr;
 160:Generated_Source\PSoC5/USBFS_std.c ****                         /* Move to next string descriptor */
 161:Generated_Source\PSoC5/USBFS_std.c ****                         pStr = &pStr[descrLength];
 162:Generated_Source\PSoC5/USBFS_std.c ****                         nStr++;
 163:Generated_Source\PSoC5/USBFS_std.c ****                     }
 164:Generated_Source\PSoC5/USBFS_std.c ****                 #endif /* (USBFS_ENABLE_DESCRIPTOR_STRINGS) */
 165:Generated_Source\PSoC5/USBFS_std.c ****                 
 166:Generated_Source\PSoC5/USBFS_std.c ****                 /* Microsoft OS String */
 167:Generated_Source\PSoC5/USBFS_std.c ****                 #if defined(USBFS_ENABLE_MSOS_STRING)
 168:Generated_Source\PSoC5/USBFS_std.c ****                     if (USBFS_STRING_MSOS == USBFS_wValueLoReg)
 169:Generated_Source\PSoC5/USBFS_std.c ****                     {
 170:Generated_Source\PSoC5/USBFS_std.c ****                         pStr = (volatile uint8 *)& USBFS_MSOS_DESCRIPTOR[0u];
 171:Generated_Source\PSoC5/USBFS_std.c ****                     }
 172:Generated_Source\PSoC5/USBFS_std.c ****                 #endif /* (USBFS_ENABLE_MSOS_STRING) */
 173:Generated_Source\PSoC5/USBFS_std.c ****                 
 174:Generated_Source\PSoC5/USBFS_std.c ****                 /* SN string */
 175:Generated_Source\PSoC5/USBFS_std.c ****                 #if defined(USBFS_ENABLE_SN_STRING)
 176:Generated_Source\PSoC5/USBFS_std.c ****                     if ((USBFS_wValueLoReg != 0u) && 
 177:Generated_Source\PSoC5/USBFS_std.c ****                         (USBFS_wValueLoReg == USBFS_DEVICE0_DESCR[USBFS_DEVICE_DESCR_SN_SHIFT]))
 178:Generated_Source\PSoC5/USBFS_std.c ****                     {
 179:Generated_Source\PSoC5/USBFS_std.c ****                     #if defined(USBFS_ENABLE_IDSN_STRING)
 180:Generated_Source\PSoC5/USBFS_std.c ****                         /* Read DIE ID and generate string descriptor in RAM */
 181:Generated_Source\PSoC5/USBFS_std.c ****                         USBFS_ReadDieID(USBFS_idSerialNumberStringDescriptor);
 182:Generated_Source\PSoC5/USBFS_std.c ****                         pStr = USBFS_idSerialNumberStringDescriptor;
 183:Generated_Source\PSoC5/USBFS_std.c ****                     #elif defined(USBFS_ENABLE_FWSN_STRING)
 184:Generated_Source\PSoC5/USBFS_std.c ****                         
 185:Generated_Source\PSoC5/USBFS_std.c ****                         if(USBFS_snStringConfirm != USBFS_FALSE)
 186:Generated_Source\PSoC5/USBFS_std.c ****                         {
 187:Generated_Source\PSoC5/USBFS_std.c ****                             pStr = USBFS_fwSerialNumberStringDescriptor;
 188:Generated_Source\PSoC5/USBFS_std.c ****                         }
 189:Generated_Source\PSoC5/USBFS_std.c ****                         else
 190:Generated_Source\PSoC5/USBFS_std.c ****                         {
 191:Generated_Source\PSoC5/USBFS_std.c ****                             pStr = (volatile uint8 *)&USBFS_SN_STRING_DESCRIPTOR[0u];
 192:Generated_Source\PSoC5/USBFS_std.c ****                         }
 193:Generated_Source\PSoC5/USBFS_std.c ****                     #else
 194:Generated_Source\PSoC5/USBFS_std.c ****                         pStr = (volatile uint8 *)&USBFS_SN_STRING_DESCRIPTOR[0u];
 195:Generated_Source\PSoC5/USBFS_std.c ****                     #endif  /* (USBFS_ENABLE_IDSN_STRING) */
 196:Generated_Source\PSoC5/USBFS_std.c ****                     }
 197:Generated_Source\PSoC5/USBFS_std.c ****                 #endif /* (USBFS_ENABLE_SN_STRING) */
 198:Generated_Source\PSoC5/USBFS_std.c ****                 
 199:Generated_Source\PSoC5/USBFS_std.c ****                     if (*pStr != 0u)
 200:Generated_Source\PSoC5/USBFS_std.c ****                     {
 201:Generated_Source\PSoC5/USBFS_std.c ****                         USBFS_currentTD.count = *pStr;
ARM GAS  C:\Users\CALEBC~1\AppData\Local\Temp\ccBuh6Ys.s 			page 5


 202:Generated_Source\PSoC5/USBFS_std.c ****                         USBFS_currentTD.pData = pStr;
 203:Generated_Source\PSoC5/USBFS_std.c ****                         requestHandled  = USBFS_InitControlRead();
 204:Generated_Source\PSoC5/USBFS_std.c ****                     }
 205:Generated_Source\PSoC5/USBFS_std.c ****                 }
 206:Generated_Source\PSoC5/USBFS_std.c ****             #endif /*  USBFS_ENABLE_STRINGS */
 207:Generated_Source\PSoC5/USBFS_std.c ****                 else
 208:Generated_Source\PSoC5/USBFS_std.c ****                 {
 209:Generated_Source\PSoC5/USBFS_std.c ****                     requestHandled = USBFS_DispatchClassRqst();
 210:Generated_Source\PSoC5/USBFS_std.c ****                 }
 211:Generated_Source\PSoC5/USBFS_std.c ****                 break;
 212:Generated_Source\PSoC5/USBFS_std.c ****                 
 213:Generated_Source\PSoC5/USBFS_std.c ****             case USBFS_GET_STATUS:
 214:Generated_Source\PSoC5/USBFS_std.c ****                 switch (bmRequestType & USBFS_RQST_RCPT_MASK)
 215:Generated_Source\PSoC5/USBFS_std.c ****                 {
 216:Generated_Source\PSoC5/USBFS_std.c ****                     case USBFS_RQST_RCPT_EP:
 217:Generated_Source\PSoC5/USBFS_std.c ****                         USBFS_currentTD.count = USBFS_EP_STATUS_LENGTH;
 218:Generated_Source\PSoC5/USBFS_std.c ****                         USBFS_tBuffer[0u]     = USBFS_EP[USBFS_wIndexLoReg & USBFS_DIR_UNUSED].hwEp
 219:Generated_Source\PSoC5/USBFS_std.c ****                         USBFS_tBuffer[1u]     = 0u;
 220:Generated_Source\PSoC5/USBFS_std.c ****                         USBFS_currentTD.pData = &USBFS_tBuffer[0u];
 221:Generated_Source\PSoC5/USBFS_std.c ****                         
 222:Generated_Source\PSoC5/USBFS_std.c ****                         requestHandled  = USBFS_InitControlRead();
 223:Generated_Source\PSoC5/USBFS_std.c ****                         break;
 224:Generated_Source\PSoC5/USBFS_std.c ****                     case USBFS_RQST_RCPT_DEV:
 225:Generated_Source\PSoC5/USBFS_std.c ****                         USBFS_currentTD.count = USBFS_DEVICE_STATUS_LENGTH;
 226:Generated_Source\PSoC5/USBFS_std.c ****                         USBFS_tBuffer[0u]     = USBFS_deviceStatus;
 227:Generated_Source\PSoC5/USBFS_std.c ****                         USBFS_tBuffer[1u]     = 0u;
 228:Generated_Source\PSoC5/USBFS_std.c ****                         USBFS_currentTD.pData = &USBFS_tBuffer[0u];
 229:Generated_Source\PSoC5/USBFS_std.c ****                         
 230:Generated_Source\PSoC5/USBFS_std.c ****                         requestHandled  = USBFS_InitControlRead();
 231:Generated_Source\PSoC5/USBFS_std.c ****                         break;
 232:Generated_Source\PSoC5/USBFS_std.c ****                     default:    /* requestHandled is initialized as FALSE by default */
 233:Generated_Source\PSoC5/USBFS_std.c ****                         break;
 234:Generated_Source\PSoC5/USBFS_std.c ****                 }
 235:Generated_Source\PSoC5/USBFS_std.c ****                 break;
 236:Generated_Source\PSoC5/USBFS_std.c ****                 
 237:Generated_Source\PSoC5/USBFS_std.c ****             case USBFS_GET_CONFIGURATION:
 238:Generated_Source\PSoC5/USBFS_std.c ****                 USBFS_currentTD.count = 1u;
 239:Generated_Source\PSoC5/USBFS_std.c ****                 USBFS_currentTD.pData = (volatile uint8 *) &USBFS_configuration;
 240:Generated_Source\PSoC5/USBFS_std.c ****                 requestHandled  = USBFS_InitControlRead();
 241:Generated_Source\PSoC5/USBFS_std.c ****                 break;
 242:Generated_Source\PSoC5/USBFS_std.c ****                 
 243:Generated_Source\PSoC5/USBFS_std.c ****             case USBFS_GET_INTERFACE:
 244:Generated_Source\PSoC5/USBFS_std.c ****                 USBFS_currentTD.count = 1u;
 245:Generated_Source\PSoC5/USBFS_std.c ****                 USBFS_currentTD.pData = (volatile uint8 *) &USBFS_interfaceSetting[USBFS_wIndexLoRe
 246:Generated_Source\PSoC5/USBFS_std.c ****                 requestHandled  = USBFS_InitControlRead();
 247:Generated_Source\PSoC5/USBFS_std.c ****                 break;
 248:Generated_Source\PSoC5/USBFS_std.c ****                 
 249:Generated_Source\PSoC5/USBFS_std.c ****             default: /* requestHandled is initialized as FALSE by default */
 250:Generated_Source\PSoC5/USBFS_std.c ****                 break;
 251:Generated_Source\PSoC5/USBFS_std.c ****         }
 252:Generated_Source\PSoC5/USBFS_std.c ****     }
 253:Generated_Source\PSoC5/USBFS_std.c ****     else
 254:Generated_Source\PSoC5/USBFS_std.c ****     {
 255:Generated_Source\PSoC5/USBFS_std.c ****         /* Control Write */
 256:Generated_Source\PSoC5/USBFS_std.c ****         switch (USBFS_bRequestReg)
 257:Generated_Source\PSoC5/USBFS_std.c ****         {
 258:Generated_Source\PSoC5/USBFS_std.c ****             case USBFS_SET_ADDRESS:
ARM GAS  C:\Users\CALEBC~1\AppData\Local\Temp\ccBuh6Ys.s 			page 6


 259:Generated_Source\PSoC5/USBFS_std.c ****                 /* Store address to be set in USBFS_NoDataControlStatusStage(). */
 260:Generated_Source\PSoC5/USBFS_std.c ****                 USBFS_deviceAddress = (uint8) USBFS_wValueLoReg;
 261:Generated_Source\PSoC5/USBFS_std.c ****                 requestHandled = USBFS_InitNoDataControlTransfer();
 262:Generated_Source\PSoC5/USBFS_std.c ****                 break;
 263:Generated_Source\PSoC5/USBFS_std.c ****                 
 264:Generated_Source\PSoC5/USBFS_std.c ****             case USBFS_SET_CONFIGURATION:
 265:Generated_Source\PSoC5/USBFS_std.c ****                 configurationN = USBFS_wValueLoReg;
 266:Generated_Source\PSoC5/USBFS_std.c ****                 
 267:Generated_Source\PSoC5/USBFS_std.c ****                 /* Verify that configuration descriptor exists */
 268:Generated_Source\PSoC5/USBFS_std.c ****                 if(configurationN > 0u)
 269:Generated_Source\PSoC5/USBFS_std.c ****                 {
 270:Generated_Source\PSoC5/USBFS_std.c ****                     pTmp = USBFS_GetConfigTablePtr((uint8) configurationN - 1u);
 271:Generated_Source\PSoC5/USBFS_std.c ****                 }
 272:Generated_Source\PSoC5/USBFS_std.c ****                 
 273:Generated_Source\PSoC5/USBFS_std.c ****                 /* Responds with a Request Error when configuration number is invalid */
 274:Generated_Source\PSoC5/USBFS_std.c ****                 if (((configurationN > 0u) && (pTmp != NULL)) || (configurationN == 0u))
 275:Generated_Source\PSoC5/USBFS_std.c ****                 {
 276:Generated_Source\PSoC5/USBFS_std.c ****                     /* Set new configuration if it has been changed */
 277:Generated_Source\PSoC5/USBFS_std.c ****                     if(configurationN != USBFS_configuration)
 278:Generated_Source\PSoC5/USBFS_std.c ****                     {
 279:Generated_Source\PSoC5/USBFS_std.c ****                         USBFS_configuration = (uint8) configurationN;
 280:Generated_Source\PSoC5/USBFS_std.c ****                         USBFS_configurationChanged = USBFS_TRUE;
 281:Generated_Source\PSoC5/USBFS_std.c ****                         USBFS_Config(USBFS_TRUE);
 282:Generated_Source\PSoC5/USBFS_std.c ****                     }
 283:Generated_Source\PSoC5/USBFS_std.c ****                     requestHandled = USBFS_InitNoDataControlTransfer();
 284:Generated_Source\PSoC5/USBFS_std.c ****                 }
 285:Generated_Source\PSoC5/USBFS_std.c ****                 break;
 286:Generated_Source\PSoC5/USBFS_std.c ****                 
 287:Generated_Source\PSoC5/USBFS_std.c ****             case USBFS_SET_INTERFACE:
 288:Generated_Source\PSoC5/USBFS_std.c ****                 if (0u != USBFS_ValidateAlternateSetting())
 289:Generated_Source\PSoC5/USBFS_std.c ****                 {
 290:Generated_Source\PSoC5/USBFS_std.c ****                     /* Get interface number from the request. */
 291:Generated_Source\PSoC5/USBFS_std.c ****                     interfaceNumber = USBFS_wIndexLoReg;
 292:Generated_Source\PSoC5/USBFS_std.c ****                     USBFS_interfaceNumber = (uint8) USBFS_wIndexLoReg;
 293:Generated_Source\PSoC5/USBFS_std.c ****                      
 294:Generated_Source\PSoC5/USBFS_std.c ****                     /* Check if alternate settings is changed for interface. */
 295:Generated_Source\PSoC5/USBFS_std.c ****                     if (USBFS_interfaceSettingLast[interfaceNumber] != USBFS_interfaceSetting[inter
 296:Generated_Source\PSoC5/USBFS_std.c ****                     {
 297:Generated_Source\PSoC5/USBFS_std.c ****                         USBFS_configurationChanged = USBFS_TRUE;
 298:Generated_Source\PSoC5/USBFS_std.c ****                     
 299:Generated_Source\PSoC5/USBFS_std.c ****                         /* Change alternate setting for the endpoints. */
 300:Generated_Source\PSoC5/USBFS_std.c ****                     #if (USBFS_EP_MANAGEMENT_MANUAL && USBFS_EP_ALLOC_DYNAMIC)
 301:Generated_Source\PSoC5/USBFS_std.c ****                         USBFS_Config(USBFS_FALSE);
 302:Generated_Source\PSoC5/USBFS_std.c ****                     #else
 303:Generated_Source\PSoC5/USBFS_std.c ****                         USBFS_ConfigAltChanged();
 304:Generated_Source\PSoC5/USBFS_std.c ****                     #endif /* (USBFS_EP_MANAGEMENT_MANUAL && USBFS_EP_ALLOC_DYNAMIC) */
 305:Generated_Source\PSoC5/USBFS_std.c ****                     }
 306:Generated_Source\PSoC5/USBFS_std.c ****                     
 307:Generated_Source\PSoC5/USBFS_std.c ****                     requestHandled = USBFS_InitNoDataControlTransfer();
 308:Generated_Source\PSoC5/USBFS_std.c ****                 }
 309:Generated_Source\PSoC5/USBFS_std.c ****                 break;
 310:Generated_Source\PSoC5/USBFS_std.c ****                 
 311:Generated_Source\PSoC5/USBFS_std.c ****             case USBFS_CLEAR_FEATURE:
 312:Generated_Source\PSoC5/USBFS_std.c ****                 switch (bmRequestType & USBFS_RQST_RCPT_MASK)
 313:Generated_Source\PSoC5/USBFS_std.c ****                 {
 314:Generated_Source\PSoC5/USBFS_std.c ****                     case USBFS_RQST_RCPT_EP:
 315:Generated_Source\PSoC5/USBFS_std.c ****                         if (USBFS_wValueLoReg == USBFS_ENDPOINT_HALT)
ARM GAS  C:\Users\CALEBC~1\AppData\Local\Temp\ccBuh6Ys.s 			page 7


 316:Generated_Source\PSoC5/USBFS_std.c ****                         {
 317:Generated_Source\PSoC5/USBFS_std.c ****                             requestHandled = USBFS_ClearEndpointHalt();
 318:Generated_Source\PSoC5/USBFS_std.c ****                         }
 319:Generated_Source\PSoC5/USBFS_std.c ****                         break;
 320:Generated_Source\PSoC5/USBFS_std.c ****                     case USBFS_RQST_RCPT_DEV:
 321:Generated_Source\PSoC5/USBFS_std.c ****                         /* Clear device REMOTE_WAKEUP */
 322:Generated_Source\PSoC5/USBFS_std.c ****                         if (USBFS_wValueLoReg == USBFS_DEVICE_REMOTE_WAKEUP)
 323:Generated_Source\PSoC5/USBFS_std.c ****                         {
 324:Generated_Source\PSoC5/USBFS_std.c ****                             USBFS_deviceStatus &= (uint8)~USBFS_DEVICE_STATUS_REMOTE_WAKEUP;
 325:Generated_Source\PSoC5/USBFS_std.c ****                             requestHandled = USBFS_InitNoDataControlTransfer();
 326:Generated_Source\PSoC5/USBFS_std.c ****                         }
 327:Generated_Source\PSoC5/USBFS_std.c ****                         break;
 328:Generated_Source\PSoC5/USBFS_std.c ****                     case USBFS_RQST_RCPT_IFC:
 329:Generated_Source\PSoC5/USBFS_std.c ****                         /* Validate interfaceNumber */
 330:Generated_Source\PSoC5/USBFS_std.c ****                         if (USBFS_wIndexLoReg < USBFS_MAX_INTERFACES_NUMBER)
 331:Generated_Source\PSoC5/USBFS_std.c ****                         {
 332:Generated_Source\PSoC5/USBFS_std.c ****                             USBFS_interfaceStatus[USBFS_wIndexLoReg] &= (uint8) ~USBFS_wValueLoReg;
 333:Generated_Source\PSoC5/USBFS_std.c ****                             requestHandled = USBFS_InitNoDataControlTransfer();
 334:Generated_Source\PSoC5/USBFS_std.c ****                         }
 335:Generated_Source\PSoC5/USBFS_std.c ****                         break;
 336:Generated_Source\PSoC5/USBFS_std.c ****                     default:    /* requestHandled is initialized as FALSE by default */
 337:Generated_Source\PSoC5/USBFS_std.c ****                         break;
 338:Generated_Source\PSoC5/USBFS_std.c ****                 }
 339:Generated_Source\PSoC5/USBFS_std.c ****                 break;
 340:Generated_Source\PSoC5/USBFS_std.c ****                 
 341:Generated_Source\PSoC5/USBFS_std.c ****             case USBFS_SET_FEATURE:
 342:Generated_Source\PSoC5/USBFS_std.c ****                 switch (bmRequestType & USBFS_RQST_RCPT_MASK)
 343:Generated_Source\PSoC5/USBFS_std.c ****                 {
 344:Generated_Source\PSoC5/USBFS_std.c ****                     case USBFS_RQST_RCPT_EP:
 345:Generated_Source\PSoC5/USBFS_std.c ****                         if (USBFS_wValueLoReg == USBFS_ENDPOINT_HALT)
 346:Generated_Source\PSoC5/USBFS_std.c ****                         {
 347:Generated_Source\PSoC5/USBFS_std.c ****                             requestHandled = USBFS_SetEndpointHalt();
 348:Generated_Source\PSoC5/USBFS_std.c ****                         }
 349:Generated_Source\PSoC5/USBFS_std.c ****                         break;
 350:Generated_Source\PSoC5/USBFS_std.c ****                         
 351:Generated_Source\PSoC5/USBFS_std.c ****                     case USBFS_RQST_RCPT_DEV:
 352:Generated_Source\PSoC5/USBFS_std.c ****                         /* Set device REMOTE_WAKEUP */
 353:Generated_Source\PSoC5/USBFS_std.c ****                         if (USBFS_wValueLoReg == USBFS_DEVICE_REMOTE_WAKEUP)
 354:Generated_Source\PSoC5/USBFS_std.c ****                         {
 355:Generated_Source\PSoC5/USBFS_std.c ****                             USBFS_deviceStatus |= USBFS_DEVICE_STATUS_REMOTE_WAKEUP;
 356:Generated_Source\PSoC5/USBFS_std.c ****                             requestHandled = USBFS_InitNoDataControlTransfer();
 357:Generated_Source\PSoC5/USBFS_std.c ****                         }
 358:Generated_Source\PSoC5/USBFS_std.c ****                         break;
 359:Generated_Source\PSoC5/USBFS_std.c ****                         
 360:Generated_Source\PSoC5/USBFS_std.c ****                     case USBFS_RQST_RCPT_IFC:
 361:Generated_Source\PSoC5/USBFS_std.c ****                         /* Validate interfaceNumber */
 362:Generated_Source\PSoC5/USBFS_std.c ****                         if (USBFS_wIndexLoReg < USBFS_MAX_INTERFACES_NUMBER)
 363:Generated_Source\PSoC5/USBFS_std.c ****                         {
 364:Generated_Source\PSoC5/USBFS_std.c ****                             USBFS_interfaceStatus[USBFS_wIndexLoReg] &= (uint8) ~USBFS_wValueLoReg;
 365:Generated_Source\PSoC5/USBFS_std.c ****                             requestHandled = USBFS_InitNoDataControlTransfer();
 366:Generated_Source\PSoC5/USBFS_std.c ****                         }
 367:Generated_Source\PSoC5/USBFS_std.c ****                         break;
 368:Generated_Source\PSoC5/USBFS_std.c ****                     
 369:Generated_Source\PSoC5/USBFS_std.c ****                     default:    /* requestHandled is initialized as FALSE by default */
 370:Generated_Source\PSoC5/USBFS_std.c ****                         break;
 371:Generated_Source\PSoC5/USBFS_std.c ****                 }
 372:Generated_Source\PSoC5/USBFS_std.c ****                 break;
ARM GAS  C:\Users\CALEBC~1\AppData\Local\Temp\ccBuh6Ys.s 			page 8


 373:Generated_Source\PSoC5/USBFS_std.c ****                 
 374:Generated_Source\PSoC5/USBFS_std.c ****             default:    /* requestHandled is initialized as FALSE by default */
 375:Generated_Source\PSoC5/USBFS_std.c ****                 break;
 376:Generated_Source\PSoC5/USBFS_std.c ****         }
 377:Generated_Source\PSoC5/USBFS_std.c ****     }
 378:Generated_Source\PSoC5/USBFS_std.c ****     
 379:Generated_Source\PSoC5/USBFS_std.c ****     return (requestHandled);
 380:Generated_Source\PSoC5/USBFS_std.c **** }
 381:Generated_Source\PSoC5/USBFS_std.c **** 
 382:Generated_Source\PSoC5/USBFS_std.c **** 
 383:Generated_Source\PSoC5/USBFS_std.c **** #if defined(USBFS_ENABLE_IDSN_STRING)
 384:Generated_Source\PSoC5/USBFS_std.c ****     /***************************************************************************
 385:Generated_Source\PSoC5/USBFS_std.c ****     * Function Name: USBFS_ReadDieID
 386:Generated_Source\PSoC5/USBFS_std.c ****     ************************************************************************//**
 387:Generated_Source\PSoC5/USBFS_std.c ****     *
 388:Generated_Source\PSoC5/USBFS_std.c ****     *  This routine read Die ID and generate Serial Number string descriptor.
 389:Generated_Source\PSoC5/USBFS_std.c ****     *
 390:Generated_Source\PSoC5/USBFS_std.c ****     *  \param descr:  pointer on string descriptor. This string size has to be equal or
 391:Generated_Source\PSoC5/USBFS_std.c ****     *          greater than USBFS_IDSN_DESCR_LENGTH.
 392:Generated_Source\PSoC5/USBFS_std.c ****     *
 393:Generated_Source\PSoC5/USBFS_std.c ****     *
 394:Generated_Source\PSoC5/USBFS_std.c ****     * \reentrant
 395:Generated_Source\PSoC5/USBFS_std.c ****     *  No.
 396:Generated_Source\PSoC5/USBFS_std.c ****     *
 397:Generated_Source\PSoC5/USBFS_std.c ****     ***************************************************************************/
 398:Generated_Source\PSoC5/USBFS_std.c ****     void USBFS_ReadDieID(uint8 descr[]) 
 399:Generated_Source\PSoC5/USBFS_std.c ****     {
  28              		.loc 1 399 0
  29              		.cfi_startproc
  30              		@ args = 0, pretend = 0, frame = 32
  31              		@ frame_needed = 0, uses_anonymous_args = 0
  32              	.LVL0:
  33 0000 70B5     		push	{r4, r5, r6, lr}
  34              		.cfi_def_cfa_offset 16
  35              		.cfi_offset 4, -16
  36              		.cfi_offset 5, -12
  37              		.cfi_offset 6, -8
  38              		.cfi_offset 14, -4
  39 0002 88B0     		sub	sp, sp, #32
  40              		.cfi_def_cfa_offset 48
  41 0004 0546     		mov	r5, r0
 400:Generated_Source\PSoC5/USBFS_std.c ****         const char8 CYCODE hex[] = "0123456789ABCDEF";
  42              		.loc 1 400 0
  43 0006 03AC     		add	r4, sp, #12
  44 0008 174E     		ldr	r6, .L6
  45 000a 0FCE     		ldmia	r6!, {r0, r1, r2, r3}
  46              	.LVL1:
  47 000c 0FC4     		stmia	r4!, {r0, r1, r2, r3}
  48 000e 3368     		ldr	r3, [r6]
  49 0010 2370     		strb	r3, [r4]
  50              	.LVL2:
 401:Generated_Source\PSoC5/USBFS_std.c ****         uint8 i;
 402:Generated_Source\PSoC5/USBFS_std.c ****         uint8 j = 0u;
 403:Generated_Source\PSoC5/USBFS_std.c ****         uint8 uniqueId[8u];
 404:Generated_Source\PSoC5/USBFS_std.c **** 
 405:Generated_Source\PSoC5/USBFS_std.c ****         if (NULL != descr)
  51              		.loc 1 405 0
ARM GAS  C:\Users\CALEBC~1\AppData\Local\Temp\ccBuh6Ys.s 			page 9


  52 0012 35B3     		cbz	r5, .L1
 406:Generated_Source\PSoC5/USBFS_std.c ****         {
 407:Generated_Source\PSoC5/USBFS_std.c ****             /* Initialize descriptor header. */
 408:Generated_Source\PSoC5/USBFS_std.c ****             descr[0u] = USBFS_IDSN_DESCR_LENGTH;
  53              		.loc 1 408 0
  54 0014 2223     		movs	r3, #34
  55 0016 2B70     		strb	r3, [r5]
 409:Generated_Source\PSoC5/USBFS_std.c ****             descr[1u] = USBFS_DESCR_STRING;
  56              		.loc 1 409 0
  57 0018 0323     		movs	r3, #3
  58 001a 6B70     		strb	r3, [r5, #1]
 410:Generated_Source\PSoC5/USBFS_std.c ****             
 411:Generated_Source\PSoC5/USBFS_std.c ****             /* Unique ID size is 8 bytes. */
 412:Generated_Source\PSoC5/USBFS_std.c ****             CyGetUniqueId((uint32 *) uniqueId);
  59              		.loc 1 412 0
  60 001c 01A8     		add	r0, sp, #4
  61 001e FFF7FEFF 		bl	CyGetUniqueId
  62              	.LVL3:
 402:Generated_Source\PSoC5/USBFS_std.c ****         uint8 uniqueId[8u];
  63              		.loc 1 402 0
  64 0022 0024     		movs	r4, #0
 413:Generated_Source\PSoC5/USBFS_std.c **** 
 414:Generated_Source\PSoC5/USBFS_std.c ****             /* Fill descriptor with unique device ID. */
 415:Generated_Source\PSoC5/USBFS_std.c ****             for (i = 2u; i < USBFS_IDSN_DESCR_LENGTH; i += 4u)
  65              		.loc 1 415 0
  66 0024 0223     		movs	r3, #2
  67 0026 1AE0     		b	.L3
  68              	.LVL4:
  69              	.L4:
 416:Generated_Source\PSoC5/USBFS_std.c ****             {
 417:Generated_Source\PSoC5/USBFS_std.c ****                 descr[i]      = (uint8) hex[(uniqueId[j] >> 4u)];
  70              		.loc 1 417 0 discriminator 3
  71 0028 08AA     		add	r2, sp, #32
  72 002a 2244     		add	r2, r2, r4
  73 002c 12F81C2C 		ldrb	r2, [r2, #-28]	@ zero_extendqisi2
  74 0030 08A9     		add	r1, sp, #32
  75 0032 01EB1211 		add	r1, r1, r2, lsr #4
  76 0036 11F8141C 		ldrb	r1, [r1, #-20]	@ zero_extendqisi2
  77 003a E954     		strb	r1, [r5, r3]
 418:Generated_Source\PSoC5/USBFS_std.c ****                 descr[i + 1u] = 0u;
  78              		.loc 1 418 0 discriminator 3
  79 003c 581C     		adds	r0, r3, #1
  80 003e 0021     		movs	r1, #0
  81 0040 2954     		strb	r1, [r5, r0]
 419:Generated_Source\PSoC5/USBFS_std.c ****                 descr[i + 2u] = (uint8) hex[(uniqueId[j] & 0x0Fu)];
  82              		.loc 1 419 0 discriminator 3
  83 0042 981C     		adds	r0, r3, #2
  84 0044 02F00F02 		and	r2, r2, #15
  85 0048 08AE     		add	r6, sp, #32
  86 004a 3244     		add	r2, r2, r6
  87 004c 12F8142C 		ldrb	r2, [r2, #-20]	@ zero_extendqisi2
  88 0050 2A54     		strb	r2, [r5, r0]
 420:Generated_Source\PSoC5/USBFS_std.c ****                 descr[i + 3u] = 0u;
  89              		.loc 1 420 0 discriminator 3
  90 0052 DA1C     		adds	r2, r3, #3
  91 0054 A954     		strb	r1, [r5, r2]
 421:Generated_Source\PSoC5/USBFS_std.c ****                 ++j;
ARM GAS  C:\Users\CALEBC~1\AppData\Local\Temp\ccBuh6Ys.s 			page 10


  92              		.loc 1 421 0 discriminator 3
  93 0056 0134     		adds	r4, r4, #1
  94              	.LVL5:
  95 0058 E4B2     		uxtb	r4, r4
  96              	.LVL6:
 415:Generated_Source\PSoC5/USBFS_std.c ****             {
  97              		.loc 1 415 0 discriminator 3
  98 005a 0433     		adds	r3, r3, #4
  99              	.LVL7:
 100 005c DBB2     		uxtb	r3, r3
 101              	.LVL8:
 102              	.L3:
 415:Generated_Source\PSoC5/USBFS_std.c ****             {
 103              		.loc 1 415 0 is_stmt 0 discriminator 1
 104 005e 212B     		cmp	r3, #33
 105 0060 E2D9     		bls	.L4
 106              	.LVL9:
 107              	.L1:
 422:Generated_Source\PSoC5/USBFS_std.c ****             }
 423:Generated_Source\PSoC5/USBFS_std.c ****         }
 424:Generated_Source\PSoC5/USBFS_std.c ****     }
 108              		.loc 1 424 0 is_stmt 1
 109 0062 08B0     		add	sp, sp, #32
 110              		.cfi_def_cfa_offset 16
 111              		@ sp needed
 112 0064 70BD     		pop	{r4, r5, r6, pc}
 113              	.LVL10:
 114              	.L7:
 115 0066 00BF     		.align	2
 116              	.L6:
 117 0068 00000000 		.word	.LC0
 118              		.cfi_endproc
 119              	.LFE1:
 120              		.size	USBFS_ReadDieID, .-USBFS_ReadDieID
 121              		.section	.text.USBFS_ConfigReg,"ax",%progbits
 122              		.align	2
 123              		.global	USBFS_ConfigReg
 124              		.thumb
 125              		.thumb_func
 126              		.type	USBFS_ConfigReg, %function
 127              	USBFS_ConfigReg:
 128              	.LFB2:
 425:Generated_Source\PSoC5/USBFS_std.c **** #endif /* (USBFS_ENABLE_IDSN_STRING) */
 426:Generated_Source\PSoC5/USBFS_std.c **** 
 427:Generated_Source\PSoC5/USBFS_std.c **** 
 428:Generated_Source\PSoC5/USBFS_std.c **** /*******************************************************************************
 429:Generated_Source\PSoC5/USBFS_std.c **** * Function Name: USBFS_ConfigReg
 430:Generated_Source\PSoC5/USBFS_std.c **** ****************************************************************************//**
 431:Generated_Source\PSoC5/USBFS_std.c **** *
 432:Generated_Source\PSoC5/USBFS_std.c **** *  This routine configures hardware registers from the variables.
 433:Generated_Source\PSoC5/USBFS_std.c **** *  It is called from USBFS_Config() function and from RestoreConfig
 434:Generated_Source\PSoC5/USBFS_std.c **** *  after Wakeup.
 435:Generated_Source\PSoC5/USBFS_std.c **** *
 436:Generated_Source\PSoC5/USBFS_std.c **** *******************************************************************************/
 437:Generated_Source\PSoC5/USBFS_std.c **** void USBFS_ConfigReg(void) 
 438:Generated_Source\PSoC5/USBFS_std.c **** {
 129              		.loc 1 438 0
ARM GAS  C:\Users\CALEBC~1\AppData\Local\Temp\ccBuh6Ys.s 			page 11


 130              		.cfi_startproc
 131              		@ args = 0, pretend = 0, frame = 0
 132              		@ frame_needed = 0, uses_anonymous_args = 0
 133              		@ link register save eliminated.
 134 0000 30B4     		push	{r4, r5}
 135              		.cfi_def_cfa_offset 8
 136              		.cfi_offset 4, -8
 137              		.cfi_offset 5, -4
 138              	.LVL11:
 439:Generated_Source\PSoC5/USBFS_std.c ****     uint8 ep;
 440:Generated_Source\PSoC5/USBFS_std.c **** 
 441:Generated_Source\PSoC5/USBFS_std.c **** #if (USBFS_EP_MANAGEMENT_DMA_AUTO)
 442:Generated_Source\PSoC5/USBFS_std.c ****     uint8 epType = 0u;
 443:Generated_Source\PSoC5/USBFS_std.c **** #endif /* (USBFS_EP_MANAGEMENT_DMA_AUTO) */
 444:Generated_Source\PSoC5/USBFS_std.c **** 
 445:Generated_Source\PSoC5/USBFS_std.c ****     /* Go thought all endpoints and set hardware configuration */
 446:Generated_Source\PSoC5/USBFS_std.c ****     for (ep = USBFS_EP1; ep < USBFS_MAX_EP; ++ep)
 139              		.loc 1 446 0
 140 0002 0123     		movs	r3, #1
 141 0004 41E0     		b	.L9
 142              	.LVL12:
 143              	.L13:
 447:Generated_Source\PSoC5/USBFS_std.c ****     {
 448:Generated_Source\PSoC5/USBFS_std.c ****         USBFS_ARB_EP_BASE.arbEp[ep].epCfg = USBFS_ARB_EPX_CFG_DEFAULT;
 144              		.loc 1 448 0
 145 0006 1946     		mov	r1, r3
 146 0008 2348     		ldr	r0, .L15
 147 000a 1A01     		lsls	r2, r3, #4
 148 000c 8418     		adds	r4, r0, r2
 149 000e 0C25     		movs	r5, #12
 150 0010 8554     		strb	r5, [r0, r2]
 449:Generated_Source\PSoC5/USBFS_std.c ****         
 450:Generated_Source\PSoC5/USBFS_std.c ****     #if (USBFS_EP_MANAGEMENT_DMA)
 451:Generated_Source\PSoC5/USBFS_std.c ****         /* Enable arbiter endpoint interrupt sources */
 452:Generated_Source\PSoC5/USBFS_std.c ****         USBFS_ARB_EP_BASE.arbEp[ep].epIntEn = USBFS_ARB_EPX_INT_MASK;
 151              		.loc 1 452 0
 152 0012 1F22     		movs	r2, #31
 153 0014 6270     		strb	r2, [r4, #1]
 453:Generated_Source\PSoC5/USBFS_std.c ****     #endif /* (USBFS_EP_MANAGEMENT_DMA) */
 454:Generated_Source\PSoC5/USBFS_std.c ****     
 455:Generated_Source\PSoC5/USBFS_std.c ****         if (USBFS_EP[ep].epMode != USBFS_MODE_DISABLE)
 154              		.loc 1 455 0
 155 0016 03EB4300 		add	r0, r3, r3, lsl #1
 156 001a 8200     		lsls	r2, r0, #2
 157 001c 1F48     		ldr	r0, .L15+4
 158 001e 0244     		add	r2, r2, r0
 159 0020 5279     		ldrb	r2, [r2, #5]	@ zero_extendqisi2
 160 0022 12F0FF0F 		tst	r2, #255
 161 0026 13D0     		beq	.L10
 456:Generated_Source\PSoC5/USBFS_std.c ****         {
 457:Generated_Source\PSoC5/USBFS_std.c ****             if (0u != (USBFS_EP[ep].addr & USBFS_DIR_IN))
 162              		.loc 1 457 0
 163 0028 03EB4300 		add	r0, r3, r3, lsl #1
 164 002c 8200     		lsls	r2, r0, #2
 165 002e 1B48     		ldr	r0, .L15+4
 166 0030 0244     		add	r2, r2, r0
 167 0032 1279     		ldrb	r2, [r2, #4]	@ zero_extendqisi2
ARM GAS  C:\Users\CALEBC~1\AppData\Local\Temp\ccBuh6Ys.s 			page 12


 168 0034 12F0800F 		tst	r2, #128
 169 0038 04D0     		beq	.L11
 458:Generated_Source\PSoC5/USBFS_std.c ****             {
 459:Generated_Source\PSoC5/USBFS_std.c ****                 USBFS_SIE_EP_BASE.sieEp[ep].epCr0 = USBFS_MODE_NAK_IN;
 170              		.loc 1 459 0
 171 003a 1801     		lsls	r0, r3, #4
 172 003c 184A     		ldr	r2, .L15+8
 173 003e 0244     		add	r2, r2, r0
 174 0040 9570     		strb	r5, [r2, #2]
 175 0042 0AE0     		b	.L12
 176              	.L11:
 460:Generated_Source\PSoC5/USBFS_std.c ****                 
 461:Generated_Source\PSoC5/USBFS_std.c ****             #if (USBFS_EP_MANAGEMENT_DMA_AUTO && CY_PSOC4)
 462:Generated_Source\PSoC5/USBFS_std.c ****                 /* Clear DMA_TERMIN for IN endpoint. */
 463:Generated_Source\PSoC5/USBFS_std.c ****                 USBFS_ARB_EP_BASE.arbEp[ep].epIntEn &= (uint32) ~USBFS_ARB_EPX_INT_DMA_TERMIN;
 464:Generated_Source\PSoC5/USBFS_std.c ****             #endif /* (USBFS_EP_MANAGEMENT_DMA_AUTO && CY_PSOC4) */
 465:Generated_Source\PSoC5/USBFS_std.c ****             }
 466:Generated_Source\PSoC5/USBFS_std.c ****             else
 467:Generated_Source\PSoC5/USBFS_std.c ****             {
 468:Generated_Source\PSoC5/USBFS_std.c ****                 USBFS_SIE_EP_BASE.sieEp[ep].epCr0 = USBFS_MODE_NAK_OUT;
 177              		.loc 1 468 0
 178 0044 1801     		lsls	r0, r3, #4
 179 0046 164A     		ldr	r2, .L15+8
 180 0048 0244     		add	r2, r2, r0
 181 004a 0820     		movs	r0, #8
 182 004c 9070     		strb	r0, [r2, #2]
 183 004e 04E0     		b	.L12
 184              	.L10:
 469:Generated_Source\PSoC5/USBFS_std.c **** 
 470:Generated_Source\PSoC5/USBFS_std.c ****             #if (USBFS_EP_MANAGEMENT_DMA_AUTO)
 471:Generated_Source\PSoC5/USBFS_std.c ****                 /* (CY_PSOC4): DMA_TERMIN for OUT endpoint is set above. */
 472:Generated_Source\PSoC5/USBFS_std.c ****                 
 473:Generated_Source\PSoC5/USBFS_std.c ****                 /* Prepare endpoint type mask. */
 474:Generated_Source\PSoC5/USBFS_std.c ****                 epType |= (uint8) (0x01u << (ep - USBFS_EP1));
 475:Generated_Source\PSoC5/USBFS_std.c ****             #endif /* (USBFS_EP_MANAGEMENT_DMA_AUTO) */
 476:Generated_Source\PSoC5/USBFS_std.c ****             }
 477:Generated_Source\PSoC5/USBFS_std.c ****         }
 478:Generated_Source\PSoC5/USBFS_std.c ****         else
 479:Generated_Source\PSoC5/USBFS_std.c ****         {
 480:Generated_Source\PSoC5/USBFS_std.c ****             USBFS_SIE_EP_BASE.sieEp[ep].epCr0 = USBFS_MODE_STALL_DATA_EP;
 185              		.loc 1 480 0
 186 0050 1801     		lsls	r0, r3, #4
 187 0052 134A     		ldr	r2, .L15+8
 188 0054 0244     		add	r2, r2, r0
 189 0056 8020     		movs	r0, #128
 190 0058 9070     		strb	r0, [r2, #2]
 191              	.L12:
 481:Generated_Source\PSoC5/USBFS_std.c ****         }
 482:Generated_Source\PSoC5/USBFS_std.c ****         
 483:Generated_Source\PSoC5/USBFS_std.c ****     #if (!USBFS_EP_MANAGEMENT_DMA_AUTO)
 484:Generated_Source\PSoC5/USBFS_std.c ****         #if (CY_PSOC4)
 485:Generated_Source\PSoC5/USBFS_std.c ****             USBFS_ARB_EP16_BASE.arbEp[ep].rwRa16  = (uint32) USBFS_EP[ep].buffOffset;
 486:Generated_Source\PSoC5/USBFS_std.c ****             USBFS_ARB_EP16_BASE.arbEp[ep].rwWa16  = (uint32) USBFS_EP[ep].buffOffset;
 487:Generated_Source\PSoC5/USBFS_std.c ****         #else
 488:Generated_Source\PSoC5/USBFS_std.c ****             USBFS_ARB_EP_BASE.arbEp[ep].rwRa    = LO8(USBFS_EP[ep].buffOffset);
 192              		.loc 1 488 0 discriminator 2
 193 005a 4800     		lsls	r0, r1, #1
ARM GAS  C:\Users\CALEBC~1\AppData\Local\Temp\ccBuh6Ys.s 			page 13


 194 005c 0844     		add	r0, r0, r1
 195 005e 8200     		lsls	r2, r0, #2
 196 0060 0E48     		ldr	r0, .L15+4
 197 0062 0244     		add	r2, r2, r0
 198 0064 D488     		ldrh	r4, [r2, #6]
 199 0066 E4B2     		uxtb	r4, r4
 200 0068 0801     		lsls	r0, r1, #4
 201 006a 0B49     		ldr	r1, .L15
 202 006c 0144     		add	r1, r1, r0
 203 006e 8C71     		strb	r4, [r1, #6]
 489:Generated_Source\PSoC5/USBFS_std.c ****             USBFS_ARB_EP_BASE.arbEp[ep].rwRaMsb = HI8(USBFS_EP[ep].buffOffset);
 204              		.loc 1 489 0 discriminator 2
 205 0070 D088     		ldrh	r0, [r2, #6]
 206 0072 C0F30720 		ubfx	r0, r0, #8, #8
 207 0076 C871     		strb	r0, [r1, #7]
 490:Generated_Source\PSoC5/USBFS_std.c ****             USBFS_ARB_EP_BASE.arbEp[ep].rwWa    = LO8(USBFS_EP[ep].buffOffset);
 208              		.loc 1 490 0 discriminator 2
 209 0078 D088     		ldrh	r0, [r2, #6]
 210 007a C0B2     		uxtb	r0, r0
 211 007c 0871     		strb	r0, [r1, #4]
 491:Generated_Source\PSoC5/USBFS_std.c ****             USBFS_ARB_EP_BASE.arbEp[ep].rwWaMsb = HI8(USBFS_EP[ep].buffOffset);
 212              		.loc 1 491 0 discriminator 2
 213 007e D288     		ldrh	r2, [r2, #6]
 214 0080 C2F30722 		ubfx	r2, r2, #8, #8
 215 0084 4A71     		strb	r2, [r1, #5]
 446:Generated_Source\PSoC5/USBFS_std.c ****     {
 216              		.loc 1 446 0 discriminator 2
 217 0086 0133     		adds	r3, r3, #1
 218              	.LVL13:
 219 0088 DBB2     		uxtb	r3, r3
 220              	.LVL14:
 221              	.L9:
 446:Generated_Source\PSoC5/USBFS_std.c ****     {
 222              		.loc 1 446 0 is_stmt 0 discriminator 1
 223 008a 082B     		cmp	r3, #8
 224 008c BBD9     		bls	.L13
 492:Generated_Source\PSoC5/USBFS_std.c ****         #endif /* (CY_PSOC4) */
 493:Generated_Source\PSoC5/USBFS_std.c ****     #endif /* (!USBFS_EP_MANAGEMENT_DMA_AUTO) */
 494:Generated_Source\PSoC5/USBFS_std.c ****     }
 495:Generated_Source\PSoC5/USBFS_std.c **** 
 496:Generated_Source\PSoC5/USBFS_std.c **** #if (USBFS_EP_MANAGEMENT_DMA_AUTO)
 497:Generated_Source\PSoC5/USBFS_std.c ****      /* BUF_SIZE depend on DMA_THRESS value:0x55-32 bytes  0x44-16 bytes 0x33-8 bytes 0x22-4 bytes 
 498:Generated_Source\PSoC5/USBFS_std.c ****     USBFS_BUF_SIZE_REG = USBFS_DMA_BUF_SIZE;
 499:Generated_Source\PSoC5/USBFS_std.c **** 
 500:Generated_Source\PSoC5/USBFS_std.c ****     /* Configure DMA burst threshold */
 501:Generated_Source\PSoC5/USBFS_std.c **** #if (CY_PSOC4)
 502:Generated_Source\PSoC5/USBFS_std.c ****     USBFS_DMA_THRES16_REG   = USBFS_DMA_BYTES_PER_BURST;
 503:Generated_Source\PSoC5/USBFS_std.c **** #else
 504:Generated_Source\PSoC5/USBFS_std.c ****     USBFS_DMA_THRES_REG     = USBFS_DMA_BYTES_PER_BURST;
 505:Generated_Source\PSoC5/USBFS_std.c ****     USBFS_DMA_THRES_MSB_REG = 0u;
 506:Generated_Source\PSoC5/USBFS_std.c **** #endif /* (CY_PSOC4) */
 507:Generated_Source\PSoC5/USBFS_std.c ****     USBFS_EP_ACTIVE_REG = USBFS_DEFAULT_ARB_INT_EN;
 508:Generated_Source\PSoC5/USBFS_std.c ****     USBFS_EP_TYPE_REG   = epType;
 509:Generated_Source\PSoC5/USBFS_std.c ****     
 510:Generated_Source\PSoC5/USBFS_std.c ****     /* Cfg_cmp bit set to 1 once configuration is complete. */
 511:Generated_Source\PSoC5/USBFS_std.c ****     /* Lock arbiter configtuation */
 512:Generated_Source\PSoC5/USBFS_std.c ****     USBFS_ARB_CFG_REG |= (uint8)  USBFS_ARB_CFG_CFG_CMP;
ARM GAS  C:\Users\CALEBC~1\AppData\Local\Temp\ccBuh6Ys.s 			page 14


 513:Generated_Source\PSoC5/USBFS_std.c ****     /* Cfg_cmp bit set to 0 during configuration of PFSUSB Registers. */
 514:Generated_Source\PSoC5/USBFS_std.c ****     USBFS_ARB_CFG_REG &= (uint8) ~USBFS_ARB_CFG_CFG_CMP;
 515:Generated_Source\PSoC5/USBFS_std.c **** 
 516:Generated_Source\PSoC5/USBFS_std.c **** #endif /* (USBFS_EP_MANAGEMENT_DMA_AUTO) */
 517:Generated_Source\PSoC5/USBFS_std.c **** 
 518:Generated_Source\PSoC5/USBFS_std.c ****     /* Enable interrupt SIE interurpt source from EP0-EP1 */
 519:Generated_Source\PSoC5/USBFS_std.c ****     USBFS_SIE_EP_INT_EN_REG = (uint8) USBFS_DEFAULT_SIE_EP_INT_EN;
 225              		.loc 1 519 0 is_stmt 1
 226 008e FF22     		movs	r2, #255
 227 0090 044B     		ldr	r3, .L15+12
 228              	.LVL15:
 229 0092 1A70     		strb	r2, [r3]
 520:Generated_Source\PSoC5/USBFS_std.c **** }
 230              		.loc 1 520 0
 231 0094 30BC     		pop	{r4, r5}
 232              		.cfi_restore 5
 233              		.cfi_restore 4
 234              		.cfi_def_cfa_offset 0
 235 0096 7047     		bx	lr
 236              	.L16:
 237              		.align	2
 238              	.L15:
 239 0098 70600040 		.word	1073766512
 240 009c 00000000 		.word	USBFS_EP
 241 00a0 FC5F0040 		.word	1073766396
 242 00a4 0A600040 		.word	1073766410
 243              		.cfi_endproc
 244              	.LFE2:
 245              		.size	USBFS_ConfigReg, .-USBFS_ConfigReg
 246              		.section	.text.USBFS_EpStateInit,"ax",%progbits
 247              		.align	2
 248              		.global	USBFS_EpStateInit
 249              		.thumb
 250              		.thumb_func
 251              		.type	USBFS_EpStateInit, %function
 252              	USBFS_EpStateInit:
 253              	.LFB3:
 521:Generated_Source\PSoC5/USBFS_std.c **** 
 522:Generated_Source\PSoC5/USBFS_std.c **** 
 523:Generated_Source\PSoC5/USBFS_std.c **** /*******************************************************************************
 524:Generated_Source\PSoC5/USBFS_std.c **** * Function Name: USBFS_EpStateInit
 525:Generated_Source\PSoC5/USBFS_std.c **** ****************************************************************************//**
 526:Generated_Source\PSoC5/USBFS_std.c **** *
 527:Generated_Source\PSoC5/USBFS_std.c **** *  This routine initialize state of Data end points based of its type: 
 528:Generated_Source\PSoC5/USBFS_std.c **** *   IN  - USBFS_IN_BUFFER_EMPTY (USBFS_EVENT_PENDING)
 529:Generated_Source\PSoC5/USBFS_std.c **** *   OUT - USBFS_OUT_BUFFER_EMPTY (USBFS_NO_EVENT_PENDING)
 530:Generated_Source\PSoC5/USBFS_std.c **** *
 531:Generated_Source\PSoC5/USBFS_std.c **** *******************************************************************************/
 532:Generated_Source\PSoC5/USBFS_std.c **** void USBFS_EpStateInit(void) 
 533:Generated_Source\PSoC5/USBFS_std.c **** {
 254              		.loc 1 533 0
 255              		.cfi_startproc
 256              		@ args = 0, pretend = 0, frame = 0
 257              		@ frame_needed = 0, uses_anonymous_args = 0
 258              		@ link register save eliminated.
 259              	.LVL16:
 534:Generated_Source\PSoC5/USBFS_std.c ****     uint8 i;
ARM GAS  C:\Users\CALEBC~1\AppData\Local\Temp\ccBuh6Ys.s 			page 15


 535:Generated_Source\PSoC5/USBFS_std.c **** 
 536:Generated_Source\PSoC5/USBFS_std.c ****     for (i = USBFS_EP1; i < USBFS_MAX_EP; i++)
 260              		.loc 1 536 0
 261 0000 0123     		movs	r3, #1
 262 0002 19E0     		b	.L18
 263              	.LVL17:
 264              	.L21:
 537:Generated_Source\PSoC5/USBFS_std.c ****     { 
 538:Generated_Source\PSoC5/USBFS_std.c ****         if (0u != (USBFS_EP[i].addr & USBFS_DIR_IN))
 265              		.loc 1 538 0
 266 0004 03EB4301 		add	r1, r3, r3, lsl #1
 267 0008 8A00     		lsls	r2, r1, #2
 268 000a 0D49     		ldr	r1, .L22
 269 000c 0A44     		add	r2, r2, r1
 270 000e 1279     		ldrb	r2, [r2, #4]	@ zero_extendqisi2
 271 0010 12F0800F 		tst	r2, #128
 272 0014 07D0     		beq	.L19
 539:Generated_Source\PSoC5/USBFS_std.c ****         {
 540:Generated_Source\PSoC5/USBFS_std.c ****             /* IN Endpoint */
 541:Generated_Source\PSoC5/USBFS_std.c ****             USBFS_EP[i].apiEpState = USBFS_EVENT_PENDING;
 273              		.loc 1 541 0
 274 0016 03EB4301 		add	r1, r3, r3, lsl #1
 275 001a 8A00     		lsls	r2, r1, #2
 276 001c 0849     		ldr	r1, .L22
 277 001e 0A44     		add	r2, r2, r1
 278 0020 0121     		movs	r1, #1
 279 0022 5170     		strb	r1, [r2, #1]
 280 0024 06E0     		b	.L20
 281              	.L19:
 542:Generated_Source\PSoC5/USBFS_std.c ****         }
 543:Generated_Source\PSoC5/USBFS_std.c ****         else
 544:Generated_Source\PSoC5/USBFS_std.c ****         {
 545:Generated_Source\PSoC5/USBFS_std.c ****             /* OUT Endpoint */
 546:Generated_Source\PSoC5/USBFS_std.c ****             USBFS_EP[i].apiEpState = USBFS_NO_EVENT_PENDING;
 282              		.loc 1 546 0
 283 0026 03EB4301 		add	r1, r3, r3, lsl #1
 284 002a 8A00     		lsls	r2, r1, #2
 285 002c 0449     		ldr	r1, .L22
 286 002e 0A44     		add	r2, r2, r1
 287 0030 0021     		movs	r1, #0
 288 0032 5170     		strb	r1, [r2, #1]
 289              	.L20:
 536:Generated_Source\PSoC5/USBFS_std.c ****     { 
 290              		.loc 1 536 0 discriminator 2
 291 0034 0133     		adds	r3, r3, #1
 292              	.LVL18:
 293 0036 DBB2     		uxtb	r3, r3
 294              	.LVL19:
 295              	.L18:
 536:Generated_Source\PSoC5/USBFS_std.c ****     { 
 296              		.loc 1 536 0 is_stmt 0 discriminator 1
 297 0038 082B     		cmp	r3, #8
 298 003a E3D9     		bls	.L21
 547:Generated_Source\PSoC5/USBFS_std.c ****         }
 548:Generated_Source\PSoC5/USBFS_std.c ****     }
 549:Generated_Source\PSoC5/USBFS_std.c ****                     
 550:Generated_Source\PSoC5/USBFS_std.c **** }
ARM GAS  C:\Users\CALEBC~1\AppData\Local\Temp\ccBuh6Ys.s 			page 16


 299              		.loc 1 550 0 is_stmt 1
 300 003c 7047     		bx	lr
 301              	.L23:
 302 003e 00BF     		.align	2
 303              	.L22:
 304 0040 00000000 		.word	USBFS_EP
 305              		.cfi_endproc
 306              	.LFE3:
 307              		.size	USBFS_EpStateInit, .-USBFS_EpStateInit
 308              		.section	.text.USBFS_GetConfigTablePtr,"ax",%progbits
 309              		.align	2
 310              		.global	USBFS_GetConfigTablePtr
 311              		.thumb
 312              		.thumb_func
 313              		.type	USBFS_GetConfigTablePtr, %function
 314              	USBFS_GetConfigTablePtr:
 315              	.LFB6:
 551:Generated_Source\PSoC5/USBFS_std.c **** 
 552:Generated_Source\PSoC5/USBFS_std.c **** 
 553:Generated_Source\PSoC5/USBFS_std.c **** /*******************************************************************************
 554:Generated_Source\PSoC5/USBFS_std.c **** * Function Name: USBFS_Config
 555:Generated_Source\PSoC5/USBFS_std.c **** ****************************************************************************//**
 556:Generated_Source\PSoC5/USBFS_std.c **** *
 557:Generated_Source\PSoC5/USBFS_std.c **** *  This routine configures endpoints for the entire configuration by scanning
 558:Generated_Source\PSoC5/USBFS_std.c **** *  the configuration descriptor.
 559:Generated_Source\PSoC5/USBFS_std.c **** *
 560:Generated_Source\PSoC5/USBFS_std.c **** *  \param clearAltSetting: It configures the bAlternateSetting 0 for each interface.
 561:Generated_Source\PSoC5/USBFS_std.c **** *
 562:Generated_Source\PSoC5/USBFS_std.c **** * USBFS_interfaceClass - Initialized class array for each interface.
 563:Generated_Source\PSoC5/USBFS_std.c **** *   It is used for handling Class specific requests depend on interface class.
 564:Generated_Source\PSoC5/USBFS_std.c **** *   Different classes in multiple Alternate settings does not supported.
 565:Generated_Source\PSoC5/USBFS_std.c **** *
 566:Generated_Source\PSoC5/USBFS_std.c **** * \reentrant
 567:Generated_Source\PSoC5/USBFS_std.c **** *  No.
 568:Generated_Source\PSoC5/USBFS_std.c **** *
 569:Generated_Source\PSoC5/USBFS_std.c **** *******************************************************************************/
 570:Generated_Source\PSoC5/USBFS_std.c **** void USBFS_Config(uint8 clearAltSetting) 
 571:Generated_Source\PSoC5/USBFS_std.c **** {
 572:Generated_Source\PSoC5/USBFS_std.c ****     uint8 ep;
 573:Generated_Source\PSoC5/USBFS_std.c ****     uint8 curEp;
 574:Generated_Source\PSoC5/USBFS_std.c ****     uint8 i;
 575:Generated_Source\PSoC5/USBFS_std.c ****     uint8 epType;
 576:Generated_Source\PSoC5/USBFS_std.c ****     const uint8 *pDescr;
 577:Generated_Source\PSoC5/USBFS_std.c ****     
 578:Generated_Source\PSoC5/USBFS_std.c ****     #if (!USBFS_EP_MANAGEMENT_DMA_AUTO)
 579:Generated_Source\PSoC5/USBFS_std.c ****         uint16 buffCount = 0u;
 580:Generated_Source\PSoC5/USBFS_std.c ****     #endif /* (!USBFS_EP_MANAGEMENT_DMA_AUTO) */
 581:Generated_Source\PSoC5/USBFS_std.c **** 
 582:Generated_Source\PSoC5/USBFS_std.c ****     const T_USBFS_LUT CYCODE *pTmp;
 583:Generated_Source\PSoC5/USBFS_std.c ****     const T_USBFS_EP_SETTINGS_BLOCK CYCODE *pEP;
 584:Generated_Source\PSoC5/USBFS_std.c **** 
 585:Generated_Source\PSoC5/USBFS_std.c ****     /* Clear endpoints settings */
 586:Generated_Source\PSoC5/USBFS_std.c ****     for (ep = 0u; ep < USBFS_MAX_EP; ++ep)
 587:Generated_Source\PSoC5/USBFS_std.c ****     {
 588:Generated_Source\PSoC5/USBFS_std.c ****         USBFS_EP[ep].attrib     = 0u;
 589:Generated_Source\PSoC5/USBFS_std.c ****         USBFS_EP[ep].hwEpState  = 0u;
 590:Generated_Source\PSoC5/USBFS_std.c ****         USBFS_EP[ep].epToggle   = 0u;
ARM GAS  C:\Users\CALEBC~1\AppData\Local\Temp\ccBuh6Ys.s 			page 17


 591:Generated_Source\PSoC5/USBFS_std.c ****         USBFS_EP[ep].bufferSize = 0u;
 592:Generated_Source\PSoC5/USBFS_std.c ****         USBFS_EP[ep].interface  = 0u;
 593:Generated_Source\PSoC5/USBFS_std.c ****         USBFS_EP[ep].apiEpState = USBFS_NO_EVENT_PENDING;
 594:Generated_Source\PSoC5/USBFS_std.c ****         USBFS_EP[ep].epMode     = USBFS_MODE_DISABLE;   
 595:Generated_Source\PSoC5/USBFS_std.c ****     }
 596:Generated_Source\PSoC5/USBFS_std.c **** 
 597:Generated_Source\PSoC5/USBFS_std.c ****     /* Clear Alternate settings for all interfaces. */
 598:Generated_Source\PSoC5/USBFS_std.c ****     if (0u != clearAltSetting)
 599:Generated_Source\PSoC5/USBFS_std.c ****     {
 600:Generated_Source\PSoC5/USBFS_std.c ****         for (i = 0u; i < USBFS_MAX_INTERFACES_NUMBER; ++i)
 601:Generated_Source\PSoC5/USBFS_std.c ****         {
 602:Generated_Source\PSoC5/USBFS_std.c ****             USBFS_interfaceSetting[i]     = 0u;
 603:Generated_Source\PSoC5/USBFS_std.c ****             USBFS_interfaceSettingLast[i] = 0u;
 604:Generated_Source\PSoC5/USBFS_std.c ****         }
 605:Generated_Source\PSoC5/USBFS_std.c ****     }
 606:Generated_Source\PSoC5/USBFS_std.c **** 
 607:Generated_Source\PSoC5/USBFS_std.c ****     /* Init Endpoints and Device Status if configured */
 608:Generated_Source\PSoC5/USBFS_std.c ****     if (USBFS_configuration > 0u)
 609:Generated_Source\PSoC5/USBFS_std.c ****     {
 610:Generated_Source\PSoC5/USBFS_std.c ****         #if defined(USBFS_ENABLE_CDC_CLASS)
 611:Generated_Source\PSoC5/USBFS_std.c ****             uint8 cdcComNums = 0u;
 612:Generated_Source\PSoC5/USBFS_std.c ****         #endif  /* (USBFS_ENABLE_CDC_CLASS) */  
 613:Generated_Source\PSoC5/USBFS_std.c **** 
 614:Generated_Source\PSoC5/USBFS_std.c ****         pTmp = USBFS_GetConfigTablePtr(USBFS_configuration - 1u);
 615:Generated_Source\PSoC5/USBFS_std.c ****         
 616:Generated_Source\PSoC5/USBFS_std.c ****         /* Set Power status for current configuration */
 617:Generated_Source\PSoC5/USBFS_std.c ****         pDescr = (const uint8 *)pTmp->p_list;
 618:Generated_Source\PSoC5/USBFS_std.c ****         if ((pDescr[USBFS_CONFIG_DESCR_ATTRIB] & USBFS_CONFIG_DESCR_ATTRIB_SELF_POWERED) != 0u)
 619:Generated_Source\PSoC5/USBFS_std.c ****         {
 620:Generated_Source\PSoC5/USBFS_std.c ****             USBFS_deviceStatus |= (uint8)  USBFS_DEVICE_STATUS_SELF_POWERED;
 621:Generated_Source\PSoC5/USBFS_std.c ****         }
 622:Generated_Source\PSoC5/USBFS_std.c ****         else
 623:Generated_Source\PSoC5/USBFS_std.c ****         {
 624:Generated_Source\PSoC5/USBFS_std.c ****             USBFS_deviceStatus &= (uint8) ~USBFS_DEVICE_STATUS_SELF_POWERED;
 625:Generated_Source\PSoC5/USBFS_std.c ****         }
 626:Generated_Source\PSoC5/USBFS_std.c ****         
 627:Generated_Source\PSoC5/USBFS_std.c ****         /* Move to next element */
 628:Generated_Source\PSoC5/USBFS_std.c ****         pTmp = &pTmp[1u];
 629:Generated_Source\PSoC5/USBFS_std.c ****         ep = pTmp->c;  /* For this table, c is the number of endpoints configurations  */
 630:Generated_Source\PSoC5/USBFS_std.c **** 
 631:Generated_Source\PSoC5/USBFS_std.c ****         #if (USBFS_EP_MANAGEMENT_MANUAL && USBFS_EP_ALLOC_DYNAMIC)
 632:Generated_Source\PSoC5/USBFS_std.c ****             /* Configure for dynamic EP memory allocation */
 633:Generated_Source\PSoC5/USBFS_std.c ****             /* p_list points the endpoint setting table. */
 634:Generated_Source\PSoC5/USBFS_std.c ****             pEP = (T_USBFS_EP_SETTINGS_BLOCK *) pTmp->p_list;
 635:Generated_Source\PSoC5/USBFS_std.c ****             
 636:Generated_Source\PSoC5/USBFS_std.c ****             for (i = 0u; i < ep; i++)
 637:Generated_Source\PSoC5/USBFS_std.c ****             {     
 638:Generated_Source\PSoC5/USBFS_std.c ****                 /* Compare current Alternate setting with EP Alt */
 639:Generated_Source\PSoC5/USBFS_std.c ****                 if (USBFS_interfaceSetting[pEP->interface] == pEP->altSetting)
 640:Generated_Source\PSoC5/USBFS_std.c ****                 {                                                          
 641:Generated_Source\PSoC5/USBFS_std.c ****                     curEp  = pEP->addr & USBFS_DIR_UNUSED;
 642:Generated_Source\PSoC5/USBFS_std.c ****                     epType = pEP->attributes & USBFS_EP_TYPE_MASK;
 643:Generated_Source\PSoC5/USBFS_std.c ****                     
 644:Generated_Source\PSoC5/USBFS_std.c ****                     USBFS_EP[curEp].addr       = pEP->addr;
 645:Generated_Source\PSoC5/USBFS_std.c ****                     USBFS_EP[curEp].attrib     = pEP->attributes;
 646:Generated_Source\PSoC5/USBFS_std.c ****                     USBFS_EP[curEp].bufferSize = pEP->bufferSize;
 647:Generated_Source\PSoC5/USBFS_std.c **** 
ARM GAS  C:\Users\CALEBC~1\AppData\Local\Temp\ccBuh6Ys.s 			page 18


 648:Generated_Source\PSoC5/USBFS_std.c ****                     if (0u != (pEP->addr & USBFS_DIR_IN))
 649:Generated_Source\PSoC5/USBFS_std.c ****                     {
 650:Generated_Source\PSoC5/USBFS_std.c ****                         /* IN Endpoint */
 651:Generated_Source\PSoC5/USBFS_std.c ****                         USBFS_EP[curEp].epMode     = USBFS_GET_ACTIVE_IN_EP_CR0_MODE(epType);
 652:Generated_Source\PSoC5/USBFS_std.c ****                         USBFS_EP[curEp].apiEpState = USBFS_EVENT_PENDING;
 653:Generated_Source\PSoC5/USBFS_std.c ****                     
 654:Generated_Source\PSoC5/USBFS_std.c ****                     #if (defined(USBFS_ENABLE_MIDI_STREAMING) && (USBFS_MIDI_IN_BUFF_SIZE > 0))
 655:Generated_Source\PSoC5/USBFS_std.c ****                         if ((pEP->bMisc == USBFS_CLASS_AUDIO) && (epType == USBFS_EP_TYPE_BULK))
 656:Generated_Source\PSoC5/USBFS_std.c ****                         {
 657:Generated_Source\PSoC5/USBFS_std.c ****                             USBFS_midi_in_ep = curEp;
 658:Generated_Source\PSoC5/USBFS_std.c ****                         }
 659:Generated_Source\PSoC5/USBFS_std.c ****                     #endif  /* (USBFS_ENABLE_MIDI_STREAMING) */
 660:Generated_Source\PSoC5/USBFS_std.c ****                     }
 661:Generated_Source\PSoC5/USBFS_std.c ****                     else
 662:Generated_Source\PSoC5/USBFS_std.c ****                     {
 663:Generated_Source\PSoC5/USBFS_std.c ****                         /* OUT Endpoint */
 664:Generated_Source\PSoC5/USBFS_std.c ****                         USBFS_EP[curEp].epMode     = USBFS_GET_ACTIVE_OUT_EP_CR0_MODE(epType);
 665:Generated_Source\PSoC5/USBFS_std.c ****                         USBFS_EP[curEp].apiEpState = USBFS_NO_EVENT_PENDING;
 666:Generated_Source\PSoC5/USBFS_std.c ****                         
 667:Generated_Source\PSoC5/USBFS_std.c ****                     #if (defined(USBFS_ENABLE_MIDI_STREAMING) && (USBFS_MIDI_OUT_BUFF_SIZE > 0))
 668:Generated_Source\PSoC5/USBFS_std.c ****                         if ((pEP->bMisc == USBFS_CLASS_AUDIO) && (epType == USBFS_EP_TYPE_BULK))
 669:Generated_Source\PSoC5/USBFS_std.c ****                         {
 670:Generated_Source\PSoC5/USBFS_std.c ****                             USBFS_midi_out_ep = curEp;
 671:Generated_Source\PSoC5/USBFS_std.c ****                         }
 672:Generated_Source\PSoC5/USBFS_std.c ****                     #endif  /* (USBFS_ENABLE_MIDI_STREAMING) */
 673:Generated_Source\PSoC5/USBFS_std.c ****                     }
 674:Generated_Source\PSoC5/USBFS_std.c **** 
 675:Generated_Source\PSoC5/USBFS_std.c ****                 #if(defined (USBFS_ENABLE_CDC_CLASS))
 676:Generated_Source\PSoC5/USBFS_std.c ****                     if((pEP->bMisc == USBFS_CLASS_CDC_DATA) ||(pEP->bMisc == USBFS_CLASS_CDC))
 677:Generated_Source\PSoC5/USBFS_std.c ****                     {
 678:Generated_Source\PSoC5/USBFS_std.c ****                         cdcComNums = USBFS_Cdc_EpInit(pEP, curEp, cdcComNums);
 679:Generated_Source\PSoC5/USBFS_std.c ****                     }
 680:Generated_Source\PSoC5/USBFS_std.c ****                 #endif  /* (USBFS_ENABLE_CDC_CLASS) */
 681:Generated_Source\PSoC5/USBFS_std.c ****                 }
 682:Generated_Source\PSoC5/USBFS_std.c ****                 
 683:Generated_Source\PSoC5/USBFS_std.c ****                 pEP = &pEP[1u];
 684:Generated_Source\PSoC5/USBFS_std.c ****             }
 685:Generated_Source\PSoC5/USBFS_std.c ****             
 686:Generated_Source\PSoC5/USBFS_std.c ****         #else
 687:Generated_Source\PSoC5/USBFS_std.c ****             for (i = USBFS_EP1; i < USBFS_MAX_EP; ++i)
 688:Generated_Source\PSoC5/USBFS_std.c ****             {
 689:Generated_Source\PSoC5/USBFS_std.c ****                 /* p_list points the endpoint setting table. */
 690:Generated_Source\PSoC5/USBFS_std.c ****                 pEP = (const T_USBFS_EP_SETTINGS_BLOCK CYCODE *) pTmp->p_list;
 691:Generated_Source\PSoC5/USBFS_std.c ****                 /* Find max length for each EP and select it (length could be different in differen
 692:Generated_Source\PSoC5/USBFS_std.c ****                 /* but other settings should be correct with regards to Interface alt Setting */
 693:Generated_Source\PSoC5/USBFS_std.c ****                 
 694:Generated_Source\PSoC5/USBFS_std.c ****                 for (curEp = 0u; curEp < ep; ++curEp)
 695:Generated_Source\PSoC5/USBFS_std.c ****                 {
 696:Generated_Source\PSoC5/USBFS_std.c ****                     if (i == (pEP->addr & USBFS_DIR_UNUSED))
 697:Generated_Source\PSoC5/USBFS_std.c ****                     {
 698:Generated_Source\PSoC5/USBFS_std.c ****                         /* Compare endpoint buffers size with current size to find greater. */
 699:Generated_Source\PSoC5/USBFS_std.c ****                         if (USBFS_EP[i].bufferSize < pEP->bufferSize)
 700:Generated_Source\PSoC5/USBFS_std.c ****                         {
 701:Generated_Source\PSoC5/USBFS_std.c ****                             USBFS_EP[i].bufferSize = pEP->bufferSize;
 702:Generated_Source\PSoC5/USBFS_std.c ****                         }
 703:Generated_Source\PSoC5/USBFS_std.c ****                         
 704:Generated_Source\PSoC5/USBFS_std.c ****                         /* Compare current Alternate setting with EP Alt */
ARM GAS  C:\Users\CALEBC~1\AppData\Local\Temp\ccBuh6Ys.s 			page 19


 705:Generated_Source\PSoC5/USBFS_std.c ****                         if (USBFS_interfaceSetting[pEP->interface] == pEP->altSetting)
 706:Generated_Source\PSoC5/USBFS_std.c ****                         {                            
 707:Generated_Source\PSoC5/USBFS_std.c ****                             USBFS_EP[i].addr = pEP->addr;
 708:Generated_Source\PSoC5/USBFS_std.c ****                             USBFS_EP[i].attrib = pEP->attributes;
 709:Generated_Source\PSoC5/USBFS_std.c ****                             
 710:Generated_Source\PSoC5/USBFS_std.c ****                             epType = pEP->attributes & USBFS_EP_TYPE_MASK;
 711:Generated_Source\PSoC5/USBFS_std.c ****                             
 712:Generated_Source\PSoC5/USBFS_std.c ****                             if (0u != (pEP->addr & USBFS_DIR_IN))
 713:Generated_Source\PSoC5/USBFS_std.c ****                             {
 714:Generated_Source\PSoC5/USBFS_std.c ****                                 /* IN Endpoint */
 715:Generated_Source\PSoC5/USBFS_std.c ****                                 USBFS_EP[i].epMode     = USBFS_GET_ACTIVE_IN_EP_CR0_MODE(epType);
 716:Generated_Source\PSoC5/USBFS_std.c ****                                 USBFS_EP[i].apiEpState = USBFS_EVENT_PENDING;
 717:Generated_Source\PSoC5/USBFS_std.c ****                                 
 718:Generated_Source\PSoC5/USBFS_std.c ****                             #if (defined(USBFS_ENABLE_MIDI_STREAMING) && (USBFS_MIDI_IN_BUFF_SIZE >
 719:Generated_Source\PSoC5/USBFS_std.c ****                                 if ((pEP->bMisc == USBFS_CLASS_AUDIO) && (epType == USBFS_EP_TYPE_B
 720:Generated_Source\PSoC5/USBFS_std.c ****                                 {
 721:Generated_Source\PSoC5/USBFS_std.c ****                                     USBFS_midi_in_ep = i;
 722:Generated_Source\PSoC5/USBFS_std.c ****                                 }
 723:Generated_Source\PSoC5/USBFS_std.c ****                             #endif  /* (USBFS_ENABLE_MIDI_STREAMING) */
 724:Generated_Source\PSoC5/USBFS_std.c ****                             }
 725:Generated_Source\PSoC5/USBFS_std.c ****                             else
 726:Generated_Source\PSoC5/USBFS_std.c ****                             {
 727:Generated_Source\PSoC5/USBFS_std.c ****                                 /* OUT Endpoint */
 728:Generated_Source\PSoC5/USBFS_std.c ****                                 USBFS_EP[i].epMode     = USBFS_GET_ACTIVE_OUT_EP_CR0_MODE(epType);
 729:Generated_Source\PSoC5/USBFS_std.c ****                                 USBFS_EP[i].apiEpState = USBFS_NO_EVENT_PENDING;
 730:Generated_Source\PSoC5/USBFS_std.c ****                                 
 731:Generated_Source\PSoC5/USBFS_std.c ****                             #if (defined(USBFS_ENABLE_MIDI_STREAMING) && (USBFS_MIDI_OUT_BUFF_SIZE 
 732:Generated_Source\PSoC5/USBFS_std.c ****                                 if ((pEP->bMisc == USBFS_CLASS_AUDIO) && (epType == USBFS_EP_TYPE_B
 733:Generated_Source\PSoC5/USBFS_std.c ****                                 {
 734:Generated_Source\PSoC5/USBFS_std.c ****                                     USBFS_midi_out_ep = i;
 735:Generated_Source\PSoC5/USBFS_std.c ****                                 }
 736:Generated_Source\PSoC5/USBFS_std.c ****                             #endif  /* (USBFS_ENABLE_MIDI_STREAMING) */
 737:Generated_Source\PSoC5/USBFS_std.c ****                             }
 738:Generated_Source\PSoC5/USBFS_std.c **** 
 739:Generated_Source\PSoC5/USBFS_std.c ****                         #if (defined(USBFS_ENABLE_CDC_CLASS))
 740:Generated_Source\PSoC5/USBFS_std.c ****                             if((pEP->bMisc == USBFS_CLASS_CDC_DATA) ||(pEP->bMisc == USBFS_CLASS_CD
 741:Generated_Source\PSoC5/USBFS_std.c ****                             {
 742:Generated_Source\PSoC5/USBFS_std.c ****                                 cdcComNums = USBFS_Cdc_EpInit(pEP, i, cdcComNums);
 743:Generated_Source\PSoC5/USBFS_std.c ****                             }
 744:Generated_Source\PSoC5/USBFS_std.c ****                         #endif  /* (USBFS_ENABLE_CDC_CLASS) */
 745:Generated_Source\PSoC5/USBFS_std.c **** 
 746:Generated_Source\PSoC5/USBFS_std.c ****                             #if (USBFS_EP_MANAGEMENT_DMA_AUTO)
 747:Generated_Source\PSoC5/USBFS_std.c ****                                 break;  /* Use first EP setting in Auto memory management */
 748:Generated_Source\PSoC5/USBFS_std.c ****                             #endif /* (USBFS_EP_MANAGEMENT_DMA_AUTO) */
 749:Generated_Source\PSoC5/USBFS_std.c ****                         }
 750:Generated_Source\PSoC5/USBFS_std.c ****                     }
 751:Generated_Source\PSoC5/USBFS_std.c ****                     
 752:Generated_Source\PSoC5/USBFS_std.c ****                     pEP = &pEP[1u];
 753:Generated_Source\PSoC5/USBFS_std.c ****                 }
 754:Generated_Source\PSoC5/USBFS_std.c ****             }
 755:Generated_Source\PSoC5/USBFS_std.c ****         #endif /*  (USBFS_EP_MANAGEMENT_MANUAL && USBFS_EP_ALLOC_DYNAMIC) */
 756:Generated_Source\PSoC5/USBFS_std.c **** 
 757:Generated_Source\PSoC5/USBFS_std.c ****         /* Init class array for each interface and interface number for each EP.
 758:Generated_Source\PSoC5/USBFS_std.c ****         *  It is used for handling Class specific requests directed to either an
 759:Generated_Source\PSoC5/USBFS_std.c ****         *  interface or the endpoint.
 760:Generated_Source\PSoC5/USBFS_std.c ****         */
 761:Generated_Source\PSoC5/USBFS_std.c ****         /* p_list points the endpoint setting table. */
ARM GAS  C:\Users\CALEBC~1\AppData\Local\Temp\ccBuh6Ys.s 			page 20


 762:Generated_Source\PSoC5/USBFS_std.c ****         pEP = (const T_USBFS_EP_SETTINGS_BLOCK CYCODE *) pTmp->p_list;
 763:Generated_Source\PSoC5/USBFS_std.c ****         for (i = 0u; i < ep; i++)
 764:Generated_Source\PSoC5/USBFS_std.c ****         {
 765:Generated_Source\PSoC5/USBFS_std.c ****             /* Configure interface number for each EP */
 766:Generated_Source\PSoC5/USBFS_std.c ****             USBFS_EP[pEP->addr & USBFS_DIR_UNUSED].interface = pEP->interface;
 767:Generated_Source\PSoC5/USBFS_std.c ****             pEP = &pEP[1u];
 768:Generated_Source\PSoC5/USBFS_std.c ****         }
 769:Generated_Source\PSoC5/USBFS_std.c ****         
 770:Generated_Source\PSoC5/USBFS_std.c ****         /* Init pointer on interface class table */
 771:Generated_Source\PSoC5/USBFS_std.c ****         USBFS_interfaceClass = USBFS_GetInterfaceClassTablePtr();
 772:Generated_Source\PSoC5/USBFS_std.c ****         
 773:Generated_Source\PSoC5/USBFS_std.c ****     /* Set the endpoint buffer addresses */
 774:Generated_Source\PSoC5/USBFS_std.c ****     #if (!USBFS_EP_MANAGEMENT_DMA_AUTO)
 775:Generated_Source\PSoC5/USBFS_std.c ****         buffCount = 0u;
 776:Generated_Source\PSoC5/USBFS_std.c ****         for (ep = USBFS_EP1; ep < USBFS_MAX_EP; ++ep)
 777:Generated_Source\PSoC5/USBFS_std.c ****         {
 778:Generated_Source\PSoC5/USBFS_std.c ****             USBFS_EP[ep].buffOffset = buffCount;        
 779:Generated_Source\PSoC5/USBFS_std.c ****             buffCount += USBFS_EP[ep].bufferSize;
 780:Generated_Source\PSoC5/USBFS_std.c ****             
 781:Generated_Source\PSoC5/USBFS_std.c ****         #if (USBFS_GEN_16BITS_EP_ACCESS)
 782:Generated_Source\PSoC5/USBFS_std.c ****             /* Align EP buffers to be event size to access 16-bits DR register. */
 783:Generated_Source\PSoC5/USBFS_std.c ****             buffCount += (0u != (buffCount & 0x01u)) ? 1u : 0u;
 784:Generated_Source\PSoC5/USBFS_std.c ****         #endif /* (USBFS_GEN_16BITS_EP_ACCESS) */            
 785:Generated_Source\PSoC5/USBFS_std.c ****         }
 786:Generated_Source\PSoC5/USBFS_std.c ****     #endif /* (!USBFS_EP_MANAGEMENT_DMA_AUTO) */
 787:Generated_Source\PSoC5/USBFS_std.c **** 
 788:Generated_Source\PSoC5/USBFS_std.c ****         /* Configure hardware registers */
 789:Generated_Source\PSoC5/USBFS_std.c ****         USBFS_ConfigReg();
 790:Generated_Source\PSoC5/USBFS_std.c ****     }
 791:Generated_Source\PSoC5/USBFS_std.c **** }
 792:Generated_Source\PSoC5/USBFS_std.c **** 
 793:Generated_Source\PSoC5/USBFS_std.c **** 
 794:Generated_Source\PSoC5/USBFS_std.c **** /*******************************************************************************
 795:Generated_Source\PSoC5/USBFS_std.c **** * Function Name: USBFS_ConfigAltChanged
 796:Generated_Source\PSoC5/USBFS_std.c **** ****************************************************************************//**
 797:Generated_Source\PSoC5/USBFS_std.c **** *
 798:Generated_Source\PSoC5/USBFS_std.c **** *  This routine update configuration for the required endpoints only.
 799:Generated_Source\PSoC5/USBFS_std.c **** *  It is called after SET_INTERFACE request when Static memory allocation used.
 800:Generated_Source\PSoC5/USBFS_std.c **** *
 801:Generated_Source\PSoC5/USBFS_std.c **** * \reentrant
 802:Generated_Source\PSoC5/USBFS_std.c **** *  No.
 803:Generated_Source\PSoC5/USBFS_std.c **** *
 804:Generated_Source\PSoC5/USBFS_std.c **** *******************************************************************************/
 805:Generated_Source\PSoC5/USBFS_std.c **** void USBFS_ConfigAltChanged(void) 
 806:Generated_Source\PSoC5/USBFS_std.c **** {
 807:Generated_Source\PSoC5/USBFS_std.c ****     uint8 ep;
 808:Generated_Source\PSoC5/USBFS_std.c ****     uint8 curEp;
 809:Generated_Source\PSoC5/USBFS_std.c ****     uint8 epType;
 810:Generated_Source\PSoC5/USBFS_std.c ****     uint8 i;
 811:Generated_Source\PSoC5/USBFS_std.c ****     uint8 interfaceNum;
 812:Generated_Source\PSoC5/USBFS_std.c **** 
 813:Generated_Source\PSoC5/USBFS_std.c ****     const T_USBFS_LUT CYCODE *pTmp;
 814:Generated_Source\PSoC5/USBFS_std.c ****     const T_USBFS_EP_SETTINGS_BLOCK CYCODE *pEP;
 815:Generated_Source\PSoC5/USBFS_std.c **** 
 816:Generated_Source\PSoC5/USBFS_std.c ****     /* Init Endpoints and Device Status if configured */
 817:Generated_Source\PSoC5/USBFS_std.c ****     if (USBFS_configuration > 0u)
 818:Generated_Source\PSoC5/USBFS_std.c ****     {
ARM GAS  C:\Users\CALEBC~1\AppData\Local\Temp\ccBuh6Ys.s 			page 21


 819:Generated_Source\PSoC5/USBFS_std.c ****         /* Get number of endpoints configurations (ep). */
 820:Generated_Source\PSoC5/USBFS_std.c ****         pTmp = USBFS_GetConfigTablePtr(USBFS_configuration - 1u);
 821:Generated_Source\PSoC5/USBFS_std.c ****         pTmp = &pTmp[1u];
 822:Generated_Source\PSoC5/USBFS_std.c ****         ep = pTmp->c;
 823:Generated_Source\PSoC5/USBFS_std.c **** 
 824:Generated_Source\PSoC5/USBFS_std.c ****         /* Get pointer to endpoints setting table (pEP). */
 825:Generated_Source\PSoC5/USBFS_std.c ****         pEP = (const T_USBFS_EP_SETTINGS_BLOCK CYCODE *) pTmp->p_list;
 826:Generated_Source\PSoC5/USBFS_std.c ****         
 827:Generated_Source\PSoC5/USBFS_std.c ****         /* Look through all possible endpoint configurations. Find endpoints 
 828:Generated_Source\PSoC5/USBFS_std.c ****         * which belong to current interface and alternate settings for 
 829:Generated_Source\PSoC5/USBFS_std.c ****         * re-configuration.
 830:Generated_Source\PSoC5/USBFS_std.c ****         */
 831:Generated_Source\PSoC5/USBFS_std.c ****         interfaceNum = USBFS_interfaceNumber;
 832:Generated_Source\PSoC5/USBFS_std.c ****         for (i = 0u; i < ep; i++)
 833:Generated_Source\PSoC5/USBFS_std.c ****         {
 834:Generated_Source\PSoC5/USBFS_std.c ****             /* Find endpoints which belong to current interface and alternate settings. */
 835:Generated_Source\PSoC5/USBFS_std.c ****             if ((interfaceNum == pEP->interface) && 
 836:Generated_Source\PSoC5/USBFS_std.c ****                 (USBFS_interfaceSetting[interfaceNum] == pEP->altSetting))
 837:Generated_Source\PSoC5/USBFS_std.c ****             {
 838:Generated_Source\PSoC5/USBFS_std.c ****                 curEp  = ((uint8) pEP->addr & USBFS_DIR_UNUSED);
 839:Generated_Source\PSoC5/USBFS_std.c ****                 epType = ((uint8) pEP->attributes & USBFS_EP_TYPE_MASK);
 840:Generated_Source\PSoC5/USBFS_std.c ****                 
 841:Generated_Source\PSoC5/USBFS_std.c ****                 /* Change the SIE mode for the selected EP to NAK ALL */
 842:Generated_Source\PSoC5/USBFS_std.c ****                 USBFS_EP[curEp].epToggle   = 0u;
 843:Generated_Source\PSoC5/USBFS_std.c ****                 USBFS_EP[curEp].addr       = pEP->addr;
 844:Generated_Source\PSoC5/USBFS_std.c ****                 USBFS_EP[curEp].attrib     = pEP->attributes;
 845:Generated_Source\PSoC5/USBFS_std.c ****                 USBFS_EP[curEp].bufferSize = pEP->bufferSize;
 846:Generated_Source\PSoC5/USBFS_std.c **** 
 847:Generated_Source\PSoC5/USBFS_std.c ****                 if (0u != (pEP->addr & USBFS_DIR_IN))
 848:Generated_Source\PSoC5/USBFS_std.c ****                 {
 849:Generated_Source\PSoC5/USBFS_std.c ****                     /* IN Endpoint */
 850:Generated_Source\PSoC5/USBFS_std.c ****                     USBFS_EP[curEp].epMode     = USBFS_GET_ACTIVE_IN_EP_CR0_MODE(epType);
 851:Generated_Source\PSoC5/USBFS_std.c ****                     USBFS_EP[curEp].apiEpState = USBFS_EVENT_PENDING;
 852:Generated_Source\PSoC5/USBFS_std.c ****                 }
 853:Generated_Source\PSoC5/USBFS_std.c ****                 else
 854:Generated_Source\PSoC5/USBFS_std.c ****                 {
 855:Generated_Source\PSoC5/USBFS_std.c ****                     /* OUT Endpoint */
 856:Generated_Source\PSoC5/USBFS_std.c ****                     USBFS_EP[curEp].epMode     = USBFS_GET_ACTIVE_OUT_EP_CR0_MODE(epType);
 857:Generated_Source\PSoC5/USBFS_std.c ****                     USBFS_EP[curEp].apiEpState = USBFS_NO_EVENT_PENDING;
 858:Generated_Source\PSoC5/USBFS_std.c ****                 }
 859:Generated_Source\PSoC5/USBFS_std.c ****                 
 860:Generated_Source\PSoC5/USBFS_std.c ****                 /* Make SIE to NAK any endpoint requests */
 861:Generated_Source\PSoC5/USBFS_std.c ****                 USBFS_SIE_EP_BASE.sieEp[curEp].epCr0 = USBFS_MODE_NAK_IN_OUT;
 862:Generated_Source\PSoC5/USBFS_std.c **** 
 863:Generated_Source\PSoC5/USBFS_std.c ****             #if (USBFS_EP_MANAGEMENT_DMA_AUTO)
 864:Generated_Source\PSoC5/USBFS_std.c ****                 /* Clear IN data ready. */
 865:Generated_Source\PSoC5/USBFS_std.c ****                 USBFS_ARB_EP_BASE.arbEp[curEp].epCfg &= (uint8) ~USBFS_ARB_EPX_CFG_IN_DATA_RDY;
 866:Generated_Source\PSoC5/USBFS_std.c **** 
 867:Generated_Source\PSoC5/USBFS_std.c ****                 /* Select endpoint number of reconfiguration */
 868:Generated_Source\PSoC5/USBFS_std.c ****                 USBFS_DYN_RECONFIG_REG = (uint8) ((curEp - 1u) << USBFS_DYN_RECONFIG_EP_SHIFT);
 869:Generated_Source\PSoC5/USBFS_std.c ****                 
 870:Generated_Source\PSoC5/USBFS_std.c ****                 /* Request for dynamic re-configuration of endpoint. */
 871:Generated_Source\PSoC5/USBFS_std.c ****                 USBFS_DYN_RECONFIG_REG |= USBFS_DYN_RECONFIG_ENABLE;
 872:Generated_Source\PSoC5/USBFS_std.c ****                 
 873:Generated_Source\PSoC5/USBFS_std.c ****                 /* Wait until block is ready for re-configuration */
 874:Generated_Source\PSoC5/USBFS_std.c ****                 while (0u == (USBFS_DYN_RECONFIG_REG & USBFS_DYN_RECONFIG_RDY_STS))
 875:Generated_Source\PSoC5/USBFS_std.c ****                 {
ARM GAS  C:\Users\CALEBC~1\AppData\Local\Temp\ccBuh6Ys.s 			page 22


 876:Generated_Source\PSoC5/USBFS_std.c ****                 }
 877:Generated_Source\PSoC5/USBFS_std.c ****                 
 878:Generated_Source\PSoC5/USBFS_std.c ****                 /* Once DYN_RECONFIG_RDY_STS bit is set, FW can change the EP configuration. */
 879:Generated_Source\PSoC5/USBFS_std.c ****                 /* Change EP Type with new direction */
 880:Generated_Source\PSoC5/USBFS_std.c ****                 if (0u != (pEP->addr & USBFS_DIR_IN))
 881:Generated_Source\PSoC5/USBFS_std.c ****                 {
 882:Generated_Source\PSoC5/USBFS_std.c ****                     /* Set endpoint type: 0 - IN and 1 - OUT. */
 883:Generated_Source\PSoC5/USBFS_std.c ****                     USBFS_EP_TYPE_REG &= (uint8) ~(uint8)((uint8) 0x01u << (curEp - 1u));
 884:Generated_Source\PSoC5/USBFS_std.c ****                     
 885:Generated_Source\PSoC5/USBFS_std.c ****                 #if (CY_PSOC4)
 886:Generated_Source\PSoC5/USBFS_std.c ****                     /* Clear DMA_TERMIN for IN endpoint */
 887:Generated_Source\PSoC5/USBFS_std.c ****                     USBFS_ARB_EP_BASE.arbEp[curEp].epIntEn &= (uint32) ~USBFS_ARB_EPX_INT_DMA_TERMI
 888:Generated_Source\PSoC5/USBFS_std.c ****                 #endif /* (CY_PSOC4) */
 889:Generated_Source\PSoC5/USBFS_std.c ****                 }
 890:Generated_Source\PSoC5/USBFS_std.c ****                 else
 891:Generated_Source\PSoC5/USBFS_std.c ****                 {
 892:Generated_Source\PSoC5/USBFS_std.c ****                     /* Set endpoint type: 0 - IN and 1- OUT. */
 893:Generated_Source\PSoC5/USBFS_std.c ****                     USBFS_EP_TYPE_REG |= (uint8) ((uint8) 0x01u << (curEp - 1u));
 894:Generated_Source\PSoC5/USBFS_std.c ****                     
 895:Generated_Source\PSoC5/USBFS_std.c ****                 #if (CY_PSOC4)
 896:Generated_Source\PSoC5/USBFS_std.c ****                     /* Set DMA_TERMIN for OUT endpoint */
 897:Generated_Source\PSoC5/USBFS_std.c ****                     USBFS_ARB_EP_BASE.arbEp[curEp].epIntEn |= (uint32) USBFS_ARB_EPX_INT_DMA_TERMIN
 898:Generated_Source\PSoC5/USBFS_std.c ****                 #endif /* (CY_PSOC4) */
 899:Generated_Source\PSoC5/USBFS_std.c ****                 }
 900:Generated_Source\PSoC5/USBFS_std.c ****                 
 901:Generated_Source\PSoC5/USBFS_std.c ****                 /* Complete dynamic re-configuration: all endpoint related status and signals 
 902:Generated_Source\PSoC5/USBFS_std.c ****                 * are set into the default state.
 903:Generated_Source\PSoC5/USBFS_std.c ****                 */
 904:Generated_Source\PSoC5/USBFS_std.c ****                 USBFS_DYN_RECONFIG_REG &= (uint8) ~USBFS_DYN_RECONFIG_ENABLE;
 905:Generated_Source\PSoC5/USBFS_std.c **** 
 906:Generated_Source\PSoC5/USBFS_std.c ****             #else
 907:Generated_Source\PSoC5/USBFS_std.c ****                 USBFS_SIE_EP_BASE.sieEp[curEp].epCnt0 = HI8(USBFS_EP[curEp].bufferSize);
 908:Generated_Source\PSoC5/USBFS_std.c ****                 USBFS_SIE_EP_BASE.sieEp[curEp].epCnt1 = LO8(USBFS_EP[curEp].bufferSize);
 909:Generated_Source\PSoC5/USBFS_std.c ****                 
 910:Generated_Source\PSoC5/USBFS_std.c ****                 #if (CY_PSOC4)
 911:Generated_Source\PSoC5/USBFS_std.c ****                     USBFS_ARB_EP16_BASE.arbEp[curEp].rwRa16  = (uint32) USBFS_EP[curEp].buffOffset;
 912:Generated_Source\PSoC5/USBFS_std.c ****                     USBFS_ARB_EP16_BASE.arbEp[curEp].rwWa16  = (uint32) USBFS_EP[curEp].buffOffset;
 913:Generated_Source\PSoC5/USBFS_std.c ****                 #else
 914:Generated_Source\PSoC5/USBFS_std.c ****                     USBFS_ARB_EP_BASE.arbEp[curEp].rwRa    = LO8(USBFS_EP[curEp].buffOffset);
 915:Generated_Source\PSoC5/USBFS_std.c ****                     USBFS_ARB_EP_BASE.arbEp[curEp].rwRaMsb = HI8(USBFS_EP[curEp].buffOffset);
 916:Generated_Source\PSoC5/USBFS_std.c ****                     USBFS_ARB_EP_BASE.arbEp[curEp].rwWa    = LO8(USBFS_EP[curEp].buffOffset);
 917:Generated_Source\PSoC5/USBFS_std.c ****                     USBFS_ARB_EP_BASE.arbEp[curEp].rwWaMsb = HI8(USBFS_EP[curEp].buffOffset);
 918:Generated_Source\PSoC5/USBFS_std.c ****                 #endif /* (CY_PSOC4) */                
 919:Generated_Source\PSoC5/USBFS_std.c ****             #endif /* (USBFS_EP_MANAGEMENT_DMA_AUTO) */
 920:Generated_Source\PSoC5/USBFS_std.c ****             }
 921:Generated_Source\PSoC5/USBFS_std.c ****             
 922:Generated_Source\PSoC5/USBFS_std.c ****             pEP = &pEP[1u]; /* Get next EP element */
 923:Generated_Source\PSoC5/USBFS_std.c ****         }
 924:Generated_Source\PSoC5/USBFS_std.c ****         
 925:Generated_Source\PSoC5/USBFS_std.c ****         /* The main loop has to re-enable DMA and OUT endpoint */
 926:Generated_Source\PSoC5/USBFS_std.c ****     }
 927:Generated_Source\PSoC5/USBFS_std.c **** }
 928:Generated_Source\PSoC5/USBFS_std.c **** 
 929:Generated_Source\PSoC5/USBFS_std.c **** 
 930:Generated_Source\PSoC5/USBFS_std.c **** /*******************************************************************************
 931:Generated_Source\PSoC5/USBFS_std.c **** * Function Name: USBFS_GetConfigTablePtr
 932:Generated_Source\PSoC5/USBFS_std.c **** ****************************************************************************//**
ARM GAS  C:\Users\CALEBC~1\AppData\Local\Temp\ccBuh6Ys.s 			page 23


 933:Generated_Source\PSoC5/USBFS_std.c **** *
 934:Generated_Source\PSoC5/USBFS_std.c **** *  This routine returns a pointer a configuration table entry
 935:Generated_Source\PSoC5/USBFS_std.c **** *
 936:Generated_Source\PSoC5/USBFS_std.c **** *  \param confIndex:  Configuration Index
 937:Generated_Source\PSoC5/USBFS_std.c **** *
 938:Generated_Source\PSoC5/USBFS_std.c **** * \return
 939:Generated_Source\PSoC5/USBFS_std.c **** *  Device Descriptor pointer or NULL when descriptor does not exist.
 940:Generated_Source\PSoC5/USBFS_std.c **** *
 941:Generated_Source\PSoC5/USBFS_std.c **** *******************************************************************************/
 942:Generated_Source\PSoC5/USBFS_std.c **** const T_USBFS_LUT CYCODE *USBFS_GetConfigTablePtr(uint8 confIndex)
 943:Generated_Source\PSoC5/USBFS_std.c ****                                                         
 944:Generated_Source\PSoC5/USBFS_std.c **** {
 316              		.loc 1 944 0
 317              		.cfi_startproc
 318              		@ args = 0, pretend = 0, frame = 0
 319              		@ frame_needed = 0, uses_anonymous_args = 0
 320              		@ link register save eliminated.
 321              	.LVL20:
 945:Generated_Source\PSoC5/USBFS_std.c ****     /* Device Table */
 946:Generated_Source\PSoC5/USBFS_std.c ****     const T_USBFS_LUT CYCODE *pTmp;
 947:Generated_Source\PSoC5/USBFS_std.c **** 
 948:Generated_Source\PSoC5/USBFS_std.c ****     pTmp = (const T_USBFS_LUT CYCODE *) USBFS_TABLE[USBFS_device].p_list;
 322              		.loc 1 948 0
 323 0000 074B     		ldr	r3, .L27
 324 0002 1A78     		ldrb	r2, [r3]	@ zero_extendqisi2
 325 0004 074B     		ldr	r3, .L27+4
 326 0006 03EBC203 		add	r3, r3, r2, lsl #3
 327 000a 5B68     		ldr	r3, [r3, #4]
 328              	.LVL21:
 949:Generated_Source\PSoC5/USBFS_std.c **** 
 950:Generated_Source\PSoC5/USBFS_std.c ****     /* The first entry points to the Device Descriptor,
 951:Generated_Source\PSoC5/USBFS_std.c ****     *  the second entry point to the BOS Descriptor
 952:Generated_Source\PSoC5/USBFS_std.c ****     *  the rest configuration entries.
 953:Generated_Source\PSoC5/USBFS_std.c ****     *  Set pointer to the first Configuration Descriptor
 954:Generated_Source\PSoC5/USBFS_std.c ****     */
 955:Generated_Source\PSoC5/USBFS_std.c ****     pTmp = &pTmp[2u];
 956:Generated_Source\PSoC5/USBFS_std.c ****     /* For this table, c is the number of configuration descriptors  */
 957:Generated_Source\PSoC5/USBFS_std.c ****     if(confIndex >= pTmp->c)   /* Verify that required configuration descriptor exists */
 329              		.loc 1 957 0
 330 000c 1A7C     		ldrb	r2, [r3, #16]	@ zero_extendqisi2
 331 000e 8242     		cmp	r2, r0
 332 0010 04D9     		bls	.L26
 958:Generated_Source\PSoC5/USBFS_std.c ****     {
 959:Generated_Source\PSoC5/USBFS_std.c ****         pTmp = (const T_USBFS_LUT CYCODE *) NULL;
 960:Generated_Source\PSoC5/USBFS_std.c ****     }
 961:Generated_Source\PSoC5/USBFS_std.c ****     else
 962:Generated_Source\PSoC5/USBFS_std.c ****     {
 963:Generated_Source\PSoC5/USBFS_std.c ****         pTmp = (const T_USBFS_LUT CYCODE *) pTmp[confIndex].p_list;
 333              		.loc 1 963 0
 334 0012 C000     		lsls	r0, r0, #3
 335              	.LVL22:
 336 0014 1030     		adds	r0, r0, #16
 337 0016 1844     		add	r0, r0, r3
 338 0018 4068     		ldr	r0, [r0, #4]
 339              	.LVL23:
 340 001a 7047     		bx	lr
 341              	.LVL24:
ARM GAS  C:\Users\CALEBC~1\AppData\Local\Temp\ccBuh6Ys.s 			page 24


 342              	.L26:
 959:Generated_Source\PSoC5/USBFS_std.c ****     }
 343              		.loc 1 959 0
 344 001c 0020     		movs	r0, #0
 345              	.LVL25:
 964:Generated_Source\PSoC5/USBFS_std.c ****     }
 965:Generated_Source\PSoC5/USBFS_std.c **** 
 966:Generated_Source\PSoC5/USBFS_std.c ****     return (pTmp);
 967:Generated_Source\PSoC5/USBFS_std.c **** }
 346              		.loc 1 967 0
 347 001e 7047     		bx	lr
 348              	.L28:
 349              		.align	2
 350              	.L27:
 351 0020 00000000 		.word	USBFS_device
 352 0024 00000000 		.word	USBFS_TABLE
 353              		.cfi_endproc
 354              	.LFE6:
 355              		.size	USBFS_GetConfigTablePtr, .-USBFS_GetConfigTablePtr
 356              		.section	.text.USBFS_ConfigAltChanged,"ax",%progbits
 357              		.align	2
 358              		.global	USBFS_ConfigAltChanged
 359              		.thumb
 360              		.thumb_func
 361              		.type	USBFS_ConfigAltChanged, %function
 362              	USBFS_ConfigAltChanged:
 363              	.LFB5:
 806:Generated_Source\PSoC5/USBFS_std.c ****     uint8 ep;
 364              		.loc 1 806 0
 365              		.cfi_startproc
 366              		@ args = 0, pretend = 0, frame = 0
 367              		@ frame_needed = 0, uses_anonymous_args = 0
 368 0000 F8B5     		push	{r3, r4, r5, r6, r7, lr}
 369              		.cfi_def_cfa_offset 24
 370              		.cfi_offset 3, -24
 371              		.cfi_offset 4, -20
 372              		.cfi_offset 5, -16
 373              		.cfi_offset 6, -12
 374              		.cfi_offset 7, -8
 375              		.cfi_offset 14, -4
 817:Generated_Source\PSoC5/USBFS_std.c ****     {
 376              		.loc 1 817 0
 377 0002 404B     		ldr	r3, .L41
 378 0004 1B78     		ldrb	r3, [r3]	@ zero_extendqisi2
 379 0006 13F0FF0F 		tst	r3, #255
 380 000a 79D0     		beq	.L29
 820:Generated_Source\PSoC5/USBFS_std.c ****         pTmp = &pTmp[1u];
 381              		.loc 1 820 0
 382 000c 3D4B     		ldr	r3, .L41
 383 000e 1878     		ldrb	r0, [r3]	@ zero_extendqisi2
 384 0010 0138     		subs	r0, r0, #1
 385 0012 C0B2     		uxtb	r0, r0
 386 0014 FFF7FEFF 		bl	USBFS_GetConfigTablePtr
 387              	.LVL26:
 822:Generated_Source\PSoC5/USBFS_std.c **** 
 388              		.loc 1 822 0
 389 0018 047A     		ldrb	r4, [r0, #8]	@ zero_extendqisi2
ARM GAS  C:\Users\CALEBC~1\AppData\Local\Temp\ccBuh6Ys.s 			page 25


 390              	.LVL27:
 825:Generated_Source\PSoC5/USBFS_std.c ****         
 391              		.loc 1 825 0
 392 001a C268     		ldr	r2, [r0, #12]
 393              	.LVL28:
 831:Generated_Source\PSoC5/USBFS_std.c ****         for (i = 0u; i < ep; i++)
 394              		.loc 1 831 0
 395 001c 3A4B     		ldr	r3, .L41+4
 396 001e 1878     		ldrb	r0, [r3]	@ zero_extendqisi2
 397              	.LVL29:
 398 0020 C0B2     		uxtb	r0, r0
 399              	.LVL30:
 832:Generated_Source\PSoC5/USBFS_std.c ****         {
 400              		.loc 1 832 0
 401 0022 0023     		movs	r3, #0
 402 0024 6AE0     		b	.L31
 403              	.LVL31:
 404              	.L37:
 835:Generated_Source\PSoC5/USBFS_std.c ****                 (USBFS_interfaceSetting[interfaceNum] == pEP->altSetting))
 405              		.loc 1 835 0
 406 0026 1178     		ldrb	r1, [r2]	@ zero_extendqisi2
 407 0028 8842     		cmp	r0, r1
 408 002a 64D1     		bne	.L32
 836:Generated_Source\PSoC5/USBFS_std.c ****             {
 409              		.loc 1 836 0 discriminator 1
 410 002c 3749     		ldr	r1, .L41+8
 411 002e 095C     		ldrb	r1, [r1, r0]	@ zero_extendqisi2
 412 0030 C9B2     		uxtb	r1, r1
 413 0032 5578     		ldrb	r5, [r2, #1]	@ zero_extendqisi2
 835:Generated_Source\PSoC5/USBFS_std.c ****                 (USBFS_interfaceSetting[interfaceNum] == pEP->altSetting))
 414              		.loc 1 835 0 discriminator 1
 415 0034 A942     		cmp	r1, r5
 416 0036 5ED1     		bne	.L32
 838:Generated_Source\PSoC5/USBFS_std.c ****                 epType = ((uint8) pEP->attributes & USBFS_EP_TYPE_MASK);
 417              		.loc 1 838 0
 418 0038 9178     		ldrb	r1, [r2, #2]	@ zero_extendqisi2
 419 003a 01F07F01 		and	r1, r1, #127
 420              	.LVL32:
 839:Generated_Source\PSoC5/USBFS_std.c ****                 
 421              		.loc 1 839 0
 422 003e D678     		ldrb	r6, [r2, #3]	@ zero_extendqisi2
 423 0040 06F00306 		and	r6, r6, #3
 424              	.LVL33:
 842:Generated_Source\PSoC5/USBFS_std.c ****                 USBFS_EP[curEp].addr       = pEP->addr;
 425              		.loc 1 842 0
 426 0044 DFF8C8E0 		ldr	lr, .L41+12
 427 0048 4D00     		lsls	r5, r1, #1
 428 004a 0D44     		add	r5, r5, r1
 429 004c AF00     		lsls	r7, r5, #2
 430 004e 0EEB0705 		add	r5, lr, r7
 431 0052 4FF0000C 		mov	ip, #0
 432 0056 85F803C0 		strb	ip, [r5, #3]
 843:Generated_Source\PSoC5/USBFS_std.c ****                 USBFS_EP[curEp].attrib     = pEP->attributes;
 433              		.loc 1 843 0
 434 005a 92F802C0 		ldrb	ip, [r2, #2]	@ zero_extendqisi2
 435 005e 85F804C0 		strb	ip, [r5, #4]
 844:Generated_Source\PSoC5/USBFS_std.c ****                 USBFS_EP[curEp].bufferSize = pEP->bufferSize;
ARM GAS  C:\Users\CALEBC~1\AppData\Local\Temp\ccBuh6Ys.s 			page 26


 436              		.loc 1 844 0
 437 0062 92F803C0 		ldrb	ip, [r2, #3]	@ zero_extendqisi2
 438 0066 0EF807C0 		strb	ip, [lr, r7]
 845:Generated_Source\PSoC5/USBFS_std.c **** 
 439              		.loc 1 845 0
 440 006a 9788     		ldrh	r7, [r2, #4]
 441 006c 2F81     		strh	r7, [r5, #8]	@ movhi
 847:Generated_Source\PSoC5/USBFS_std.c ****                 {
 442              		.loc 1 847 0
 443 006e 92F90250 		ldrsb	r5, [r2, #2]
 444 0072 002D     		cmp	r5, #0
 445 0074 0DDA     		bge	.L33
 850:Generated_Source\PSoC5/USBFS_std.c ****                     USBFS_EP[curEp].apiEpState = USBFS_EVENT_PENDING;
 446              		.loc 1 850 0
 447 0076 012E     		cmp	r6, #1
 448 0078 01D1     		bne	.L38
 449 007a 0727     		movs	r7, #7
 450 007c 00E0     		b	.L34
 451              	.L38:
 452 007e 0D27     		movs	r7, #13
 453              	.L34:
 850:Generated_Source\PSoC5/USBFS_std.c ****                     USBFS_EP[curEp].apiEpState = USBFS_EVENT_PENDING;
 454              		.loc 1 850 0 is_stmt 0 discriminator 4
 455 0080 4E00     		lsls	r6, r1, #1
 456              	.LVL34:
 457 0082 0E44     		add	r6, r6, r1
 458 0084 B500     		lsls	r5, r6, #2
 459 0086 224E     		ldr	r6, .L41+12
 460 0088 3544     		add	r5, r5, r6
 461 008a 6F71     		strb	r7, [r5, #5]
 851:Generated_Source\PSoC5/USBFS_std.c ****                 }
 462              		.loc 1 851 0 is_stmt 1 discriminator 4
 463 008c 0126     		movs	r6, #1
 464 008e 6E70     		strb	r6, [r5, #1]
 465 0090 0CE0     		b	.L35
 466              	.LVL35:
 467              	.L33:
 856:Generated_Source\PSoC5/USBFS_std.c ****                     USBFS_EP[curEp].apiEpState = USBFS_NO_EVENT_PENDING;
 468              		.loc 1 856 0
 469 0092 012E     		cmp	r6, #1
 470 0094 01D1     		bne	.L39
 471 0096 0527     		movs	r7, #5
 472 0098 00E0     		b	.L36
 473              	.L39:
 474 009a 0927     		movs	r7, #9
 475              	.L36:
 856:Generated_Source\PSoC5/USBFS_std.c ****                     USBFS_EP[curEp].apiEpState = USBFS_NO_EVENT_PENDING;
 476              		.loc 1 856 0 is_stmt 0 discriminator 4
 477 009c 4E00     		lsls	r6, r1, #1
 478              	.LVL36:
 479 009e 0E44     		add	r6, r6, r1
 480 00a0 B500     		lsls	r5, r6, #2
 481 00a2 1B4E     		ldr	r6, .L41+12
 482 00a4 3544     		add	r5, r5, r6
 483 00a6 6F71     		strb	r7, [r5, #5]
 857:Generated_Source\PSoC5/USBFS_std.c ****                 }
 484              		.loc 1 857 0 is_stmt 1 discriminator 4
ARM GAS  C:\Users\CALEBC~1\AppData\Local\Temp\ccBuh6Ys.s 			page 27


 485 00a8 0026     		movs	r6, #0
 486 00aa 6E70     		strb	r6, [r5, #1]
 487              	.L35:
 861:Generated_Source\PSoC5/USBFS_std.c **** 
 488              		.loc 1 861 0
 489 00ac DFF868E0 		ldr	lr, .L41+20
 490 00b0 0F01     		lsls	r7, r1, #4
 491 00b2 0EEB0706 		add	r6, lr, r7
 492 00b6 0125     		movs	r5, #1
 493 00b8 B570     		strb	r5, [r6, #2]
 907:Generated_Source\PSoC5/USBFS_std.c ****                 USBFS_SIE_EP_BASE.sieEp[curEp].epCnt1 = LO8(USBFS_EP[curEp].bufferSize);
 494              		.loc 1 907 0
 495 00ba 01FA05F5 		lsl	r5, r1, r5
 496 00be 2944     		add	r1, r1, r5
 497              	.LVL37:
 498 00c0 8D00     		lsls	r5, r1, #2
 499 00c2 1349     		ldr	r1, .L41+12
 500 00c4 2944     		add	r1, r1, r5
 501 00c6 0D89     		ldrh	r5, [r1, #8]
 502 00c8 C5F30725 		ubfx	r5, r5, #8, #8
 503 00cc 0EF80750 		strb	r5, [lr, r7]
 908:Generated_Source\PSoC5/USBFS_std.c ****                 
 504              		.loc 1 908 0
 505 00d0 0D89     		ldrh	r5, [r1, #8]
 506 00d2 EDB2     		uxtb	r5, r5
 507 00d4 7570     		strb	r5, [r6, #1]
 914:Generated_Source\PSoC5/USBFS_std.c ****                     USBFS_ARB_EP_BASE.arbEp[curEp].rwRaMsb = HI8(USBFS_EP[curEp].buffOffset);
 508              		.loc 1 914 0
 509 00d6 CE88     		ldrh	r6, [r1, #6]
 510 00d8 F6B2     		uxtb	r6, r6
 511 00da 0E4D     		ldr	r5, .L41+16
 512 00dc 3D44     		add	r5, r5, r7
 513 00de AE71     		strb	r6, [r5, #6]
 915:Generated_Source\PSoC5/USBFS_std.c ****                     USBFS_ARB_EP_BASE.arbEp[curEp].rwWa    = LO8(USBFS_EP[curEp].buffOffset);
 514              		.loc 1 915 0
 515 00e0 CE88     		ldrh	r6, [r1, #6]
 516 00e2 C6F30726 		ubfx	r6, r6, #8, #8
 517 00e6 EE71     		strb	r6, [r5, #7]
 916:Generated_Source\PSoC5/USBFS_std.c ****                     USBFS_ARB_EP_BASE.arbEp[curEp].rwWaMsb = HI8(USBFS_EP[curEp].buffOffset);
 518              		.loc 1 916 0
 519 00e8 CE88     		ldrh	r6, [r1, #6]
 520 00ea F6B2     		uxtb	r6, r6
 521 00ec 2E71     		strb	r6, [r5, #4]
 917:Generated_Source\PSoC5/USBFS_std.c ****                 #endif /* (CY_PSOC4) */                
 522              		.loc 1 917 0
 523 00ee C988     		ldrh	r1, [r1, #6]
 524 00f0 C1F30721 		ubfx	r1, r1, #8, #8
 525 00f4 6971     		strb	r1, [r5, #5]
 526              	.L32:
 922:Generated_Source\PSoC5/USBFS_std.c ****         }
 527              		.loc 1 922 0 discriminator 2
 528 00f6 0832     		adds	r2, r2, #8
 529              	.LVL38:
 832:Generated_Source\PSoC5/USBFS_std.c ****         {
 530              		.loc 1 832 0 discriminator 2
 531 00f8 0133     		adds	r3, r3, #1
 532              	.LVL39:
ARM GAS  C:\Users\CALEBC~1\AppData\Local\Temp\ccBuh6Ys.s 			page 28


 533 00fa DBB2     		uxtb	r3, r3
 534              	.LVL40:
 535              	.L31:
 832:Generated_Source\PSoC5/USBFS_std.c ****         {
 536              		.loc 1 832 0 is_stmt 0 discriminator 1
 537 00fc A342     		cmp	r3, r4
 538 00fe 92D3     		bcc	.L37
 539              	.LVL41:
 540              	.L29:
 541 0100 F8BD     		pop	{r3, r4, r5, r6, r7, pc}
 542              	.L42:
 543 0102 00BF     		.align	2
 544              	.L41:
 545 0104 00000000 		.word	USBFS_configuration
 546 0108 00000000 		.word	USBFS_interfaceNumber
 547 010c 00000000 		.word	USBFS_interfaceSetting
 548 0110 00000000 		.word	USBFS_EP
 549 0114 70600040 		.word	1073766512
 550 0118 FC5F0040 		.word	1073766396
 551              		.cfi_endproc
 552              	.LFE5:
 553              		.size	USBFS_ConfigAltChanged, .-USBFS_ConfigAltChanged
 554              		.section	.text.USBFS_GetDeviceTablePtr,"ax",%progbits
 555              		.align	2
 556              		.global	USBFS_GetDeviceTablePtr
 557              		.thumb
 558              		.thumb_func
 559              		.type	USBFS_GetDeviceTablePtr, %function
 560              	USBFS_GetDeviceTablePtr:
 561              	.LFB7:
 968:Generated_Source\PSoC5/USBFS_std.c **** 
 969:Generated_Source\PSoC5/USBFS_std.c **** 
 970:Generated_Source\PSoC5/USBFS_std.c **** #if (USBFS_BOS_ENABLE)
 971:Generated_Source\PSoC5/USBFS_std.c ****     /*******************************************************************************
 972:Generated_Source\PSoC5/USBFS_std.c ****     * Function Name: USBFS_GetBOSPtr
 973:Generated_Source\PSoC5/USBFS_std.c ****     ****************************************************************************//**
 974:Generated_Source\PSoC5/USBFS_std.c ****     *
 975:Generated_Source\PSoC5/USBFS_std.c ****     *  This routine returns a pointer a BOS table entry
 976:Generated_Source\PSoC5/USBFS_std.c ****     *
 977:Generated_Source\PSoC5/USBFS_std.c ****     *  
 978:Generated_Source\PSoC5/USBFS_std.c ****     *
 979:Generated_Source\PSoC5/USBFS_std.c ****     * \return
 980:Generated_Source\PSoC5/USBFS_std.c ****     *  BOS Descriptor pointer or NULL when descriptor does not exist.
 981:Generated_Source\PSoC5/USBFS_std.c ****     *
 982:Generated_Source\PSoC5/USBFS_std.c ****     *******************************************************************************/
 983:Generated_Source\PSoC5/USBFS_std.c ****     const T_USBFS_LUT CYCODE *USBFS_GetBOSPtr(void)
 984:Generated_Source\PSoC5/USBFS_std.c ****                                                             
 985:Generated_Source\PSoC5/USBFS_std.c ****     {
 986:Generated_Source\PSoC5/USBFS_std.c ****         /* Device Table */
 987:Generated_Source\PSoC5/USBFS_std.c ****         const T_USBFS_LUT CYCODE *pTmp;
 988:Generated_Source\PSoC5/USBFS_std.c **** 
 989:Generated_Source\PSoC5/USBFS_std.c ****         pTmp = (const T_USBFS_LUT CYCODE *) USBFS_TABLE[USBFS_device].p_list;
 990:Generated_Source\PSoC5/USBFS_std.c **** 
 991:Generated_Source\PSoC5/USBFS_std.c ****         /* The first entry points to the Device Descriptor,
 992:Generated_Source\PSoC5/USBFS_std.c ****         *  the second entry points to the BOS Descriptor
 993:Generated_Source\PSoC5/USBFS_std.c ****         */
 994:Generated_Source\PSoC5/USBFS_std.c ****         pTmp = &pTmp[1u];
ARM GAS  C:\Users\CALEBC~1\AppData\Local\Temp\ccBuh6Ys.s 			page 29


 995:Generated_Source\PSoC5/USBFS_std.c ****         pTmp = (const T_USBFS_LUT CYCODE *) pTmp->p_list;
 996:Generated_Source\PSoC5/USBFS_std.c ****         return (pTmp);
 997:Generated_Source\PSoC5/USBFS_std.c ****     }
 998:Generated_Source\PSoC5/USBFS_std.c **** #endif /* (USBFS_BOS_ENABLE) */
 999:Generated_Source\PSoC5/USBFS_std.c **** 
1000:Generated_Source\PSoC5/USBFS_std.c **** 
1001:Generated_Source\PSoC5/USBFS_std.c **** /*******************************************************************************
1002:Generated_Source\PSoC5/USBFS_std.c **** * Function Name: USBFS_GetDeviceTablePtr
1003:Generated_Source\PSoC5/USBFS_std.c **** ****************************************************************************//**
1004:Generated_Source\PSoC5/USBFS_std.c **** *
1005:Generated_Source\PSoC5/USBFS_std.c **** *  This routine returns a pointer to the Device table
1006:Generated_Source\PSoC5/USBFS_std.c **** *
1007:Generated_Source\PSoC5/USBFS_std.c **** * \return
1008:Generated_Source\PSoC5/USBFS_std.c **** *  Device Table pointer
1009:Generated_Source\PSoC5/USBFS_std.c **** *
1010:Generated_Source\PSoC5/USBFS_std.c **** *******************************************************************************/
1011:Generated_Source\PSoC5/USBFS_std.c **** const T_USBFS_LUT CYCODE *USBFS_GetDeviceTablePtr(void)
1012:Generated_Source\PSoC5/USBFS_std.c ****                                                             
1013:Generated_Source\PSoC5/USBFS_std.c **** {
 562              		.loc 1 1013 0 is_stmt 1
 563              		.cfi_startproc
 564              		@ args = 0, pretend = 0, frame = 0
 565              		@ frame_needed = 0, uses_anonymous_args = 0
 566              		@ link register save eliminated.
1014:Generated_Source\PSoC5/USBFS_std.c ****     /* Device Table */
1015:Generated_Source\PSoC5/USBFS_std.c ****     return( (const T_USBFS_LUT CYCODE *) USBFS_TABLE[USBFS_device].p_list );
 567              		.loc 1 1015 0
 568 0000 034B     		ldr	r3, .L44
 569 0002 1A78     		ldrb	r2, [r3]	@ zero_extendqisi2
 570 0004 034B     		ldr	r3, .L44+4
 571 0006 03EBC203 		add	r3, r3, r2, lsl #3
1016:Generated_Source\PSoC5/USBFS_std.c **** }
 572              		.loc 1 1016 0
 573 000a 5868     		ldr	r0, [r3, #4]
 574 000c 7047     		bx	lr
 575              	.L45:
 576 000e 00BF     		.align	2
 577              	.L44:
 578 0010 00000000 		.word	USBFS_device
 579 0014 00000000 		.word	USBFS_TABLE
 580              		.cfi_endproc
 581              	.LFE7:
 582              		.size	USBFS_GetDeviceTablePtr, .-USBFS_GetDeviceTablePtr
 583              		.section	.text.USBFS_GetInterfaceClassTablePtr,"ax",%progbits
 584              		.align	2
 585              		.global	USBFS_GetInterfaceClassTablePtr
 586              		.thumb
 587              		.thumb_func
 588              		.type	USBFS_GetInterfaceClassTablePtr, %function
 589              	USBFS_GetInterfaceClassTablePtr:
 590              	.LFB8:
1017:Generated_Source\PSoC5/USBFS_std.c **** 
1018:Generated_Source\PSoC5/USBFS_std.c **** 
1019:Generated_Source\PSoC5/USBFS_std.c **** /*******************************************************************************
1020:Generated_Source\PSoC5/USBFS_std.c **** * Function Name: USB_GetInterfaceClassTablePtr
1021:Generated_Source\PSoC5/USBFS_std.c **** ****************************************************************************//**
1022:Generated_Source\PSoC5/USBFS_std.c **** *
ARM GAS  C:\Users\CALEBC~1\AppData\Local\Temp\ccBuh6Ys.s 			page 30


1023:Generated_Source\PSoC5/USBFS_std.c **** *  This routine returns Interface Class table pointer, which contains
1024:Generated_Source\PSoC5/USBFS_std.c **** *  the relation between interface number and interface class.
1025:Generated_Source\PSoC5/USBFS_std.c **** *
1026:Generated_Source\PSoC5/USBFS_std.c **** * \return
1027:Generated_Source\PSoC5/USBFS_std.c **** *  Interface Class table pointer.
1028:Generated_Source\PSoC5/USBFS_std.c **** *
1029:Generated_Source\PSoC5/USBFS_std.c **** *******************************************************************************/
1030:Generated_Source\PSoC5/USBFS_std.c **** const uint8 CYCODE *USBFS_GetInterfaceClassTablePtr(void)
1031:Generated_Source\PSoC5/USBFS_std.c ****                                                         
1032:Generated_Source\PSoC5/USBFS_std.c **** {
 591              		.loc 1 1032 0
 592              		.cfi_startproc
 593              		@ args = 0, pretend = 0, frame = 0
 594              		@ frame_needed = 0, uses_anonymous_args = 0
 595 0000 08B5     		push	{r3, lr}
 596              		.cfi_def_cfa_offset 8
 597              		.cfi_offset 3, -8
 598              		.cfi_offset 14, -4
1033:Generated_Source\PSoC5/USBFS_std.c ****     const T_USBFS_LUT CYCODE *pTmp;
1034:Generated_Source\PSoC5/USBFS_std.c ****     const uint8 CYCODE *pInterfaceClass;
1035:Generated_Source\PSoC5/USBFS_std.c ****     uint8 currentInterfacesNum;
1036:Generated_Source\PSoC5/USBFS_std.c **** 
1037:Generated_Source\PSoC5/USBFS_std.c ****     pTmp = USBFS_GetConfigTablePtr(USBFS_configuration - 1u);
 599              		.loc 1 1037 0
 600 0002 084B     		ldr	r3, .L50
 601 0004 1878     		ldrb	r0, [r3]	@ zero_extendqisi2
 602 0006 0138     		subs	r0, r0, #1
 603 0008 C0B2     		uxtb	r0, r0
 604 000a FFF7FEFF 		bl	USBFS_GetConfigTablePtr
 605              	.LVL42:
1038:Generated_Source\PSoC5/USBFS_std.c ****     if (pTmp != NULL)
 606              		.loc 1 1038 0
 607 000e 30B1     		cbz	r0, .L48
1039:Generated_Source\PSoC5/USBFS_std.c ****     {
1040:Generated_Source\PSoC5/USBFS_std.c ****         currentInterfacesNum  = ((const uint8 *) pTmp->p_list)[USBFS_CONFIG_DESCR_NUM_INTERFACES];
 608              		.loc 1 1040 0
 609 0010 4268     		ldr	r2, [r0, #4]
 610 0012 1279     		ldrb	r2, [r2, #4]	@ zero_extendqisi2
 611              	.LVL43:
1041:Generated_Source\PSoC5/USBFS_std.c ****         /* Third entry in the LUT starts the Interface Table pointers */
1042:Generated_Source\PSoC5/USBFS_std.c ****         /* The INTERFACE_CLASS table is located after all interfaces */
1043:Generated_Source\PSoC5/USBFS_std.c ****         pTmp = &pTmp[currentInterfacesNum + 2u];
 612              		.loc 1 1043 0
 613 0014 0232     		adds	r2, r2, #2
 614              	.LVL44:
 615 0016 00EBC203 		add	r3, r0, r2, lsl #3
 616              	.LVL45:
1044:Generated_Source\PSoC5/USBFS_std.c ****         pInterfaceClass = (const uint8 CYCODE *) pTmp->p_list;
 617              		.loc 1 1044 0
 618 001a 5868     		ldr	r0, [r3, #4]
 619              	.LVL46:
 620 001c 08BD     		pop	{r3, pc}
 621              	.LVL47:
 622              	.L48:
1045:Generated_Source\PSoC5/USBFS_std.c ****     }
1046:Generated_Source\PSoC5/USBFS_std.c ****     else
1047:Generated_Source\PSoC5/USBFS_std.c ****     {
ARM GAS  C:\Users\CALEBC~1\AppData\Local\Temp\ccBuh6Ys.s 			page 31


1048:Generated_Source\PSoC5/USBFS_std.c ****         pInterfaceClass = (const uint8 CYCODE *) NULL;
 623              		.loc 1 1048 0
 624 001e 0020     		movs	r0, #0
 625              	.LVL48:
1049:Generated_Source\PSoC5/USBFS_std.c ****     }
1050:Generated_Source\PSoC5/USBFS_std.c **** 
1051:Generated_Source\PSoC5/USBFS_std.c ****     return (pInterfaceClass);
1052:Generated_Source\PSoC5/USBFS_std.c **** }
 626              		.loc 1 1052 0
 627 0020 08BD     		pop	{r3, pc}
 628              	.L51:
 629 0022 00BF     		.align	2
 630              	.L50:
 631 0024 00000000 		.word	USBFS_configuration
 632              		.cfi_endproc
 633              	.LFE8:
 634              		.size	USBFS_GetInterfaceClassTablePtr, .-USBFS_GetInterfaceClassTablePtr
 635              		.section	.text.USBFS_Config,"ax",%progbits
 636              		.align	2
 637              		.global	USBFS_Config
 638              		.thumb
 639              		.thumb_func
 640              		.type	USBFS_Config, %function
 641              	USBFS_Config:
 642              	.LFB4:
 571:Generated_Source\PSoC5/USBFS_std.c ****     uint8 ep;
 643              		.loc 1 571 0
 644              		.cfi_startproc
 645              		@ args = 0, pretend = 0, frame = 0
 646              		@ frame_needed = 0, uses_anonymous_args = 0
 647              	.LVL49:
 648 0000 2DE9F041 		push	{r4, r5, r6, r7, r8, lr}
 649              		.cfi_def_cfa_offset 24
 650              		.cfi_offset 4, -24
 651              		.cfi_offset 5, -20
 652              		.cfi_offset 6, -16
 653              		.cfi_offset 7, -12
 654              		.cfi_offset 8, -8
 655              		.cfi_offset 14, -4
 656              	.LVL50:
 586:Generated_Source\PSoC5/USBFS_std.c ****     {
 657              		.loc 1 586 0
 658 0004 0023     		movs	r3, #0
 659 0006 10E0     		b	.L53
 660              	.LVL51:
 661              	.L54:
 588:Generated_Source\PSoC5/USBFS_std.c ****         USBFS_EP[ep].hwEpState  = 0u;
 662              		.loc 1 588 0 discriminator 3
 663 0008 6A4D     		ldr	r5, .L78
 664 000a 5900     		lsls	r1, r3, #1
 665 000c CA18     		adds	r2, r1, r3
 666 000e 9600     		lsls	r6, r2, #2
 667 0010 AC19     		adds	r4, r5, r6
 668 0012 0022     		movs	r2, #0
 669 0014 AA55     		strb	r2, [r5, r6]
 589:Generated_Source\PSoC5/USBFS_std.c ****         USBFS_EP[ep].epToggle   = 0u;
 670              		.loc 1 589 0 discriminator 3
ARM GAS  C:\Users\CALEBC~1\AppData\Local\Temp\ccBuh6Ys.s 			page 32


 671 0016 A270     		strb	r2, [r4, #2]
 590:Generated_Source\PSoC5/USBFS_std.c ****         USBFS_EP[ep].bufferSize = 0u;
 672              		.loc 1 590 0 discriminator 3
 673 0018 E270     		strb	r2, [r4, #3]
 591:Generated_Source\PSoC5/USBFS_std.c ****         USBFS_EP[ep].interface  = 0u;
 674              		.loc 1 591 0 discriminator 3
 675 001a 2281     		strh	r2, [r4, #8]	@ movhi
 592:Generated_Source\PSoC5/USBFS_std.c ****         USBFS_EP[ep].apiEpState = USBFS_NO_EVENT_PENDING;
 676              		.loc 1 592 0 discriminator 3
 677 001c A272     		strb	r2, [r4, #10]
 593:Generated_Source\PSoC5/USBFS_std.c ****         USBFS_EP[ep].epMode     = USBFS_MODE_DISABLE;   
 678              		.loc 1 593 0 discriminator 3
 679 001e 6270     		strb	r2, [r4, #1]
 594:Generated_Source\PSoC5/USBFS_std.c ****     }
 680              		.loc 1 594 0 discriminator 3
 681 0020 3446     		mov	r4, r6
 682 0022 2C44     		add	r4, r4, r5
 683 0024 6271     		strb	r2, [r4, #5]
 586:Generated_Source\PSoC5/USBFS_std.c ****     {
 684              		.loc 1 586 0 discriminator 3
 685 0026 0133     		adds	r3, r3, #1
 686              	.LVL52:
 687 0028 DBB2     		uxtb	r3, r3
 688              	.LVL53:
 689              	.L53:
 586:Generated_Source\PSoC5/USBFS_std.c ****     {
 690              		.loc 1 586 0 is_stmt 0 discriminator 1
 691 002a 082B     		cmp	r3, #8
 692 002c ECD9     		bls	.L54
 598:Generated_Source\PSoC5/USBFS_std.c ****     {
 693              		.loc 1 598 0 is_stmt 1
 694 002e 40B9     		cbnz	r0, .L74
 695 0030 0AE0     		b	.L56
 696              	.LVL54:
 697              	.L57:
 602:Generated_Source\PSoC5/USBFS_std.c ****             USBFS_interfaceSettingLast[i] = 0u;
 698              		.loc 1 602 0 discriminator 3
 699 0032 0022     		movs	r2, #0
 700 0034 6049     		ldr	r1, .L78+4
 701 0036 CA54     		strb	r2, [r1, r3]
 603:Generated_Source\PSoC5/USBFS_std.c ****         }
 702              		.loc 1 603 0 discriminator 3
 703 0038 6049     		ldr	r1, .L78+8
 704 003a CA54     		strb	r2, [r1, r3]
 600:Generated_Source\PSoC5/USBFS_std.c ****         {
 705              		.loc 1 600 0 discriminator 3
 706 003c 0133     		adds	r3, r3, #1
 707              	.LVL55:
 708 003e DBB2     		uxtb	r3, r3
 709              	.LVL56:
 710 0040 00E0     		b	.L55
 711              	.LVL57:
 712              	.L74:
 713 0042 0023     		movs	r3, #0
 714              	.LVL58:
 715              	.L55:
 600:Generated_Source\PSoC5/USBFS_std.c ****         {
ARM GAS  C:\Users\CALEBC~1\AppData\Local\Temp\ccBuh6Ys.s 			page 33


 716              		.loc 1 600 0 is_stmt 0 discriminator 1
 717 0044 002B     		cmp	r3, #0
 718 0046 F4D0     		beq	.L57
 719              	.LVL59:
 720              	.L56:
 608:Generated_Source\PSoC5/USBFS_std.c ****     {
 721              		.loc 1 608 0 is_stmt 1
 722 0048 5D4B     		ldr	r3, .L78+12
 723 004a 1B78     		ldrb	r3, [r3]	@ zero_extendqisi2
 724 004c 13F0FF0F 		tst	r3, #255
 725 0050 00F0AD80 		beq	.L52
 614:Generated_Source\PSoC5/USBFS_std.c ****         
 726              		.loc 1 614 0
 727 0054 5A4B     		ldr	r3, .L78+12
 728 0056 1878     		ldrb	r0, [r3]	@ zero_extendqisi2
 729              	.LVL60:
 730 0058 0138     		subs	r0, r0, #1
 731 005a C0B2     		uxtb	r0, r0
 732 005c FFF7FEFF 		bl	USBFS_GetConfigTablePtr
 733              	.LVL61:
 617:Generated_Source\PSoC5/USBFS_std.c ****         if ((pDescr[USBFS_CONFIG_DESCR_ATTRIB] & USBFS_CONFIG_DESCR_ATTRIB_SELF_POWERED) != 0u)
 734              		.loc 1 617 0
 735 0060 4368     		ldr	r3, [r0, #4]
 736              	.LVL62:
 618:Generated_Source\PSoC5/USBFS_std.c ****         {
 737              		.loc 1 618 0
 738 0062 DB79     		ldrb	r3, [r3, #7]	@ zero_extendqisi2
 739              	.LVL63:
 740 0064 13F0400F 		tst	r3, #64
 741 0068 05D0     		beq	.L59
 620:Generated_Source\PSoC5/USBFS_std.c ****         }
 742              		.loc 1 620 0
 743 006a 564A     		ldr	r2, .L78+16
 744 006c 1378     		ldrb	r3, [r2]	@ zero_extendqisi2
 745 006e 43F00103 		orr	r3, r3, #1
 746 0072 1370     		strb	r3, [r2]
 747 0074 04E0     		b	.L60
 748              	.L59:
 624:Generated_Source\PSoC5/USBFS_std.c ****         }
 749              		.loc 1 624 0
 750 0076 534A     		ldr	r2, .L78+16
 751 0078 1378     		ldrb	r3, [r2]	@ zero_extendqisi2
 752 007a 03F0FE03 		and	r3, r3, #254
 753 007e 1370     		strb	r3, [r2]
 754              	.L60:
 755              	.LVL64:
 629:Generated_Source\PSoC5/USBFS_std.c **** 
 756              		.loc 1 629 0
 757 0080 057A     		ldrb	r5, [r0, #8]	@ zero_extendqisi2
 758              	.LVL65:
 687:Generated_Source\PSoC5/USBFS_std.c ****             {
 759              		.loc 1 687 0
 760 0082 0124     		movs	r4, #1
 761 0084 64E0     		b	.L61
 762              	.LVL66:
 763              	.L69:
 690:Generated_Source\PSoC5/USBFS_std.c ****                 /* Find max length for each EP and select it (length could be different in differen
ARM GAS  C:\Users\CALEBC~1\AppData\Local\Temp\ccBuh6Ys.s 			page 34


 764              		.loc 1 690 0
 765 0086 C168     		ldr	r1, [r0, #12]
 766              	.LVL67:
 694:Generated_Source\PSoC5/USBFS_std.c ****                 {
 767              		.loc 1 694 0
 768 0088 0023     		movs	r3, #0
 769 008a 5DE0     		b	.L62
 770              	.LVL68:
 771              	.L68:
 696:Generated_Source\PSoC5/USBFS_std.c ****                     {
 772              		.loc 1 696 0
 773 008c 8A78     		ldrb	r2, [r1, #2]	@ zero_extendqisi2
 774 008e 02F07F02 		and	r2, r2, #127
 775 0092 9442     		cmp	r4, r2
 776 0094 55D1     		bne	.L63
 699:Generated_Source\PSoC5/USBFS_std.c ****                         {
 777              		.loc 1 699 0
 778 0096 2646     		mov	r6, r4
 779 0098 04EB4407 		add	r7, r4, r4, lsl #1
 780 009c BA00     		lsls	r2, r7, #2
 781 009e 454F     		ldr	r7, .L78
 782 00a0 3A44     		add	r2, r2, r7
 783 00a2 1289     		ldrh	r2, [r2, #8]
 784 00a4 92B2     		uxth	r2, r2
 785 00a6 8F88     		ldrh	r7, [r1, #4]
 786 00a8 BA42     		cmp	r2, r7
 787 00aa 07D2     		bcs	.L64
 701:Generated_Source\PSoC5/USBFS_std.c ****                         }
 788              		.loc 1 701 0
 789 00ac 04EB440E 		add	lr, r4, r4, lsl #1
 790 00b0 4FEA8E02 		lsl	r2, lr, #2
 791 00b4 DFF8FCE0 		ldr	lr, .L78
 792 00b8 7244     		add	r2, r2, lr
 793 00ba 1781     		strh	r7, [r2, #8]	@ movhi
 794              	.L64:
 705:Generated_Source\PSoC5/USBFS_std.c ****                         {                            
 795              		.loc 1 705 0
 796 00bc 0A78     		ldrb	r2, [r1]	@ zero_extendqisi2
 797 00be 3E4F     		ldr	r7, .L78+4
 798 00c0 BA5C     		ldrb	r2, [r7, r2]	@ zero_extendqisi2
 799 00c2 D2B2     		uxtb	r2, r2
 800 00c4 4F78     		ldrb	r7, [r1, #1]	@ zero_extendqisi2
 801 00c6 BA42     		cmp	r2, r7
 802 00c8 3BD1     		bne	.L63
 707:Generated_Source\PSoC5/USBFS_std.c ****                             USBFS_EP[i].attrib = pEP->attributes;
 803              		.loc 1 707 0
 804 00ca 91F802C0 		ldrb	ip, [r1, #2]	@ zero_extendqisi2
 805 00ce DFF8E4E0 		ldr	lr, .L78
 806 00d2 7200     		lsls	r2, r6, #1
 807 00d4 3244     		add	r2, r2, r6
 808 00d6 9700     		lsls	r7, r2, #2
 809 00d8 0EEB0702 		add	r2, lr, r7
 810 00dc 82F804C0 		strb	ip, [r2, #4]
 708:Generated_Source\PSoC5/USBFS_std.c ****                             
 811              		.loc 1 708 0
 812 00e0 CA78     		ldrb	r2, [r1, #3]	@ zero_extendqisi2
 813 00e2 0EF80720 		strb	r2, [lr, r7]
ARM GAS  C:\Users\CALEBC~1\AppData\Local\Temp\ccBuh6Ys.s 			page 35


 710:Generated_Source\PSoC5/USBFS_std.c ****                             
 814              		.loc 1 710 0
 815 00e6 CA78     		ldrb	r2, [r1, #3]	@ zero_extendqisi2
 816 00e8 02F00302 		and	r2, r2, #3
 817              	.LVL69:
 712:Generated_Source\PSoC5/USBFS_std.c ****                             {
 818              		.loc 1 712 0
 819 00ec 91F90270 		ldrsb	r7, [r1, #2]
 820 00f0 002F     		cmp	r7, #0
 821 00f2 13DA     		bge	.L65
 715:Generated_Source\PSoC5/USBFS_std.c ****                                 USBFS_EP[i].apiEpState = USBFS_EVENT_PENDING;
 822              		.loc 1 715 0
 823 00f4 012A     		cmp	r2, #1
 824 00f6 02D1     		bne	.L75
 825 00f8 4FF00708 		mov	r8, #7
 826 00fc 01E0     		b	.L66
 827              	.L75:
 828 00fe 4FF00D08 		mov	r8, #13
 829              	.L66:
 715:Generated_Source\PSoC5/USBFS_std.c ****                                 USBFS_EP[i].apiEpState = USBFS_EVENT_PENDING;
 830              		.loc 1 715 0 is_stmt 0 discriminator 4
 831 0102 DFF8B0E0 		ldr	lr, .L78
 832 0106 7200     		lsls	r2, r6, #1
 833              	.LVL70:
 834 0108 02EB060C 		add	ip, r2, r6
 835 010c 4FEA8C07 		lsl	r7, ip, #2
 836 0110 7744     		add	r7, r7, lr
 837 0112 87F80580 		strb	r8, [r7, #5]
 838              	.LVL71:
 716:Generated_Source\PSoC5/USBFS_std.c ****                                 
 839              		.loc 1 716 0 is_stmt 1 discriminator 4
 840 0116 0126     		movs	r6, #1
 841 0118 7E70     		strb	r6, [r7, #1]
 842 011a 12E0     		b	.L63
 843              	.LVL72:
 844              	.L65:
 728:Generated_Source\PSoC5/USBFS_std.c ****                                 USBFS_EP[i].apiEpState = USBFS_NO_EVENT_PENDING;
 845              		.loc 1 728 0
 846 011c 012A     		cmp	r2, #1
 847 011e 02D1     		bne	.L76
 848 0120 4FF00508 		mov	r8, #5
 849 0124 01E0     		b	.L67
 850              	.L76:
 851 0126 4FF00908 		mov	r8, #9
 852              	.L67:
 728:Generated_Source\PSoC5/USBFS_std.c ****                                 USBFS_EP[i].apiEpState = USBFS_NO_EVENT_PENDING;
 853              		.loc 1 728 0 is_stmt 0 discriminator 4
 854 012a DFF888E0 		ldr	lr, .L78
 855 012e 7200     		lsls	r2, r6, #1
 856              	.LVL73:
 857 0130 02EB060C 		add	ip, r2, r6
 858 0134 4FEA8C07 		lsl	r7, ip, #2
 859 0138 7744     		add	r7, r7, lr
 860 013a 87F80580 		strb	r8, [r7, #5]
 861              	.LVL74:
 729:Generated_Source\PSoC5/USBFS_std.c ****                                 
 862              		.loc 1 729 0 is_stmt 1 discriminator 4
ARM GAS  C:\Users\CALEBC~1\AppData\Local\Temp\ccBuh6Ys.s 			page 36


 863 013e 0026     		movs	r6, #0
 864 0140 7E70     		strb	r6, [r7, #1]
 865              	.L63:
 752:Generated_Source\PSoC5/USBFS_std.c ****                 }
 866              		.loc 1 752 0 discriminator 2
 867 0142 0831     		adds	r1, r1, #8
 868              	.LVL75:
 694:Generated_Source\PSoC5/USBFS_std.c ****                 {
 869              		.loc 1 694 0 discriminator 2
 870 0144 0133     		adds	r3, r3, #1
 871              	.LVL76:
 872 0146 DBB2     		uxtb	r3, r3
 873              	.LVL77:
 874              	.L62:
 694:Generated_Source\PSoC5/USBFS_std.c ****                 {
 875              		.loc 1 694 0 is_stmt 0 discriminator 1
 876 0148 AB42     		cmp	r3, r5
 877 014a 9FD3     		bcc	.L68
 687:Generated_Source\PSoC5/USBFS_std.c ****             {
 878              		.loc 1 687 0 is_stmt 1 discriminator 2
 879 014c 0134     		adds	r4, r4, #1
 880              	.LVL78:
 881 014e E4B2     		uxtb	r4, r4
 882              	.LVL79:
 883              	.L61:
 687:Generated_Source\PSoC5/USBFS_std.c ****             {
 884              		.loc 1 687 0 is_stmt 0 discriminator 1
 885 0150 082C     		cmp	r4, #8
 886 0152 98D9     		bls	.L69
 762:Generated_Source\PSoC5/USBFS_std.c ****         for (i = 0u; i < ep; i++)
 887              		.loc 1 762 0 is_stmt 1
 888 0154 C068     		ldr	r0, [r0, #12]
 889              	.LVL80:
 763:Generated_Source\PSoC5/USBFS_std.c ****         {
 890              		.loc 1 763 0
 891 0156 0022     		movs	r2, #0
 892 0158 0CE0     		b	.L70
 893              	.LVL81:
 894              	.L71:
 766:Generated_Source\PSoC5/USBFS_std.c ****             pEP = &pEP[1u];
 895              		.loc 1 766 0 discriminator 3
 896 015a 8378     		ldrb	r3, [r0, #2]	@ zero_extendqisi2
 897 015c 03F07F03 		and	r3, r3, #127
 898 0160 10F8084B 		ldrb	r4, [r0], #8	@ zero_extendqisi2
 899              	.LVL82:
 900 0164 03EB4303 		add	r3, r3, r3, lsl #1
 901 0168 9900     		lsls	r1, r3, #2
 902 016a 124B     		ldr	r3, .L78
 903 016c 1944     		add	r1, r1, r3
 904 016e 8C72     		strb	r4, [r1, #10]
 905              	.LVL83:
 763:Generated_Source\PSoC5/USBFS_std.c ****         {
 906              		.loc 1 763 0 discriminator 3
 907 0170 0132     		adds	r2, r2, #1
 908              	.LVL84:
 909 0172 D2B2     		uxtb	r2, r2
 910              	.LVL85:
ARM GAS  C:\Users\CALEBC~1\AppData\Local\Temp\ccBuh6Ys.s 			page 37


 911              	.L70:
 763:Generated_Source\PSoC5/USBFS_std.c ****         {
 912              		.loc 1 763 0 is_stmt 0 discriminator 1
 913 0174 AA42     		cmp	r2, r5
 914 0176 F0D3     		bcc	.L71
 771:Generated_Source\PSoC5/USBFS_std.c ****         
 915              		.loc 1 771 0 is_stmt 1
 916 0178 FFF7FEFF 		bl	USBFS_GetInterfaceClassTablePtr
 917              	.LVL86:
 918 017c 124B     		ldr	r3, .L78+20
 919 017e 1860     		str	r0, [r3]
 920              	.LVL87:
 775:Generated_Source\PSoC5/USBFS_std.c ****         for (ep = USBFS_EP1; ep < USBFS_MAX_EP; ++ep)
 921              		.loc 1 775 0
 922 0180 0023     		movs	r3, #0
 776:Generated_Source\PSoC5/USBFS_std.c ****         {
 923              		.loc 1 776 0
 924 0182 0121     		movs	r1, #1
 925 0184 0FE0     		b	.L72
 926              	.LVL88:
 927              	.L73:
 778:Generated_Source\PSoC5/USBFS_std.c ****             buffCount += USBFS_EP[ep].bufferSize;
 928              		.loc 1 778 0 discriminator 3
 929 0186 0B4D     		ldr	r5, .L78
 930 0188 4A00     		lsls	r2, r1, #1
 931 018a 5018     		adds	r0, r2, r1
 932 018c 8400     		lsls	r4, r0, #2
 933 018e 2C44     		add	r4, r4, r5
 934 0190 E380     		strh	r3, [r4, #6]	@ movhi
 779:Generated_Source\PSoC5/USBFS_std.c ****             
 935              		.loc 1 779 0 discriminator 3
 936 0192 2289     		ldrh	r2, [r4, #8]
 937 0194 92B2     		uxth	r2, r2
 938 0196 1344     		add	r3, r3, r2
 939              	.LVL89:
 940 0198 9BB2     		uxth	r3, r3
 941              	.LVL90:
 783:Generated_Source\PSoC5/USBFS_std.c ****         #endif /* (USBFS_GEN_16BITS_EP_ACCESS) */            
 942              		.loc 1 783 0 discriminator 3
 943 019a 03F00102 		and	r2, r3, #1
 944 019e 1344     		add	r3, r3, r2
 945              	.LVL91:
 946 01a0 9BB2     		uxth	r3, r3
 947              	.LVL92:
 776:Generated_Source\PSoC5/USBFS_std.c ****         {
 948              		.loc 1 776 0 discriminator 3
 949 01a2 0131     		adds	r1, r1, #1
 950              	.LVL93:
 951 01a4 C9B2     		uxtb	r1, r1
 952              	.LVL94:
 953              	.L72:
 776:Generated_Source\PSoC5/USBFS_std.c ****         {
 954              		.loc 1 776 0 is_stmt 0 discriminator 1
 955 01a6 0829     		cmp	r1, #8
 956 01a8 EDD9     		bls	.L73
 789:Generated_Source\PSoC5/USBFS_std.c ****     }
 957              		.loc 1 789 0 is_stmt 1
ARM GAS  C:\Users\CALEBC~1\AppData\Local\Temp\ccBuh6Ys.s 			page 38


 958 01aa FFF7FEFF 		bl	USBFS_ConfigReg
 959              	.LVL95:
 960              	.L52:
 961 01ae BDE8F081 		pop	{r4, r5, r6, r7, r8, pc}
 962              	.L79:
 963 01b2 00BF     		.align	2
 964              	.L78:
 965 01b4 00000000 		.word	USBFS_EP
 966 01b8 00000000 		.word	USBFS_interfaceSetting
 967 01bc 00000000 		.word	USBFS_interfaceSettingLast
 968 01c0 00000000 		.word	USBFS_configuration
 969 01c4 00000000 		.word	USBFS_deviceStatus
 970 01c8 00000000 		.word	USBFS_interfaceClass
 971              		.cfi_endproc
 972              	.LFE4:
 973              		.size	USBFS_Config, .-USBFS_Config
 974              		.section	.text.USBFS_TerminateEP,"ax",%progbits
 975              		.align	2
 976              		.global	USBFS_TerminateEP
 977              		.thumb
 978              		.thumb_func
 979              		.type	USBFS_TerminateEP, %function
 980              	USBFS_TerminateEP:
 981              	.LFB9:
1053:Generated_Source\PSoC5/USBFS_std.c **** 
1054:Generated_Source\PSoC5/USBFS_std.c **** 
1055:Generated_Source\PSoC5/USBFS_std.c **** /*******************************************************************************
1056:Generated_Source\PSoC5/USBFS_std.c **** * Function Name: USBFS_TerminateEP
1057:Generated_Source\PSoC5/USBFS_std.c **** ****************************************************************************//**
1058:Generated_Source\PSoC5/USBFS_std.c **** *
1059:Generated_Source\PSoC5/USBFS_std.c **** *  This function terminates the specified USBFS endpoint.
1060:Generated_Source\PSoC5/USBFS_std.c **** *  This function should be used before endpoint reconfiguration.
1061:Generated_Source\PSoC5/USBFS_std.c **** *
1062:Generated_Source\PSoC5/USBFS_std.c **** *  \param ep Contains the data endpoint number.
1063:Generated_Source\PSoC5/USBFS_std.c **** *
1064:Generated_Source\PSoC5/USBFS_std.c **** *  \reentrant
1065:Generated_Source\PSoC5/USBFS_std.c **** *  No.
1066:Generated_Source\PSoC5/USBFS_std.c **** *
1067:Generated_Source\PSoC5/USBFS_std.c **** * \sideeffect
1068:Generated_Source\PSoC5/USBFS_std.c **** * 
1069:Generated_Source\PSoC5/USBFS_std.c **** * The device responds with a NAK for any transactions on the selected endpoint.
1070:Generated_Source\PSoC5/USBFS_std.c **** *   
1071:Generated_Source\PSoC5/USBFS_std.c **** *******************************************************************************/
1072:Generated_Source\PSoC5/USBFS_std.c **** void USBFS_TerminateEP(uint8 epNumber) 
1073:Generated_Source\PSoC5/USBFS_std.c **** {
 982              		.loc 1 1073 0
 983              		.cfi_startproc
 984              		@ args = 0, pretend = 0, frame = 0
 985              		@ frame_needed = 0, uses_anonymous_args = 0
 986              		@ link register save eliminated.
 987              	.LVL96:
1074:Generated_Source\PSoC5/USBFS_std.c ****     /* Get endpoint number */
1075:Generated_Source\PSoC5/USBFS_std.c ****     epNumber &= USBFS_DIR_UNUSED;
 988              		.loc 1 1075 0
 989 0000 00F07F00 		and	r0, r0, #127
 990              	.LVL97:
1076:Generated_Source\PSoC5/USBFS_std.c **** 
ARM GAS  C:\Users\CALEBC~1\AppData\Local\Temp\ccBuh6Ys.s 			page 39


1077:Generated_Source\PSoC5/USBFS_std.c ****     if ((epNumber > USBFS_EP0) && (epNumber < USBFS_MAX_EP))
 991              		.loc 1 1077 0
 992 0004 431E     		subs	r3, r0, #1
 993 0006 DBB2     		uxtb	r3, r3
 994 0008 072B     		cmp	r3, #7
 995 000a 19D8     		bhi	.L80
1078:Generated_Source\PSoC5/USBFS_std.c ****     {
1079:Generated_Source\PSoC5/USBFS_std.c ****         /* Set the endpoint Halt */
1080:Generated_Source\PSoC5/USBFS_std.c ****         USBFS_EP[epNumber].hwEpState |= USBFS_ENDPOINT_STATUS_HALT;
 996              		.loc 1 1080 0
 997 000c 4200     		lsls	r2, r0, #1
 998 000e 0244     		add	r2, r2, r0
 999 0010 9300     		lsls	r3, r2, #2
 1000 0012 0C4A     		ldr	r2, .L83
 1001 0014 1344     		add	r3, r3, r2
 1002 0016 9A78     		ldrb	r2, [r3, #2]	@ zero_extendqisi2
 1003 0018 42F00102 		orr	r2, r2, #1
 1004 001c 9A70     		strb	r2, [r3, #2]
1081:Generated_Source\PSoC5/USBFS_std.c **** 
1082:Generated_Source\PSoC5/USBFS_std.c ****         /* Clear the data toggle */
1083:Generated_Source\PSoC5/USBFS_std.c ****         USBFS_EP[epNumber].epToggle = 0u;
 1005              		.loc 1 1083 0
 1006 001e 0022     		movs	r2, #0
 1007 0020 DA70     		strb	r2, [r3, #3]
1084:Generated_Source\PSoC5/USBFS_std.c ****         USBFS_EP[epNumber].apiEpState = USBFS_NO_EVENT_ALLOWED;
 1008              		.loc 1 1084 0
 1009 0022 0222     		movs	r2, #2
 1010 0024 5A70     		strb	r2, [r3, #1]
1085:Generated_Source\PSoC5/USBFS_std.c **** 
1086:Generated_Source\PSoC5/USBFS_std.c ****         if ((USBFS_EP[epNumber].addr & USBFS_DIR_IN) != 0u)
 1011              		.loc 1 1086 0
 1012 0026 1B79     		ldrb	r3, [r3, #4]	@ zero_extendqisi2
 1013 0028 13F0800F 		tst	r3, #128
 1014 002c 04D0     		beq	.L82
1087:Generated_Source\PSoC5/USBFS_std.c ****         {   
1088:Generated_Source\PSoC5/USBFS_std.c ****             /* IN Endpoint */
1089:Generated_Source\PSoC5/USBFS_std.c ****             USBFS_SIE_EP_BASE.sieEp[epNumber].epCr0 = USBFS_MODE_NAK_IN;
 1015              		.loc 1 1089 0
 1016 002e 0001     		lsls	r0, r0, #4
 1017              	.LVL98:
 1018 0030 054B     		ldr	r3, .L83+4
 1019 0032 0C22     		movs	r2, #12
 1020 0034 1A54     		strb	r2, [r3, r0]
 1021 0036 7047     		bx	lr
 1022              	.LVL99:
 1023              	.L82:
1090:Generated_Source\PSoC5/USBFS_std.c ****         }
1091:Generated_Source\PSoC5/USBFS_std.c ****         else
1092:Generated_Source\PSoC5/USBFS_std.c ****         {
1093:Generated_Source\PSoC5/USBFS_std.c ****             /* OUT Endpoint */
1094:Generated_Source\PSoC5/USBFS_std.c ****             USBFS_SIE_EP_BASE.sieEp[epNumber].epCr0 = USBFS_MODE_NAK_OUT;
 1024              		.loc 1 1094 0
 1025 0038 0001     		lsls	r0, r0, #4
 1026              	.LVL100:
 1027 003a 034B     		ldr	r3, .L83+4
 1028 003c 0822     		movs	r2, #8
 1029 003e 1A54     		strb	r2, [r3, r0]
ARM GAS  C:\Users\CALEBC~1\AppData\Local\Temp\ccBuh6Ys.s 			page 40


 1030              	.L80:
 1031 0040 7047     		bx	lr
 1032              	.L84:
 1033 0042 00BF     		.align	2
 1034              	.L83:
 1035 0044 00000000 		.word	USBFS_EP
 1036 0048 FE5F0040 		.word	1073766398
 1037              		.cfi_endproc
 1038              	.LFE9:
 1039              		.size	USBFS_TerminateEP, .-USBFS_TerminateEP
 1040              		.section	.text.USBFS_SetEndpointHalt,"ax",%progbits
 1041              		.align	2
 1042              		.global	USBFS_SetEndpointHalt
 1043              		.thumb
 1044              		.thumb_func
 1045              		.type	USBFS_SetEndpointHalt, %function
 1046              	USBFS_SetEndpointHalt:
 1047              	.LFB10:
1095:Generated_Source\PSoC5/USBFS_std.c ****         }
1096:Generated_Source\PSoC5/USBFS_std.c ****     }
1097:Generated_Source\PSoC5/USBFS_std.c **** }
1098:Generated_Source\PSoC5/USBFS_std.c **** 
1099:Generated_Source\PSoC5/USBFS_std.c **** 
1100:Generated_Source\PSoC5/USBFS_std.c **** /*******************************************************************************
1101:Generated_Source\PSoC5/USBFS_std.c **** * Function Name: USBFS_SetEndpointHalt
1102:Generated_Source\PSoC5/USBFS_std.c **** ****************************************************************************//**
1103:Generated_Source\PSoC5/USBFS_std.c **** *
1104:Generated_Source\PSoC5/USBFS_std.c **** *  This routine handles set endpoint halt.
1105:Generated_Source\PSoC5/USBFS_std.c **** *
1106:Generated_Source\PSoC5/USBFS_std.c **** * \return
1107:Generated_Source\PSoC5/USBFS_std.c **** *  requestHandled.
1108:Generated_Source\PSoC5/USBFS_std.c **** *
1109:Generated_Source\PSoC5/USBFS_std.c **** * \reentrant
1110:Generated_Source\PSoC5/USBFS_std.c **** *  No.
1111:Generated_Source\PSoC5/USBFS_std.c **** *
1112:Generated_Source\PSoC5/USBFS_std.c **** *******************************************************************************/
1113:Generated_Source\PSoC5/USBFS_std.c **** uint8 USBFS_SetEndpointHalt(void) 
1114:Generated_Source\PSoC5/USBFS_std.c **** {
 1048              		.loc 1 1114 0
 1049              		.cfi_startproc
 1050              		@ args = 0, pretend = 0, frame = 0
 1051              		@ frame_needed = 0, uses_anonymous_args = 0
 1052 0000 08B5     		push	{r3, lr}
 1053              		.cfi_def_cfa_offset 8
 1054              		.cfi_offset 3, -8
 1055              		.cfi_offset 14, -4
 1056              	.LVL101:
1115:Generated_Source\PSoC5/USBFS_std.c ****     uint8 requestHandled = USBFS_FALSE;
1116:Generated_Source\PSoC5/USBFS_std.c ****     uint8 ep;
1117:Generated_Source\PSoC5/USBFS_std.c ****     
1118:Generated_Source\PSoC5/USBFS_std.c ****     /* Set endpoint halt */
1119:Generated_Source\PSoC5/USBFS_std.c ****     ep = USBFS_wIndexLoReg & USBFS_DIR_UNUSED;
 1057              		.loc 1 1119 0
 1058 0002 154B     		ldr	r3, .L91
 1059 0004 1B79     		ldrb	r3, [r3, #4]	@ zero_extendqisi2
 1060 0006 03F07F03 		and	r3, r3, #127
 1061              	.LVL102:
ARM GAS  C:\Users\CALEBC~1\AppData\Local\Temp\ccBuh6Ys.s 			page 41


1120:Generated_Source\PSoC5/USBFS_std.c **** 
1121:Generated_Source\PSoC5/USBFS_std.c ****     if ((ep > USBFS_EP0) && (ep < USBFS_MAX_EP))
 1062              		.loc 1 1121 0
 1063 000a 5A1E     		subs	r2, r3, #1
 1064 000c D2B2     		uxtb	r2, r2
 1065 000e 072A     		cmp	r2, #7
 1066 0010 20D8     		bhi	.L89
1122:Generated_Source\PSoC5/USBFS_std.c ****     {
1123:Generated_Source\PSoC5/USBFS_std.c ****         /* Set the endpoint Halt */
1124:Generated_Source\PSoC5/USBFS_std.c ****         USBFS_EP[ep].hwEpState |= (USBFS_ENDPOINT_STATUS_HALT);
 1067              		.loc 1 1124 0
 1068 0012 5900     		lsls	r1, r3, #1
 1069 0014 1944     		add	r1, r1, r3
 1070 0016 8A00     		lsls	r2, r1, #2
 1071 0018 1049     		ldr	r1, .L91+4
 1072 001a 0A44     		add	r2, r2, r1
 1073 001c 9178     		ldrb	r1, [r2, #2]	@ zero_extendqisi2
 1074 001e 41F00101 		orr	r1, r1, #1
 1075 0022 9170     		strb	r1, [r2, #2]
1125:Generated_Source\PSoC5/USBFS_std.c **** 
1126:Generated_Source\PSoC5/USBFS_std.c ****         /* Clear the data toggle */
1127:Generated_Source\PSoC5/USBFS_std.c ****         USBFS_EP[ep].epToggle = 0u;
 1076              		.loc 1 1127 0
 1077 0024 0021     		movs	r1, #0
 1078 0026 D170     		strb	r1, [r2, #3]
1128:Generated_Source\PSoC5/USBFS_std.c ****         USBFS_EP[ep].apiEpState |= USBFS_NO_EVENT_ALLOWED;
 1079              		.loc 1 1128 0
 1080 0028 5178     		ldrb	r1, [r2, #1]	@ zero_extendqisi2
 1081 002a 41F00201 		orr	r1, r1, #2
 1082 002e 5170     		strb	r1, [r2, #1]
1129:Generated_Source\PSoC5/USBFS_std.c **** 
1130:Generated_Source\PSoC5/USBFS_std.c ****         if ((USBFS_EP[ep].addr & USBFS_DIR_IN) != 0u)
 1083              		.loc 1 1130 0
 1084 0030 1279     		ldrb	r2, [r2, #4]	@ zero_extendqisi2
 1085 0032 12F0800F 		tst	r2, #128
 1086 0036 05D0     		beq	.L87
1131:Generated_Source\PSoC5/USBFS_std.c ****         {
1132:Generated_Source\PSoC5/USBFS_std.c ****             /* IN Endpoint */
1133:Generated_Source\PSoC5/USBFS_std.c ****             USBFS_SIE_EP_BASE.sieEp[ep].epCr0 = (USBFS_MODE_STALL_DATA_EP | 
 1087              		.loc 1 1133 0
 1088 0038 1B01     		lsls	r3, r3, #4
 1089              	.LVL103:
 1090 003a 094A     		ldr	r2, .L91+8
 1091 003c 1A44     		add	r2, r2, r3
 1092 003e 8D23     		movs	r3, #141
 1093 0040 9370     		strb	r3, [r2, #2]
 1094 0042 04E0     		b	.L88
 1095              	.LVL104:
 1096              	.L87:
1134:Generated_Source\PSoC5/USBFS_std.c ****                                                             USBFS_MODE_ACK_IN);
1135:Generated_Source\PSoC5/USBFS_std.c ****         }
1136:Generated_Source\PSoC5/USBFS_std.c ****         else
1137:Generated_Source\PSoC5/USBFS_std.c ****         {
1138:Generated_Source\PSoC5/USBFS_std.c ****             /* OUT Endpoint */
1139:Generated_Source\PSoC5/USBFS_std.c ****             USBFS_SIE_EP_BASE.sieEp[ep].epCr0 = (USBFS_MODE_STALL_DATA_EP | 
 1097              		.loc 1 1139 0
 1098 0044 1B01     		lsls	r3, r3, #4
ARM GAS  C:\Users\CALEBC~1\AppData\Local\Temp\ccBuh6Ys.s 			page 42


 1099              	.LVL105:
 1100 0046 064A     		ldr	r2, .L91+8
 1101 0048 1A44     		add	r2, r2, r3
 1102 004a 8923     		movs	r3, #137
 1103 004c 9370     		strb	r3, [r2, #2]
 1104              	.L88:
1140:Generated_Source\PSoC5/USBFS_std.c ****                                                             USBFS_MODE_ACK_OUT);
1141:Generated_Source\PSoC5/USBFS_std.c ****         }
1142:Generated_Source\PSoC5/USBFS_std.c ****         requestHandled = USBFS_InitNoDataControlTransfer();
 1105              		.loc 1 1142 0
 1106 004e FFF7FEFF 		bl	USBFS_InitNoDataControlTransfer
 1107              	.LVL106:
 1108 0052 08BD     		pop	{r3, pc}
 1109              	.LVL107:
 1110              	.L89:
1115:Generated_Source\PSoC5/USBFS_std.c ****     uint8 ep;
 1111              		.loc 1 1115 0
 1112 0054 0020     		movs	r0, #0
 1113              	.LVL108:
1143:Generated_Source\PSoC5/USBFS_std.c ****     }
1144:Generated_Source\PSoC5/USBFS_std.c **** 
1145:Generated_Source\PSoC5/USBFS_std.c ****     return (requestHandled);
1146:Generated_Source\PSoC5/USBFS_std.c **** }
 1114              		.loc 1 1146 0
 1115 0056 08BD     		pop	{r3, pc}
 1116              	.LVL109:
 1117              	.L92:
 1118              		.align	2
 1119              	.L91:
 1120 0058 00600040 		.word	1073766400
 1121 005c 00000000 		.word	USBFS_EP
 1122 0060 FC5F0040 		.word	1073766396
 1123              		.cfi_endproc
 1124              	.LFE10:
 1125              		.size	USBFS_SetEndpointHalt, .-USBFS_SetEndpointHalt
 1126              		.section	.text.USBFS_ClearEndpointHalt,"ax",%progbits
 1127              		.align	2
 1128              		.global	USBFS_ClearEndpointHalt
 1129              		.thumb
 1130              		.thumb_func
 1131              		.type	USBFS_ClearEndpointHalt, %function
 1132              	USBFS_ClearEndpointHalt:
 1133              	.LFB11:
1147:Generated_Source\PSoC5/USBFS_std.c **** 
1148:Generated_Source\PSoC5/USBFS_std.c **** 
1149:Generated_Source\PSoC5/USBFS_std.c **** /*******************************************************************************
1150:Generated_Source\PSoC5/USBFS_std.c **** * Function Name: USBFS_ClearEndpointHalt
1151:Generated_Source\PSoC5/USBFS_std.c **** ****************************************************************************//**
1152:Generated_Source\PSoC5/USBFS_std.c **** *
1153:Generated_Source\PSoC5/USBFS_std.c **** *  This routine handles clear endpoint halt.
1154:Generated_Source\PSoC5/USBFS_std.c **** *
1155:Generated_Source\PSoC5/USBFS_std.c **** * \return
1156:Generated_Source\PSoC5/USBFS_std.c **** *  requestHandled.
1157:Generated_Source\PSoC5/USBFS_std.c **** *
1158:Generated_Source\PSoC5/USBFS_std.c **** * \reentrant
1159:Generated_Source\PSoC5/USBFS_std.c **** *  No.
1160:Generated_Source\PSoC5/USBFS_std.c **** *
ARM GAS  C:\Users\CALEBC~1\AppData\Local\Temp\ccBuh6Ys.s 			page 43


1161:Generated_Source\PSoC5/USBFS_std.c **** *******************************************************************************/
1162:Generated_Source\PSoC5/USBFS_std.c **** uint8 USBFS_ClearEndpointHalt(void) 
1163:Generated_Source\PSoC5/USBFS_std.c **** {
 1134              		.loc 1 1163 0
 1135              		.cfi_startproc
 1136              		@ args = 0, pretend = 0, frame = 0
 1137              		@ frame_needed = 0, uses_anonymous_args = 0
 1138              	.LVL110:
1164:Generated_Source\PSoC5/USBFS_std.c ****     uint8 requestHandled = USBFS_FALSE;
1165:Generated_Source\PSoC5/USBFS_std.c ****     uint8 ep;
1166:Generated_Source\PSoC5/USBFS_std.c **** 
1167:Generated_Source\PSoC5/USBFS_std.c ****     /* Clear endpoint halt */
1168:Generated_Source\PSoC5/USBFS_std.c ****     ep = USBFS_wIndexLoReg & USBFS_DIR_UNUSED;
 1139              		.loc 1 1168 0
 1140 0000 264B     		ldr	r3, .L102
 1141 0002 1B79     		ldrb	r3, [r3, #4]	@ zero_extendqisi2
 1142 0004 03F07F03 		and	r3, r3, #127
 1143              	.LVL111:
1169:Generated_Source\PSoC5/USBFS_std.c **** 
1170:Generated_Source\PSoC5/USBFS_std.c ****     if ((ep > USBFS_EP0) && (ep < USBFS_MAX_EP))
 1144              		.loc 1 1170 0
 1145 0008 5A1E     		subs	r2, r3, #1
 1146 000a D2B2     		uxtb	r2, r2
 1147 000c 072A     		cmp	r2, #7
 1148 000e 43D8     		bhi	.L99
1163:Generated_Source\PSoC5/USBFS_std.c ****     uint8 requestHandled = USBFS_FALSE;
 1149              		.loc 1 1163 0
 1150 0010 10B5     		push	{r4, lr}
 1151              		.cfi_def_cfa_offset 8
 1152              		.cfi_offset 4, -8
 1153              		.cfi_offset 14, -4
1171:Generated_Source\PSoC5/USBFS_std.c ****     {
1172:Generated_Source\PSoC5/USBFS_std.c ****         /* Clear the endpoint Halt */
1173:Generated_Source\PSoC5/USBFS_std.c ****         USBFS_EP[ep].hwEpState &= (uint8) ~USBFS_ENDPOINT_STATUS_HALT;
 1154              		.loc 1 1173 0
 1155 0012 5900     		lsls	r1, r3, #1
 1156 0014 1944     		add	r1, r1, r3
 1157 0016 8A00     		lsls	r2, r1, #2
 1158 0018 2149     		ldr	r1, .L102+4
 1159 001a 0A44     		add	r2, r2, r1
 1160 001c 9178     		ldrb	r1, [r2, #2]	@ zero_extendqisi2
 1161 001e 01F0FE01 		and	r1, r1, #254
 1162 0022 9170     		strb	r1, [r2, #2]
1174:Generated_Source\PSoC5/USBFS_std.c **** 
1175:Generated_Source\PSoC5/USBFS_std.c ****         /* Clear the data toggle */
1176:Generated_Source\PSoC5/USBFS_std.c ****         USBFS_EP[ep].epToggle = 0u;
 1163              		.loc 1 1176 0
 1164 0024 0021     		movs	r1, #0
 1165 0026 D170     		strb	r1, [r2, #3]
1177:Generated_Source\PSoC5/USBFS_std.c ****         
1178:Generated_Source\PSoC5/USBFS_std.c ****         /* Clear toggle bit for already armed packet */
1179:Generated_Source\PSoC5/USBFS_std.c ****         USBFS_SIE_EP_BASE.sieEp[ep].epCnt0 = (uint8) ~(uint8)USBFS_EPX_CNT_DATA_TOGGLE;
 1166              		.loc 1 1179 0
 1167 0028 1901     		lsls	r1, r3, #4
 1168 002a 7F24     		movs	r4, #127
 1169 002c 1D48     		ldr	r0, .L102+8
 1170 002e 4454     		strb	r4, [r0, r1]
ARM GAS  C:\Users\CALEBC~1\AppData\Local\Temp\ccBuh6Ys.s 			page 44


1180:Generated_Source\PSoC5/USBFS_std.c ****         
1181:Generated_Source\PSoC5/USBFS_std.c ****         /* Return API State as it was defined before */
1182:Generated_Source\PSoC5/USBFS_std.c ****         USBFS_EP[ep].apiEpState &= (uint8) ~USBFS_NO_EVENT_ALLOWED;
 1171              		.loc 1 1182 0
 1172 0030 5178     		ldrb	r1, [r2, #1]	@ zero_extendqisi2
 1173 0032 01F0FD01 		and	r1, r1, #253
 1174 0036 5170     		strb	r1, [r2, #1]
1183:Generated_Source\PSoC5/USBFS_std.c **** 
1184:Generated_Source\PSoC5/USBFS_std.c ****         if ((USBFS_EP[ep].addr & USBFS_DIR_IN) != 0u)
 1175              		.loc 1 1184 0
 1176 0038 1279     		ldrb	r2, [r2, #4]	@ zero_extendqisi2
 1177 003a 12F0800F 		tst	r2, #128
 1178 003e 14D0     		beq	.L95
1185:Generated_Source\PSoC5/USBFS_std.c ****         {
1186:Generated_Source\PSoC5/USBFS_std.c ****             /* IN Endpoint */
1187:Generated_Source\PSoC5/USBFS_std.c ****             if(USBFS_EP[ep].apiEpState == USBFS_IN_BUFFER_EMPTY)
 1179              		.loc 1 1187 0
 1180 0040 03EB4301 		add	r1, r3, r3, lsl #1
 1181 0044 8A00     		lsls	r2, r1, #2
 1182 0046 1649     		ldr	r1, .L102+4
 1183 0048 0A44     		add	r2, r2, r1
 1184 004a 5278     		ldrb	r2, [r2, #1]	@ zero_extendqisi2
 1185 004c D2B2     		uxtb	r2, r2
 1186 004e 012A     		cmp	r2, #1
 1187 0050 05D1     		bne	.L96
1188:Generated_Source\PSoC5/USBFS_std.c ****             {       
1189:Generated_Source\PSoC5/USBFS_std.c ****                 /* Wait for next packet from application */
1190:Generated_Source\PSoC5/USBFS_std.c ****                 USBFS_SIE_EP_BASE.sieEp[ep].epCr0 = USBFS_MODE_NAK_IN;
 1188              		.loc 1 1190 0
 1189 0052 1B01     		lsls	r3, r3, #4
 1190              	.LVL112:
 1191 0054 0246     		mov	r2, r0
 1192 0056 1A44     		add	r2, r2, r3
 1193 0058 0C23     		movs	r3, #12
 1194 005a 9370     		strb	r3, [r2, #2]
 1195 005c 19E0     		b	.L97
 1196              	.LVL113:
 1197              	.L96:
1191:Generated_Source\PSoC5/USBFS_std.c ****             }
1192:Generated_Source\PSoC5/USBFS_std.c ****             else    /* Continue armed transfer */
1193:Generated_Source\PSoC5/USBFS_std.c ****             {
1194:Generated_Source\PSoC5/USBFS_std.c ****                 USBFS_SIE_EP_BASE.sieEp[ep].epCr0 = USBFS_MODE_ACK_IN;
 1198              		.loc 1 1194 0
 1199 005e 1B01     		lsls	r3, r3, #4
 1200              	.LVL114:
 1201 0060 104A     		ldr	r2, .L102+8
 1202 0062 1A44     		add	r2, r2, r3
 1203 0064 0D23     		movs	r3, #13
 1204 0066 9370     		strb	r3, [r2, #2]
 1205 0068 13E0     		b	.L97
 1206              	.LVL115:
 1207              	.L95:
1195:Generated_Source\PSoC5/USBFS_std.c ****             }
1196:Generated_Source\PSoC5/USBFS_std.c ****         }
1197:Generated_Source\PSoC5/USBFS_std.c ****         else
1198:Generated_Source\PSoC5/USBFS_std.c ****         {
1199:Generated_Source\PSoC5/USBFS_std.c ****             /* OUT Endpoint */
ARM GAS  C:\Users\CALEBC~1\AppData\Local\Temp\ccBuh6Ys.s 			page 45


1200:Generated_Source\PSoC5/USBFS_std.c ****             if (USBFS_EP[ep].apiEpState == USBFS_OUT_BUFFER_FULL)
 1208              		.loc 1 1200 0
 1209 006a 03EB4301 		add	r1, r3, r3, lsl #1
 1210 006e 8A00     		lsls	r2, r1, #2
 1211 0070 0B49     		ldr	r1, .L102+4
 1212 0072 0A44     		add	r2, r2, r1
 1213 0074 5278     		ldrb	r2, [r2, #1]	@ zero_extendqisi2
 1214 0076 D2B2     		uxtb	r2, r2
 1215 0078 012A     		cmp	r2, #1
 1216 007a 05D1     		bne	.L98
1201:Generated_Source\PSoC5/USBFS_std.c ****             {       
1202:Generated_Source\PSoC5/USBFS_std.c ****                 /* Allow application to read full buffer */
1203:Generated_Source\PSoC5/USBFS_std.c ****                 USBFS_SIE_EP_BASE.sieEp[ep].epCr0 = USBFS_MODE_NAK_OUT;
 1217              		.loc 1 1203 0
 1218 007c 1B01     		lsls	r3, r3, #4
 1219              	.LVL116:
 1220 007e 094A     		ldr	r2, .L102+8
 1221 0080 1A44     		add	r2, r2, r3
 1222 0082 0823     		movs	r3, #8
 1223 0084 9370     		strb	r3, [r2, #2]
 1224 0086 04E0     		b	.L97
 1225              	.LVL117:
 1226              	.L98:
1204:Generated_Source\PSoC5/USBFS_std.c ****             }
1205:Generated_Source\PSoC5/USBFS_std.c ****             else    /* Mark endpoint as empty, so it will be reloaded */
1206:Generated_Source\PSoC5/USBFS_std.c ****             {
1207:Generated_Source\PSoC5/USBFS_std.c ****                 USBFS_SIE_EP_BASE.sieEp[ep].epCr0 = USBFS_MODE_ACK_OUT;
 1227              		.loc 1 1207 0
 1228 0088 1B01     		lsls	r3, r3, #4
 1229              	.LVL118:
 1230 008a 064A     		ldr	r2, .L102+8
 1231 008c 1A44     		add	r2, r2, r3
 1232 008e 0923     		movs	r3, #9
 1233 0090 9370     		strb	r3, [r2, #2]
 1234              	.L97:
1208:Generated_Source\PSoC5/USBFS_std.c ****             }
1209:Generated_Source\PSoC5/USBFS_std.c ****         }
1210:Generated_Source\PSoC5/USBFS_std.c ****         
1211:Generated_Source\PSoC5/USBFS_std.c ****         requestHandled = USBFS_InitNoDataControlTransfer();
 1235              		.loc 1 1211 0
 1236 0092 FFF7FEFF 		bl	USBFS_InitNoDataControlTransfer
 1237              	.LVL119:
 1238 0096 10BD     		pop	{r4, pc}
 1239              	.LVL120:
 1240              	.L99:
 1241              		.cfi_def_cfa_offset 0
 1242              		.cfi_restore 4
 1243              		.cfi_restore 14
1164:Generated_Source\PSoC5/USBFS_std.c ****     uint8 ep;
 1244              		.loc 1 1164 0
 1245 0098 0020     		movs	r0, #0
 1246 009a 7047     		bx	lr
 1247              	.L103:
 1248              		.align	2
 1249              	.L102:
 1250 009c 00600040 		.word	1073766400
 1251 00a0 00000000 		.word	USBFS_EP
ARM GAS  C:\Users\CALEBC~1\AppData\Local\Temp\ccBuh6Ys.s 			page 46


 1252 00a4 FC5F0040 		.word	1073766396
 1253              		.cfi_endproc
 1254              	.LFE11:
 1255              		.size	USBFS_ClearEndpointHalt, .-USBFS_ClearEndpointHalt
 1256              		.section	.text.USBFS_ValidateAlternateSetting,"ax",%progbits
 1257              		.align	2
 1258              		.global	USBFS_ValidateAlternateSetting
 1259              		.thumb
 1260              		.thumb_func
 1261              		.type	USBFS_ValidateAlternateSetting, %function
 1262              	USBFS_ValidateAlternateSetting:
 1263              	.LFB12:
1212:Generated_Source\PSoC5/USBFS_std.c ****     }
1213:Generated_Source\PSoC5/USBFS_std.c **** 
1214:Generated_Source\PSoC5/USBFS_std.c ****     return(requestHandled);
1215:Generated_Source\PSoC5/USBFS_std.c **** }
1216:Generated_Source\PSoC5/USBFS_std.c **** 
1217:Generated_Source\PSoC5/USBFS_std.c **** 
1218:Generated_Source\PSoC5/USBFS_std.c **** /*******************************************************************************
1219:Generated_Source\PSoC5/USBFS_std.c **** * Function Name: USBFS_ValidateAlternateSetting
1220:Generated_Source\PSoC5/USBFS_std.c **** ****************************************************************************//**
1221:Generated_Source\PSoC5/USBFS_std.c **** *
1222:Generated_Source\PSoC5/USBFS_std.c **** *  Validates (and records) a SET INTERFACE request.
1223:Generated_Source\PSoC5/USBFS_std.c **** *
1224:Generated_Source\PSoC5/USBFS_std.c **** * \return
1225:Generated_Source\PSoC5/USBFS_std.c **** *  requestHandled.
1226:Generated_Source\PSoC5/USBFS_std.c **** *
1227:Generated_Source\PSoC5/USBFS_std.c **** * \reentrant
1228:Generated_Source\PSoC5/USBFS_std.c **** *  No.
1229:Generated_Source\PSoC5/USBFS_std.c **** *
1230:Generated_Source\PSoC5/USBFS_std.c **** *******************************************************************************/
1231:Generated_Source\PSoC5/USBFS_std.c **** uint8 USBFS_ValidateAlternateSetting(void) 
1232:Generated_Source\PSoC5/USBFS_std.c **** {
 1264              		.loc 1 1232 0
 1265              		.cfi_startproc
 1266              		@ args = 0, pretend = 0, frame = 0
 1267              		@ frame_needed = 0, uses_anonymous_args = 0
 1268 0000 10B5     		push	{r4, lr}
 1269              		.cfi_def_cfa_offset 8
 1270              		.cfi_offset 4, -8
 1271              		.cfi_offset 14, -4
 1272              	.LVL121:
1233:Generated_Source\PSoC5/USBFS_std.c ****     uint8 requestHandled = USBFS_FALSE;
1234:Generated_Source\PSoC5/USBFS_std.c ****     
1235:Generated_Source\PSoC5/USBFS_std.c ****     uint8 interfaceNum;
1236:Generated_Source\PSoC5/USBFS_std.c ****     uint8 curInterfacesNum;
1237:Generated_Source\PSoC5/USBFS_std.c ****     const T_USBFS_LUT CYCODE *pTmp;
1238:Generated_Source\PSoC5/USBFS_std.c ****     
1239:Generated_Source\PSoC5/USBFS_std.c ****     /* Get interface number from the request. */
1240:Generated_Source\PSoC5/USBFS_std.c ****     interfaceNum = (uint8) USBFS_wIndexLoReg;
 1273              		.loc 1 1240 0
 1274 0002 0E4B     		ldr	r3, .L109
 1275 0004 1C79     		ldrb	r4, [r3, #4]	@ zero_extendqisi2
 1276 0006 E4B2     		uxtb	r4, r4
 1277              	.LVL122:
1241:Generated_Source\PSoC5/USBFS_std.c ****     
1242:Generated_Source\PSoC5/USBFS_std.c ****     /* Get number of interfaces for current configuration. */
ARM GAS  C:\Users\CALEBC~1\AppData\Local\Temp\ccBuh6Ys.s 			page 47


1243:Generated_Source\PSoC5/USBFS_std.c ****     pTmp = USBFS_GetConfigTablePtr(USBFS_configuration - 1u);
 1278              		.loc 1 1243 0
 1279 0008 0D4B     		ldr	r3, .L109+4
 1280 000a 1878     		ldrb	r0, [r3]	@ zero_extendqisi2
 1281 000c 0138     		subs	r0, r0, #1
 1282 000e C0B2     		uxtb	r0, r0
 1283 0010 FFF7FEFF 		bl	USBFS_GetConfigTablePtr
 1284              	.LVL123:
1244:Generated_Source\PSoC5/USBFS_std.c ****     curInterfacesNum  = ((const uint8 *) pTmp->p_list)[USBFS_CONFIG_DESCR_NUM_INTERFACES];
 1285              		.loc 1 1244 0
 1286 0014 4368     		ldr	r3, [r0, #4]
 1287 0016 1B79     		ldrb	r3, [r3, #4]	@ zero_extendqisi2
 1288              	.LVL124:
1245:Generated_Source\PSoC5/USBFS_std.c **** 
1246:Generated_Source\PSoC5/USBFS_std.c ****     /* Validate that interface number is within range. */
1247:Generated_Source\PSoC5/USBFS_std.c ****     if ((interfaceNum <= curInterfacesNum) || (interfaceNum <= USBFS_MAX_INTERFACES_NUMBER))
 1289              		.loc 1 1247 0
 1290 0018 9C42     		cmp	r4, r3
 1291 001a 01D9     		bls	.L105
 1292              		.loc 1 1247 0 is_stmt 0 discriminator 1
 1293 001c 012C     		cmp	r4, #1
 1294 001e 0AD8     		bhi	.L107
 1295              	.L105:
1248:Generated_Source\PSoC5/USBFS_std.c ****     {
1249:Generated_Source\PSoC5/USBFS_std.c ****         /* Save current and new alternate settings (come with request) to make 
1250:Generated_Source\PSoC5/USBFS_std.c ****         * desicion about following endpoint re-configuration.
1251:Generated_Source\PSoC5/USBFS_std.c ****         */
1252:Generated_Source\PSoC5/USBFS_std.c ****         USBFS_interfaceSettingLast[interfaceNum] = USBFS_interfaceSetting[interfaceNum];
 1296              		.loc 1 1252 0 is_stmt 1
 1297 0020 084A     		ldr	r2, .L109+8
 1298 0022 135D     		ldrb	r3, [r2, r4]	@ zero_extendqisi2
 1299              	.LVL125:
 1300 0024 DBB2     		uxtb	r3, r3
 1301 0026 0849     		ldr	r1, .L109+12
 1302 0028 0B55     		strb	r3, [r1, r4]
1253:Generated_Source\PSoC5/USBFS_std.c ****         USBFS_interfaceSetting[interfaceNum]     = (uint8) USBFS_wValueLoReg;
 1303              		.loc 1 1253 0
 1304 002a 044B     		ldr	r3, .L109
 1305 002c 9B78     		ldrb	r3, [r3, #2]	@ zero_extendqisi2
 1306 002e DBB2     		uxtb	r3, r3
 1307 0030 1355     		strb	r3, [r2, r4]
 1308              	.LVL126:
1254:Generated_Source\PSoC5/USBFS_std.c ****         
1255:Generated_Source\PSoC5/USBFS_std.c ****         requestHandled = USBFS_TRUE;
 1309              		.loc 1 1255 0
 1310 0032 0120     		movs	r0, #1
 1311              	.LVL127:
 1312 0034 10BD     		pop	{r4, pc}
 1313              	.LVL128:
 1314              	.L107:
1233:Generated_Source\PSoC5/USBFS_std.c ****     
 1315              		.loc 1 1233 0
 1316 0036 0020     		movs	r0, #0
 1317              	.LVL129:
1256:Generated_Source\PSoC5/USBFS_std.c ****     }
1257:Generated_Source\PSoC5/USBFS_std.c **** 
1258:Generated_Source\PSoC5/USBFS_std.c ****     return (requestHandled);
ARM GAS  C:\Users\CALEBC~1\AppData\Local\Temp\ccBuh6Ys.s 			page 48


1259:Generated_Source\PSoC5/USBFS_std.c **** }
 1318              		.loc 1 1259 0
 1319 0038 10BD     		pop	{r4, pc}
 1320              	.LVL130:
 1321              	.L110:
 1322 003a 00BF     		.align	2
 1323              	.L109:
 1324 003c 00600040 		.word	1073766400
 1325 0040 00000000 		.word	USBFS_configuration
 1326 0044 00000000 		.word	USBFS_interfaceSetting
 1327 0048 00000000 		.word	USBFS_interfaceSettingLast
 1328              		.cfi_endproc
 1329              	.LFE12:
 1330              		.size	USBFS_ValidateAlternateSetting, .-USBFS_ValidateAlternateSetting
 1331              		.section	.text.USBFS_HandleStandardRqst,"ax",%progbits
 1332              		.align	2
 1333              		.global	USBFS_HandleStandardRqst
 1334              		.thumb
 1335              		.thumb_func
 1336              		.type	USBFS_HandleStandardRqst, %function
 1337              	USBFS_HandleStandardRqst:
 1338              	.LFB0:
  85:Generated_Source\PSoC5/USBFS_std.c ****     uint8 requestHandled = USBFS_FALSE;
 1339              		.loc 1 85 0
 1340              		.cfi_startproc
 1341              		@ args = 0, pretend = 0, frame = 0
 1342              		@ frame_needed = 0, uses_anonymous_args = 0
 1343 0000 10B5     		push	{r4, lr}
 1344              		.cfi_def_cfa_offset 8
 1345              		.cfi_offset 4, -8
 1346              		.cfi_offset 14, -4
 1347              	.LVL131:
  89:Generated_Source\PSoC5/USBFS_std.c **** 
 1348              		.loc 1 89 0
 1349 0002 964B     		ldr	r3, .L168
 1350 0004 1B78     		ldrb	r3, [r3]	@ zero_extendqisi2
 1351 0006 DBB2     		uxtb	r3, r3
 1352              	.LVL132:
 102:Generated_Source\PSoC5/USBFS_std.c **** 
 1353              		.loc 1 102 0
 1354 0008 0021     		movs	r1, #0
 1355 000a 954A     		ldr	r2, .L168+4
 1356 000c 1180     		strh	r1, [r2]	@ movhi
 104:Generated_Source\PSoC5/USBFS_std.c ****     {
 1357              		.loc 1 104 0
 1358 000e 13F0800F 		tst	r3, #128
 1359 0012 00F0B380 		beq	.L112
 107:Generated_Source\PSoC5/USBFS_std.c ****         {
 1360              		.loc 1 107 0
 1361 0016 914A     		ldr	r2, .L168
 1362 0018 5278     		ldrb	r2, [r2, #1]	@ zero_extendqisi2
 1363 001a D2B2     		uxtb	r2, r2
 1364 001c 0A2A     		cmp	r2, #10
 1365 001e 00F27981 		bhi	.L146
 1366 0022 DFE812F0 		tbh	[pc, r2, lsl #1]
 1367              	.L115:
 1368 0026 6F00     		.2byte	(.L114-.L115)/2
ARM GAS  C:\Users\CALEBC~1\AppData\Local\Temp\ccBuh6Ys.s 			page 49


 1369 0028 7701     		.2byte	(.L146-.L115)/2
 1370 002a 7701     		.2byte	(.L146-.L115)/2
 1371 002c 7701     		.2byte	(.L146-.L115)/2
 1372 002e 7701     		.2byte	(.L146-.L115)/2
 1373 0030 7701     		.2byte	(.L146-.L115)/2
 1374 0032 0B00     		.2byte	(.L116-.L115)/2
 1375 0034 7701     		.2byte	(.L146-.L115)/2
 1376 0036 9800     		.2byte	(.L117-.L115)/2
 1377 0038 7701     		.2byte	(.L146-.L115)/2
 1378 003a A000     		.2byte	(.L118-.L115)/2
 1379              		.p2align 1
 1380              	.L116:
 110:Generated_Source\PSoC5/USBFS_std.c ****                 {
 1381              		.loc 1 110 0
 1382 003c 874B     		ldr	r3, .L168
 1383              	.LVL133:
 1384 003e DB78     		ldrb	r3, [r3, #3]	@ zero_extendqisi2
 1385 0040 DBB2     		uxtb	r3, r3
 1386 0042 012B     		cmp	r3, #1
 1387 0044 09D1     		bne	.L119
 112:Generated_Source\PSoC5/USBFS_std.c ****                     USBFS_currentTD.pData = (volatile uint8 *)pTmp->p_list;
 1388              		.loc 1 112 0
 1389 0046 FFF7FEFF 		bl	USBFS_GetDeviceTablePtr
 1390              	.LVL134:
 113:Generated_Source\PSoC5/USBFS_std.c ****                     USBFS_currentTD.count = USBFS_DEVICE_DESCR_LENGTH;
 1391              		.loc 1 113 0
 1392 004a 4268     		ldr	r2, [r0, #4]
 1393 004c 844B     		ldr	r3, .L168+4
 1394 004e 5A60     		str	r2, [r3, #4]
 114:Generated_Source\PSoC5/USBFS_std.c ****                     
 1395              		.loc 1 114 0
 1396 0050 1222     		movs	r2, #18
 1397 0052 1A80     		strh	r2, [r3]	@ movhi
 116:Generated_Source\PSoC5/USBFS_std.c ****                 }
 1398              		.loc 1 116 0
 1399 0054 FFF7FEFF 		bl	USBFS_InitControlRead
 1400              	.LVL135:
 1401 0058 10BD     		pop	{r4, pc}
 1402              	.LVL136:
 1403              	.L119:
 118:Generated_Source\PSoC5/USBFS_std.c ****                 {
 1404              		.loc 1 118 0
 1405 005a 804B     		ldr	r3, .L168
 1406 005c DB78     		ldrb	r3, [r3, #3]	@ zero_extendqisi2
 1407 005e DBB2     		uxtb	r3, r3
 1408 0060 022B     		cmp	r3, #2
 1409 0062 13D1     		bne	.L120
 120:Generated_Source\PSoC5/USBFS_std.c ****                     
 1410              		.loc 1 120 0
 1411 0064 7D4B     		ldr	r3, .L168
 1412 0066 9878     		ldrb	r0, [r3, #2]	@ zero_extendqisi2
 1413 0068 FFF7FEFF 		bl	USBFS_GetConfigTablePtr
 1414              	.LVL137:
 123:Generated_Source\PSoC5/USBFS_std.c ****                     {
 1415              		.loc 1 123 0
 1416 006c 0028     		cmp	r0, #0
 1417 006e 00F05381 		beq	.L147
ARM GAS  C:\Users\CALEBC~1\AppData\Local\Temp\ccBuh6Ys.s 			page 50


 125:Generated_Source\PSoC5/USBFS_std.c ****                         USBFS_currentTD.count = (uint16)((uint16)(USBFS_currentTD.pData)[USBFS_CONF
 1418              		.loc 1 125 0
 1419 0072 4268     		ldr	r2, [r0, #4]
 1420 0074 7A4B     		ldr	r3, .L168+4
 1421 0076 5A60     		str	r2, [r3, #4]
 126:Generated_Source\PSoC5/USBFS_std.c ****                                                                             (USBFS_currentTD.pData)
 1422              		.loc 1 126 0
 1423 0078 5A68     		ldr	r2, [r3, #4]
 1424 007a D178     		ldrb	r1, [r2, #3]	@ zero_extendqisi2
 127:Generated_Source\PSoC5/USBFS_std.c ****                         requestHandled  = USBFS_InitControlRead();
 1425              		.loc 1 127 0
 1426 007c 5A68     		ldr	r2, [r3, #4]
 1427 007e 9278     		ldrb	r2, [r2, #2]	@ zero_extendqisi2
 126:Generated_Source\PSoC5/USBFS_std.c ****                                                                             (USBFS_currentTD.pData)
 1428              		.loc 1 126 0
 1429 0080 42EA0122 		orr	r2, r2, r1, lsl #8
 1430 0084 1A80     		strh	r2, [r3]	@ movhi
 128:Generated_Source\PSoC5/USBFS_std.c ****                     }
 1431              		.loc 1 128 0
 1432 0086 FFF7FEFF 		bl	USBFS_InitControlRead
 1433              	.LVL138:
 1434 008a 10BD     		pop	{r4, pc}
 1435              	.LVL139:
 1436              	.L120:
 149:Generated_Source\PSoC5/USBFS_std.c ****                 {
 1437              		.loc 1 149 0
 1438 008c 734B     		ldr	r3, .L168
 1439 008e DB78     		ldrb	r3, [r3, #3]	@ zero_extendqisi2
 1440 0090 DBB2     		uxtb	r3, r3
 1441 0092 032B     		cmp	r3, #3
 1442 0094 05D0     		beq	.L148
 1443 0096 32E0     		b	.L163
 1444              	.LVL140:
 1445              	.L124:
 159:Generated_Source\PSoC5/USBFS_std.c ****                         /* Move to next string descriptor */
 1446              		.loc 1 159 0
 1447 0098 0A78     		ldrb	r2, [r1]	@ zero_extendqisi2
 1448              	.LVL141:
 161:Generated_Source\PSoC5/USBFS_std.c ****                         nStr++;
 1449              		.loc 1 161 0
 1450 009a 1144     		add	r1, r1, r2
 1451              	.LVL142:
 162:Generated_Source\PSoC5/USBFS_std.c ****                     }
 1452              		.loc 1 162 0
 1453 009c 0133     		adds	r3, r3, #1
 1454              	.LVL143:
 1455 009e DBB2     		uxtb	r3, r3
 1456              	.LVL144:
 1457 00a0 01E0     		b	.L121
 1458              	.LVL145:
 1459              	.L148:
 1460 00a2 0023     		movs	r3, #0
 1461 00a4 6F49     		ldr	r1, .L168+8
 1462              	.LVL146:
 1463              	.L121:
 156:Generated_Source\PSoC5/USBFS_std.c ****                     {
 1464              		.loc 1 156 0
ARM GAS  C:\Users\CALEBC~1\AppData\Local\Temp\ccBuh6Ys.s 			page 51


 1465 00a6 6D4A     		ldr	r2, .L168
 1466 00a8 9278     		ldrb	r2, [r2, #2]	@ zero_extendqisi2
 1467 00aa D2B2     		uxtb	r2, r2
 1468 00ac 9342     		cmp	r3, r2
 1469 00ae 03D2     		bcs	.L123
 156:Generated_Source\PSoC5/USBFS_std.c ****                     {
 1470              		.loc 1 156 0 is_stmt 0 discriminator 1
 1471 00b0 0A78     		ldrb	r2, [r1]	@ zero_extendqisi2
 1472 00b2 12F0FF0F 		tst	r2, #255
 1473 00b6 EFD1     		bne	.L124
 1474              	.L123:
 168:Generated_Source\PSoC5/USBFS_std.c ****                     {
 1475              		.loc 1 168 0 is_stmt 1
 1476 00b8 684B     		ldr	r3, .L168
 1477              	.LVL147:
 1478 00ba 9B78     		ldrb	r3, [r3, #2]	@ zero_extendqisi2
 1479 00bc DBB2     		uxtb	r3, r3
 1480 00be EE2B     		cmp	r3, #238
 1481 00c0 00D1     		bne	.L125
 170:Generated_Source\PSoC5/USBFS_std.c ****                     }
 1482              		.loc 1 170 0
 1483 00c2 6949     		ldr	r1, .L168+12
 1484              	.LVL148:
 1485              	.L125:
 176:Generated_Source\PSoC5/USBFS_std.c ****                         (USBFS_wValueLoReg == USBFS_DEVICE0_DESCR[USBFS_DEVICE_DESCR_SN_SHIFT]))
 1486              		.loc 1 176 0
 1487 00c4 654B     		ldr	r3, .L168
 1488 00c6 9B78     		ldrb	r3, [r3, #2]	@ zero_extendqisi2
 1489 00c8 13F0FF0F 		tst	r3, #255
 1490 00cc 0BD0     		beq	.L126
 177:Generated_Source\PSoC5/USBFS_std.c ****                     {
 1491              		.loc 1 177 0 discriminator 1
 1492 00ce 634B     		ldr	r3, .L168
 1493 00d0 9B78     		ldrb	r3, [r3, #2]	@ zero_extendqisi2
 1494 00d2 DBB2     		uxtb	r3, r3
 1495 00d4 654A     		ldr	r2, .L168+16
 1496 00d6 127C     		ldrb	r2, [r2, #16]	@ zero_extendqisi2
 176:Generated_Source\PSoC5/USBFS_std.c ****                         (USBFS_wValueLoReg == USBFS_DEVICE0_DESCR[USBFS_DEVICE_DESCR_SN_SHIFT]))
 1497              		.loc 1 176 0 discriminator 1
 1498 00d8 9342     		cmp	r3, r2
 1499 00da 04D1     		bne	.L126
 181:Generated_Source\PSoC5/USBFS_std.c ****                         pStr = USBFS_idSerialNumberStringDescriptor;
 1500              		.loc 1 181 0
 1501 00dc 644C     		ldr	r4, .L168+20
 1502 00de 2046     		mov	r0, r4
 1503 00e0 FFF7FEFF 		bl	USBFS_ReadDieID
 1504              	.LVL149:
 182:Generated_Source\PSoC5/USBFS_std.c ****                     #elif defined(USBFS_ENABLE_FWSN_STRING)
 1505              		.loc 1 182 0
 1506 00e4 2146     		mov	r1, r4
 1507              	.LVL150:
 1508              	.L126:
 199:Generated_Source\PSoC5/USBFS_std.c ****                     {
 1509              		.loc 1 199 0
 1510 00e6 0B78     		ldrb	r3, [r1]	@ zero_extendqisi2
 1511 00e8 13F0FF0F 		tst	r3, #255
 1512 00ec 00F01681 		beq	.L150
ARM GAS  C:\Users\CALEBC~1\AppData\Local\Temp\ccBuh6Ys.s 			page 52


 201:Generated_Source\PSoC5/USBFS_std.c ****                         USBFS_currentTD.pData = pStr;
 1513              		.loc 1 201 0
 1514 00f0 0B78     		ldrb	r3, [r1]	@ zero_extendqisi2
 1515 00f2 5B4A     		ldr	r2, .L168+4
 1516 00f4 1380     		strh	r3, [r2]	@ movhi
 202:Generated_Source\PSoC5/USBFS_std.c ****                         requestHandled  = USBFS_InitControlRead();
 1517              		.loc 1 202 0
 1518 00f6 5160     		str	r1, [r2, #4]
 203:Generated_Source\PSoC5/USBFS_std.c ****                     }
 1519              		.loc 1 203 0
 1520 00f8 FFF7FEFF 		bl	USBFS_InitControlRead
 1521              	.LVL151:
 1522 00fc 10BD     		pop	{r4, pc}
 1523              	.LVL152:
 1524              	.L163:
 209:Generated_Source\PSoC5/USBFS_std.c ****                 }
 1525              		.loc 1 209 0
 1526 00fe FFF7FEFF 		bl	USBFS_DispatchClassRqst
 1527              	.LVL153:
 1528 0102 10BD     		pop	{r4, pc}
 1529              	.LVL154:
 1530              	.L114:
 214:Generated_Source\PSoC5/USBFS_std.c ****                 {
 1531              		.loc 1 214 0
 1532 0104 13F00303 		ands	r3, r3, #3
 1533              	.LVL155:
 1534 0108 17D0     		beq	.L127
 1535 010a 022B     		cmp	r3, #2
 1536 010c 40F00881 		bne	.L164
 217:Generated_Source\PSoC5/USBFS_std.c ****                         USBFS_tBuffer[0u]     = USBFS_EP[USBFS_wIndexLoReg & USBFS_DIR_UNUSED].hwEp
 1537              		.loc 1 217 0
 1538 0110 5349     		ldr	r1, .L168+4
 1539 0112 0B80     		strh	r3, [r1]	@ movhi
 218:Generated_Source\PSoC5/USBFS_std.c ****                         USBFS_tBuffer[1u]     = 0u;
 1540              		.loc 1 218 0
 1541 0114 514B     		ldr	r3, .L168
 1542 0116 1B79     		ldrb	r3, [r3, #4]	@ zero_extendqisi2
 1543 0118 03F07F03 		and	r3, r3, #127
 1544 011c 03EB4303 		add	r3, r3, r3, lsl #1
 1545 0120 9A00     		lsls	r2, r3, #2
 1546 0122 544B     		ldr	r3, .L168+24
 1547 0124 1A44     		add	r2, r2, r3
 1548 0126 9278     		ldrb	r2, [r2, #2]	@ zero_extendqisi2
 1549 0128 D2B2     		uxtb	r2, r2
 1550 012a 534B     		ldr	r3, .L168+28
 1551 012c 1A70     		strb	r2, [r3]
 219:Generated_Source\PSoC5/USBFS_std.c ****                         USBFS_currentTD.pData = &USBFS_tBuffer[0u];
 1552              		.loc 1 219 0
 1553 012e 0022     		movs	r2, #0
 1554 0130 5A70     		strb	r2, [r3, #1]
 220:Generated_Source\PSoC5/USBFS_std.c ****                         
 1555              		.loc 1 220 0
 1556 0132 4B60     		str	r3, [r1, #4]
 222:Generated_Source\PSoC5/USBFS_std.c ****                         break;
 1557              		.loc 1 222 0
 1558 0134 FFF7FEFF 		bl	USBFS_InitControlRead
 1559              	.LVL156:
ARM GAS  C:\Users\CALEBC~1\AppData\Local\Temp\ccBuh6Ys.s 			page 53


 223:Generated_Source\PSoC5/USBFS_std.c ****                     case USBFS_RQST_RCPT_DEV:
 1560              		.loc 1 223 0
 1561 0138 10BD     		pop	{r4, pc}
 1562              	.LVL157:
 1563              	.L127:
 225:Generated_Source\PSoC5/USBFS_std.c ****                         USBFS_tBuffer[0u]     = USBFS_deviceStatus;
 1564              		.loc 1 225 0
 1565 013a 4949     		ldr	r1, .L168+4
 1566 013c 0223     		movs	r3, #2
 1567 013e 0B80     		strh	r3, [r1]	@ movhi
 226:Generated_Source\PSoC5/USBFS_std.c ****                         USBFS_tBuffer[1u]     = 0u;
 1568              		.loc 1 226 0
 1569 0140 4E4B     		ldr	r3, .L168+32
 1570 0142 1A78     		ldrb	r2, [r3]	@ zero_extendqisi2
 1571 0144 D2B2     		uxtb	r2, r2
 1572 0146 4C4B     		ldr	r3, .L168+28
 1573 0148 1A70     		strb	r2, [r3]
 227:Generated_Source\PSoC5/USBFS_std.c ****                         USBFS_currentTD.pData = &USBFS_tBuffer[0u];
 1574              		.loc 1 227 0
 1575 014a 0022     		movs	r2, #0
 1576 014c 5A70     		strb	r2, [r3, #1]
 228:Generated_Source\PSoC5/USBFS_std.c ****                         
 1577              		.loc 1 228 0
 1578 014e 4B60     		str	r3, [r1, #4]
 230:Generated_Source\PSoC5/USBFS_std.c ****                         break;
 1579              		.loc 1 230 0
 1580 0150 FFF7FEFF 		bl	USBFS_InitControlRead
 1581              	.LVL158:
 231:Generated_Source\PSoC5/USBFS_std.c ****                     default:    /* requestHandled is initialized as FALSE by default */
 1582              		.loc 1 231 0
 1583 0154 10BD     		pop	{r4, pc}
 1584              	.LVL159:
 1585              	.L117:
 238:Generated_Source\PSoC5/USBFS_std.c ****                 USBFS_currentTD.pData = (volatile uint8 *) &USBFS_configuration;
 1586              		.loc 1 238 0
 1587 0156 424B     		ldr	r3, .L168+4
 1588              	.LVL160:
 1589 0158 0122     		movs	r2, #1
 1590 015a 1A80     		strh	r2, [r3]	@ movhi
 239:Generated_Source\PSoC5/USBFS_std.c ****                 requestHandled  = USBFS_InitControlRead();
 1591              		.loc 1 239 0
 1592 015c 484A     		ldr	r2, .L168+36
 1593 015e 5A60     		str	r2, [r3, #4]
 240:Generated_Source\PSoC5/USBFS_std.c ****                 break;
 1594              		.loc 1 240 0
 1595 0160 FFF7FEFF 		bl	USBFS_InitControlRead
 1596              	.LVL161:
 241:Generated_Source\PSoC5/USBFS_std.c ****                 
 1597              		.loc 1 241 0
 1598 0164 10BD     		pop	{r4, pc}
 1599              	.LVL162:
 1600              	.L118:
 244:Generated_Source\PSoC5/USBFS_std.c ****                 USBFS_currentTD.pData = (volatile uint8 *) &USBFS_interfaceSetting[USBFS_wIndexLoRe
 1601              		.loc 1 244 0
 1602 0166 3E4A     		ldr	r2, .L168+4
 1603 0168 0123     		movs	r3, #1
 1604              	.LVL163:
ARM GAS  C:\Users\CALEBC~1\AppData\Local\Temp\ccBuh6Ys.s 			page 54


 1605 016a 1380     		strh	r3, [r2]	@ movhi
 245:Generated_Source\PSoC5/USBFS_std.c ****                 requestHandled  = USBFS_InitControlRead();
 1606              		.loc 1 245 0
 1607 016c 3B4B     		ldr	r3, .L168
 1608 016e 1B79     		ldrb	r3, [r3, #4]	@ zero_extendqisi2
 1609 0170 4449     		ldr	r1, .L168+40
 1610 0172 0B44     		add	r3, r3, r1
 1611 0174 5360     		str	r3, [r2, #4]
 246:Generated_Source\PSoC5/USBFS_std.c ****                 break;
 1612              		.loc 1 246 0
 1613 0176 FFF7FEFF 		bl	USBFS_InitControlRead
 1614              	.LVL164:
 247:Generated_Source\PSoC5/USBFS_std.c ****                 
 1615              		.loc 1 247 0
 1616 017a 10BD     		pop	{r4, pc}
 1617              	.LVL165:
 1618              	.L112:
 256:Generated_Source\PSoC5/USBFS_std.c ****         {
 1619              		.loc 1 256 0
 1620 017c 374A     		ldr	r2, .L168
 1621 017e 5278     		ldrb	r2, [r2, #1]	@ zero_extendqisi2
 1622 0180 013A     		subs	r2, r2, #1
 1623 0182 0A2A     		cmp	r2, #10
 1624 0184 00F2CE80 		bhi	.L152
 1625 0188 DFE812F0 		tbh	[pc, r2, lsl #1]
 1626              	.L130:
 1627 018c 4C00     		.2byte	(.L129-.L130)/2
 1628 018e CC00     		.2byte	(.L152-.L130)/2
 1629 0190 9700     		.2byte	(.L131-.L130)/2
 1630 0192 CC00     		.2byte	(.L152-.L130)/2
 1631 0194 0B00     		.2byte	(.L132-.L130)/2
 1632 0196 CC00     		.2byte	(.L152-.L130)/2
 1633 0198 CC00     		.2byte	(.L152-.L130)/2
 1634 019a CC00     		.2byte	(.L152-.L130)/2
 1635 019c 1300     		.2byte	(.L133-.L130)/2
 1636 019e CC00     		.2byte	(.L152-.L130)/2
 1637 01a0 3000     		.2byte	(.L134-.L130)/2
 1638              		.p2align 1
 1639              	.L132:
 260:Generated_Source\PSoC5/USBFS_std.c ****                 requestHandled = USBFS_InitNoDataControlTransfer();
 1640              		.loc 1 260 0
 1641 01a2 2E4B     		ldr	r3, .L168
 1642              	.LVL166:
 1643 01a4 9B78     		ldrb	r3, [r3, #2]	@ zero_extendqisi2
 1644 01a6 DBB2     		uxtb	r3, r3
 1645 01a8 374A     		ldr	r2, .L168+44
 1646 01aa 1370     		strb	r3, [r2]
 261:Generated_Source\PSoC5/USBFS_std.c ****                 break;
 1647              		.loc 1 261 0
 1648 01ac FFF7FEFF 		bl	USBFS_InitNoDataControlTransfer
 1649              	.LVL167:
 262:Generated_Source\PSoC5/USBFS_std.c ****                 
 1650              		.loc 1 262 0
 1651 01b0 10BD     		pop	{r4, pc}
 1652              	.LVL168:
 1653              	.L133:
 265:Generated_Source\PSoC5/USBFS_std.c ****                 
ARM GAS  C:\Users\CALEBC~1\AppData\Local\Temp\ccBuh6Ys.s 			page 55


 1654              		.loc 1 265 0
 1655 01b2 2A4B     		ldr	r3, .L168
 1656              	.LVL169:
 1657 01b4 9B78     		ldrb	r3, [r3, #2]	@ zero_extendqisi2
 1658              	.LVL170:
 268:Generated_Source\PSoC5/USBFS_std.c ****                 {
 1659              		.loc 1 268 0
 1660 01b6 03F0FF04 		and	r4, r3, #255
 1661 01ba 1BB1     		cbz	r3, .L135
 270:Generated_Source\PSoC5/USBFS_std.c ****                 }
 1662              		.loc 1 270 0
 1663 01bc 601E     		subs	r0, r4, #1
 1664 01be C0B2     		uxtb	r0, r0
 1665 01c0 FFF7FEFF 		bl	USBFS_GetConfigTablePtr
 1666              	.LVL171:
 1667              	.L135:
 274:Generated_Source\PSoC5/USBFS_std.c ****                 {
 1668              		.loc 1 274 0
 1669 01c4 04B1     		cbz	r4, .L136
 274:Generated_Source\PSoC5/USBFS_std.c ****                 {
 1670              		.loc 1 274 0 is_stmt 0 discriminator 1
 1671 01c6 10B9     		cbnz	r0, .L137
 1672              	.L136:
 274:Generated_Source\PSoC5/USBFS_std.c ****                 {
 1673              		.loc 1 274 0 discriminator 3
 1674 01c8 002C     		cmp	r4, #0
 1675 01ca 40F0AD80 		bne	.L153
 1676              	.L137:
 277:Generated_Source\PSoC5/USBFS_std.c ****                     {
 1677              		.loc 1 277 0 is_stmt 1
 1678 01ce 2C4B     		ldr	r3, .L168+36
 1679 01d0 1B78     		ldrb	r3, [r3]	@ zero_extendqisi2
 1680 01d2 DBB2     		uxtb	r3, r3
 1681 01d4 9C42     		cmp	r4, r3
 1682 01d6 06D0     		beq	.L138
 279:Generated_Source\PSoC5/USBFS_std.c ****                         USBFS_configurationChanged = USBFS_TRUE;
 1683              		.loc 1 279 0
 1684 01d8 294B     		ldr	r3, .L168+36
 1685 01da 1C70     		strb	r4, [r3]
 280:Generated_Source\PSoC5/USBFS_std.c ****                         USBFS_Config(USBFS_TRUE);
 1686              		.loc 1 280 0
 1687 01dc 0120     		movs	r0, #1
 1688              	.LVL172:
 1689 01de 2B4B     		ldr	r3, .L168+48
 1690 01e0 1870     		strb	r0, [r3]
 281:Generated_Source\PSoC5/USBFS_std.c ****                     }
 1691              		.loc 1 281 0
 1692 01e2 FFF7FEFF 		bl	USBFS_Config
 1693              	.LVL173:
 1694              	.L138:
 283:Generated_Source\PSoC5/USBFS_std.c ****                 }
 1695              		.loc 1 283 0
 1696 01e6 FFF7FEFF 		bl	USBFS_InitNoDataControlTransfer
 1697              	.LVL174:
 1698 01ea 10BD     		pop	{r4, pc}
 1699              	.LVL175:
 1700              	.L134:
ARM GAS  C:\Users\CALEBC~1\AppData\Local\Temp\ccBuh6Ys.s 			page 56


 288:Generated_Source\PSoC5/USBFS_std.c ****                 {
 1701              		.loc 1 288 0
 1702 01ec FFF7FEFF 		bl	USBFS_ValidateAlternateSetting
 1703              	.LVL176:
 1704 01f0 0028     		cmp	r0, #0
 1705 01f2 00F09B80 		beq	.L154
 291:Generated_Source\PSoC5/USBFS_std.c ****                     USBFS_interfaceNumber = (uint8) USBFS_wIndexLoReg;
 1706              		.loc 1 291 0
 1707 01f6 194A     		ldr	r2, .L168
 1708 01f8 1379     		ldrb	r3, [r2, #4]	@ zero_extendqisi2
 1709 01fa DBB2     		uxtb	r3, r3
 1710              	.LVL177:
 292:Generated_Source\PSoC5/USBFS_std.c ****                      
 1711              		.loc 1 292 0
 1712 01fc 1279     		ldrb	r2, [r2, #4]	@ zero_extendqisi2
 1713 01fe D2B2     		uxtb	r2, r2
 1714 0200 2349     		ldr	r1, .L168+52
 1715 0202 0A70     		strb	r2, [r1]
 295:Generated_Source\PSoC5/USBFS_std.c ****                     {
 1716              		.loc 1 295 0
 1717 0204 234A     		ldr	r2, .L168+56
 1718 0206 D25C     		ldrb	r2, [r2, r3]	@ zero_extendqisi2
 1719 0208 D2B2     		uxtb	r2, r2
 1720 020a 1E49     		ldr	r1, .L168+40
 1721 020c CB5C     		ldrb	r3, [r1, r3]	@ zero_extendqisi2
 1722              	.LVL178:
 1723 020e DBB2     		uxtb	r3, r3
 1724 0210 9A42     		cmp	r2, r3
 1725 0212 04D0     		beq	.L139
 297:Generated_Source\PSoC5/USBFS_std.c ****                     
 1726              		.loc 1 297 0
 1727 0214 0122     		movs	r2, #1
 1728 0216 1D4B     		ldr	r3, .L168+48
 1729 0218 1A70     		strb	r2, [r3]
 303:Generated_Source\PSoC5/USBFS_std.c ****                     #endif /* (USBFS_EP_MANAGEMENT_MANUAL && USBFS_EP_ALLOC_DYNAMIC) */
 1730              		.loc 1 303 0
 1731 021a FFF7FEFF 		bl	USBFS_ConfigAltChanged
 1732              	.LVL179:
 1733              	.L139:
 307:Generated_Source\PSoC5/USBFS_std.c ****                 }
 1734              		.loc 1 307 0
 1735 021e FFF7FEFF 		bl	USBFS_InitNoDataControlTransfer
 1736              	.LVL180:
 1737 0222 10BD     		pop	{r4, pc}
 1738              	.LVL181:
 1739              	.L129:
 312:Generated_Source\PSoC5/USBFS_std.c ****                 {
 1740              		.loc 1 312 0
 1741 0224 03F00303 		and	r3, r3, #3
 1742              	.LVL182:
 1743 0228 012B     		cmp	r3, #1
 1744 022a 35D0     		beq	.L140
 1745 022c 4BB1     		cbz	r3, .L141
 1746 022e 022B     		cmp	r3, #2
 1747 0230 7ED1     		bne	.L165
 315:Generated_Source\PSoC5/USBFS_std.c ****                         {
 1748              		.loc 1 315 0
ARM GAS  C:\Users\CALEBC~1\AppData\Local\Temp\ccBuh6Ys.s 			page 57


 1749 0232 0A4B     		ldr	r3, .L168
 1750 0234 9B78     		ldrb	r3, [r3, #2]	@ zero_extendqisi2
 1751 0236 13F0FF0F 		tst	r3, #255
 1752 023a 7BD1     		bne	.L156
 317:Generated_Source\PSoC5/USBFS_std.c ****                         }
 1753              		.loc 1 317 0
 1754 023c FFF7FEFF 		bl	USBFS_ClearEndpointHalt
 1755              	.LVL183:
 1756 0240 10BD     		pop	{r4, pc}
 1757              	.LVL184:
 1758              	.L141:
 322:Generated_Source\PSoC5/USBFS_std.c ****                         {
 1759              		.loc 1 322 0
 1760 0242 064B     		ldr	r3, .L168
 1761 0244 9B78     		ldrb	r3, [r3, #2]	@ zero_extendqisi2
 1762 0246 DBB2     		uxtb	r3, r3
 1763 0248 012B     		cmp	r3, #1
 1764 024a 75D1     		bne	.L157
 324:Generated_Source\PSoC5/USBFS_std.c ****                             requestHandled = USBFS_InitNoDataControlTransfer();
 1765              		.loc 1 324 0
 1766 024c 0B4A     		ldr	r2, .L168+32
 1767 024e 1378     		ldrb	r3, [r2]	@ zero_extendqisi2
 1768 0250 03F0FD03 		and	r3, r3, #253
 1769 0254 1370     		strb	r3, [r2]
 325:Generated_Source\PSoC5/USBFS_std.c ****                         }
 1770              		.loc 1 325 0
 1771 0256 FFF7FEFF 		bl	USBFS_InitNoDataControlTransfer
 1772              	.LVL185:
 1773 025a 10BD     		pop	{r4, pc}
 1774              	.L169:
 1775              		.align	2
 1776              	.L168:
 1777 025c 00600040 		.word	1073766400
 1778 0260 00000000 		.word	USBFS_currentTD
 1779 0264 00000000 		.word	USBFS_STRING_DESCRIPTORS
 1780 0268 00000000 		.word	USBFS_MSOS_DESCRIPTOR
 1781 026c 00000000 		.word	USBFS_DEVICE0_DESCR
 1782 0270 00000000 		.word	USBFS_idSerialNumberStringDescriptor
 1783 0274 00000000 		.word	USBFS_EP
 1784 0278 00000000 		.word	.LANCHOR0
 1785 027c 00000000 		.word	USBFS_deviceStatus
 1786 0280 00000000 		.word	USBFS_configuration
 1787 0284 00000000 		.word	USBFS_interfaceSetting
 1788 0288 00000000 		.word	USBFS_deviceAddress
 1789 028c 00000000 		.word	USBFS_configurationChanged
 1790 0290 00000000 		.word	USBFS_interfaceNumber
 1791 0294 00000000 		.word	USBFS_interfaceSettingLast
 1792              	.LVL186:
 1793              	.L140:
 330:Generated_Source\PSoC5/USBFS_std.c ****                         {
 1794              		.loc 1 330 0
 1795 0298 2D4B     		ldr	r3, .L170
 1796 029a 1B79     		ldrb	r3, [r3, #4]	@ zero_extendqisi2
 1797 029c 13F0FF0F 		tst	r3, #255
 1798 02a0 4CD1     		bne	.L158
 332:Generated_Source\PSoC5/USBFS_std.c ****                             requestHandled = USBFS_InitNoDataControlTransfer();
 1799              		.loc 1 332 0
ARM GAS  C:\Users\CALEBC~1\AppData\Local\Temp\ccBuh6Ys.s 			page 58


 1800 02a2 2B4B     		ldr	r3, .L170
 1801 02a4 9878     		ldrb	r0, [r3, #2]	@ zero_extendqisi2
 1802 02a6 1B79     		ldrb	r3, [r3, #4]	@ zero_extendqisi2
 1803 02a8 DBB2     		uxtb	r3, r3
 1804 02aa 2A49     		ldr	r1, .L170+4
 1805 02ac CA5C     		ldrb	r2, [r1, r3]	@ zero_extendqisi2
 1806 02ae 22EA0002 		bic	r2, r2, r0
 1807 02b2 CA54     		strb	r2, [r1, r3]
 333:Generated_Source\PSoC5/USBFS_std.c ****                         }
 1808              		.loc 1 333 0
 1809 02b4 FFF7FEFF 		bl	USBFS_InitNoDataControlTransfer
 1810              	.LVL187:
 1811 02b8 10BD     		pop	{r4, pc}
 1812              	.LVL188:
 1813              	.L131:
 342:Generated_Source\PSoC5/USBFS_std.c ****                 {
 1814              		.loc 1 342 0
 1815 02ba 03F00303 		and	r3, r3, #3
 1816              	.LVL189:
 1817 02be 012B     		cmp	r3, #1
 1818 02c0 17D0     		beq	.L143
 1819 02c2 4BB1     		cbz	r3, .L144
 1820 02c4 022B     		cmp	r3, #2
 1821 02c6 3BD1     		bne	.L166
 345:Generated_Source\PSoC5/USBFS_std.c ****                         {
 1822              		.loc 1 345 0
 1823 02c8 214B     		ldr	r3, .L170
 1824 02ca 9B78     		ldrb	r3, [r3, #2]	@ zero_extendqisi2
 1825 02cc 13F0FF0F 		tst	r3, #255
 1826 02d0 38D1     		bne	.L160
 347:Generated_Source\PSoC5/USBFS_std.c ****                         }
 1827              		.loc 1 347 0
 1828 02d2 FFF7FEFF 		bl	USBFS_SetEndpointHalt
 1829              	.LVL190:
 1830 02d6 10BD     		pop	{r4, pc}
 1831              	.LVL191:
 1832              	.L144:
 353:Generated_Source\PSoC5/USBFS_std.c ****                         {
 1833              		.loc 1 353 0
 1834 02d8 1D4B     		ldr	r3, .L170
 1835 02da 9B78     		ldrb	r3, [r3, #2]	@ zero_extendqisi2
 1836 02dc DBB2     		uxtb	r3, r3
 1837 02de 012B     		cmp	r3, #1
 1838 02e0 32D1     		bne	.L161
 355:Generated_Source\PSoC5/USBFS_std.c ****                             requestHandled = USBFS_InitNoDataControlTransfer();
 1839              		.loc 1 355 0
 1840 02e2 1D4A     		ldr	r2, .L170+8
 1841 02e4 1378     		ldrb	r3, [r2]	@ zero_extendqisi2
 1842 02e6 43F00203 		orr	r3, r3, #2
 1843 02ea 1370     		strb	r3, [r2]
 356:Generated_Source\PSoC5/USBFS_std.c ****                         }
 1844              		.loc 1 356 0
 1845 02ec FFF7FEFF 		bl	USBFS_InitNoDataControlTransfer
 1846              	.LVL192:
 1847 02f0 10BD     		pop	{r4, pc}
 1848              	.LVL193:
 1849              	.L143:
ARM GAS  C:\Users\CALEBC~1\AppData\Local\Temp\ccBuh6Ys.s 			page 59


 362:Generated_Source\PSoC5/USBFS_std.c ****                         {
 1850              		.loc 1 362 0
 1851 02f2 174B     		ldr	r3, .L170
 1852 02f4 1B79     		ldrb	r3, [r3, #4]	@ zero_extendqisi2
 1853 02f6 13F0FF0F 		tst	r3, #255
 1854 02fa 27D1     		bne	.L162
 364:Generated_Source\PSoC5/USBFS_std.c ****                             requestHandled = USBFS_InitNoDataControlTransfer();
 1855              		.loc 1 364 0
 1856 02fc 144B     		ldr	r3, .L170
 1857 02fe 9878     		ldrb	r0, [r3, #2]	@ zero_extendqisi2
 1858 0300 1B79     		ldrb	r3, [r3, #4]	@ zero_extendqisi2
 1859 0302 DBB2     		uxtb	r3, r3
 1860 0304 1349     		ldr	r1, .L170+4
 1861 0306 CA5C     		ldrb	r2, [r1, r3]	@ zero_extendqisi2
 1862 0308 22EA0002 		bic	r2, r2, r0
 1863 030c CA54     		strb	r2, [r1, r3]
 365:Generated_Source\PSoC5/USBFS_std.c ****                         }
 1864              		.loc 1 365 0
 1865 030e FFF7FEFF 		bl	USBFS_InitNoDataControlTransfer
 1866              	.LVL194:
 1867 0312 10BD     		pop	{r4, pc}
 1868              	.LVL195:
 1869              	.L146:
  86:Generated_Source\PSoC5/USBFS_std.c ****     uint8 interfaceNumber;
 1870              		.loc 1 86 0
 1871 0314 0020     		movs	r0, #0
 1872 0316 10BD     		pop	{r4, pc}
 1873              	.LVL196:
 1874              	.L147:
 1875 0318 0020     		movs	r0, #0
 1876              	.LVL197:
 1877 031a 10BD     		pop	{r4, pc}
 1878              	.LVL198:
 1879              	.L150:
 1880 031c 0020     		movs	r0, #0
 1881 031e 10BD     		pop	{r4, pc}
 1882              	.LVL199:
 1883              	.L164:
 1884 0320 0020     		movs	r0, #0
 1885 0322 10BD     		pop	{r4, pc}
 1886              	.LVL200:
 1887              	.L152:
 1888 0324 0020     		movs	r0, #0
 1889 0326 10BD     		pop	{r4, pc}
 1890              	.LVL201:
 1891              	.L153:
 1892 0328 0020     		movs	r0, #0
 1893              	.LVL202:
 1894 032a 10BD     		pop	{r4, pc}
 1895              	.L154:
 1896 032c 0020     		movs	r0, #0
 1897 032e 10BD     		pop	{r4, pc}
 1898              	.L165:
 1899 0330 0020     		movs	r0, #0
 1900 0332 10BD     		pop	{r4, pc}
 1901              	.L156:
 1902 0334 0020     		movs	r0, #0
ARM GAS  C:\Users\CALEBC~1\AppData\Local\Temp\ccBuh6Ys.s 			page 60


 1903 0336 10BD     		pop	{r4, pc}
 1904              	.L157:
 1905 0338 0020     		movs	r0, #0
 1906 033a 10BD     		pop	{r4, pc}
 1907              	.L158:
 1908 033c 0020     		movs	r0, #0
 1909 033e 10BD     		pop	{r4, pc}
 1910              	.L166:
 1911 0340 0020     		movs	r0, #0
 1912 0342 10BD     		pop	{r4, pc}
 1913              	.L160:
 1914 0344 0020     		movs	r0, #0
 1915 0346 10BD     		pop	{r4, pc}
 1916              	.L161:
 1917 0348 0020     		movs	r0, #0
 1918 034a 10BD     		pop	{r4, pc}
 1919              	.L162:
 1920 034c 0020     		movs	r0, #0
 1921              	.LVL203:
 380:Generated_Source\PSoC5/USBFS_std.c **** 
 1922              		.loc 1 380 0
 1923 034e 10BD     		pop	{r4, pc}
 1924              	.L171:
 1925              		.align	2
 1926              	.L170:
 1927 0350 00600040 		.word	1073766400
 1928 0354 00000000 		.word	USBFS_interfaceStatus
 1929 0358 00000000 		.word	USBFS_deviceStatus
 1930              		.cfi_endproc
 1931              	.LFE0:
 1932              		.size	USBFS_HandleStandardRqst, .-USBFS_HandleStandardRqst
 1933              		.section	.rodata.str1.4,"aMS",%progbits,1
 1934              		.align	2
 1935              	.LC0:
 1936 0000 30313233 		.ascii	"0123456789ABCDEF\000"
 1936      34353637 
 1936      38394142 
 1936      43444546 
 1936      00
 1937              		.bss
 1938              		.align	2
 1939              		.set	.LANCHOR0,. + 0
 1940              		.type	USBFS_tBuffer.5288, %object
 1941              		.size	USBFS_tBuffer.5288, 2
 1942              	USBFS_tBuffer.5288:
 1943 0000 0000     		.space	2
 1944              		.text
 1945              	.Letext0:
 1946              		.file 2 "Generated_Source\\PSoC5\\cytypes.h"
 1947              		.file 3 "Generated_Source\\PSoC5\\USBFS.h"
 1948              		.file 4 "Generated_Source\\PSoC5\\USBFS_pvt.h"
 1949              		.file 5 "Generated_Source\\PSoC5\\CyLib.h"
 1950              		.section	.debug_info,"",%progbits
 1951              	.Ldebug_info0:
 1952 0000 FC0A0000 		.4byte	0xafc
 1953 0004 0400     		.2byte	0x4
 1954 0006 00000000 		.4byte	.Ldebug_abbrev0
ARM GAS  C:\Users\CALEBC~1\AppData\Local\Temp\ccBuh6Ys.s 			page 61


 1955 000a 04       		.byte	0x4
 1956 000b 01       		.uleb128 0x1
 1957 000c DC010000 		.4byte	.LASF117
 1958 0010 0C       		.byte	0xc
 1959 0011 C1050000 		.4byte	.LASF118
 1960 0015 48050000 		.4byte	.LASF119
 1961 0019 00000000 		.4byte	.Ldebug_ranges0+0
 1962 001d 00000000 		.4byte	0
 1963 0021 00000000 		.4byte	.Ldebug_line0
 1964 0025 02       		.uleb128 0x2
 1965 0026 01       		.byte	0x1
 1966 0027 06       		.byte	0x6
 1967 0028 CD060000 		.4byte	.LASF0
 1968 002c 02       		.uleb128 0x2
 1969 002d 01       		.byte	0x1
 1970 002e 08       		.byte	0x8
 1971 002f 23060000 		.4byte	.LASF1
 1972 0033 02       		.uleb128 0x2
 1973 0034 02       		.byte	0x2
 1974 0035 05       		.byte	0x5
 1975 0036 3E050000 		.4byte	.LASF2
 1976 003a 02       		.uleb128 0x2
 1977 003b 02       		.byte	0x2
 1978 003c 07       		.byte	0x7
 1979 003d D9060000 		.4byte	.LASF3
 1980 0041 02       		.uleb128 0x2
 1981 0042 04       		.byte	0x4
 1982 0043 05       		.byte	0x5
 1983 0044 9E050000 		.4byte	.LASF4
 1984 0048 02       		.uleb128 0x2
 1985 0049 04       		.byte	0x4
 1986 004a 07       		.byte	0x7
 1987 004b ED050000 		.4byte	.LASF5
 1988 004f 02       		.uleb128 0x2
 1989 0050 08       		.byte	0x8
 1990 0051 05       		.byte	0x5
 1991 0052 B8030000 		.4byte	.LASF6
 1992 0056 02       		.uleb128 0x2
 1993 0057 08       		.byte	0x8
 1994 0058 07       		.byte	0x7
 1995 0059 56010000 		.4byte	.LASF7
 1996 005d 03       		.uleb128 0x3
 1997 005e 04       		.byte	0x4
 1998 005f 05       		.byte	0x5
 1999 0060 696E7400 		.ascii	"int\000"
 2000 0064 02       		.uleb128 0x2
 2001 0065 04       		.byte	0x4
 2002 0066 07       		.byte	0x7
 2003 0067 67000000 		.4byte	.LASF8
 2004 006b 04       		.uleb128 0x4
 2005 006c FE060000 		.4byte	.LASF9
 2006 0070 02       		.byte	0x2
 2007 0071 E401     		.2byte	0x1e4
 2008 0073 2C000000 		.4byte	0x2c
 2009 0077 04       		.uleb128 0x4
 2010 0078 5D030000 		.4byte	.LASF10
 2011 007c 02       		.byte	0x2
ARM GAS  C:\Users\CALEBC~1\AppData\Local\Temp\ccBuh6Ys.s 			page 62


 2012 007d E501     		.2byte	0x1e5
 2013 007f 3A000000 		.4byte	0x3a
 2014 0083 04       		.uleb128 0x4
 2015 0084 77040000 		.4byte	.LASF11
 2016 0088 02       		.byte	0x2
 2017 0089 E601     		.2byte	0x1e6
 2018 008b 48000000 		.4byte	0x48
 2019 008f 02       		.uleb128 0x2
 2020 0090 04       		.byte	0x4
 2021 0091 04       		.byte	0x4
 2022 0092 39010000 		.4byte	.LASF12
 2023 0096 02       		.uleb128 0x2
 2024 0097 08       		.byte	0x8
 2025 0098 04       		.byte	0x4
 2026 0099 04070000 		.4byte	.LASF13
 2027 009d 04       		.uleb128 0x4
 2028 009e 7B030000 		.4byte	.LASF14
 2029 00a2 02       		.byte	0x2
 2030 00a3 F501     		.2byte	0x1f5
 2031 00a5 A9000000 		.4byte	0xa9
 2032 00a9 02       		.uleb128 0x2
 2033 00aa 01       		.byte	0x1
 2034 00ab 08       		.byte	0x8
 2035 00ac 26030000 		.4byte	.LASF15
 2036 00b0 04       		.uleb128 0x4
 2037 00b1 92000000 		.4byte	.LASF16
 2038 00b5 02       		.byte	0x2
 2039 00b6 8E02     		.2byte	0x28e
 2040 00b8 BC000000 		.4byte	0xbc
 2041 00bc 05       		.uleb128 0x5
 2042 00bd 6B000000 		.4byte	0x6b
 2043 00c1 02       		.uleb128 0x2
 2044 00c2 08       		.byte	0x8
 2045 00c3 04       		.byte	0x4
 2046 00c4 F9040000 		.4byte	.LASF17
 2047 00c8 02       		.uleb128 0x2
 2048 00c9 04       		.byte	0x4
 2049 00ca 07       		.byte	0x7
 2050 00cb E4050000 		.4byte	.LASF18
 2051 00cf 06       		.uleb128 0x6
 2052 00d0 0C       		.byte	0xc
 2053 00d1 03       		.byte	0x3
 2054 00d2 8D       		.byte	0x8d
 2055 00d3 44010000 		.4byte	0x144
 2056 00d7 07       		.uleb128 0x7
 2057 00d8 29070000 		.4byte	.LASF19
 2058 00dc 03       		.byte	0x3
 2059 00dd 8F       		.byte	0x8f
 2060 00de 6B000000 		.4byte	0x6b
 2061 00e2 00       		.byte	0
 2062 00e3 07       		.uleb128 0x7
 2063 00e4 3E070000 		.4byte	.LASF20
 2064 00e8 03       		.byte	0x3
 2065 00e9 90       		.byte	0x90
 2066 00ea 6B000000 		.4byte	0x6b
 2067 00ee 01       		.byte	0x1
 2068 00ef 07       		.uleb128 0x7
ARM GAS  C:\Users\CALEBC~1\AppData\Local\Temp\ccBuh6Ys.s 			page 63


 2069 00f0 58040000 		.4byte	.LASF21
 2070 00f4 03       		.byte	0x3
 2071 00f5 91       		.byte	0x91
 2072 00f6 6B000000 		.4byte	0x6b
 2073 00fa 02       		.byte	0x2
 2074 00fb 07       		.uleb128 0x7
 2075 00fc 0D010000 		.4byte	.LASF22
 2076 0100 03       		.byte	0x3
 2077 0101 92       		.byte	0x92
 2078 0102 6B000000 		.4byte	0x6b
 2079 0106 03       		.byte	0x3
 2080 0107 07       		.uleb128 0x7
 2081 0108 7A060000 		.4byte	.LASF23
 2082 010c 03       		.byte	0x3
 2083 010d 93       		.byte	0x93
 2084 010e 6B000000 		.4byte	0x6b
 2085 0112 04       		.byte	0x4
 2086 0113 07       		.uleb128 0x7
 2087 0114 97050000 		.4byte	.LASF24
 2088 0118 03       		.byte	0x3
 2089 0119 94       		.byte	0x94
 2090 011a 6B000000 		.4byte	0x6b
 2091 011e 05       		.byte	0x5
 2092 011f 07       		.uleb128 0x7
 2093 0120 91030000 		.4byte	.LASF25
 2094 0124 03       		.byte	0x3
 2095 0125 95       		.byte	0x95
 2096 0126 77000000 		.4byte	0x77
 2097 012a 06       		.byte	0x6
 2098 012b 07       		.uleb128 0x7
 2099 012c 24000000 		.4byte	.LASF26
 2100 0130 03       		.byte	0x3
 2101 0131 96       		.byte	0x96
 2102 0132 77000000 		.4byte	0x77
 2103 0136 08       		.byte	0x8
 2104 0137 07       		.uleb128 0x7
 2105 0138 44000000 		.4byte	.LASF27
 2106 013c 03       		.byte	0x3
 2107 013d 97       		.byte	0x97
 2108 013e 6B000000 		.4byte	0x6b
 2109 0142 0A       		.byte	0xa
 2110 0143 00       		.byte	0
 2111 0144 08       		.uleb128 0x8
 2112 0145 C7010000 		.4byte	.LASF28
 2113 0149 03       		.byte	0x3
 2114 014a 98       		.byte	0x98
 2115 014b CF000000 		.4byte	0xcf
 2116 014f 06       		.uleb128 0x6
 2117 0150 08       		.byte	0x8
 2118 0151 03       		.byte	0x3
 2119 0152 9A       		.byte	0x9a
 2120 0153 A0010000 		.4byte	0x1a0
 2121 0157 07       		.uleb128 0x7
 2122 0158 44000000 		.4byte	.LASF27
 2123 015c 03       		.byte	0x3
 2124 015d 9C       		.byte	0x9c
 2125 015e 6B000000 		.4byte	0x6b
ARM GAS  C:\Users\CALEBC~1\AppData\Local\Temp\ccBuh6Ys.s 			page 64


 2126 0162 00       		.byte	0
 2127 0163 07       		.uleb128 0x7
 2128 0164 02010000 		.4byte	.LASF29
 2129 0168 03       		.byte	0x3
 2130 0169 9D       		.byte	0x9d
 2131 016a 6B000000 		.4byte	0x6b
 2132 016e 01       		.byte	0x1
 2133 016f 07       		.uleb128 0x7
 2134 0170 7A060000 		.4byte	.LASF23
 2135 0174 03       		.byte	0x3
 2136 0175 9E       		.byte	0x9e
 2137 0176 6B000000 		.4byte	0x6b
 2138 017a 02       		.byte	0x2
 2139 017b 07       		.uleb128 0x7
 2140 017c 6F060000 		.4byte	.LASF30
 2141 0180 03       		.byte	0x3
 2142 0181 9F       		.byte	0x9f
 2143 0182 6B000000 		.4byte	0x6b
 2144 0186 03       		.byte	0x3
 2145 0187 07       		.uleb128 0x7
 2146 0188 24000000 		.4byte	.LASF26
 2147 018c 03       		.byte	0x3
 2148 018d A0       		.byte	0xa0
 2149 018e 77000000 		.4byte	0x77
 2150 0192 04       		.byte	0x4
 2151 0193 07       		.uleb128 0x7
 2152 0194 DA030000 		.4byte	.LASF31
 2153 0198 03       		.byte	0x3
 2154 0199 A1       		.byte	0xa1
 2155 019a 6B000000 		.4byte	0x6b
 2156 019e 06       		.byte	0x6
 2157 019f 00       		.byte	0
 2158 01a0 08       		.uleb128 0x8
 2159 01a1 03030000 		.4byte	.LASF32
 2160 01a5 03       		.byte	0x3
 2161 01a6 A2       		.byte	0xa2
 2162 01a7 4F010000 		.4byte	0x14f
 2163 01ab 06       		.uleb128 0x6
 2164 01ac 04       		.byte	0x4
 2165 01ad 03       		.byte	0x3
 2166 01ae A4       		.byte	0xa4
 2167 01af CC010000 		.4byte	0x1cc
 2168 01b3 07       		.uleb128 0x7
 2169 01b4 74030000 		.4byte	.LASF33
 2170 01b8 03       		.byte	0x3
 2171 01b9 A6       		.byte	0xa6
 2172 01ba 6B000000 		.4byte	0x6b
 2173 01be 00       		.byte	0
 2174 01bf 07       		.uleb128 0x7
 2175 01c0 A7050000 		.4byte	.LASF34
 2176 01c4 03       		.byte	0x3
 2177 01c5 A7       		.byte	0xa7
 2178 01c6 77000000 		.4byte	0x77
 2179 01ca 02       		.byte	0x2
 2180 01cb 00       		.byte	0
 2181 01cc 08       		.uleb128 0x8
 2182 01cd DF040000 		.4byte	.LASF35
ARM GAS  C:\Users\CALEBC~1\AppData\Local\Temp\ccBuh6Ys.s 			page 65


 2183 01d1 03       		.byte	0x3
 2184 01d2 A8       		.byte	0xa8
 2185 01d3 AB010000 		.4byte	0x1ab
 2186 01d7 06       		.uleb128 0x6
 2187 01d8 0C       		.byte	0xc
 2188 01d9 03       		.byte	0x3
 2189 01da AA       		.byte	0xaa
 2190 01db 04020000 		.4byte	0x204
 2191 01df 07       		.uleb128 0x7
 2192 01e0 3F010000 		.4byte	.LASF36
 2193 01e4 03       		.byte	0x3
 2194 01e5 AC       		.byte	0xac
 2195 01e6 77000000 		.4byte	0x77
 2196 01ea 00       		.byte	0
 2197 01eb 07       		.uleb128 0x7
 2198 01ec DE020000 		.4byte	.LASF37
 2199 01f0 03       		.byte	0x3
 2200 01f1 AD       		.byte	0xad
 2201 01f2 04020000 		.4byte	0x204
 2202 01f6 04       		.byte	0x4
 2203 01f7 07       		.uleb128 0x7
 2204 01f8 F6020000 		.4byte	.LASF38
 2205 01fc 03       		.byte	0x3
 2206 01fd AE       		.byte	0xae
 2207 01fe 0A020000 		.4byte	0x20a
 2208 0202 08       		.byte	0x8
 2209 0203 00       		.byte	0
 2210 0204 09       		.uleb128 0x9
 2211 0205 04       		.byte	0x4
 2212 0206 BC000000 		.4byte	0xbc
 2213 020a 09       		.uleb128 0x9
 2214 020b 04       		.byte	0x4
 2215 020c CC010000 		.4byte	0x1cc
 2216 0210 08       		.uleb128 0x8
 2217 0211 6A020000 		.4byte	.LASF39
 2218 0215 03       		.byte	0x3
 2219 0216 AF       		.byte	0xaf
 2220 0217 D7010000 		.4byte	0x1d7
 2221 021b 06       		.uleb128 0x6
 2222 021c 08       		.byte	0x8
 2223 021d 03       		.byte	0x3
 2224 021e B1       		.byte	0xb1
 2225 021f 3A020000 		.4byte	0x23a
 2226 0223 0A       		.uleb128 0xa
 2227 0224 6300     		.ascii	"c\000"
 2228 0226 03       		.byte	0x3
 2229 0227 B3       		.byte	0xb3
 2230 0228 6B000000 		.4byte	0x6b
 2231 022c 00       		.byte	0
 2232 022d 07       		.uleb128 0x7
 2233 022e 0F060000 		.4byte	.LASF40
 2234 0232 03       		.byte	0x3
 2235 0233 B4       		.byte	0xb4
 2236 0234 3A020000 		.4byte	0x23a
 2237 0238 04       		.byte	0x4
 2238 0239 00       		.byte	0
 2239 023a 09       		.uleb128 0x9
ARM GAS  C:\Users\CALEBC~1\AppData\Local\Temp\ccBuh6Ys.s 			page 66


 2240 023b 04       		.byte	0x4
 2241 023c 40020000 		.4byte	0x240
 2242 0240 0B       		.uleb128 0xb
 2243 0241 08       		.uleb128 0x8
 2244 0242 45010000 		.4byte	.LASF41
 2245 0246 03       		.byte	0x3
 2246 0247 B5       		.byte	0xb5
 2247 0248 1B020000 		.4byte	0x21b
 2248 024c 06       		.uleb128 0x6
 2249 024d 08       		.byte	0x8
 2250 024e 03       		.byte	0x3
 2251 024f C5       		.byte	0xc5
 2252 0250 61020000 		.4byte	0x261
 2253 0254 07       		.uleb128 0x7
 2254 0255 49070000 		.4byte	.LASF42
 2255 0259 03       		.byte	0x3
 2256 025a C7       		.byte	0xc7
 2257 025b 61020000 		.4byte	0x261
 2258 025f 00       		.byte	0
 2259 0260 00       		.byte	0
 2260 0261 0C       		.uleb128 0xc
 2261 0262 6B000000 		.4byte	0x6b
 2262 0266 71020000 		.4byte	0x271
 2263 026a 0D       		.uleb128 0xd
 2264 026b C8000000 		.4byte	0xc8
 2265 026f 07       		.byte	0x7
 2266 0270 00       		.byte	0
 2267 0271 08       		.uleb128 0x8
 2268 0272 B2060000 		.4byte	.LASF43
 2269 0276 03       		.byte	0x3
 2270 0277 C8       		.byte	0xc8
 2271 0278 4C020000 		.4byte	0x24c
 2272 027c 06       		.uleb128 0x6
 2273 027d 10       		.byte	0x10
 2274 027e 03       		.byte	0x3
 2275 027f D4       		.byte	0xd4
 2276 0280 B5020000 		.4byte	0x2b5
 2277 0284 07       		.uleb128 0x7
 2278 0285 F9030000 		.4byte	.LASF44
 2279 0289 03       		.byte	0x3
 2280 028a D6       		.byte	0xd6
 2281 028b 6B000000 		.4byte	0x6b
 2282 028f 00       		.byte	0
 2283 0290 07       		.uleb128 0x7
 2284 0291 00040000 		.4byte	.LASF45
 2285 0295 03       		.byte	0x3
 2286 0296 D7       		.byte	0xd7
 2287 0297 6B000000 		.4byte	0x6b
 2288 029b 01       		.byte	0x1
 2289 029c 07       		.uleb128 0x7
 2290 029d 9C030000 		.4byte	.LASF46
 2291 02a1 03       		.byte	0x3
 2292 02a2 D8       		.byte	0xd8
 2293 02a3 6B000000 		.4byte	0x6b
 2294 02a7 02       		.byte	0x2
 2295 02a8 0A       		.uleb128 0xa
 2296 02a9 67617000 		.ascii	"gap\000"
ARM GAS  C:\Users\CALEBC~1\AppData\Local\Temp\ccBuh6Ys.s 			page 67


 2297 02ad 03       		.byte	0x3
 2298 02ae D9       		.byte	0xd9
 2299 02af B5020000 		.4byte	0x2b5
 2300 02b3 03       		.byte	0x3
 2301 02b4 00       		.byte	0
 2302 02b5 0C       		.uleb128 0xc
 2303 02b6 6B000000 		.4byte	0x6b
 2304 02ba C5020000 		.4byte	0x2c5
 2305 02be 0D       		.uleb128 0xd
 2306 02bf C8000000 		.4byte	0xc8
 2307 02c3 0C       		.byte	0xc
 2308 02c4 00       		.byte	0
 2309 02c5 08       		.uleb128 0x8
 2310 02c6 75020000 		.4byte	.LASF47
 2311 02ca 03       		.byte	0x3
 2312 02cb DA       		.byte	0xda
 2313 02cc 7C020000 		.4byte	0x27c
 2314 02d0 06       		.uleb128 0x6
 2315 02d1 10       		.byte	0x10
 2316 02d2 03       		.byte	0x3
 2317 02d3 E6       		.byte	0xe6
 2318 02d4 51030000 		.4byte	0x351
 2319 02d8 07       		.uleb128 0x7
 2320 02d9 B6050000 		.4byte	.LASF48
 2321 02dd 03       		.byte	0x3
 2322 02de E8       		.byte	0xe8
 2323 02df 6B000000 		.4byte	0x6b
 2324 02e3 00       		.byte	0
 2325 02e4 07       		.uleb128 0x7
 2326 02e5 B7020000 		.4byte	.LASF49
 2327 02e9 03       		.byte	0x3
 2328 02ea E9       		.byte	0xe9
 2329 02eb 6B000000 		.4byte	0x6b
 2330 02ef 01       		.byte	0x1
 2331 02f0 07       		.uleb128 0x7
 2332 02f1 0A060000 		.4byte	.LASF50
 2333 02f5 03       		.byte	0x3
 2334 02f6 EA       		.byte	0xea
 2335 02f7 6B000000 		.4byte	0x6b
 2336 02fb 02       		.byte	0x2
 2337 02fc 07       		.uleb128 0x7
 2338 02fd F5060000 		.4byte	.LASF51
 2339 0301 03       		.byte	0x3
 2340 0302 EB       		.byte	0xeb
 2341 0303 6B000000 		.4byte	0x6b
 2342 0307 03       		.byte	0x3
 2343 0308 07       		.uleb128 0x7
 2344 0309 51010000 		.4byte	.LASF52
 2345 030d 03       		.byte	0x3
 2346 030e EC       		.byte	0xec
 2347 030f 6B000000 		.4byte	0x6b
 2348 0313 04       		.byte	0x4
 2349 0314 07       		.uleb128 0x7
 2350 0315 1B060000 		.4byte	.LASF53
 2351 0319 03       		.byte	0x3
 2352 031a ED       		.byte	0xed
 2353 031b 6B000000 		.4byte	0x6b
ARM GAS  C:\Users\CALEBC~1\AppData\Local\Temp\ccBuh6Ys.s 			page 68


 2354 031f 05       		.byte	0x5
 2355 0320 07       		.uleb128 0x7
 2356 0321 C8060000 		.4byte	.LASF54
 2357 0325 03       		.byte	0x3
 2358 0326 EE       		.byte	0xee
 2359 0327 6B000000 		.4byte	0x6b
 2360 032b 06       		.byte	0x6
 2361 032c 07       		.uleb128 0x7
 2362 032d AE050000 		.4byte	.LASF55
 2363 0331 03       		.byte	0x3
 2364 0332 EF       		.byte	0xef
 2365 0333 6B000000 		.4byte	0x6b
 2366 0337 07       		.byte	0x7
 2367 0338 07       		.uleb128 0x7
 2368 0339 1F000000 		.4byte	.LASF56
 2369 033d 03       		.byte	0x3
 2370 033e F0       		.byte	0xf0
 2371 033f 6B000000 		.4byte	0x6b
 2372 0343 08       		.byte	0x8
 2373 0344 0A       		.uleb128 0xa
 2374 0345 67617000 		.ascii	"gap\000"
 2375 0349 03       		.byte	0x3
 2376 034a F1       		.byte	0xf1
 2377 034b 51030000 		.4byte	0x351
 2378 034f 09       		.byte	0x9
 2379 0350 00       		.byte	0
 2380 0351 0C       		.uleb128 0xc
 2381 0352 6B000000 		.4byte	0x6b
 2382 0356 61030000 		.4byte	0x361
 2383 035a 0D       		.uleb128 0xd
 2384 035b C8000000 		.4byte	0xc8
 2385 035f 06       		.byte	0x6
 2386 0360 00       		.byte	0
 2387 0361 08       		.uleb128 0x8
 2388 0362 97000000 		.4byte	.LASF57
 2389 0366 03       		.byte	0x3
 2390 0367 F2       		.byte	0xf2
 2391 0368 D0020000 		.4byte	0x2d0
 2392 036c 0E       		.uleb128 0xe
 2393 036d 90       		.byte	0x90
 2394 036e 03       		.byte	0x3
 2395 036f 0E01     		.2byte	0x10e
 2396 0371 83030000 		.4byte	0x383
 2397 0375 0F       		.uleb128 0xf
 2398 0376 3E000000 		.4byte	.LASF58
 2399 037a 03       		.byte	0x3
 2400 037b 1001     		.2byte	0x110
 2401 037d 83030000 		.4byte	0x383
 2402 0381 00       		.byte	0
 2403 0382 00       		.byte	0
 2404 0383 0C       		.uleb128 0xc
 2405 0384 C5020000 		.4byte	0x2c5
 2406 0388 93030000 		.4byte	0x393
 2407 038c 0D       		.uleb128 0xd
 2408 038d C8000000 		.4byte	0xc8
 2409 0391 08       		.byte	0x8
 2410 0392 00       		.byte	0
ARM GAS  C:\Users\CALEBC~1\AppData\Local\Temp\ccBuh6Ys.s 			page 69


 2411 0393 04       		.uleb128 0x4
 2412 0394 62040000 		.4byte	.LASF59
 2413 0398 03       		.byte	0x3
 2414 0399 1101     		.2byte	0x111
 2415 039b 6C030000 		.4byte	0x36c
 2416 039f 0E       		.uleb128 0xe
 2417 03a0 90       		.byte	0x90
 2418 03a1 03       		.byte	0x3
 2419 03a2 1401     		.2byte	0x114
 2420 03a4 B6030000 		.4byte	0x3b6
 2421 03a8 0F       		.uleb128 0xf
 2422 03a9 37030000 		.4byte	.LASF60
 2423 03ad 03       		.byte	0x3
 2424 03ae 1601     		.2byte	0x116
 2425 03b0 B6030000 		.4byte	0x3b6
 2426 03b4 00       		.byte	0
 2427 03b5 00       		.byte	0
 2428 03b6 0C       		.uleb128 0xc
 2429 03b7 61030000 		.4byte	0x361
 2430 03bb C6030000 		.4byte	0x3c6
 2431 03bf 0D       		.uleb128 0xd
 2432 03c0 C8000000 		.4byte	0xc8
 2433 03c4 08       		.byte	0x8
 2434 03c5 00       		.byte	0
 2435 03c6 04       		.uleb128 0x4
 2436 03c7 80010000 		.4byte	.LASF61
 2437 03cb 03       		.byte	0x3
 2438 03cc 1701     		.2byte	0x117
 2439 03ce 9F030000 		.4byte	0x39f
 2440 03d2 10       		.uleb128 0x10
 2441 03d3 64030000 		.4byte	.LASF63
 2442 03d7 01       		.byte	0x1
 2443 03d8 8E01     		.2byte	0x18e
 2444 03da 00000000 		.4byte	.LFB1
 2445 03de 6C000000 		.4byte	.LFE1-.LFB1
 2446 03e2 01       		.uleb128 0x1
 2447 03e3 9C       		.byte	0x9c
 2448 03e4 43040000 		.4byte	0x443
 2449 03e8 11       		.uleb128 0x11
 2450 03e9 C3040000 		.4byte	.LASF66
 2451 03ed 01       		.byte	0x1
 2452 03ee 8E01     		.2byte	0x18e
 2453 03f0 43040000 		.4byte	0x443
 2454 03f4 00000000 		.4byte	.LLST0
 2455 03f8 12       		.uleb128 0x12
 2456 03f9 68657800 		.ascii	"hex\000"
 2457 03fd 01       		.byte	0x1
 2458 03fe 9001     		.2byte	0x190
 2459 0400 5E040000 		.4byte	0x45e
 2460 0404 02       		.uleb128 0x2
 2461 0405 91       		.byte	0x91
 2462 0406 5C       		.sleb128 -36
 2463 0407 13       		.uleb128 0x13
 2464 0408 6900     		.ascii	"i\000"
 2465 040a 01       		.byte	0x1
 2466 040b 9101     		.2byte	0x191
 2467 040d 6B000000 		.4byte	0x6b
ARM GAS  C:\Users\CALEBC~1\AppData\Local\Temp\ccBuh6Ys.s 			page 70


 2468 0411 2C000000 		.4byte	.LLST1
 2469 0415 13       		.uleb128 0x13
 2470 0416 6A00     		.ascii	"j\000"
 2471 0418 01       		.byte	0x1
 2472 0419 9201     		.2byte	0x192
 2473 041b 6B000000 		.4byte	0x6b
 2474 041f 56000000 		.4byte	.LLST2
 2475 0423 14       		.uleb128 0x14
 2476 0424 EC060000 		.4byte	.LASF62
 2477 0428 01       		.byte	0x1
 2478 0429 9301     		.2byte	0x193
 2479 042b 61020000 		.4byte	0x261
 2480 042f 02       		.uleb128 0x2
 2481 0430 91       		.byte	0x91
 2482 0431 54       		.sleb128 -44
 2483 0432 15       		.uleb128 0x15
 2484 0433 22000000 		.4byte	.LVL3
 2485 0437 D20A0000 		.4byte	0xad2
 2486 043b 16       		.uleb128 0x16
 2487 043c 01       		.uleb128 0x1
 2488 043d 50       		.byte	0x50
 2489 043e 02       		.uleb128 0x2
 2490 043f 91       		.byte	0x91
 2491 0440 54       		.sleb128 -44
 2492 0441 00       		.byte	0
 2493 0442 00       		.byte	0
 2494 0443 09       		.uleb128 0x9
 2495 0444 04       		.byte	0x4
 2496 0445 6B000000 		.4byte	0x6b
 2497 0449 0C       		.uleb128 0xc
 2498 044a 59040000 		.4byte	0x459
 2499 044e 59040000 		.4byte	0x459
 2500 0452 0D       		.uleb128 0xd
 2501 0453 C8000000 		.4byte	0xc8
 2502 0457 10       		.byte	0x10
 2503 0458 00       		.byte	0
 2504 0459 17       		.uleb128 0x17
 2505 045a 9D000000 		.4byte	0x9d
 2506 045e 17       		.uleb128 0x17
 2507 045f 49040000 		.4byte	0x449
 2508 0463 10       		.uleb128 0x10
 2509 0464 81030000 		.4byte	.LASF64
 2510 0468 01       		.byte	0x1
 2511 0469 B501     		.2byte	0x1b5
 2512 046b 00000000 		.4byte	.LFB2
 2513 046f A8000000 		.4byte	.LFE2-.LFB2
 2514 0473 01       		.uleb128 0x1
 2515 0474 9C       		.byte	0x9c
 2516 0475 89040000 		.4byte	0x489
 2517 0479 13       		.uleb128 0x13
 2518 047a 657000   		.ascii	"ep\000"
 2519 047d 01       		.byte	0x1
 2520 047e B701     		.2byte	0x1b7
 2521 0480 6B000000 		.4byte	0x6b
 2522 0484 80000000 		.4byte	.LLST3
 2523 0488 00       		.byte	0
 2524 0489 10       		.uleb128 0x10
ARM GAS  C:\Users\CALEBC~1\AppData\Local\Temp\ccBuh6Ys.s 			page 71


 2525 048a C8000000 		.4byte	.LASF65
 2526 048e 01       		.byte	0x1
 2527 048f 1402     		.2byte	0x214
 2528 0491 00000000 		.4byte	.LFB3
 2529 0495 44000000 		.4byte	.LFE3-.LFB3
 2530 0499 01       		.uleb128 0x1
 2531 049a 9C       		.byte	0x9c
 2532 049b AE040000 		.4byte	0x4ae
 2533 049f 13       		.uleb128 0x13
 2534 04a0 6900     		.ascii	"i\000"
 2535 04a2 01       		.byte	0x1
 2536 04a3 1602     		.2byte	0x216
 2537 04a5 6B000000 		.4byte	0x6b
 2538 04a9 AA000000 		.4byte	.LLST4
 2539 04ad 00       		.byte	0
 2540 04ae 18       		.uleb128 0x18
 2541 04af 9F020000 		.4byte	.LASF73
 2542 04b3 01       		.byte	0x1
 2543 04b4 AE03     		.2byte	0x3ae
 2544 04b6 E9040000 		.4byte	0x4e9
 2545 04ba 00000000 		.4byte	.LFB6
 2546 04be 28000000 		.4byte	.LFE6-.LFB6
 2547 04c2 01       		.uleb128 0x1
 2548 04c3 9C       		.byte	0x9c
 2549 04c4 E9040000 		.4byte	0x4e9
 2550 04c8 11       		.uleb128 0x11
 2551 04c9 BF020000 		.4byte	.LASF67
 2552 04cd 01       		.byte	0x1
 2553 04ce AE03     		.2byte	0x3ae
 2554 04d0 6B000000 		.4byte	0x6b
 2555 04d4 D4000000 		.4byte	.LLST5
 2556 04d8 19       		.uleb128 0x19
 2557 04d9 BC050000 		.4byte	.LASF68
 2558 04dd 01       		.byte	0x1
 2559 04de B203     		.2byte	0x3b2
 2560 04e0 E9040000 		.4byte	0x4e9
 2561 04e4 0E010000 		.4byte	.LLST6
 2562 04e8 00       		.byte	0
 2563 04e9 09       		.uleb128 0x9
 2564 04ea 04       		.byte	0x4
 2565 04eb EF040000 		.4byte	0x4ef
 2566 04ef 17       		.uleb128 0x17
 2567 04f0 41020000 		.4byte	0x241
 2568 04f4 10       		.uleb128 0x10
 2569 04f5 1D050000 		.4byte	.LASF69
 2570 04f9 01       		.byte	0x1
 2571 04fa 2503     		.2byte	0x325
 2572 04fc 00000000 		.4byte	.LFB5
 2573 0500 1C010000 		.4byte	.LFE5-.LFB5
 2574 0504 01       		.uleb128 0x1
 2575 0505 9C       		.byte	0x9c
 2576 0506 81050000 		.4byte	0x581
 2577 050a 13       		.uleb128 0x13
 2578 050b 657000   		.ascii	"ep\000"
 2579 050e 01       		.byte	0x1
 2580 050f 2703     		.2byte	0x327
 2581 0511 6B000000 		.4byte	0x6b
ARM GAS  C:\Users\CALEBC~1\AppData\Local\Temp\ccBuh6Ys.s 			page 72


 2582 0515 46010000 		.4byte	.LLST7
 2583 0519 19       		.uleb128 0x19
 2584 051a FF050000 		.4byte	.LASF70
 2585 051e 01       		.byte	0x1
 2586 051f 2803     		.2byte	0x328
 2587 0521 6B000000 		.4byte	0x6b
 2588 0525 59010000 		.4byte	.LLST8
 2589 0529 19       		.uleb128 0x19
 2590 052a A2030000 		.4byte	.LASF71
 2591 052e 01       		.byte	0x1
 2592 052f 2903     		.2byte	0x329
 2593 0531 6B000000 		.4byte	0x6b
 2594 0535 6C010000 		.4byte	.LLST9
 2595 0539 13       		.uleb128 0x13
 2596 053a 6900     		.ascii	"i\000"
 2597 053c 01       		.byte	0x1
 2598 053d 2A03     		.2byte	0x32a
 2599 053f 6B000000 		.4byte	0x6b
 2600 0543 8A010000 		.4byte	.LLST10
 2601 0547 19       		.uleb128 0x19
 2602 0548 0B070000 		.4byte	.LASF72
 2603 054c 01       		.byte	0x1
 2604 054d 2B03     		.2byte	0x32b
 2605 054f 6B000000 		.4byte	0x6b
 2606 0553 B4010000 		.4byte	.LLST11
 2607 0557 19       		.uleb128 0x19
 2608 0558 BC050000 		.4byte	.LASF68
 2609 055c 01       		.byte	0x1
 2610 055d 2D03     		.2byte	0x32d
 2611 055f E9040000 		.4byte	0x4e9
 2612 0563 C7010000 		.4byte	.LLST12
 2613 0567 13       		.uleb128 0x13
 2614 0568 70455000 		.ascii	"pEP\000"
 2615 056c 01       		.byte	0x1
 2616 056d 2E03     		.2byte	0x32e
 2617 056f 81050000 		.4byte	0x581
 2618 0573 DC010000 		.4byte	.LLST13
 2619 0577 1A       		.uleb128 0x1a
 2620 0578 18000000 		.4byte	.LVL26
 2621 057c AE040000 		.4byte	0x4ae
 2622 0580 00       		.byte	0
 2623 0581 09       		.uleb128 0x9
 2624 0582 04       		.byte	0x4
 2625 0583 87050000 		.4byte	0x587
 2626 0587 17       		.uleb128 0x17
 2627 0588 A0010000 		.4byte	0x1a0
 2628 058c 1B       		.uleb128 0x1b
 2629 058d DA000000 		.4byte	.LASF120
 2630 0591 01       		.byte	0x1
 2631 0592 F303     		.2byte	0x3f3
 2632 0594 E9040000 		.4byte	0x4e9
 2633 0598 00000000 		.4byte	.LFB7
 2634 059c 18000000 		.4byte	.LFE7-.LFB7
 2635 05a0 01       		.uleb128 0x1
 2636 05a1 9C       		.byte	0x9c
 2637 05a2 18       		.uleb128 0x18
 2638 05a3 8E040000 		.4byte	.LASF74
ARM GAS  C:\Users\CALEBC~1\AppData\Local\Temp\ccBuh6Ys.s 			page 73


 2639 05a7 01       		.byte	0x1
 2640 05a8 0604     		.2byte	0x406
 2641 05aa F6050000 		.4byte	0x5f6
 2642 05ae 00000000 		.4byte	.LFB8
 2643 05b2 28000000 		.4byte	.LFE8-.LFB8
 2644 05b6 01       		.uleb128 0x1
 2645 05b7 9C       		.byte	0x9c
 2646 05b8 F6050000 		.4byte	0x5f6
 2647 05bc 19       		.uleb128 0x19
 2648 05bd BC050000 		.4byte	.LASF68
 2649 05c1 01       		.byte	0x1
 2650 05c2 0904     		.2byte	0x409
 2651 05c4 E9040000 		.4byte	0x4e9
 2652 05c8 EF010000 		.4byte	.LLST14
 2653 05cc 19       		.uleb128 0x19
 2654 05cd 7E040000 		.4byte	.LASF75
 2655 05d1 01       		.byte	0x1
 2656 05d2 0A04     		.2byte	0x40a
 2657 05d4 F6050000 		.4byte	0x5f6
 2658 05d8 18020000 		.4byte	.LLST15
 2659 05dc 19       		.uleb128 0x19
 2660 05dd C9020000 		.4byte	.LASF76
 2661 05e1 01       		.byte	0x1
 2662 05e2 0B04     		.2byte	0x40b
 2663 05e4 6B000000 		.4byte	0x6b
 2664 05e8 36020000 		.4byte	.LLST16
 2665 05ec 1A       		.uleb128 0x1a
 2666 05ed 0E000000 		.4byte	.LVL42
 2667 05f1 AE040000 		.4byte	0x4ae
 2668 05f5 00       		.byte	0
 2669 05f6 09       		.uleb128 0x9
 2670 05f7 04       		.byte	0x4
 2671 05f8 FC050000 		.4byte	0x5fc
 2672 05fc 17       		.uleb128 0x17
 2673 05fd 6B000000 		.4byte	0x6b
 2674 0601 10       		.uleb128 0x10
 2675 0602 BA010000 		.4byte	.LASF77
 2676 0606 01       		.byte	0x1
 2677 0607 3A02     		.2byte	0x23a
 2678 0609 00000000 		.4byte	.LFB4
 2679 060d CC010000 		.4byte	.LFE4-.LFB4
 2680 0611 01       		.uleb128 0x1
 2681 0612 9C       		.byte	0x9c
 2682 0613 C0060000 		.4byte	0x6c0
 2683 0617 11       		.uleb128 0x11
 2684 0618 4B060000 		.4byte	.LASF78
 2685 061c 01       		.byte	0x1
 2686 061d 3A02     		.2byte	0x23a
 2687 061f 6B000000 		.4byte	0x6b
 2688 0623 56020000 		.4byte	.LLST17
 2689 0627 13       		.uleb128 0x13
 2690 0628 657000   		.ascii	"ep\000"
 2691 062b 01       		.byte	0x1
 2692 062c 3C02     		.2byte	0x23c
 2693 062e 6B000000 		.4byte	0x6b
 2694 0632 77020000 		.4byte	.LLST18
 2695 0636 19       		.uleb128 0x19
ARM GAS  C:\Users\CALEBC~1\AppData\Local\Temp\ccBuh6Ys.s 			page 74


 2696 0637 FF050000 		.4byte	.LASF70
 2697 063b 01       		.byte	0x1
 2698 063c 3D02     		.2byte	0x23d
 2699 063e 6B000000 		.4byte	0x6b
 2700 0642 D9020000 		.4byte	.LLST19
 2701 0646 13       		.uleb128 0x13
 2702 0647 6900     		.ascii	"i\000"
 2703 0649 01       		.byte	0x1
 2704 064a 3E02     		.2byte	0x23e
 2705 064c 6B000000 		.4byte	0x6b
 2706 0650 03030000 		.4byte	.LLST20
 2707 0654 19       		.uleb128 0x19
 2708 0655 A2030000 		.4byte	.LASF71
 2709 0659 01       		.byte	0x1
 2710 065a 3F02     		.2byte	0x23f
 2711 065c 6B000000 		.4byte	0x6b
 2712 0660 70030000 		.4byte	.LLST21
 2713 0664 19       		.uleb128 0x19
 2714 0665 AB000000 		.4byte	.LASF79
 2715 0669 01       		.byte	0x1
 2716 066a 4002     		.2byte	0x240
 2717 066c F6050000 		.4byte	0x5f6
 2718 0670 B0030000 		.4byte	.LLST22
 2719 0674 19       		.uleb128 0x19
 2720 0675 34050000 		.4byte	.LASF80
 2721 0679 01       		.byte	0x1
 2722 067a 4302     		.2byte	0x243
 2723 067c 77000000 		.4byte	0x77
 2724 0680 CF030000 		.4byte	.LLST23
 2725 0684 19       		.uleb128 0x19
 2726 0685 BC050000 		.4byte	.LASF68
 2727 0689 01       		.byte	0x1
 2728 068a 4602     		.2byte	0x246
 2729 068c E9040000 		.4byte	0x4e9
 2730 0690 10040000 		.4byte	.LLST24
 2731 0694 13       		.uleb128 0x13
 2732 0695 70455000 		.ascii	"pEP\000"
 2733 0699 01       		.byte	0x1
 2734 069a 4702     		.2byte	0x247
 2735 069c 81050000 		.4byte	0x581
 2736 06a0 30040000 		.4byte	.LLST25
 2737 06a4 1A       		.uleb128 0x1a
 2738 06a5 60000000 		.4byte	.LVL61
 2739 06a9 AE040000 		.4byte	0x4ae
 2740 06ad 1A       		.uleb128 0x1a
 2741 06ae 7C010000 		.4byte	.LVL86
 2742 06b2 A2050000 		.4byte	0x5a2
 2743 06b6 1A       		.uleb128 0x1a
 2744 06b7 AE010000 		.4byte	.LVL95
 2745 06bb 63040000 		.4byte	0x463
 2746 06bf 00       		.byte	0
 2747 06c0 10       		.uleb128 0x10
 2748 06c1 E4020000 		.4byte	.LASF81
 2749 06c5 01       		.byte	0x1
 2750 06c6 3004     		.2byte	0x430
 2751 06c8 00000000 		.4byte	.LFB9
 2752 06cc 4C000000 		.4byte	.LFE9-.LFB9
ARM GAS  C:\Users\CALEBC~1\AppData\Local\Temp\ccBuh6Ys.s 			page 75


 2753 06d0 01       		.uleb128 0x1
 2754 06d1 9C       		.byte	0x9c
 2755 06d2 E7060000 		.4byte	0x6e7
 2756 06d6 11       		.uleb128 0x11
 2757 06d7 1E040000 		.4byte	.LASF82
 2758 06db 01       		.byte	0x1
 2759 06dc 3004     		.2byte	0x430
 2760 06de 6B000000 		.4byte	0x6b
 2761 06e2 66040000 		.4byte	.LLST26
 2762 06e6 00       		.byte	0
 2763 06e7 18       		.uleb128 0x18
 2764 06e8 89020000 		.4byte	.LASF83
 2765 06ec 01       		.byte	0x1
 2766 06ed 5904     		.2byte	0x459
 2767 06ef 6B000000 		.4byte	0x6b
 2768 06f3 00000000 		.4byte	.LFB10
 2769 06f7 64000000 		.4byte	.LFE10-.LFB10
 2770 06fb 01       		.uleb128 0x1
 2771 06fc 9C       		.byte	0x9c
 2772 06fd 2A070000 		.4byte	0x72a
 2773 0701 19       		.uleb128 0x19
 2774 0702 A9030000 		.4byte	.LASF84
 2775 0706 01       		.byte	0x1
 2776 0707 5B04     		.2byte	0x45b
 2777 0709 6B000000 		.4byte	0x6b
 2778 070d 8F040000 		.4byte	.LLST27
 2779 0711 13       		.uleb128 0x13
 2780 0712 657000   		.ascii	"ep\000"
 2781 0715 01       		.byte	0x1
 2782 0716 5C04     		.2byte	0x45c
 2783 0718 6B000000 		.4byte	0x6b
 2784 071c C5040000 		.4byte	.LLST28
 2785 0720 1A       		.uleb128 0x1a
 2786 0721 52000000 		.4byte	.LVL106
 2787 0725 DD0A0000 		.4byte	0xadd
 2788 0729 00       		.byte	0
 2789 072a 18       		.uleb128 0x18
 2790 072b 05050000 		.4byte	.LASF85
 2791 072f 01       		.byte	0x1
 2792 0730 8A04     		.2byte	0x48a
 2793 0732 6B000000 		.4byte	0x6b
 2794 0736 00000000 		.4byte	.LFB11
 2795 073a A8000000 		.4byte	.LFE11-.LFB11
 2796 073e 01       		.uleb128 0x1
 2797 073f 9C       		.byte	0x9c
 2798 0740 6D070000 		.4byte	0x76d
 2799 0744 19       		.uleb128 0x19
 2800 0745 A9030000 		.4byte	.LASF84
 2801 0749 01       		.byte	0x1
 2802 074a 8C04     		.2byte	0x48c
 2803 074c 6B000000 		.4byte	0x6b
 2804 0750 EE040000 		.4byte	.LLST29
 2805 0754 13       		.uleb128 0x13
 2806 0755 657000   		.ascii	"ep\000"
 2807 0758 01       		.byte	0x1
 2808 0759 8D04     		.2byte	0x48d
 2809 075b 6B000000 		.4byte	0x6b
ARM GAS  C:\Users\CALEBC~1\AppData\Local\Temp\ccBuh6Ys.s 			page 76


 2810 075f 19050000 		.4byte	.LLST30
 2811 0763 1A       		.uleb128 0x1a
 2812 0764 96000000 		.4byte	.LVL119
 2813 0768 DD0A0000 		.4byte	0xadd
 2814 076c 00       		.byte	0
 2815 076d 18       		.uleb128 0x18
 2816 076e 00000000 		.4byte	.LASF86
 2817 0772 01       		.byte	0x1
 2818 0773 CF04     		.2byte	0x4cf
 2819 0775 6B000000 		.4byte	0x6b
 2820 0779 00000000 		.4byte	.LFB12
 2821 077d 4C000000 		.4byte	.LFE12-.LFB12
 2822 0781 01       		.uleb128 0x1
 2823 0782 9C       		.byte	0x9c
 2824 0783 D1070000 		.4byte	0x7d1
 2825 0787 19       		.uleb128 0x19
 2826 0788 A9030000 		.4byte	.LASF84
 2827 078c 01       		.byte	0x1
 2828 078d D104     		.2byte	0x4d1
 2829 078f 6B000000 		.4byte	0x6b
 2830 0793 58050000 		.4byte	.LLST31
 2831 0797 19       		.uleb128 0x19
 2832 0798 0B070000 		.4byte	.LASF72
 2833 079c 01       		.byte	0x1
 2834 079d D304     		.2byte	0x4d3
 2835 079f 6B000000 		.4byte	0x6b
 2836 07a3 8F050000 		.4byte	.LLST32
 2837 07a7 19       		.uleb128 0x19
 2838 07a8 18070000 		.4byte	.LASF87
 2839 07ac 01       		.byte	0x1
 2840 07ad D404     		.2byte	0x4d4
 2841 07af 6B000000 		.4byte	0x6b
 2842 07b3 A2050000 		.4byte	.LLST33
 2843 07b7 19       		.uleb128 0x19
 2844 07b8 BC050000 		.4byte	.LASF68
 2845 07bc 01       		.byte	0x1
 2846 07bd D504     		.2byte	0x4d5
 2847 07bf E9040000 		.4byte	0x4e9
 2848 07c3 CF050000 		.4byte	.LLST34
 2849 07c7 1A       		.uleb128 0x1a
 2850 07c8 14000000 		.4byte	.LVL123
 2851 07cc AE040000 		.4byte	0x4ae
 2852 07d0 00       		.byte	0
 2853 07d1 1C       		.uleb128 0x1c
 2854 07d2 4E000000 		.4byte	.LASF88
 2855 07d6 01       		.byte	0x1
 2856 07d7 54       		.byte	0x54
 2857 07d8 6B000000 		.4byte	0x6b
 2858 07dc 00000000 		.4byte	.LFB0
 2859 07e0 5C030000 		.4byte	.LFE0-.LFB0
 2860 07e4 01       		.uleb128 0x1
 2861 07e5 9C       		.byte	0x9c
 2862 07e6 6C090000 		.4byte	0x96c
 2863 07ea 1D       		.uleb128 0x1d
 2864 07eb A9030000 		.4byte	.LASF84
 2865 07ef 01       		.byte	0x1
 2866 07f0 56       		.byte	0x56
ARM GAS  C:\Users\CALEBC~1\AppData\Local\Temp\ccBuh6Ys.s 			page 77


 2867 07f1 6B000000 		.4byte	0x6b
 2868 07f5 ED050000 		.4byte	.LLST35
 2869 07f9 1D       		.uleb128 0x1d
 2870 07fa 74000000 		.4byte	.LASF89
 2871 07fe 01       		.byte	0x1
 2872 07ff 57       		.byte	0x57
 2873 0800 6B000000 		.4byte	0x6b
 2874 0804 93070000 		.4byte	.LLST36
 2875 0808 1D       		.uleb128 0x1d
 2876 0809 2F000000 		.4byte	.LASF90
 2877 080d 01       		.byte	0x1
 2878 080e 58       		.byte	0x58
 2879 080f 6B000000 		.4byte	0x6b
 2880 0813 A6070000 		.4byte	.LLST37
 2881 0817 1D       		.uleb128 0x1d
 2882 0818 84000000 		.4byte	.LASF91
 2883 081c 01       		.byte	0x1
 2884 081d 59       		.byte	0x59
 2885 081e 6B000000 		.4byte	0x6b
 2886 0822 B9070000 		.4byte	.LLST38
 2887 0826 1D       		.uleb128 0x1d
 2888 0827 16060000 		.4byte	.LASF92
 2889 082b 01       		.byte	0x1
 2890 082c 5C       		.byte	0x5c
 2891 082d 04020000 		.4byte	0x204
 2892 0831 3A080000 		.4byte	.LLST39
 2893 0835 1D       		.uleb128 0x1d
 2894 0836 05060000 		.4byte	.LASF93
 2895 083a 01       		.byte	0x1
 2896 083b 5E       		.byte	0x5e
 2897 083c 6B000000 		.4byte	0x6b
 2898 0840 9E080000 		.4byte	.LLST40
 2899 0844 1D       		.uleb128 0x1d
 2900 0845 3F060000 		.4byte	.LASF94
 2901 0849 01       		.byte	0x1
 2902 084a 5F       		.byte	0x5f
 2903 084b 6B000000 		.4byte	0x6b
 2904 084f C7080000 		.4byte	.LLST41
 2905 0853 1E       		.uleb128 0x1e
 2906 0854 30070000 		.4byte	.LASF95
 2907 0858 01       		.byte	0x1
 2908 0859 63       		.byte	0x63
 2909 085a 7C090000 		.4byte	0x97c
 2910 085e 05       		.uleb128 0x5
 2911 085f 03       		.byte	0x3
 2912 0860 00000000 		.4byte	USBFS_tBuffer.5288
 2913 0864 1D       		.uleb128 0x1d
 2914 0865 BC050000 		.4byte	.LASF68
 2915 0869 01       		.byte	0x1
 2916 086a 64       		.byte	0x64
 2917 086b E9040000 		.4byte	0x4e9
 2918 086f DA080000 		.4byte	.LLST42
 2919 0873 1A       		.uleb128 0x1a
 2920 0874 4A000000 		.4byte	.LVL134
 2921 0878 8C050000 		.4byte	0x58c
 2922 087c 1A       		.uleb128 0x1a
 2923 087d 58000000 		.4byte	.LVL135
ARM GAS  C:\Users\CALEBC~1\AppData\Local\Temp\ccBuh6Ys.s 			page 78


 2924 0881 E80A0000 		.4byte	0xae8
 2925 0885 1A       		.uleb128 0x1a
 2926 0886 6C000000 		.4byte	.LVL137
 2927 088a AE040000 		.4byte	0x4ae
 2928 088e 1A       		.uleb128 0x1a
 2929 088f 8A000000 		.4byte	.LVL138
 2930 0893 E80A0000 		.4byte	0xae8
 2931 0897 1F       		.uleb128 0x1f
 2932 0898 E4000000 		.4byte	.LVL149
 2933 089c D2030000 		.4byte	0x3d2
 2934 08a0 AB080000 		.4byte	0x8ab
 2935 08a4 16       		.uleb128 0x16
 2936 08a5 01       		.uleb128 0x1
 2937 08a6 50       		.byte	0x50
 2938 08a7 02       		.uleb128 0x2
 2939 08a8 74       		.byte	0x74
 2940 08a9 00       		.sleb128 0
 2941 08aa 00       		.byte	0
 2942 08ab 1A       		.uleb128 0x1a
 2943 08ac FC000000 		.4byte	.LVL151
 2944 08b0 E80A0000 		.4byte	0xae8
 2945 08b4 1A       		.uleb128 0x1a
 2946 08b5 02010000 		.4byte	.LVL153
 2947 08b9 F30A0000 		.4byte	0xaf3
 2948 08bd 1A       		.uleb128 0x1a
 2949 08be 38010000 		.4byte	.LVL156
 2950 08c2 E80A0000 		.4byte	0xae8
 2951 08c6 1A       		.uleb128 0x1a
 2952 08c7 54010000 		.4byte	.LVL158
 2953 08cb E80A0000 		.4byte	0xae8
 2954 08cf 1A       		.uleb128 0x1a
 2955 08d0 64010000 		.4byte	.LVL161
 2956 08d4 E80A0000 		.4byte	0xae8
 2957 08d8 1A       		.uleb128 0x1a
 2958 08d9 7A010000 		.4byte	.LVL164
 2959 08dd E80A0000 		.4byte	0xae8
 2960 08e1 1A       		.uleb128 0x1a
 2961 08e2 B0010000 		.4byte	.LVL167
 2962 08e6 DD0A0000 		.4byte	0xadd
 2963 08ea 1F       		.uleb128 0x1f
 2964 08eb C4010000 		.4byte	.LVL171
 2965 08ef AE040000 		.4byte	0x4ae
 2966 08f3 FE080000 		.4byte	0x8fe
 2967 08f7 16       		.uleb128 0x16
 2968 08f8 01       		.uleb128 0x1
 2969 08f9 50       		.byte	0x50
 2970 08fa 02       		.uleb128 0x2
 2971 08fb 74       		.byte	0x74
 2972 08fc 7F       		.sleb128 -1
 2973 08fd 00       		.byte	0
 2974 08fe 1F       		.uleb128 0x1f
 2975 08ff E6010000 		.4byte	.LVL173
 2976 0903 01060000 		.4byte	0x601
 2977 0907 11090000 		.4byte	0x911
 2978 090b 16       		.uleb128 0x16
 2979 090c 01       		.uleb128 0x1
 2980 090d 50       		.byte	0x50
ARM GAS  C:\Users\CALEBC~1\AppData\Local\Temp\ccBuh6Ys.s 			page 79


 2981 090e 01       		.uleb128 0x1
 2982 090f 31       		.byte	0x31
 2983 0910 00       		.byte	0
 2984 0911 1A       		.uleb128 0x1a
 2985 0912 EA010000 		.4byte	.LVL174
 2986 0916 DD0A0000 		.4byte	0xadd
 2987 091a 1A       		.uleb128 0x1a
 2988 091b F0010000 		.4byte	.LVL176
 2989 091f 6D070000 		.4byte	0x76d
 2990 0923 1A       		.uleb128 0x1a
 2991 0924 1E020000 		.4byte	.LVL179
 2992 0928 F4040000 		.4byte	0x4f4
 2993 092c 1A       		.uleb128 0x1a
 2994 092d 22020000 		.4byte	.LVL180
 2995 0931 DD0A0000 		.4byte	0xadd
 2996 0935 1A       		.uleb128 0x1a
 2997 0936 40020000 		.4byte	.LVL183
 2998 093a 2A070000 		.4byte	0x72a
 2999 093e 1A       		.uleb128 0x1a
 3000 093f 5A020000 		.4byte	.LVL185
 3001 0943 DD0A0000 		.4byte	0xadd
 3002 0947 1A       		.uleb128 0x1a
 3003 0948 B8020000 		.4byte	.LVL187
 3004 094c DD0A0000 		.4byte	0xadd
 3005 0950 1A       		.uleb128 0x1a
 3006 0951 D6020000 		.4byte	.LVL190
 3007 0955 E7060000 		.4byte	0x6e7
 3008 0959 1A       		.uleb128 0x1a
 3009 095a F0020000 		.4byte	.LVL192
 3010 095e DD0A0000 		.4byte	0xadd
 3011 0962 1A       		.uleb128 0x1a
 3012 0963 12030000 		.4byte	.LVL194
 3013 0967 DD0A0000 		.4byte	0xadd
 3014 096b 00       		.byte	0
 3015 096c 0C       		.uleb128 0xc
 3016 096d BC000000 		.4byte	0xbc
 3017 0971 7C090000 		.4byte	0x97c
 3018 0975 0D       		.uleb128 0xd
 3019 0976 C8000000 		.4byte	0xc8
 3020 097a 01       		.byte	0x1
 3021 097b 00       		.byte	0
 3022 097c 05       		.uleb128 0x5
 3023 097d 6C090000 		.4byte	0x96c
 3024 0981 20       		.uleb128 0x20
 3025 0982 16010000 		.4byte	.LASF96
 3026 0986 03       		.byte	0x3
 3027 0987 D202     		.2byte	0x2d2
 3028 0989 BC000000 		.4byte	0xbc
 3029 098d 20       		.uleb128 0x20
 3030 098e 50070000 		.4byte	.LASF97
 3031 0992 03       		.byte	0x3
 3032 0993 D402     		.2byte	0x2d4
 3033 0995 BC000000 		.4byte	0xbc
 3034 0999 20       		.uleb128 0x20
 3035 099a 3D040000 		.4byte	.LASF98
 3036 099e 03       		.byte	0x3
 3037 099f D502     		.2byte	0x2d5
ARM GAS  C:\Users\CALEBC~1\AppData\Local\Temp\ccBuh6Ys.s 			page 80


 3038 09a1 BC000000 		.4byte	0xbc
 3039 09a5 20       		.uleb128 0x20
 3040 09a6 6D010000 		.4byte	.LASF99
 3041 09aa 03       		.byte	0x3
 3042 09ab D602     		.2byte	0x2d6
 3043 09ad BC000000 		.4byte	0xbc
 3044 09b1 0C       		.uleb128 0xc
 3045 09b2 FC050000 		.4byte	0x5fc
 3046 09b6 C1090000 		.4byte	0x9c1
 3047 09ba 0D       		.uleb128 0xd
 3048 09bb C8000000 		.4byte	0xc8
 3049 09bf 11       		.byte	0x11
 3050 09c0 00       		.byte	0
 3051 09c1 21       		.uleb128 0x21
 3052 09c2 C6030000 		.4byte	.LASF100
 3053 09c6 04       		.byte	0x4
 3054 09c7 61       		.byte	0x61
 3055 09c8 CC090000 		.4byte	0x9cc
 3056 09cc 17       		.uleb128 0x17
 3057 09cd B1090000 		.4byte	0x9b1
 3058 09d1 0C       		.uleb128 0xc
 3059 09d2 EF040000 		.4byte	0x4ef
 3060 09d6 E1090000 		.4byte	0x9e1
 3061 09da 0D       		.uleb128 0xd
 3062 09db C8000000 		.4byte	0xc8
 3063 09df 00       		.byte	0
 3064 09e0 00       		.byte	0
 3065 09e1 21       		.uleb128 0x21
 3066 09e2 2B030000 		.4byte	.LASF101
 3067 09e6 04       		.byte	0x4
 3068 09e7 67       		.byte	0x67
 3069 09e8 EC090000 		.4byte	0x9ec
 3070 09ec 17       		.uleb128 0x17
 3071 09ed D1090000 		.4byte	0x9d1
 3072 09f1 0C       		.uleb128 0xc
 3073 09f2 FC050000 		.4byte	0x5fc
 3074 09f6 010A0000 		.4byte	0xa01
 3075 09fa 0D       		.uleb128 0xd
 3076 09fb C8000000 		.4byte	0xc8
 3077 09ff 96       		.byte	0x96
 3078 0a00 00       		.byte	0
 3079 0a01 21       		.uleb128 0x21
 3080 0a02 E0030000 		.4byte	.LASF102
 3081 0a06 04       		.byte	0x4
 3082 0a07 69       		.byte	0x69
 3083 0a08 0C0A0000 		.4byte	0xa0c
 3084 0a0c 17       		.uleb128 0x17
 3085 0a0d F1090000 		.4byte	0x9f1
 3086 0a11 21       		.uleb128 0x21
 3087 0a12 27040000 		.4byte	.LASF103
 3088 0a16 04       		.byte	0x4
 3089 0a17 6C       		.byte	0x6c
 3090 0a18 1C0A0000 		.4byte	0xa1c
 3091 0a1c 17       		.uleb128 0x17
 3092 0a1d B1090000 		.4byte	0x9b1
 3093 0a21 0C       		.uleb128 0xc
 3094 0a22 6B000000 		.4byte	0x6b
ARM GAS  C:\Users\CALEBC~1\AppData\Local\Temp\ccBuh6Ys.s 			page 81


 3095 0a26 310A0000 		.4byte	0xa31
 3096 0a2a 0D       		.uleb128 0xd
 3097 0a2b C8000000 		.4byte	0xc8
 3098 0a2f 21       		.byte	0x21
 3099 0a30 00       		.byte	0
 3100 0a31 21       		.uleb128 0x21
 3101 0a32 95010000 		.4byte	.LASF104
 3102 0a36 04       		.byte	0x4
 3103 0a37 6F       		.byte	0x6f
 3104 0a38 210A0000 		.4byte	0xa21
 3105 0a3c 21       		.uleb128 0x21
 3106 0a3d C9040000 		.4byte	.LASF105
 3107 0a41 04       		.byte	0x4
 3108 0a42 72       		.byte	0x72
 3109 0a43 BC000000 		.4byte	0xbc
 3110 0a47 0C       		.uleb128 0xc
 3111 0a48 BC000000 		.4byte	0xbc
 3112 0a4c 570A0000 		.4byte	0xa57
 3113 0a50 0D       		.uleb128 0xd
 3114 0a51 C8000000 		.4byte	0xc8
 3115 0a55 00       		.byte	0
 3116 0a56 00       		.byte	0
 3117 0a57 21       		.uleb128 0x21
 3118 0a58 07040000 		.4byte	.LASF106
 3119 0a5c 04       		.byte	0x4
 3120 0a5d 73       		.byte	0x73
 3121 0a5e 620A0000 		.4byte	0xa62
 3122 0a62 05       		.uleb128 0x5
 3123 0a63 470A0000 		.4byte	0xa47
 3124 0a67 21       		.uleb128 0x21
 3125 0a68 7F060000 		.4byte	.LASF107
 3126 0a6c 04       		.byte	0x4
 3127 0a6d 74       		.byte	0x74
 3128 0a6e 720A0000 		.4byte	0xa72
 3129 0a72 05       		.uleb128 0x5
 3130 0a73 470A0000 		.4byte	0xa47
 3131 0a77 21       		.uleb128 0x21
 3132 0a78 5B060000 		.4byte	.LASF108
 3133 0a7c 04       		.byte	0x4
 3134 0a7d 75       		.byte	0x75
 3135 0a7e BC000000 		.4byte	0xbc
 3136 0a82 21       		.uleb128 0x21
 3137 0a83 23010000 		.4byte	.LASF109
 3138 0a87 04       		.byte	0x4
 3139 0a88 76       		.byte	0x76
 3140 0a89 8D0A0000 		.4byte	0xa8d
 3141 0a8d 05       		.uleb128 0x5
 3142 0a8e 470A0000 		.4byte	0xa47
 3143 0a92 21       		.uleb128 0x21
 3144 0a93 AE040000 		.4byte	.LASF110
 3145 0a97 04       		.byte	0x4
 3146 0a98 77       		.byte	0x77
 3147 0a99 F6050000 		.4byte	0x5f6
 3148 0a9d 0C       		.uleb128 0xc
 3149 0a9e AD0A0000 		.4byte	0xaad
 3150 0aa2 AD0A0000 		.4byte	0xaad
 3151 0aa6 0D       		.uleb128 0xd
ARM GAS  C:\Users\CALEBC~1\AppData\Local\Temp\ccBuh6Ys.s 			page 82


 3152 0aa7 C8000000 		.4byte	0xc8
 3153 0aab 08       		.byte	0x8
 3154 0aac 00       		.byte	0
 3155 0aad 05       		.uleb128 0x5
 3156 0aae 44010000 		.4byte	0x144
 3157 0ab2 21       		.uleb128 0x21
 3158 0ab3 1D030000 		.4byte	.LASF111
 3159 0ab7 04       		.byte	0x4
 3160 0ab8 79       		.byte	0x79
 3161 0ab9 BD0A0000 		.4byte	0xabd
 3162 0abd 05       		.uleb128 0x5
 3163 0abe 9D0A0000 		.4byte	0xa9d
 3164 0ac2 21       		.uleb128 0x21
 3165 0ac3 F2000000 		.4byte	.LASF112
 3166 0ac7 04       		.byte	0x4
 3167 0ac8 7A       		.byte	0x7a
 3168 0ac9 CD0A0000 		.4byte	0xacd
 3169 0acd 05       		.uleb128 0x5
 3170 0ace 10020000 		.4byte	0x210
 3171 0ad2 22       		.uleb128 0x22
 3172 0ad3 31060000 		.4byte	.LASF113
 3173 0ad7 31060000 		.4byte	.LASF113
 3174 0adb 05       		.byte	0x5
 3175 0adc BE       		.byte	0xbe
 3176 0add 22       		.uleb128 0x22
 3177 0ade 3D030000 		.4byte	.LASF114
 3178 0ae2 3D030000 		.4byte	.LASF114
 3179 0ae6 04       		.byte	0x4
 3180 0ae7 B3       		.byte	0xb3
 3181 0ae8 22       		.uleb128 0x22
 3182 0ae9 B2000000 		.4byte	.LASF115
 3183 0aed B2000000 		.4byte	.LASF115
 3184 0af1 04       		.byte	0x4
 3185 0af2 A9       		.byte	0xa9
 3186 0af3 23       		.uleb128 0x23
 3187 0af4 9A060000 		.4byte	.LASF116
 3188 0af8 9A060000 		.4byte	.LASF116
 3189 0afc 04       		.byte	0x4
 3190 0afd 4E01     		.2byte	0x14e
 3191 0aff 00       		.byte	0
 3192              		.section	.debug_abbrev,"",%progbits
 3193              	.Ldebug_abbrev0:
 3194 0000 01       		.uleb128 0x1
 3195 0001 11       		.uleb128 0x11
 3196 0002 01       		.byte	0x1
 3197 0003 25       		.uleb128 0x25
 3198 0004 0E       		.uleb128 0xe
 3199 0005 13       		.uleb128 0x13
 3200 0006 0B       		.uleb128 0xb
 3201 0007 03       		.uleb128 0x3
 3202 0008 0E       		.uleb128 0xe
 3203 0009 1B       		.uleb128 0x1b
 3204 000a 0E       		.uleb128 0xe
 3205 000b 55       		.uleb128 0x55
 3206 000c 17       		.uleb128 0x17
 3207 000d 11       		.uleb128 0x11
 3208 000e 01       		.uleb128 0x1
ARM GAS  C:\Users\CALEBC~1\AppData\Local\Temp\ccBuh6Ys.s 			page 83


 3209 000f 10       		.uleb128 0x10
 3210 0010 17       		.uleb128 0x17
 3211 0011 00       		.byte	0
 3212 0012 00       		.byte	0
 3213 0013 02       		.uleb128 0x2
 3214 0014 24       		.uleb128 0x24
 3215 0015 00       		.byte	0
 3216 0016 0B       		.uleb128 0xb
 3217 0017 0B       		.uleb128 0xb
 3218 0018 3E       		.uleb128 0x3e
 3219 0019 0B       		.uleb128 0xb
 3220 001a 03       		.uleb128 0x3
 3221 001b 0E       		.uleb128 0xe
 3222 001c 00       		.byte	0
 3223 001d 00       		.byte	0
 3224 001e 03       		.uleb128 0x3
 3225 001f 24       		.uleb128 0x24
 3226 0020 00       		.byte	0
 3227 0021 0B       		.uleb128 0xb
 3228 0022 0B       		.uleb128 0xb
 3229 0023 3E       		.uleb128 0x3e
 3230 0024 0B       		.uleb128 0xb
 3231 0025 03       		.uleb128 0x3
 3232 0026 08       		.uleb128 0x8
 3233 0027 00       		.byte	0
 3234 0028 00       		.byte	0
 3235 0029 04       		.uleb128 0x4
 3236 002a 16       		.uleb128 0x16
 3237 002b 00       		.byte	0
 3238 002c 03       		.uleb128 0x3
 3239 002d 0E       		.uleb128 0xe
 3240 002e 3A       		.uleb128 0x3a
 3241 002f 0B       		.uleb128 0xb
 3242 0030 3B       		.uleb128 0x3b
 3243 0031 05       		.uleb128 0x5
 3244 0032 49       		.uleb128 0x49
 3245 0033 13       		.uleb128 0x13
 3246 0034 00       		.byte	0
 3247 0035 00       		.byte	0
 3248 0036 05       		.uleb128 0x5
 3249 0037 35       		.uleb128 0x35
 3250 0038 00       		.byte	0
 3251 0039 49       		.uleb128 0x49
 3252 003a 13       		.uleb128 0x13
 3253 003b 00       		.byte	0
 3254 003c 00       		.byte	0
 3255 003d 06       		.uleb128 0x6
 3256 003e 13       		.uleb128 0x13
 3257 003f 01       		.byte	0x1
 3258 0040 0B       		.uleb128 0xb
 3259 0041 0B       		.uleb128 0xb
 3260 0042 3A       		.uleb128 0x3a
 3261 0043 0B       		.uleb128 0xb
 3262 0044 3B       		.uleb128 0x3b
 3263 0045 0B       		.uleb128 0xb
 3264 0046 01       		.uleb128 0x1
 3265 0047 13       		.uleb128 0x13
ARM GAS  C:\Users\CALEBC~1\AppData\Local\Temp\ccBuh6Ys.s 			page 84


 3266 0048 00       		.byte	0
 3267 0049 00       		.byte	0
 3268 004a 07       		.uleb128 0x7
 3269 004b 0D       		.uleb128 0xd
 3270 004c 00       		.byte	0
 3271 004d 03       		.uleb128 0x3
 3272 004e 0E       		.uleb128 0xe
 3273 004f 3A       		.uleb128 0x3a
 3274 0050 0B       		.uleb128 0xb
 3275 0051 3B       		.uleb128 0x3b
 3276 0052 0B       		.uleb128 0xb
 3277 0053 49       		.uleb128 0x49
 3278 0054 13       		.uleb128 0x13
 3279 0055 38       		.uleb128 0x38
 3280 0056 0B       		.uleb128 0xb
 3281 0057 00       		.byte	0
 3282 0058 00       		.byte	0
 3283 0059 08       		.uleb128 0x8
 3284 005a 16       		.uleb128 0x16
 3285 005b 00       		.byte	0
 3286 005c 03       		.uleb128 0x3
 3287 005d 0E       		.uleb128 0xe
 3288 005e 3A       		.uleb128 0x3a
 3289 005f 0B       		.uleb128 0xb
 3290 0060 3B       		.uleb128 0x3b
 3291 0061 0B       		.uleb128 0xb
 3292 0062 49       		.uleb128 0x49
 3293 0063 13       		.uleb128 0x13
 3294 0064 00       		.byte	0
 3295 0065 00       		.byte	0
 3296 0066 09       		.uleb128 0x9
 3297 0067 0F       		.uleb128 0xf
 3298 0068 00       		.byte	0
 3299 0069 0B       		.uleb128 0xb
 3300 006a 0B       		.uleb128 0xb
 3301 006b 49       		.uleb128 0x49
 3302 006c 13       		.uleb128 0x13
 3303 006d 00       		.byte	0
 3304 006e 00       		.byte	0
 3305 006f 0A       		.uleb128 0xa
 3306 0070 0D       		.uleb128 0xd
 3307 0071 00       		.byte	0
 3308 0072 03       		.uleb128 0x3
 3309 0073 08       		.uleb128 0x8
 3310 0074 3A       		.uleb128 0x3a
 3311 0075 0B       		.uleb128 0xb
 3312 0076 3B       		.uleb128 0x3b
 3313 0077 0B       		.uleb128 0xb
 3314 0078 49       		.uleb128 0x49
 3315 0079 13       		.uleb128 0x13
 3316 007a 38       		.uleb128 0x38
 3317 007b 0B       		.uleb128 0xb
 3318 007c 00       		.byte	0
 3319 007d 00       		.byte	0
 3320 007e 0B       		.uleb128 0xb
 3321 007f 26       		.uleb128 0x26
 3322 0080 00       		.byte	0
ARM GAS  C:\Users\CALEBC~1\AppData\Local\Temp\ccBuh6Ys.s 			page 85


 3323 0081 00       		.byte	0
 3324 0082 00       		.byte	0
 3325 0083 0C       		.uleb128 0xc
 3326 0084 01       		.uleb128 0x1
 3327 0085 01       		.byte	0x1
 3328 0086 49       		.uleb128 0x49
 3329 0087 13       		.uleb128 0x13
 3330 0088 01       		.uleb128 0x1
 3331 0089 13       		.uleb128 0x13
 3332 008a 00       		.byte	0
 3333 008b 00       		.byte	0
 3334 008c 0D       		.uleb128 0xd
 3335 008d 21       		.uleb128 0x21
 3336 008e 00       		.byte	0
 3337 008f 49       		.uleb128 0x49
 3338 0090 13       		.uleb128 0x13
 3339 0091 2F       		.uleb128 0x2f
 3340 0092 0B       		.uleb128 0xb
 3341 0093 00       		.byte	0
 3342 0094 00       		.byte	0
 3343 0095 0E       		.uleb128 0xe
 3344 0096 13       		.uleb128 0x13
 3345 0097 01       		.byte	0x1
 3346 0098 0B       		.uleb128 0xb
 3347 0099 0B       		.uleb128 0xb
 3348 009a 3A       		.uleb128 0x3a
 3349 009b 0B       		.uleb128 0xb
 3350 009c 3B       		.uleb128 0x3b
 3351 009d 05       		.uleb128 0x5
 3352 009e 01       		.uleb128 0x1
 3353 009f 13       		.uleb128 0x13
 3354 00a0 00       		.byte	0
 3355 00a1 00       		.byte	0
 3356 00a2 0F       		.uleb128 0xf
 3357 00a3 0D       		.uleb128 0xd
 3358 00a4 00       		.byte	0
 3359 00a5 03       		.uleb128 0x3
 3360 00a6 0E       		.uleb128 0xe
 3361 00a7 3A       		.uleb128 0x3a
 3362 00a8 0B       		.uleb128 0xb
 3363 00a9 3B       		.uleb128 0x3b
 3364 00aa 05       		.uleb128 0x5
 3365 00ab 49       		.uleb128 0x49
 3366 00ac 13       		.uleb128 0x13
 3367 00ad 38       		.uleb128 0x38
 3368 00ae 0B       		.uleb128 0xb
 3369 00af 00       		.byte	0
 3370 00b0 00       		.byte	0
 3371 00b1 10       		.uleb128 0x10
 3372 00b2 2E       		.uleb128 0x2e
 3373 00b3 01       		.byte	0x1
 3374 00b4 3F       		.uleb128 0x3f
 3375 00b5 19       		.uleb128 0x19
 3376 00b6 03       		.uleb128 0x3
 3377 00b7 0E       		.uleb128 0xe
 3378 00b8 3A       		.uleb128 0x3a
 3379 00b9 0B       		.uleb128 0xb
ARM GAS  C:\Users\CALEBC~1\AppData\Local\Temp\ccBuh6Ys.s 			page 86


 3380 00ba 3B       		.uleb128 0x3b
 3381 00bb 05       		.uleb128 0x5
 3382 00bc 27       		.uleb128 0x27
 3383 00bd 19       		.uleb128 0x19
 3384 00be 11       		.uleb128 0x11
 3385 00bf 01       		.uleb128 0x1
 3386 00c0 12       		.uleb128 0x12
 3387 00c1 06       		.uleb128 0x6
 3388 00c2 40       		.uleb128 0x40
 3389 00c3 18       		.uleb128 0x18
 3390 00c4 9742     		.uleb128 0x2117
 3391 00c6 19       		.uleb128 0x19
 3392 00c7 01       		.uleb128 0x1
 3393 00c8 13       		.uleb128 0x13
 3394 00c9 00       		.byte	0
 3395 00ca 00       		.byte	0
 3396 00cb 11       		.uleb128 0x11
 3397 00cc 05       		.uleb128 0x5
 3398 00cd 00       		.byte	0
 3399 00ce 03       		.uleb128 0x3
 3400 00cf 0E       		.uleb128 0xe
 3401 00d0 3A       		.uleb128 0x3a
 3402 00d1 0B       		.uleb128 0xb
 3403 00d2 3B       		.uleb128 0x3b
 3404 00d3 05       		.uleb128 0x5
 3405 00d4 49       		.uleb128 0x49
 3406 00d5 13       		.uleb128 0x13
 3407 00d6 02       		.uleb128 0x2
 3408 00d7 17       		.uleb128 0x17
 3409 00d8 00       		.byte	0
 3410 00d9 00       		.byte	0
 3411 00da 12       		.uleb128 0x12
 3412 00db 34       		.uleb128 0x34
 3413 00dc 00       		.byte	0
 3414 00dd 03       		.uleb128 0x3
 3415 00de 08       		.uleb128 0x8
 3416 00df 3A       		.uleb128 0x3a
 3417 00e0 0B       		.uleb128 0xb
 3418 00e1 3B       		.uleb128 0x3b
 3419 00e2 05       		.uleb128 0x5
 3420 00e3 49       		.uleb128 0x49
 3421 00e4 13       		.uleb128 0x13
 3422 00e5 02       		.uleb128 0x2
 3423 00e6 18       		.uleb128 0x18
 3424 00e7 00       		.byte	0
 3425 00e8 00       		.byte	0
 3426 00e9 13       		.uleb128 0x13
 3427 00ea 34       		.uleb128 0x34
 3428 00eb 00       		.byte	0
 3429 00ec 03       		.uleb128 0x3
 3430 00ed 08       		.uleb128 0x8
 3431 00ee 3A       		.uleb128 0x3a
 3432 00ef 0B       		.uleb128 0xb
 3433 00f0 3B       		.uleb128 0x3b
 3434 00f1 05       		.uleb128 0x5
 3435 00f2 49       		.uleb128 0x49
 3436 00f3 13       		.uleb128 0x13
ARM GAS  C:\Users\CALEBC~1\AppData\Local\Temp\ccBuh6Ys.s 			page 87


 3437 00f4 02       		.uleb128 0x2
 3438 00f5 17       		.uleb128 0x17
 3439 00f6 00       		.byte	0
 3440 00f7 00       		.byte	0
 3441 00f8 14       		.uleb128 0x14
 3442 00f9 34       		.uleb128 0x34
 3443 00fa 00       		.byte	0
 3444 00fb 03       		.uleb128 0x3
 3445 00fc 0E       		.uleb128 0xe
 3446 00fd 3A       		.uleb128 0x3a
 3447 00fe 0B       		.uleb128 0xb
 3448 00ff 3B       		.uleb128 0x3b
 3449 0100 05       		.uleb128 0x5
 3450 0101 49       		.uleb128 0x49
 3451 0102 13       		.uleb128 0x13
 3452 0103 02       		.uleb128 0x2
 3453 0104 18       		.uleb128 0x18
 3454 0105 00       		.byte	0
 3455 0106 00       		.byte	0
 3456 0107 15       		.uleb128 0x15
 3457 0108 898201   		.uleb128 0x4109
 3458 010b 01       		.byte	0x1
 3459 010c 11       		.uleb128 0x11
 3460 010d 01       		.uleb128 0x1
 3461 010e 31       		.uleb128 0x31
 3462 010f 13       		.uleb128 0x13
 3463 0110 00       		.byte	0
 3464 0111 00       		.byte	0
 3465 0112 16       		.uleb128 0x16
 3466 0113 8A8201   		.uleb128 0x410a
 3467 0116 00       		.byte	0
 3468 0117 02       		.uleb128 0x2
 3469 0118 18       		.uleb128 0x18
 3470 0119 9142     		.uleb128 0x2111
 3471 011b 18       		.uleb128 0x18
 3472 011c 00       		.byte	0
 3473 011d 00       		.byte	0
 3474 011e 17       		.uleb128 0x17
 3475 011f 26       		.uleb128 0x26
 3476 0120 00       		.byte	0
 3477 0121 49       		.uleb128 0x49
 3478 0122 13       		.uleb128 0x13
 3479 0123 00       		.byte	0
 3480 0124 00       		.byte	0
 3481 0125 18       		.uleb128 0x18
 3482 0126 2E       		.uleb128 0x2e
 3483 0127 01       		.byte	0x1
 3484 0128 3F       		.uleb128 0x3f
 3485 0129 19       		.uleb128 0x19
 3486 012a 03       		.uleb128 0x3
 3487 012b 0E       		.uleb128 0xe
 3488 012c 3A       		.uleb128 0x3a
 3489 012d 0B       		.uleb128 0xb
 3490 012e 3B       		.uleb128 0x3b
 3491 012f 05       		.uleb128 0x5
 3492 0130 27       		.uleb128 0x27
 3493 0131 19       		.uleb128 0x19
ARM GAS  C:\Users\CALEBC~1\AppData\Local\Temp\ccBuh6Ys.s 			page 88


 3494 0132 49       		.uleb128 0x49
 3495 0133 13       		.uleb128 0x13
 3496 0134 11       		.uleb128 0x11
 3497 0135 01       		.uleb128 0x1
 3498 0136 12       		.uleb128 0x12
 3499 0137 06       		.uleb128 0x6
 3500 0138 40       		.uleb128 0x40
 3501 0139 18       		.uleb128 0x18
 3502 013a 9742     		.uleb128 0x2117
 3503 013c 19       		.uleb128 0x19
 3504 013d 01       		.uleb128 0x1
 3505 013e 13       		.uleb128 0x13
 3506 013f 00       		.byte	0
 3507 0140 00       		.byte	0
 3508 0141 19       		.uleb128 0x19
 3509 0142 34       		.uleb128 0x34
 3510 0143 00       		.byte	0
 3511 0144 03       		.uleb128 0x3
 3512 0145 0E       		.uleb128 0xe
 3513 0146 3A       		.uleb128 0x3a
 3514 0147 0B       		.uleb128 0xb
 3515 0148 3B       		.uleb128 0x3b
 3516 0149 05       		.uleb128 0x5
 3517 014a 49       		.uleb128 0x49
 3518 014b 13       		.uleb128 0x13
 3519 014c 02       		.uleb128 0x2
 3520 014d 17       		.uleb128 0x17
 3521 014e 00       		.byte	0
 3522 014f 00       		.byte	0
 3523 0150 1A       		.uleb128 0x1a
 3524 0151 898201   		.uleb128 0x4109
 3525 0154 00       		.byte	0
 3526 0155 11       		.uleb128 0x11
 3527 0156 01       		.uleb128 0x1
 3528 0157 31       		.uleb128 0x31
 3529 0158 13       		.uleb128 0x13
 3530 0159 00       		.byte	0
 3531 015a 00       		.byte	0
 3532 015b 1B       		.uleb128 0x1b
 3533 015c 2E       		.uleb128 0x2e
 3534 015d 00       		.byte	0
 3535 015e 3F       		.uleb128 0x3f
 3536 015f 19       		.uleb128 0x19
 3537 0160 03       		.uleb128 0x3
 3538 0161 0E       		.uleb128 0xe
 3539 0162 3A       		.uleb128 0x3a
 3540 0163 0B       		.uleb128 0xb
 3541 0164 3B       		.uleb128 0x3b
 3542 0165 05       		.uleb128 0x5
 3543 0166 27       		.uleb128 0x27
 3544 0167 19       		.uleb128 0x19
 3545 0168 49       		.uleb128 0x49
 3546 0169 13       		.uleb128 0x13
 3547 016a 11       		.uleb128 0x11
 3548 016b 01       		.uleb128 0x1
 3549 016c 12       		.uleb128 0x12
 3550 016d 06       		.uleb128 0x6
ARM GAS  C:\Users\CALEBC~1\AppData\Local\Temp\ccBuh6Ys.s 			page 89


 3551 016e 40       		.uleb128 0x40
 3552 016f 18       		.uleb128 0x18
 3553 0170 9742     		.uleb128 0x2117
 3554 0172 19       		.uleb128 0x19
 3555 0173 00       		.byte	0
 3556 0174 00       		.byte	0
 3557 0175 1C       		.uleb128 0x1c
 3558 0176 2E       		.uleb128 0x2e
 3559 0177 01       		.byte	0x1
 3560 0178 3F       		.uleb128 0x3f
 3561 0179 19       		.uleb128 0x19
 3562 017a 03       		.uleb128 0x3
 3563 017b 0E       		.uleb128 0xe
 3564 017c 3A       		.uleb128 0x3a
 3565 017d 0B       		.uleb128 0xb
 3566 017e 3B       		.uleb128 0x3b
 3567 017f 0B       		.uleb128 0xb
 3568 0180 27       		.uleb128 0x27
 3569 0181 19       		.uleb128 0x19
 3570 0182 49       		.uleb128 0x49
 3571 0183 13       		.uleb128 0x13
 3572 0184 11       		.uleb128 0x11
 3573 0185 01       		.uleb128 0x1
 3574 0186 12       		.uleb128 0x12
 3575 0187 06       		.uleb128 0x6
 3576 0188 40       		.uleb128 0x40
 3577 0189 18       		.uleb128 0x18
 3578 018a 9742     		.uleb128 0x2117
 3579 018c 19       		.uleb128 0x19
 3580 018d 01       		.uleb128 0x1
 3581 018e 13       		.uleb128 0x13
 3582 018f 00       		.byte	0
 3583 0190 00       		.byte	0
 3584 0191 1D       		.uleb128 0x1d
 3585 0192 34       		.uleb128 0x34
 3586 0193 00       		.byte	0
 3587 0194 03       		.uleb128 0x3
 3588 0195 0E       		.uleb128 0xe
 3589 0196 3A       		.uleb128 0x3a
 3590 0197 0B       		.uleb128 0xb
 3591 0198 3B       		.uleb128 0x3b
 3592 0199 0B       		.uleb128 0xb
 3593 019a 49       		.uleb128 0x49
 3594 019b 13       		.uleb128 0x13
 3595 019c 02       		.uleb128 0x2
 3596 019d 17       		.uleb128 0x17
 3597 019e 00       		.byte	0
 3598 019f 00       		.byte	0
 3599 01a0 1E       		.uleb128 0x1e
 3600 01a1 34       		.uleb128 0x34
 3601 01a2 00       		.byte	0
 3602 01a3 03       		.uleb128 0x3
 3603 01a4 0E       		.uleb128 0xe
 3604 01a5 3A       		.uleb128 0x3a
 3605 01a6 0B       		.uleb128 0xb
 3606 01a7 3B       		.uleb128 0x3b
 3607 01a8 0B       		.uleb128 0xb
ARM GAS  C:\Users\CALEBC~1\AppData\Local\Temp\ccBuh6Ys.s 			page 90


 3608 01a9 49       		.uleb128 0x49
 3609 01aa 13       		.uleb128 0x13
 3610 01ab 02       		.uleb128 0x2
 3611 01ac 18       		.uleb128 0x18
 3612 01ad 00       		.byte	0
 3613 01ae 00       		.byte	0
 3614 01af 1F       		.uleb128 0x1f
 3615 01b0 898201   		.uleb128 0x4109
 3616 01b3 01       		.byte	0x1
 3617 01b4 11       		.uleb128 0x11
 3618 01b5 01       		.uleb128 0x1
 3619 01b6 31       		.uleb128 0x31
 3620 01b7 13       		.uleb128 0x13
 3621 01b8 01       		.uleb128 0x1
 3622 01b9 13       		.uleb128 0x13
 3623 01ba 00       		.byte	0
 3624 01bb 00       		.byte	0
 3625 01bc 20       		.uleb128 0x20
 3626 01bd 34       		.uleb128 0x34
 3627 01be 00       		.byte	0
 3628 01bf 03       		.uleb128 0x3
 3629 01c0 0E       		.uleb128 0xe
 3630 01c1 3A       		.uleb128 0x3a
 3631 01c2 0B       		.uleb128 0xb
 3632 01c3 3B       		.uleb128 0x3b
 3633 01c4 05       		.uleb128 0x5
 3634 01c5 49       		.uleb128 0x49
 3635 01c6 13       		.uleb128 0x13
 3636 01c7 3F       		.uleb128 0x3f
 3637 01c8 19       		.uleb128 0x19
 3638 01c9 3C       		.uleb128 0x3c
 3639 01ca 19       		.uleb128 0x19
 3640 01cb 00       		.byte	0
 3641 01cc 00       		.byte	0
 3642 01cd 21       		.uleb128 0x21
 3643 01ce 34       		.uleb128 0x34
 3644 01cf 00       		.byte	0
 3645 01d0 03       		.uleb128 0x3
 3646 01d1 0E       		.uleb128 0xe
 3647 01d2 3A       		.uleb128 0x3a
 3648 01d3 0B       		.uleb128 0xb
 3649 01d4 3B       		.uleb128 0x3b
 3650 01d5 0B       		.uleb128 0xb
 3651 01d6 49       		.uleb128 0x49
 3652 01d7 13       		.uleb128 0x13
 3653 01d8 3F       		.uleb128 0x3f
 3654 01d9 19       		.uleb128 0x19
 3655 01da 3C       		.uleb128 0x3c
 3656 01db 19       		.uleb128 0x19
 3657 01dc 00       		.byte	0
 3658 01dd 00       		.byte	0
 3659 01de 22       		.uleb128 0x22
 3660 01df 2E       		.uleb128 0x2e
 3661 01e0 00       		.byte	0
 3662 01e1 3F       		.uleb128 0x3f
 3663 01e2 19       		.uleb128 0x19
 3664 01e3 3C       		.uleb128 0x3c
ARM GAS  C:\Users\CALEBC~1\AppData\Local\Temp\ccBuh6Ys.s 			page 91


 3665 01e4 19       		.uleb128 0x19
 3666 01e5 6E       		.uleb128 0x6e
 3667 01e6 0E       		.uleb128 0xe
 3668 01e7 03       		.uleb128 0x3
 3669 01e8 0E       		.uleb128 0xe
 3670 01e9 3A       		.uleb128 0x3a
 3671 01ea 0B       		.uleb128 0xb
 3672 01eb 3B       		.uleb128 0x3b
 3673 01ec 0B       		.uleb128 0xb
 3674 01ed 00       		.byte	0
 3675 01ee 00       		.byte	0
 3676 01ef 23       		.uleb128 0x23
 3677 01f0 2E       		.uleb128 0x2e
 3678 01f1 00       		.byte	0
 3679 01f2 3F       		.uleb128 0x3f
 3680 01f3 19       		.uleb128 0x19
 3681 01f4 3C       		.uleb128 0x3c
 3682 01f5 19       		.uleb128 0x19
 3683 01f6 6E       		.uleb128 0x6e
 3684 01f7 0E       		.uleb128 0xe
 3685 01f8 03       		.uleb128 0x3
 3686 01f9 0E       		.uleb128 0xe
 3687 01fa 3A       		.uleb128 0x3a
 3688 01fb 0B       		.uleb128 0xb
 3689 01fc 3B       		.uleb128 0x3b
 3690 01fd 05       		.uleb128 0x5
 3691 01fe 00       		.byte	0
 3692 01ff 00       		.byte	0
 3693 0200 00       		.byte	0
 3694              		.section	.debug_loc,"",%progbits
 3695              	.Ldebug_loc0:
 3696              	.LLST0:
 3697 0000 00000000 		.4byte	.LVL0
 3698 0004 0C000000 		.4byte	.LVL1
 3699 0008 0100     		.2byte	0x1
 3700 000a 50       		.byte	0x50
 3701 000b 0C000000 		.4byte	.LVL1
 3702 000f 66000000 		.4byte	.LVL10
 3703 0013 0100     		.2byte	0x1
 3704 0015 55       		.byte	0x55
 3705 0016 66000000 		.4byte	.LVL10
 3706 001a 6C000000 		.4byte	.LFE1
 3707 001e 0400     		.2byte	0x4
 3708 0020 F3       		.byte	0xf3
 3709 0021 01       		.uleb128 0x1
 3710 0022 50       		.byte	0x50
 3711 0023 9F       		.byte	0x9f
 3712 0024 00000000 		.4byte	0
 3713 0028 00000000 		.4byte	0
 3714              	.LLST1:
 3715 002c 22000000 		.4byte	.LVL3
 3716 0030 28000000 		.4byte	.LVL4
 3717 0034 0200     		.2byte	0x2
 3718 0036 32       		.byte	0x32
 3719 0037 9F       		.byte	0x9f
 3720 0038 28000000 		.4byte	.LVL4
 3721 003c 5C000000 		.4byte	.LVL7
ARM GAS  C:\Users\CALEBC~1\AppData\Local\Temp\ccBuh6Ys.s 			page 92


 3722 0040 0100     		.2byte	0x1
 3723 0042 53       		.byte	0x53
 3724 0043 5E000000 		.4byte	.LVL8
 3725 0047 62000000 		.4byte	.LVL9
 3726 004b 0100     		.2byte	0x1
 3727 004d 53       		.byte	0x53
 3728 004e 00000000 		.4byte	0
 3729 0052 00000000 		.4byte	0
 3730              	.LLST2:
 3731 0056 12000000 		.4byte	.LVL2
 3732 005a 28000000 		.4byte	.LVL4
 3733 005e 0200     		.2byte	0x2
 3734 0060 30       		.byte	0x30
 3735 0061 9F       		.byte	0x9f
 3736 0062 28000000 		.4byte	.LVL4
 3737 0066 58000000 		.4byte	.LVL5
 3738 006a 0100     		.2byte	0x1
 3739 006c 54       		.byte	0x54
 3740 006d 5A000000 		.4byte	.LVL6
 3741 0071 62000000 		.4byte	.LVL9
 3742 0075 0100     		.2byte	0x1
 3743 0077 54       		.byte	0x54
 3744 0078 00000000 		.4byte	0
 3745 007c 00000000 		.4byte	0
 3746              	.LLST3:
 3747 0080 02000000 		.4byte	.LVL11
 3748 0084 06000000 		.4byte	.LVL12
 3749 0088 0200     		.2byte	0x2
 3750 008a 31       		.byte	0x31
 3751 008b 9F       		.byte	0x9f
 3752 008c 06000000 		.4byte	.LVL12
 3753 0090 88000000 		.4byte	.LVL13
 3754 0094 0100     		.2byte	0x1
 3755 0096 53       		.byte	0x53
 3756 0097 8A000000 		.4byte	.LVL14
 3757 009b 92000000 		.4byte	.LVL15
 3758 009f 0100     		.2byte	0x1
 3759 00a1 53       		.byte	0x53
 3760 00a2 00000000 		.4byte	0
 3761 00a6 00000000 		.4byte	0
 3762              	.LLST4:
 3763 00aa 00000000 		.4byte	.LVL16
 3764 00ae 04000000 		.4byte	.LVL17
 3765 00b2 0200     		.2byte	0x2
 3766 00b4 31       		.byte	0x31
 3767 00b5 9F       		.byte	0x9f
 3768 00b6 04000000 		.4byte	.LVL17
 3769 00ba 36000000 		.4byte	.LVL18
 3770 00be 0100     		.2byte	0x1
 3771 00c0 53       		.byte	0x53
 3772 00c1 38000000 		.4byte	.LVL19
 3773 00c5 44000000 		.4byte	.LFE3
 3774 00c9 0100     		.2byte	0x1
 3775 00cb 53       		.byte	0x53
 3776 00cc 00000000 		.4byte	0
 3777 00d0 00000000 		.4byte	0
 3778              	.LLST5:
ARM GAS  C:\Users\CALEBC~1\AppData\Local\Temp\ccBuh6Ys.s 			page 93


 3779 00d4 00000000 		.4byte	.LVL20
 3780 00d8 14000000 		.4byte	.LVL22
 3781 00dc 0100     		.2byte	0x1
 3782 00de 50       		.byte	0x50
 3783 00df 14000000 		.4byte	.LVL22
 3784 00e3 1C000000 		.4byte	.LVL24
 3785 00e7 0400     		.2byte	0x4
 3786 00e9 F3       		.byte	0xf3
 3787 00ea 01       		.uleb128 0x1
 3788 00eb 50       		.byte	0x50
 3789 00ec 9F       		.byte	0x9f
 3790 00ed 1C000000 		.4byte	.LVL24
 3791 00f1 1E000000 		.4byte	.LVL25
 3792 00f5 0100     		.2byte	0x1
 3793 00f7 50       		.byte	0x50
 3794 00f8 1E000000 		.4byte	.LVL25
 3795 00fc 28000000 		.4byte	.LFE6
 3796 0100 0400     		.2byte	0x4
 3797 0102 F3       		.byte	0xf3
 3798 0103 01       		.uleb128 0x1
 3799 0104 50       		.byte	0x50
 3800 0105 9F       		.byte	0x9f
 3801 0106 00000000 		.4byte	0
 3802 010a 00000000 		.4byte	0
 3803              	.LLST6:
 3804 010e 0C000000 		.4byte	.LVL21
 3805 0112 1A000000 		.4byte	.LVL23
 3806 0116 0300     		.2byte	0x3
 3807 0118 73       		.byte	0x73
 3808 0119 10       		.sleb128 16
 3809 011a 9F       		.byte	0x9f
 3810 011b 1A000000 		.4byte	.LVL23
 3811 011f 1C000000 		.4byte	.LVL24
 3812 0123 0100     		.2byte	0x1
 3813 0125 50       		.byte	0x50
 3814 0126 1C000000 		.4byte	.LVL24
 3815 012a 1E000000 		.4byte	.LVL25
 3816 012e 0300     		.2byte	0x3
 3817 0130 73       		.byte	0x73
 3818 0131 10       		.sleb128 16
 3819 0132 9F       		.byte	0x9f
 3820 0133 1E000000 		.4byte	.LVL25
 3821 0137 28000000 		.4byte	.LFE6
 3822 013b 0100     		.2byte	0x1
 3823 013d 50       		.byte	0x50
 3824 013e 00000000 		.4byte	0
 3825 0142 00000000 		.4byte	0
 3826              	.LLST7:
 3827 0146 1A000000 		.4byte	.LVL27
 3828 014a 00010000 		.4byte	.LVL41
 3829 014e 0100     		.2byte	0x1
 3830 0150 54       		.byte	0x54
 3831 0151 00000000 		.4byte	0
 3832 0155 00000000 		.4byte	0
 3833              	.LLST8:
 3834 0159 3E000000 		.4byte	.LVL32
 3835 015d C0000000 		.4byte	.LVL37
ARM GAS  C:\Users\CALEBC~1\AppData\Local\Temp\ccBuh6Ys.s 			page 94


 3836 0161 0100     		.2byte	0x1
 3837 0163 51       		.byte	0x51
 3838 0164 00000000 		.4byte	0
 3839 0168 00000000 		.4byte	0
 3840              	.LLST9:
 3841 016c 44000000 		.4byte	.LVL33
 3842 0170 82000000 		.4byte	.LVL34
 3843 0174 0100     		.2byte	0x1
 3844 0176 56       		.byte	0x56
 3845 0177 92000000 		.4byte	.LVL35
 3846 017b 9E000000 		.4byte	.LVL36
 3847 017f 0100     		.2byte	0x1
 3848 0181 56       		.byte	0x56
 3849 0182 00000000 		.4byte	0
 3850 0186 00000000 		.4byte	0
 3851              	.LLST10:
 3852 018a 22000000 		.4byte	.LVL30
 3853 018e 26000000 		.4byte	.LVL31
 3854 0192 0200     		.2byte	0x2
 3855 0194 30       		.byte	0x30
 3856 0195 9F       		.byte	0x9f
 3857 0196 26000000 		.4byte	.LVL31
 3858 019a FA000000 		.4byte	.LVL39
 3859 019e 0100     		.2byte	0x1
 3860 01a0 53       		.byte	0x53
 3861 01a1 FC000000 		.4byte	.LVL40
 3862 01a5 00010000 		.4byte	.LVL41
 3863 01a9 0100     		.2byte	0x1
 3864 01ab 53       		.byte	0x53
 3865 01ac 00000000 		.4byte	0
 3866 01b0 00000000 		.4byte	0
 3867              	.LLST11:
 3868 01b4 22000000 		.4byte	.LVL30
 3869 01b8 00010000 		.4byte	.LVL41
 3870 01bc 0100     		.2byte	0x1
 3871 01be 50       		.byte	0x50
 3872 01bf 00000000 		.4byte	0
 3873 01c3 00000000 		.4byte	0
 3874              	.LLST12:
 3875 01c7 18000000 		.4byte	.LVL26
 3876 01cb 20000000 		.4byte	.LVL29
 3877 01cf 0300     		.2byte	0x3
 3878 01d1 70       		.byte	0x70
 3879 01d2 08       		.sleb128 8
 3880 01d3 9F       		.byte	0x9f
 3881 01d4 00000000 		.4byte	0
 3882 01d8 00000000 		.4byte	0
 3883              	.LLST13:
 3884 01dc 1C000000 		.4byte	.LVL28
 3885 01e0 00010000 		.4byte	.LVL41
 3886 01e4 0100     		.2byte	0x1
 3887 01e6 52       		.byte	0x52
 3888 01e7 00000000 		.4byte	0
 3889 01eb 00000000 		.4byte	0
 3890              	.LLST14:
 3891 01ef 0E000000 		.4byte	.LVL42
 3892 01f3 1A000000 		.4byte	.LVL45
ARM GAS  C:\Users\CALEBC~1\AppData\Local\Temp\ccBuh6Ys.s 			page 95


 3893 01f7 0100     		.2byte	0x1
 3894 01f9 50       		.byte	0x50
 3895 01fa 1A000000 		.4byte	.LVL45
 3896 01fe 1E000000 		.4byte	.LVL47
 3897 0202 0100     		.2byte	0x1
 3898 0204 53       		.byte	0x53
 3899 0205 1E000000 		.4byte	.LVL47
 3900 0209 20000000 		.4byte	.LVL48
 3901 020d 0100     		.2byte	0x1
 3902 020f 50       		.byte	0x50
 3903 0210 00000000 		.4byte	0
 3904 0214 00000000 		.4byte	0
 3905              	.LLST15:
 3906 0218 1C000000 		.4byte	.LVL46
 3907 021c 1E000000 		.4byte	.LVL47
 3908 0220 0100     		.2byte	0x1
 3909 0222 50       		.byte	0x50
 3910 0223 20000000 		.4byte	.LVL48
 3911 0227 28000000 		.4byte	.LFE8
 3912 022b 0100     		.2byte	0x1
 3913 022d 50       		.byte	0x50
 3914 022e 00000000 		.4byte	0
 3915 0232 00000000 		.4byte	0
 3916              	.LLST16:
 3917 0236 14000000 		.4byte	.LVL43
 3918 023a 16000000 		.4byte	.LVL44
 3919 023e 0100     		.2byte	0x1
 3920 0240 52       		.byte	0x52
 3921 0241 16000000 		.4byte	.LVL44
 3922 0245 1E000000 		.4byte	.LVL47
 3923 0249 0300     		.2byte	0x3
 3924 024b 72       		.byte	0x72
 3925 024c 7E       		.sleb128 -2
 3926 024d 9F       		.byte	0x9f
 3927 024e 00000000 		.4byte	0
 3928 0252 00000000 		.4byte	0
 3929              	.LLST17:
 3930 0256 00000000 		.4byte	.LVL49
 3931 025a 58000000 		.4byte	.LVL60
 3932 025e 0100     		.2byte	0x1
 3933 0260 50       		.byte	0x50
 3934 0261 58000000 		.4byte	.LVL60
 3935 0265 CC010000 		.4byte	.LFE4
 3936 0269 0400     		.2byte	0x4
 3937 026b F3       		.byte	0xf3
 3938 026c 01       		.uleb128 0x1
 3939 026d 50       		.byte	0x50
 3940 026e 9F       		.byte	0x9f
 3941 026f 00000000 		.4byte	0
 3942 0273 00000000 		.4byte	0
 3943              	.LLST18:
 3944 0277 04000000 		.4byte	.LVL50
 3945 027b 08000000 		.4byte	.LVL51
 3946 027f 0200     		.2byte	0x2
 3947 0281 30       		.byte	0x30
 3948 0282 9F       		.byte	0x9f
 3949 0283 08000000 		.4byte	.LVL51
ARM GAS  C:\Users\CALEBC~1\AppData\Local\Temp\ccBuh6Ys.s 			page 96


 3950 0287 28000000 		.4byte	.LVL52
 3951 028b 0100     		.2byte	0x1
 3952 028d 53       		.byte	0x53
 3953 028e 2A000000 		.4byte	.LVL53
 3954 0292 32000000 		.4byte	.LVL54
 3955 0296 0100     		.2byte	0x1
 3956 0298 53       		.byte	0x53
 3957 0299 42000000 		.4byte	.LVL57
 3958 029d 44000000 		.4byte	.LVL58
 3959 02a1 0100     		.2byte	0x1
 3960 02a3 53       		.byte	0x53
 3961 02a4 82000000 		.4byte	.LVL65
 3962 02a8 80010000 		.4byte	.LVL87
 3963 02ac 0100     		.2byte	0x1
 3964 02ae 55       		.byte	0x55
 3965 02af 80010000 		.4byte	.LVL87
 3966 02b3 86010000 		.4byte	.LVL88
 3967 02b7 0200     		.2byte	0x2
 3968 02b9 31       		.byte	0x31
 3969 02ba 9F       		.byte	0x9f
 3970 02bb 86010000 		.4byte	.LVL88
 3971 02bf A4010000 		.4byte	.LVL93
 3972 02c3 0100     		.2byte	0x1
 3973 02c5 51       		.byte	0x51
 3974 02c6 A6010000 		.4byte	.LVL94
 3975 02ca AD010000 		.4byte	.LVL95-1
 3976 02ce 0100     		.2byte	0x1
 3977 02d0 51       		.byte	0x51
 3978 02d1 00000000 		.4byte	0
 3979 02d5 00000000 		.4byte	0
 3980              	.LLST19:
 3981 02d9 88000000 		.4byte	.LVL67
 3982 02dd 8C000000 		.4byte	.LVL68
 3983 02e1 0200     		.2byte	0x2
 3984 02e3 30       		.byte	0x30
 3985 02e4 9F       		.byte	0x9f
 3986 02e5 8C000000 		.4byte	.LVL68
 3987 02e9 46010000 		.4byte	.LVL76
 3988 02ed 0100     		.2byte	0x1
 3989 02ef 53       		.byte	0x53
 3990 02f0 48010000 		.4byte	.LVL77
 3991 02f4 50010000 		.4byte	.LVL79
 3992 02f8 0100     		.2byte	0x1
 3993 02fa 53       		.byte	0x53
 3994 02fb 00000000 		.4byte	0
 3995 02ff 00000000 		.4byte	0
 3996              	.LLST20:
 3997 0303 32000000 		.4byte	.LVL54
 3998 0307 3E000000 		.4byte	.LVL55
 3999 030b 0100     		.2byte	0x1
 4000 030d 53       		.byte	0x53
 4001 030e 40000000 		.4byte	.LVL56
 4002 0312 42000000 		.4byte	.LVL57
 4003 0316 0100     		.2byte	0x1
 4004 0318 53       		.byte	0x53
 4005 0319 44000000 		.4byte	.LVL58
 4006 031d 48000000 		.4byte	.LVL59
ARM GAS  C:\Users\CALEBC~1\AppData\Local\Temp\ccBuh6Ys.s 			page 97


 4007 0321 0100     		.2byte	0x1
 4008 0323 53       		.byte	0x53
 4009 0324 82000000 		.4byte	.LVL65
 4010 0328 86000000 		.4byte	.LVL66
 4011 032c 0200     		.2byte	0x2
 4012 032e 31       		.byte	0x31
 4013 032f 9F       		.byte	0x9f
 4014 0330 86000000 		.4byte	.LVL66
 4015 0334 4E010000 		.4byte	.LVL78
 4016 0338 0100     		.2byte	0x1
 4017 033a 54       		.byte	0x54
 4018 033b 50010000 		.4byte	.LVL79
 4019 033f 56010000 		.4byte	.LVL80
 4020 0343 0100     		.2byte	0x1
 4021 0345 54       		.byte	0x54
 4022 0346 56010000 		.4byte	.LVL80
 4023 034a 5A010000 		.4byte	.LVL81
 4024 034e 0200     		.2byte	0x2
 4025 0350 30       		.byte	0x30
 4026 0351 9F       		.byte	0x9f
 4027 0352 5A010000 		.4byte	.LVL81
 4028 0356 72010000 		.4byte	.LVL84
 4029 035a 0100     		.2byte	0x1
 4030 035c 52       		.byte	0x52
 4031 035d 74010000 		.4byte	.LVL85
 4032 0361 7B010000 		.4byte	.LVL86-1
 4033 0365 0100     		.2byte	0x1
 4034 0367 52       		.byte	0x52
 4035 0368 00000000 		.4byte	0
 4036 036c 00000000 		.4byte	0
 4037              	.LLST21:
 4038 0370 EC000000 		.4byte	.LVL69
 4039 0374 08010000 		.4byte	.LVL70
 4040 0378 0100     		.2byte	0x1
 4041 037a 52       		.byte	0x52
 4042 037b 08010000 		.4byte	.LVL70
 4043 037f 16010000 		.4byte	.LVL71
 4044 0383 0700     		.2byte	0x7
 4045 0385 71       		.byte	0x71
 4046 0386 03       		.sleb128 3
 4047 0387 94       		.byte	0x94
 4048 0388 01       		.byte	0x1
 4049 0389 33       		.byte	0x33
 4050 038a 1A       		.byte	0x1a
 4051 038b 9F       		.byte	0x9f
 4052 038c 1C010000 		.4byte	.LVL72
 4053 0390 30010000 		.4byte	.LVL73
 4054 0394 0100     		.2byte	0x1
 4055 0396 52       		.byte	0x52
 4056 0397 30010000 		.4byte	.LVL73
 4057 039b 3E010000 		.4byte	.LVL74
 4058 039f 0700     		.2byte	0x7
 4059 03a1 71       		.byte	0x71
 4060 03a2 03       		.sleb128 3
 4061 03a3 94       		.byte	0x94
 4062 03a4 01       		.byte	0x1
 4063 03a5 33       		.byte	0x33
ARM GAS  C:\Users\CALEBC~1\AppData\Local\Temp\ccBuh6Ys.s 			page 98


 4064 03a6 1A       		.byte	0x1a
 4065 03a7 9F       		.byte	0x9f
 4066 03a8 00000000 		.4byte	0
 4067 03ac 00000000 		.4byte	0
 4068              	.LLST22:
 4069 03b0 62000000 		.4byte	.LVL62
 4070 03b4 64000000 		.4byte	.LVL63
 4071 03b8 0100     		.2byte	0x1
 4072 03ba 53       		.byte	0x53
 4073 03bb 64000000 		.4byte	.LVL63
 4074 03bf 86000000 		.4byte	.LVL66
 4075 03c3 0200     		.2byte	0x2
 4076 03c5 70       		.byte	0x70
 4077 03c6 04       		.sleb128 4
 4078 03c7 00000000 		.4byte	0
 4079 03cb 00000000 		.4byte	0
 4080              	.LLST23:
 4081 03cf 04000000 		.4byte	.LVL50
 4082 03d3 86010000 		.4byte	.LVL88
 4083 03d7 0200     		.2byte	0x2
 4084 03d9 30       		.byte	0x30
 4085 03da 9F       		.byte	0x9f
 4086 03db 86010000 		.4byte	.LVL88
 4087 03df 98010000 		.4byte	.LVL89
 4088 03e3 0100     		.2byte	0x1
 4089 03e5 53       		.byte	0x53
 4090 03e6 98010000 		.4byte	.LVL89
 4091 03ea 9A010000 		.4byte	.LVL90
 4092 03ee 0200     		.2byte	0x2
 4093 03f0 74       		.byte	0x74
 4094 03f1 06       		.sleb128 6
 4095 03f2 9A010000 		.4byte	.LVL90
 4096 03f6 A0010000 		.4byte	.LVL91
 4097 03fa 0100     		.2byte	0x1
 4098 03fc 53       		.byte	0x53
 4099 03fd A2010000 		.4byte	.LVL92
 4100 0401 AD010000 		.4byte	.LVL95-1
 4101 0405 0100     		.2byte	0x1
 4102 0407 53       		.byte	0x53
 4103 0408 00000000 		.4byte	0
 4104 040c 00000000 		.4byte	0
 4105              	.LLST24:
 4106 0410 60000000 		.4byte	.LVL61
 4107 0414 80000000 		.4byte	.LVL64
 4108 0418 0100     		.2byte	0x1
 4109 041a 50       		.byte	0x50
 4110 041b 80000000 		.4byte	.LVL64
 4111 041f 56010000 		.4byte	.LVL80
 4112 0423 0300     		.2byte	0x3
 4113 0425 70       		.byte	0x70
 4114 0426 08       		.sleb128 8
 4115 0427 9F       		.byte	0x9f
 4116 0428 00000000 		.4byte	0
 4117 042c 00000000 		.4byte	0
 4118              	.LLST25:
 4119 0430 88000000 		.4byte	.LVL67
 4120 0434 50010000 		.4byte	.LVL79
ARM GAS  C:\Users\CALEBC~1\AppData\Local\Temp\ccBuh6Ys.s 			page 99


 4121 0438 0100     		.2byte	0x1
 4122 043a 51       		.byte	0x51
 4123 043b 56010000 		.4byte	.LVL80
 4124 043f 64010000 		.4byte	.LVL82
 4125 0443 0100     		.2byte	0x1
 4126 0445 50       		.byte	0x50
 4127 0446 64010000 		.4byte	.LVL82
 4128 044a 70010000 		.4byte	.LVL83
 4129 044e 0300     		.2byte	0x3
 4130 0450 70       		.byte	0x70
 4131 0451 78       		.sleb128 -8
 4132 0452 9F       		.byte	0x9f
 4133 0453 70010000 		.4byte	.LVL83
 4134 0457 7B010000 		.4byte	.LVL86-1
 4135 045b 0100     		.2byte	0x1
 4136 045d 50       		.byte	0x50
 4137 045e 00000000 		.4byte	0
 4138 0462 00000000 		.4byte	0
 4139              	.LLST26:
 4140 0466 00000000 		.4byte	.LVL96
 4141 046a 04000000 		.4byte	.LVL97
 4142 046e 0100     		.2byte	0x1
 4143 0470 50       		.byte	0x50
 4144 0471 04000000 		.4byte	.LVL97
 4145 0475 30000000 		.4byte	.LVL98
 4146 0479 0100     		.2byte	0x1
 4147 047b 50       		.byte	0x50
 4148 047c 38000000 		.4byte	.LVL99
 4149 0480 3A000000 		.4byte	.LVL100
 4150 0484 0100     		.2byte	0x1
 4151 0486 50       		.byte	0x50
 4152 0487 00000000 		.4byte	0
 4153 048b 00000000 		.4byte	0
 4154              	.LLST27:
 4155 048f 02000000 		.4byte	.LVL101
 4156 0493 52000000 		.4byte	.LVL106
 4157 0497 0200     		.2byte	0x2
 4158 0499 30       		.byte	0x30
 4159 049a 9F       		.byte	0x9f
 4160 049b 52000000 		.4byte	.LVL106
 4161 049f 54000000 		.4byte	.LVL107
 4162 04a3 0100     		.2byte	0x1
 4163 04a5 50       		.byte	0x50
 4164 04a6 54000000 		.4byte	.LVL107
 4165 04aa 56000000 		.4byte	.LVL108
 4166 04ae 0200     		.2byte	0x2
 4167 04b0 30       		.byte	0x30
 4168 04b1 9F       		.byte	0x9f
 4169 04b2 56000000 		.4byte	.LVL108
 4170 04b6 64000000 		.4byte	.LFE10
 4171 04ba 0100     		.2byte	0x1
 4172 04bc 50       		.byte	0x50
 4173 04bd 00000000 		.4byte	0
 4174 04c1 00000000 		.4byte	0
 4175              	.LLST28:
 4176 04c5 0A000000 		.4byte	.LVL102
 4177 04c9 3A000000 		.4byte	.LVL103
ARM GAS  C:\Users\CALEBC~1\AppData\Local\Temp\ccBuh6Ys.s 			page 100


 4178 04cd 0100     		.2byte	0x1
 4179 04cf 53       		.byte	0x53
 4180 04d0 44000000 		.4byte	.LVL104
 4181 04d4 46000000 		.4byte	.LVL105
 4182 04d8 0100     		.2byte	0x1
 4183 04da 53       		.byte	0x53
 4184 04db 54000000 		.4byte	.LVL107
 4185 04df 58000000 		.4byte	.LVL109
 4186 04e3 0100     		.2byte	0x1
 4187 04e5 53       		.byte	0x53
 4188 04e6 00000000 		.4byte	0
 4189 04ea 00000000 		.4byte	0
 4190              	.LLST29:
 4191 04ee 00000000 		.4byte	.LVL110
 4192 04f2 96000000 		.4byte	.LVL119
 4193 04f6 0200     		.2byte	0x2
 4194 04f8 30       		.byte	0x30
 4195 04f9 9F       		.byte	0x9f
 4196 04fa 96000000 		.4byte	.LVL119
 4197 04fe 98000000 		.4byte	.LVL120
 4198 0502 0100     		.2byte	0x1
 4199 0504 50       		.byte	0x50
 4200 0505 98000000 		.4byte	.LVL120
 4201 0509 A8000000 		.4byte	.LFE11
 4202 050d 0200     		.2byte	0x2
 4203 050f 30       		.byte	0x30
 4204 0510 9F       		.byte	0x9f
 4205 0511 00000000 		.4byte	0
 4206 0515 00000000 		.4byte	0
 4207              	.LLST30:
 4208 0519 08000000 		.4byte	.LVL111
 4209 051d 54000000 		.4byte	.LVL112
 4210 0521 0100     		.2byte	0x1
 4211 0523 53       		.byte	0x53
 4212 0524 5E000000 		.4byte	.LVL113
 4213 0528 60000000 		.4byte	.LVL114
 4214 052c 0100     		.2byte	0x1
 4215 052e 53       		.byte	0x53
 4216 052f 6A000000 		.4byte	.LVL115
 4217 0533 7E000000 		.4byte	.LVL116
 4218 0537 0100     		.2byte	0x1
 4219 0539 53       		.byte	0x53
 4220 053a 88000000 		.4byte	.LVL117
 4221 053e 8A000000 		.4byte	.LVL118
 4222 0542 0100     		.2byte	0x1
 4223 0544 53       		.byte	0x53
 4224 0545 98000000 		.4byte	.LVL120
 4225 0549 A8000000 		.4byte	.LFE11
 4226 054d 0100     		.2byte	0x1
 4227 054f 53       		.byte	0x53
 4228 0550 00000000 		.4byte	0
 4229 0554 00000000 		.4byte	0
 4230              	.LLST31:
 4231 0558 02000000 		.4byte	.LVL121
 4232 055c 32000000 		.4byte	.LVL126
 4233 0560 0200     		.2byte	0x2
 4234 0562 30       		.byte	0x30
ARM GAS  C:\Users\CALEBC~1\AppData\Local\Temp\ccBuh6Ys.s 			page 101


 4235 0563 9F       		.byte	0x9f
 4236 0564 32000000 		.4byte	.LVL126
 4237 0568 36000000 		.4byte	.LVL128
 4238 056c 0200     		.2byte	0x2
 4239 056e 31       		.byte	0x31
 4240 056f 9F       		.byte	0x9f
 4241 0570 36000000 		.4byte	.LVL128
 4242 0574 38000000 		.4byte	.LVL129
 4243 0578 0200     		.2byte	0x2
 4244 057a 30       		.byte	0x30
 4245 057b 9F       		.byte	0x9f
 4246 057c 38000000 		.4byte	.LVL129
 4247 0580 4C000000 		.4byte	.LFE12
 4248 0584 0100     		.2byte	0x1
 4249 0586 50       		.byte	0x50
 4250 0587 00000000 		.4byte	0
 4251 058b 00000000 		.4byte	0
 4252              	.LLST32:
 4253 058f 08000000 		.4byte	.LVL122
 4254 0593 3A000000 		.4byte	.LVL130
 4255 0597 0100     		.2byte	0x1
 4256 0599 54       		.byte	0x54
 4257 059a 00000000 		.4byte	0
 4258 059e 00000000 		.4byte	0
 4259              	.LLST33:
 4260 05a2 18000000 		.4byte	.LVL124
 4261 05a6 24000000 		.4byte	.LVL125
 4262 05aa 0100     		.2byte	0x1
 4263 05ac 53       		.byte	0x53
 4264 05ad 24000000 		.4byte	.LVL125
 4265 05b1 34000000 		.4byte	.LVL127
 4266 05b5 0500     		.2byte	0x5
 4267 05b7 70       		.byte	0x70
 4268 05b8 04       		.sleb128 4
 4269 05b9 06       		.byte	0x6
 4270 05ba 23       		.byte	0x23
 4271 05bb 04       		.uleb128 0x4
 4272 05bc 36000000 		.4byte	.LVL128
 4273 05c0 4C000000 		.4byte	.LFE12
 4274 05c4 0100     		.2byte	0x1
 4275 05c6 53       		.byte	0x53
 4276 05c7 00000000 		.4byte	0
 4277 05cb 00000000 		.4byte	0
 4278              	.LLST34:
 4279 05cf 14000000 		.4byte	.LVL123
 4280 05d3 34000000 		.4byte	.LVL127
 4281 05d7 0100     		.2byte	0x1
 4282 05d9 50       		.byte	0x50
 4283 05da 36000000 		.4byte	.LVL128
 4284 05de 38000000 		.4byte	.LVL129
 4285 05e2 0100     		.2byte	0x1
 4286 05e4 50       		.byte	0x50
 4287 05e5 00000000 		.4byte	0
 4288 05e9 00000000 		.4byte	0
 4289              	.LLST35:
 4290 05ed 02000000 		.4byte	.LVL131
 4291 05f1 58000000 		.4byte	.LVL135
ARM GAS  C:\Users\CALEBC~1\AppData\Local\Temp\ccBuh6Ys.s 			page 102


 4292 05f5 0200     		.2byte	0x2
 4293 05f7 30       		.byte	0x30
 4294 05f8 9F       		.byte	0x9f
 4295 05f9 58000000 		.4byte	.LVL135
 4296 05fd 5A000000 		.4byte	.LVL136
 4297 0601 0100     		.2byte	0x1
 4298 0603 50       		.byte	0x50
 4299 0604 5A000000 		.4byte	.LVL136
 4300 0608 8A000000 		.4byte	.LVL138
 4301 060c 0200     		.2byte	0x2
 4302 060e 30       		.byte	0x30
 4303 060f 9F       		.byte	0x9f
 4304 0610 8A000000 		.4byte	.LVL138
 4305 0614 8C000000 		.4byte	.LVL139
 4306 0618 0100     		.2byte	0x1
 4307 061a 50       		.byte	0x50
 4308 061b 8C000000 		.4byte	.LVL139
 4309 061f FC000000 		.4byte	.LVL151
 4310 0623 0200     		.2byte	0x2
 4311 0625 30       		.byte	0x30
 4312 0626 9F       		.byte	0x9f
 4313 0627 FC000000 		.4byte	.LVL151
 4314 062b FE000000 		.4byte	.LVL152
 4315 062f 0100     		.2byte	0x1
 4316 0631 50       		.byte	0x50
 4317 0632 FE000000 		.4byte	.LVL152
 4318 0636 02010000 		.4byte	.LVL153
 4319 063a 0200     		.2byte	0x2
 4320 063c 30       		.byte	0x30
 4321 063d 9F       		.byte	0x9f
 4322 063e 02010000 		.4byte	.LVL153
 4323 0642 04010000 		.4byte	.LVL154
 4324 0646 0100     		.2byte	0x1
 4325 0648 50       		.byte	0x50
 4326 0649 04010000 		.4byte	.LVL154
 4327 064d 38010000 		.4byte	.LVL156
 4328 0651 0200     		.2byte	0x2
 4329 0653 30       		.byte	0x30
 4330 0654 9F       		.byte	0x9f
 4331 0655 38010000 		.4byte	.LVL156
 4332 0659 3A010000 		.4byte	.LVL157
 4333 065d 0100     		.2byte	0x1
 4334 065f 50       		.byte	0x50
 4335 0660 3A010000 		.4byte	.LVL157
 4336 0664 54010000 		.4byte	.LVL158
 4337 0668 0200     		.2byte	0x2
 4338 066a 30       		.byte	0x30
 4339 066b 9F       		.byte	0x9f
 4340 066c 54010000 		.4byte	.LVL158
 4341 0670 56010000 		.4byte	.LVL159
 4342 0674 0100     		.2byte	0x1
 4343 0676 50       		.byte	0x50
 4344 0677 56010000 		.4byte	.LVL159
 4345 067b 64010000 		.4byte	.LVL161
 4346 067f 0200     		.2byte	0x2
 4347 0681 30       		.byte	0x30
 4348 0682 9F       		.byte	0x9f
ARM GAS  C:\Users\CALEBC~1\AppData\Local\Temp\ccBuh6Ys.s 			page 103


 4349 0683 64010000 		.4byte	.LVL161
 4350 0687 66010000 		.4byte	.LVL162
 4351 068b 0100     		.2byte	0x1
 4352 068d 50       		.byte	0x50
 4353 068e 66010000 		.4byte	.LVL162
 4354 0692 7A010000 		.4byte	.LVL164
 4355 0696 0200     		.2byte	0x2
 4356 0698 30       		.byte	0x30
 4357 0699 9F       		.byte	0x9f
 4358 069a 7A010000 		.4byte	.LVL164
 4359 069e 7C010000 		.4byte	.LVL165
 4360 06a2 0100     		.2byte	0x1
 4361 06a4 50       		.byte	0x50
 4362 06a5 7C010000 		.4byte	.LVL165
 4363 06a9 B0010000 		.4byte	.LVL167
 4364 06ad 0200     		.2byte	0x2
 4365 06af 30       		.byte	0x30
 4366 06b0 9F       		.byte	0x9f
 4367 06b1 B0010000 		.4byte	.LVL167
 4368 06b5 B2010000 		.4byte	.LVL168
 4369 06b9 0100     		.2byte	0x1
 4370 06bb 50       		.byte	0x50
 4371 06bc B2010000 		.4byte	.LVL168
 4372 06c0 EA010000 		.4byte	.LVL174
 4373 06c4 0200     		.2byte	0x2
 4374 06c6 30       		.byte	0x30
 4375 06c7 9F       		.byte	0x9f
 4376 06c8 EA010000 		.4byte	.LVL174
 4377 06cc EC010000 		.4byte	.LVL175
 4378 06d0 0100     		.2byte	0x1
 4379 06d2 50       		.byte	0x50
 4380 06d3 EC010000 		.4byte	.LVL175
 4381 06d7 22020000 		.4byte	.LVL180
 4382 06db 0200     		.2byte	0x2
 4383 06dd 30       		.byte	0x30
 4384 06de 9F       		.byte	0x9f
 4385 06df 22020000 		.4byte	.LVL180
 4386 06e3 24020000 		.4byte	.LVL181
 4387 06e7 0100     		.2byte	0x1
 4388 06e9 50       		.byte	0x50
 4389 06ea 24020000 		.4byte	.LVL181
 4390 06ee 40020000 		.4byte	.LVL183
 4391 06f2 0200     		.2byte	0x2
 4392 06f4 30       		.byte	0x30
 4393 06f5 9F       		.byte	0x9f
 4394 06f6 40020000 		.4byte	.LVL183
 4395 06fa 42020000 		.4byte	.LVL184
 4396 06fe 0100     		.2byte	0x1
 4397 0700 50       		.byte	0x50
 4398 0701 42020000 		.4byte	.LVL184
 4399 0705 5A020000 		.4byte	.LVL185
 4400 0709 0200     		.2byte	0x2
 4401 070b 30       		.byte	0x30
 4402 070c 9F       		.byte	0x9f
 4403 070d 5A020000 		.4byte	.LVL185
 4404 0711 98020000 		.4byte	.LVL186
 4405 0715 0100     		.2byte	0x1
ARM GAS  C:\Users\CALEBC~1\AppData\Local\Temp\ccBuh6Ys.s 			page 104


 4406 0717 50       		.byte	0x50
 4407 0718 98020000 		.4byte	.LVL186
 4408 071c B8020000 		.4byte	.LVL187
 4409 0720 0200     		.2byte	0x2
 4410 0722 30       		.byte	0x30
 4411 0723 9F       		.byte	0x9f
 4412 0724 B8020000 		.4byte	.LVL187
 4413 0728 BA020000 		.4byte	.LVL188
 4414 072c 0100     		.2byte	0x1
 4415 072e 50       		.byte	0x50
 4416 072f BA020000 		.4byte	.LVL188
 4417 0733 D6020000 		.4byte	.LVL190
 4418 0737 0200     		.2byte	0x2
 4419 0739 30       		.byte	0x30
 4420 073a 9F       		.byte	0x9f
 4421 073b D6020000 		.4byte	.LVL190
 4422 073f D8020000 		.4byte	.LVL191
 4423 0743 0100     		.2byte	0x1
 4424 0745 50       		.byte	0x50
 4425 0746 D8020000 		.4byte	.LVL191
 4426 074a F0020000 		.4byte	.LVL192
 4427 074e 0200     		.2byte	0x2
 4428 0750 30       		.byte	0x30
 4429 0751 9F       		.byte	0x9f
 4430 0752 F0020000 		.4byte	.LVL192
 4431 0756 F2020000 		.4byte	.LVL193
 4432 075a 0100     		.2byte	0x1
 4433 075c 50       		.byte	0x50
 4434 075d F2020000 		.4byte	.LVL193
 4435 0761 12030000 		.4byte	.LVL194
 4436 0765 0200     		.2byte	0x2
 4437 0767 30       		.byte	0x30
 4438 0768 9F       		.byte	0x9f
 4439 0769 12030000 		.4byte	.LVL194
 4440 076d 14030000 		.4byte	.LVL195
 4441 0771 0100     		.2byte	0x1
 4442 0773 50       		.byte	0x50
 4443 0774 14030000 		.4byte	.LVL195
 4444 0778 4E030000 		.4byte	.LVL203
 4445 077c 0200     		.2byte	0x2
 4446 077e 30       		.byte	0x30
 4447 077f 9F       		.byte	0x9f
 4448 0780 4E030000 		.4byte	.LVL203
 4449 0784 5C030000 		.4byte	.LFE0
 4450 0788 0100     		.2byte	0x1
 4451 078a 50       		.byte	0x50
 4452 078b 00000000 		.4byte	0
 4453 078f 00000000 		.4byte	0
 4454              	.LLST36:
 4455 0793 FC010000 		.4byte	.LVL177
 4456 0797 0E020000 		.4byte	.LVL178
 4457 079b 0100     		.2byte	0x1
 4458 079d 53       		.byte	0x53
 4459 079e 00000000 		.4byte	0
 4460 07a2 00000000 		.4byte	0
 4461              	.LLST37:
 4462 07a6 B6010000 		.4byte	.LVL170
ARM GAS  C:\Users\CALEBC~1\AppData\Local\Temp\ccBuh6Ys.s 			page 105


 4463 07aa C3010000 		.4byte	.LVL171-1
 4464 07ae 0100     		.2byte	0x1
 4465 07b0 53       		.byte	0x53
 4466 07b1 00000000 		.4byte	0
 4467 07b5 00000000 		.4byte	0
 4468              	.LLST38:
 4469 07b9 08000000 		.4byte	.LVL132
 4470 07bd 3E000000 		.4byte	.LVL133
 4471 07c1 0100     		.2byte	0x1
 4472 07c3 53       		.byte	0x53
 4473 07c4 04010000 		.4byte	.LVL154
 4474 07c8 08010000 		.4byte	.LVL155
 4475 07cc 0100     		.2byte	0x1
 4476 07ce 53       		.byte	0x53
 4477 07cf 56010000 		.4byte	.LVL159
 4478 07d3 58010000 		.4byte	.LVL160
 4479 07d7 0100     		.2byte	0x1
 4480 07d9 53       		.byte	0x53
 4481 07da 66010000 		.4byte	.LVL162
 4482 07de 6A010000 		.4byte	.LVL163
 4483 07e2 0100     		.2byte	0x1
 4484 07e4 53       		.byte	0x53
 4485 07e5 7C010000 		.4byte	.LVL165
 4486 07e9 A4010000 		.4byte	.LVL166
 4487 07ed 0100     		.2byte	0x1
 4488 07ef 53       		.byte	0x53
 4489 07f0 B2010000 		.4byte	.LVL168
 4490 07f4 B4010000 		.4byte	.LVL169
 4491 07f8 0100     		.2byte	0x1
 4492 07fa 53       		.byte	0x53
 4493 07fb EC010000 		.4byte	.LVL175
 4494 07ff EF010000 		.4byte	.LVL176-1
 4495 0803 0100     		.2byte	0x1
 4496 0805 53       		.byte	0x53
 4497 0806 24020000 		.4byte	.LVL181
 4498 080a 28020000 		.4byte	.LVL182
 4499 080e 0100     		.2byte	0x1
 4500 0810 53       		.byte	0x53
 4501 0811 BA020000 		.4byte	.LVL188
 4502 0815 BE020000 		.4byte	.LVL189
 4503 0819 0100     		.2byte	0x1
 4504 081b 53       		.byte	0x53
 4505 081c 14030000 		.4byte	.LVL195
 4506 0820 18030000 		.4byte	.LVL196
 4507 0824 0100     		.2byte	0x1
 4508 0826 53       		.byte	0x53
 4509 0827 24030000 		.4byte	.LVL200
 4510 082b 28030000 		.4byte	.LVL201
 4511 082f 0100     		.2byte	0x1
 4512 0831 53       		.byte	0x53
 4513 0832 00000000 		.4byte	0
 4514 0836 00000000 		.4byte	0
 4515              	.LLST39:
 4516 083a 08000000 		.4byte	.LVL132
 4517 083e 98000000 		.4byte	.LVL140
 4518 0842 0200     		.2byte	0x2
 4519 0844 30       		.byte	0x30
ARM GAS  C:\Users\CALEBC~1\AppData\Local\Temp\ccBuh6Ys.s 			page 106


 4520 0845 9F       		.byte	0x9f
 4521 0846 98000000 		.4byte	.LVL140
 4522 084a A2000000 		.4byte	.LVL145
 4523 084e 0100     		.2byte	0x1
 4524 0850 51       		.byte	0x51
 4525 0851 A2000000 		.4byte	.LVL145
 4526 0855 A6000000 		.4byte	.LVL146
 4527 0859 0200     		.2byte	0x2
 4528 085b 30       		.byte	0x30
 4529 085c 9F       		.byte	0x9f
 4530 085d A6000000 		.4byte	.LVL146
 4531 0861 E3000000 		.4byte	.LVL149-1
 4532 0865 0100     		.2byte	0x1
 4533 0867 51       		.byte	0x51
 4534 0868 E6000000 		.4byte	.LVL150
 4535 086c FB000000 		.4byte	.LVL151-1
 4536 0870 0100     		.2byte	0x1
 4537 0872 51       		.byte	0x51
 4538 0873 FE000000 		.4byte	.LVL152
 4539 0877 1C030000 		.4byte	.LVL198
 4540 087b 0200     		.2byte	0x2
 4541 087d 30       		.byte	0x30
 4542 087e 9F       		.byte	0x9f
 4543 087f 1C030000 		.4byte	.LVL198
 4544 0883 20030000 		.4byte	.LVL199
 4545 0887 0100     		.2byte	0x1
 4546 0889 51       		.byte	0x51
 4547 088a 20030000 		.4byte	.LVL199
 4548 088e 5C030000 		.4byte	.LFE0
 4549 0892 0200     		.2byte	0x2
 4550 0894 30       		.byte	0x30
 4551 0895 9F       		.byte	0x9f
 4552 0896 00000000 		.4byte	0
 4553 089a 00000000 		.4byte	0
 4554              	.LLST40:
 4555 089e 98000000 		.4byte	.LVL140
 4556 08a2 9E000000 		.4byte	.LVL143
 4557 08a6 0100     		.2byte	0x1
 4558 08a8 53       		.byte	0x53
 4559 08a9 A0000000 		.4byte	.LVL144
 4560 08ad A2000000 		.4byte	.LVL145
 4561 08b1 0100     		.2byte	0x1
 4562 08b3 53       		.byte	0x53
 4563 08b4 A6000000 		.4byte	.LVL146
 4564 08b8 BA000000 		.4byte	.LVL147
 4565 08bc 0100     		.2byte	0x1
 4566 08be 53       		.byte	0x53
 4567 08bf 00000000 		.4byte	0
 4568 08c3 00000000 		.4byte	0
 4569              	.LLST41:
 4570 08c7 9A000000 		.4byte	.LVL141
 4571 08cb A2000000 		.4byte	.LVL145
 4572 08cf 0100     		.2byte	0x1
 4573 08d1 52       		.byte	0x52
 4574 08d2 00000000 		.4byte	0
 4575 08d6 00000000 		.4byte	0
 4576              	.LLST42:
ARM GAS  C:\Users\CALEBC~1\AppData\Local\Temp\ccBuh6Ys.s 			page 107


 4577 08da 4A000000 		.4byte	.LVL134
 4578 08de 57000000 		.4byte	.LVL135-1
 4579 08e2 0100     		.2byte	0x1
 4580 08e4 50       		.byte	0x50
 4581 08e5 6C000000 		.4byte	.LVL137
 4582 08e9 89000000 		.4byte	.LVL138-1
 4583 08ed 0100     		.2byte	0x1
 4584 08ef 50       		.byte	0x50
 4585 08f0 C4010000 		.4byte	.LVL171
 4586 08f4 DE010000 		.4byte	.LVL172
 4587 08f8 0100     		.2byte	0x1
 4588 08fa 50       		.byte	0x50
 4589 08fb 18030000 		.4byte	.LVL196
 4590 08ff 1A030000 		.4byte	.LVL197
 4591 0903 0100     		.2byte	0x1
 4592 0905 50       		.byte	0x50
 4593 0906 28030000 		.4byte	.LVL201
 4594 090a 2A030000 		.4byte	.LVL202
 4595 090e 0100     		.2byte	0x1
 4596 0910 50       		.byte	0x50
 4597 0911 00000000 		.4byte	0
 4598 0915 00000000 		.4byte	0
 4599              		.section	.debug_aranges,"",%progbits
 4600 0000 7C000000 		.4byte	0x7c
 4601 0004 0200     		.2byte	0x2
 4602 0006 00000000 		.4byte	.Ldebug_info0
 4603 000a 04       		.byte	0x4
 4604 000b 00       		.byte	0
 4605 000c 0000     		.2byte	0
 4606 000e 0000     		.2byte	0
 4607 0010 00000000 		.4byte	.LFB1
 4608 0014 6C000000 		.4byte	.LFE1-.LFB1
 4609 0018 00000000 		.4byte	.LFB2
 4610 001c A8000000 		.4byte	.LFE2-.LFB2
 4611 0020 00000000 		.4byte	.LFB3
 4612 0024 44000000 		.4byte	.LFE3-.LFB3
 4613 0028 00000000 		.4byte	.LFB6
 4614 002c 28000000 		.4byte	.LFE6-.LFB6
 4615 0030 00000000 		.4byte	.LFB5
 4616 0034 1C010000 		.4byte	.LFE5-.LFB5
 4617 0038 00000000 		.4byte	.LFB7
 4618 003c 18000000 		.4byte	.LFE7-.LFB7
 4619 0040 00000000 		.4byte	.LFB8
 4620 0044 28000000 		.4byte	.LFE8-.LFB8
 4621 0048 00000000 		.4byte	.LFB4
 4622 004c CC010000 		.4byte	.LFE4-.LFB4
 4623 0050 00000000 		.4byte	.LFB9
 4624 0054 4C000000 		.4byte	.LFE9-.LFB9
 4625 0058 00000000 		.4byte	.LFB10
 4626 005c 64000000 		.4byte	.LFE10-.LFB10
 4627 0060 00000000 		.4byte	.LFB11
 4628 0064 A8000000 		.4byte	.LFE11-.LFB11
 4629 0068 00000000 		.4byte	.LFB12
 4630 006c 4C000000 		.4byte	.LFE12-.LFB12
 4631 0070 00000000 		.4byte	.LFB0
 4632 0074 5C030000 		.4byte	.LFE0-.LFB0
 4633 0078 00000000 		.4byte	0
ARM GAS  C:\Users\CALEBC~1\AppData\Local\Temp\ccBuh6Ys.s 			page 108


 4634 007c 00000000 		.4byte	0
 4635              		.section	.debug_ranges,"",%progbits
 4636              	.Ldebug_ranges0:
 4637 0000 00000000 		.4byte	.LFB1
 4638 0004 6C000000 		.4byte	.LFE1
 4639 0008 00000000 		.4byte	.LFB2
 4640 000c A8000000 		.4byte	.LFE2
 4641 0010 00000000 		.4byte	.LFB3
 4642 0014 44000000 		.4byte	.LFE3
 4643 0018 00000000 		.4byte	.LFB6
 4644 001c 28000000 		.4byte	.LFE6
 4645 0020 00000000 		.4byte	.LFB5
 4646 0024 1C010000 		.4byte	.LFE5
 4647 0028 00000000 		.4byte	.LFB7
 4648 002c 18000000 		.4byte	.LFE7
 4649 0030 00000000 		.4byte	.LFB8
 4650 0034 28000000 		.4byte	.LFE8
 4651 0038 00000000 		.4byte	.LFB4
 4652 003c CC010000 		.4byte	.LFE4
 4653 0040 00000000 		.4byte	.LFB9
 4654 0044 4C000000 		.4byte	.LFE9
 4655 0048 00000000 		.4byte	.LFB10
 4656 004c 64000000 		.4byte	.LFE10
 4657 0050 00000000 		.4byte	.LFB11
 4658 0054 A8000000 		.4byte	.LFE11
 4659 0058 00000000 		.4byte	.LFB12
 4660 005c 4C000000 		.4byte	.LFE12
 4661 0060 00000000 		.4byte	.LFB0
 4662 0064 5C030000 		.4byte	.LFE0
 4663 0068 00000000 		.4byte	0
 4664 006c 00000000 		.4byte	0
 4665              		.section	.debug_line,"",%progbits
 4666              	.Ldebug_line0:
 4667 0000 CB030000 		.section	.debug_str,"MS",%progbits,1
 4667      02006B00 
 4667      00000201 
 4667      FB0E0D00 
 4667      01010101 
 4668              	.LASF86:
 4669 0000 55534246 		.ascii	"USBFS_ValidateAlternateSetting\000"
 4669      535F5661 
 4669      6C696461 
 4669      7465416C 
 4669      7465726E 
 4670              	.LASF56:
 4671 001f 72774472 		.ascii	"rwDr\000"
 4671      00
 4672              	.LASF26:
 4673 0024 62756666 		.ascii	"bufferSize\000"
 4673      65725369 
 4673      7A6500
 4674              	.LASF90:
 4675 002f 636F6E66 		.ascii	"configurationN\000"
 4675      69677572 
 4675      6174696F 
 4675      6E4E00
 4676              	.LASF58:
ARM GAS  C:\Users\CALEBC~1\AppData\Local\Temp\ccBuh6Ys.s 			page 109


 4677 003e 73696545 		.ascii	"sieEp\000"
 4677      7000
 4678              	.LASF27:
 4679 0044 696E7465 		.ascii	"interface\000"
 4679      72666163 
 4679      6500
 4680              	.LASF88:
 4681 004e 55534246 		.ascii	"USBFS_HandleStandardRqst\000"
 4681      535F4861 
 4681      6E646C65 
 4681      5374616E 
 4681      64617264 
 4682              	.LASF8:
 4683 0067 756E7369 		.ascii	"unsigned int\000"
 4683      676E6564 
 4683      20696E74 
 4683      00
 4684              	.LASF89:
 4685 0074 696E7465 		.ascii	"interfaceNumber\000"
 4685      72666163 
 4685      654E756D 
 4685      62657200 
 4686              	.LASF91:
 4687 0084 626D5265 		.ascii	"bmRequestType\000"
 4687      71756573 
 4687      74547970 
 4687      6500
 4688              	.LASF16:
 4689 0092 72656738 		.ascii	"reg8\000"
 4689      00
 4690              	.LASF57:
 4691 0097 55534246 		.ascii	"USBFS_arb_ep_struct\000"
 4691      535F6172 
 4691      625F6570 
 4691      5F737472 
 4691      75637400 
 4692              	.LASF79:
 4693 00ab 70446573 		.ascii	"pDescr\000"
 4693      637200
 4694              	.LASF115:
 4695 00b2 55534246 		.ascii	"USBFS_InitControlRead\000"
 4695      535F496E 
 4695      6974436F 
 4695      6E74726F 
 4695      6C526561 
 4696              	.LASF65:
 4697 00c8 55534246 		.ascii	"USBFS_EpStateInit\000"
 4697      535F4570 
 4697      53746174 
 4697      65496E69 
 4697      7400
 4698              	.LASF120:
 4699 00da 55534246 		.ascii	"USBFS_GetDeviceTablePtr\000"
 4699      535F4765 
 4699      74446576 
 4699      69636554 
 4699      61626C65 
ARM GAS  C:\Users\CALEBC~1\AppData\Local\Temp\ccBuh6Ys.s 			page 110


 4700              	.LASF112:
 4701 00f2 55534246 		.ascii	"USBFS_currentTD\000"
 4701      535F6375 
 4701      7272656E 
 4701      74544400 
 4702              	.LASF29:
 4703 0102 616C7453 		.ascii	"altSetting\000"
 4703      65747469 
 4703      6E6700
 4704              	.LASF22:
 4705 010d 6570546F 		.ascii	"epToggle\000"
 4705      67676C65 
 4705      00
 4706              	.LASF96:
 4707 0116 55534246 		.ascii	"USBFS_device\000"
 4707      535F6465 
 4707      76696365 
 4707      00
 4708              	.LASF109:
 4709 0123 55534246 		.ascii	"USBFS_interfaceStatus\000"
 4709      535F696E 
 4709      74657266 
 4709      61636553 
 4709      74617475 
 4710              	.LASF12:
 4711 0139 666C6F61 		.ascii	"float\000"
 4711      7400
 4712              	.LASF36:
 4713 013f 636F756E 		.ascii	"count\000"
 4713      7400
 4714              	.LASF41:
 4715 0145 545F5553 		.ascii	"T_USBFS_LUT\000"
 4715      4246535F 
 4715      4C555400 
 4716              	.LASF52:
 4717 0151 72775761 		.ascii	"rwWa\000"
 4717      00
 4718              	.LASF7:
 4719 0156 6C6F6E67 		.ascii	"long long unsigned int\000"
 4719      206C6F6E 
 4719      6720756E 
 4719      7369676E 
 4719      65642069 
 4720              	.LASF99:
 4721 016d 55534246 		.ascii	"USBFS_deviceStatus\000"
 4721      535F6465 
 4721      76696365 
 4721      53746174 
 4721      757300
 4722              	.LASF61:
 4723 0180 55534246 		.ascii	"USBFS_arb_eps_struct\000"
 4723      535F6172 
 4723      625F6570 
 4723      735F7374 
 4723      72756374 
 4724              	.LASF104:
 4725 0195 55534246 		.ascii	"USBFS_idSerialNumberStringDescriptor\000"
ARM GAS  C:\Users\CALEBC~1\AppData\Local\Temp\ccBuh6Ys.s 			page 111


 4725      535F6964 
 4725      53657269 
 4725      616C4E75 
 4725      6D626572 
 4726              	.LASF77:
 4727 01ba 55534246 		.ascii	"USBFS_Config\000"
 4727      535F436F 
 4727      6E666967 
 4727      00
 4728              	.LASF28:
 4729 01c7 545F5553 		.ascii	"T_USBFS_EP_CTL_BLOCK\000"
 4729      4246535F 
 4729      45505F43 
 4729      544C5F42 
 4729      4C4F434B 
 4730              	.LASF117:
 4731 01dc 474E5520 		.ascii	"GNU C11 5.4.1 20160609 (release) [ARM/embedded-5-br"
 4731      43313120 
 4731      352E342E 
 4731      31203230 
 4731      31363036 
 4732 020f 616E6368 		.ascii	"anch revision 237715] -mcpu=cortex-m3 -mthumb -g -O"
 4732      20726576 
 4732      6973696F 
 4732      6E203233 
 4732      37373135 
 4733 0242 67202D66 		.ascii	"g -ffunction-sections -ffat-lto-objects\000"
 4733      66756E63 
 4733      74696F6E 
 4733      2D736563 
 4733      74696F6E 
 4734              	.LASF39:
 4735 026a 545F5553 		.ascii	"T_USBFS_TD\000"
 4735      4246535F 
 4735      544400
 4736              	.LASF47:
 4737 0275 55534246 		.ascii	"USBFS_sie_ep_struct\000"
 4737      535F7369 
 4737      655F6570 
 4737      5F737472 
 4737      75637400 
 4738              	.LASF83:
 4739 0289 55534246 		.ascii	"USBFS_SetEndpointHalt\000"
 4739      535F5365 
 4739      74456E64 
 4739      706F696E 
 4739      7448616C 
 4740              	.LASF73:
 4741 029f 55534246 		.ascii	"USBFS_GetConfigTablePtr\000"
 4741      535F4765 
 4741      74436F6E 
 4741      66696754 
 4741      61626C65 
 4742              	.LASF49:
 4743 02b7 6570496E 		.ascii	"epIntEn\000"
 4743      74456E00 
 4744              	.LASF67:
ARM GAS  C:\Users\CALEBC~1\AppData\Local\Temp\ccBuh6Ys.s 			page 112


 4745 02bf 636F6E66 		.ascii	"confIndex\000"
 4745      496E6465 
 4745      7800
 4746              	.LASF76:
 4747 02c9 63757272 		.ascii	"currentInterfacesNum\000"
 4747      656E7449 
 4747      6E746572 
 4747      66616365 
 4747      734E756D 
 4748              	.LASF37:
 4749 02de 70446174 		.ascii	"pData\000"
 4749      6100
 4750              	.LASF81:
 4751 02e4 55534246 		.ascii	"USBFS_TerminateEP\000"
 4751      535F5465 
 4751      726D696E 
 4751      61746545 
 4751      5000
 4752              	.LASF38:
 4753 02f6 70537461 		.ascii	"pStatusBlock\000"
 4753      74757342 
 4753      6C6F636B 
 4753      00
 4754              	.LASF32:
 4755 0303 545F5553 		.ascii	"T_USBFS_EP_SETTINGS_BLOCK\000"
 4755      4246535F 
 4755      45505F53 
 4755      45545449 
 4755      4E47535F 
 4756              	.LASF111:
 4757 031d 55534246 		.ascii	"USBFS_EP\000"
 4757      535F4550 
 4757      00
 4758              	.LASF15:
 4759 0326 63686172 		.ascii	"char\000"
 4759      00
 4760              	.LASF101:
 4761 032b 55534246 		.ascii	"USBFS_TABLE\000"
 4761      535F5441 
 4761      424C4500 
 4762              	.LASF60:
 4763 0337 61726245 		.ascii	"arbEp\000"
 4763      7000
 4764              	.LASF114:
 4765 033d 55534246 		.ascii	"USBFS_InitNoDataControlTransfer\000"
 4765      535F496E 
 4765      69744E6F 
 4765      44617461 
 4765      436F6E74 
 4766              	.LASF10:
 4767 035d 75696E74 		.ascii	"uint16\000"
 4767      313600
 4768              	.LASF63:
 4769 0364 55534246 		.ascii	"USBFS_ReadDieID\000"
 4769      535F5265 
 4769      61644469 
 4769      65494400 
ARM GAS  C:\Users\CALEBC~1\AppData\Local\Temp\ccBuh6Ys.s 			page 113


 4770              	.LASF33:
 4771 0374 73746174 		.ascii	"status\000"
 4771      757300
 4772              	.LASF14:
 4773 037b 63686172 		.ascii	"char8\000"
 4773      3800
 4774              	.LASF64:
 4775 0381 55534246 		.ascii	"USBFS_ConfigReg\000"
 4775      535F436F 
 4775      6E666967 
 4775      52656700 
 4776              	.LASF25:
 4777 0391 62756666 		.ascii	"buffOffset\000"
 4777      4F666673 
 4777      657400
 4778              	.LASF46:
 4779 039c 65704372 		.ascii	"epCr0\000"
 4779      3000
 4780              	.LASF71:
 4781 03a2 65705479 		.ascii	"epType\000"
 4781      706500
 4782              	.LASF84:
 4783 03a9 72657175 		.ascii	"requestHandled\000"
 4783      65737448 
 4783      616E646C 
 4783      656400
 4784              	.LASF6:
 4785 03b8 6C6F6E67 		.ascii	"long long int\000"
 4785      206C6F6E 
 4785      6720696E 
 4785      7400
 4786              	.LASF100:
 4787 03c6 55534246 		.ascii	"USBFS_DEVICE0_DESCR\000"
 4787      535F4445 
 4787      56494345 
 4787      305F4445 
 4787      53435200 
 4788              	.LASF31:
 4789 03da 624D6973 		.ascii	"bMisc\000"
 4789      6300
 4790              	.LASF102:
 4791 03e0 55534246 		.ascii	"USBFS_STRING_DESCRIPTORS\000"
 4791      535F5354 
 4791      52494E47 
 4791      5F444553 
 4791      43524950 
 4792              	.LASF44:
 4793 03f9 6570436E 		.ascii	"epCnt0\000"
 4793      743000
 4794              	.LASF45:
 4795 0400 6570436E 		.ascii	"epCnt1\000"
 4795      743100
 4796              	.LASF106:
 4797 0407 55534246 		.ascii	"USBFS_interfaceSetting\000"
 4797      535F696E 
 4797      74657266 
 4797      61636553 
ARM GAS  C:\Users\CALEBC~1\AppData\Local\Temp\ccBuh6Ys.s 			page 114


 4797      65747469 
 4798              	.LASF82:
 4799 041e 65704E75 		.ascii	"epNumber\000"
 4799      6D626572 
 4799      00
 4800              	.LASF103:
 4801 0427 55534246 		.ascii	"USBFS_MSOS_DESCRIPTOR\000"
 4801      535F4D53 
 4801      4F535F44 
 4801      45534352 
 4801      4950544F 
 4802              	.LASF98:
 4803 043d 55534246 		.ascii	"USBFS_configurationChanged\000"
 4803      535F636F 
 4803      6E666967 
 4803      75726174 
 4803      696F6E43 
 4804              	.LASF21:
 4805 0458 68774570 		.ascii	"hwEpState\000"
 4805      53746174 
 4805      6500
 4806              	.LASF59:
 4807 0462 55534246 		.ascii	"USBFS_sie_eps_struct\000"
 4807      535F7369 
 4807      655F6570 
 4807      735F7374 
 4807      72756374 
 4808              	.LASF11:
 4809 0477 75696E74 		.ascii	"uint32\000"
 4809      333200
 4810              	.LASF75:
 4811 047e 70496E74 		.ascii	"pInterfaceClass\000"
 4811      65726661 
 4811      6365436C 
 4811      61737300 
 4812              	.LASF74:
 4813 048e 55534246 		.ascii	"USBFS_GetInterfaceClassTablePtr\000"
 4813      535F4765 
 4813      74496E74 
 4813      65726661 
 4813      6365436C 
 4814              	.LASF110:
 4815 04ae 55534246 		.ascii	"USBFS_interfaceClass\000"
 4815      535F696E 
 4815      74657266 
 4815      61636543 
 4815      6C617373 
 4816              	.LASF66:
 4817 04c3 64657363 		.ascii	"descr\000"
 4817      7200
 4818              	.LASF105:
 4819 04c9 55534246 		.ascii	"USBFS_interfaceNumber\000"
 4819      535F696E 
 4819      74657266 
 4819      6163654E 
 4819      756D6265 
 4820              	.LASF35:
ARM GAS  C:\Users\CALEBC~1\AppData\Local\Temp\ccBuh6Ys.s 			page 115


 4821 04df 545F5553 		.ascii	"T_USBFS_XFER_STATUS_BLOCK\000"
 4821      4246535F 
 4821      58464552 
 4821      5F535441 
 4821      5455535F 
 4822              	.LASF17:
 4823 04f9 6C6F6E67 		.ascii	"long double\000"
 4823      20646F75 
 4823      626C6500 
 4824              	.LASF85:
 4825 0505 55534246 		.ascii	"USBFS_ClearEndpointHalt\000"
 4825      535F436C 
 4825      65617245 
 4825      6E64706F 
 4825      696E7448 
 4826              	.LASF69:
 4827 051d 55534246 		.ascii	"USBFS_ConfigAltChanged\000"
 4827      535F436F 
 4827      6E666967 
 4827      416C7443 
 4827      68616E67 
 4828              	.LASF80:
 4829 0534 62756666 		.ascii	"buffCount\000"
 4829      436F756E 
 4829      7400
 4830              	.LASF2:
 4831 053e 73686F72 		.ascii	"short int\000"
 4831      7420696E 
 4831      7400
 4832              	.LASF119:
 4833 0548 433A5C55 		.ascii	"C:\\Users\\Caleb Cotter\\Documents\\GitHub\\3HC\\3H"
 4833      73657273 
 4833      5C43616C 
 4833      65622043 
 4833      6F747465 
 4834 0575 435F4669 		.ascii	"C_Firmware\\3HC_Firmware_0_1.cydsn\000"
 4834      726D7761 
 4834      72655C33 
 4834      48435F46 
 4834      69726D77 
 4835              	.LASF24:
 4836 0597 65704D6F 		.ascii	"epMode\000"
 4836      646500
 4837              	.LASF4:
 4838 059e 6C6F6E67 		.ascii	"long int\000"
 4838      20696E74 
 4838      00
 4839              	.LASF34:
 4840 05a7 6C656E67 		.ascii	"length\000"
 4840      746800
 4841              	.LASF55:
 4842 05ae 72775261 		.ascii	"rwRaMsb\000"
 4842      4D736200 
 4843              	.LASF48:
 4844 05b6 65704366 		.ascii	"epCfg\000"
 4844      6700
 4845              	.LASF68:
ARM GAS  C:\Users\CALEBC~1\AppData\Local\Temp\ccBuh6Ys.s 			page 116


 4846 05bc 70546D70 		.ascii	"pTmp\000"
 4846      00
 4847              	.LASF118:
 4848 05c1 47656E65 		.ascii	"Generated_Source\\PSoC5\\USBFS_std.c\000"
 4848      72617465 
 4848      645F536F 
 4848      75726365 
 4848      5C50536F 
 4849              	.LASF18:
 4850 05e4 73697A65 		.ascii	"sizetype\000"
 4850      74797065 
 4850      00
 4851              	.LASF5:
 4852 05ed 6C6F6E67 		.ascii	"long unsigned int\000"
 4852      20756E73 
 4852      69676E65 
 4852      6420696E 
 4852      7400
 4853              	.LASF70:
 4854 05ff 63757245 		.ascii	"curEp\000"
 4854      7000
 4855              	.LASF93:
 4856 0605 6E537472 		.ascii	"nStr\000"
 4856      00
 4857              	.LASF50:
 4858 060a 65705372 		.ascii	"epSr\000"
 4858      00
 4859              	.LASF40:
 4860 060f 705F6C69 		.ascii	"p_list\000"
 4860      737400
 4861              	.LASF92:
 4862 0616 70537472 		.ascii	"pStr\000"
 4862      00
 4863              	.LASF53:
 4864 061b 72775761 		.ascii	"rwWaMsb\000"
 4864      4D736200 
 4865              	.LASF1:
 4866 0623 756E7369 		.ascii	"unsigned char\000"
 4866      676E6564 
 4866      20636861 
 4866      7200
 4867              	.LASF113:
 4868 0631 43794765 		.ascii	"CyGetUniqueId\000"
 4868      74556E69 
 4868      71756549 
 4868      6400
 4869              	.LASF94:
 4870 063f 64657363 		.ascii	"descrLength\000"
 4870      724C656E 
 4870      67746800 
 4871              	.LASF78:
 4872 064b 636C6561 		.ascii	"clearAltSetting\000"
 4872      72416C74 
 4872      53657474 
 4872      696E6700 
 4873              	.LASF108:
 4874 065b 55534246 		.ascii	"USBFS_deviceAddress\000"
ARM GAS  C:\Users\CALEBC~1\AppData\Local\Temp\ccBuh6Ys.s 			page 117


 4874      535F6465 
 4874      76696365 
 4874      41646472 
 4874      65737300 
 4875              	.LASF30:
 4876 066f 61747472 		.ascii	"attributes\000"
 4876      69627574 
 4876      657300
 4877              	.LASF23:
 4878 067a 61646472 		.ascii	"addr\000"
 4878      00
 4879              	.LASF107:
 4880 067f 55534246 		.ascii	"USBFS_interfaceSettingLast\000"
 4880      535F696E 
 4880      74657266 
 4880      61636553 
 4880      65747469 
 4881              	.LASF116:
 4882 069a 55534246 		.ascii	"USBFS_DispatchClassRqst\000"
 4882      535F4469 
 4882      73706174 
 4882      6368436C 
 4882      61737352 
 4883              	.LASF43:
 4884 06b2 55534246 		.ascii	"USBFS_ep0_data_struct\000"
 4884      535F6570 
 4884      305F6461 
 4884      74615F73 
 4884      74727563 
 4885              	.LASF54:
 4886 06c8 72775261 		.ascii	"rwRa\000"
 4886      00
 4887              	.LASF0:
 4888 06cd 7369676E 		.ascii	"signed char\000"
 4888      65642063 
 4888      68617200 
 4889              	.LASF3:
 4890 06d9 73686F72 		.ascii	"short unsigned int\000"
 4890      7420756E 
 4890      7369676E 
 4890      65642069 
 4890      6E7400
 4891              	.LASF62:
 4892 06ec 756E6971 		.ascii	"uniqueId\000"
 4892      75654964 
 4892      00
 4893              	.LASF51:
 4894 06f5 72657365 		.ascii	"reserved\000"
 4894      72766564 
 4894      00
 4895              	.LASF9:
 4896 06fe 75696E74 		.ascii	"uint8\000"
 4896      3800
 4897              	.LASF13:
 4898 0704 646F7562 		.ascii	"double\000"
 4898      6C6500
 4899              	.LASF72:
ARM GAS  C:\Users\CALEBC~1\AppData\Local\Temp\ccBuh6Ys.s 			page 118


 4900 070b 696E7465 		.ascii	"interfaceNum\000"
 4900      72666163 
 4900      654E756D 
 4900      00
 4901              	.LASF87:
 4902 0718 63757249 		.ascii	"curInterfacesNum\000"
 4902      6E746572 
 4902      66616365 
 4902      734E756D 
 4902      00
 4903              	.LASF19:
 4904 0729 61747472 		.ascii	"attrib\000"
 4904      696200
 4905              	.LASF95:
 4906 0730 55534246 		.ascii	"USBFS_tBuffer\000"
 4906      535F7442 
 4906      75666665 
 4906      7200
 4907              	.LASF20:
 4908 073e 61706945 		.ascii	"apiEpState\000"
 4908      70537461 
 4908      746500
 4909              	.LASF42:
 4910 0749 65704461 		.ascii	"epData\000"
 4910      746100
 4911              	.LASF97:
 4912 0750 55534246 		.ascii	"USBFS_configuration\000"
 4912      535F636F 
 4912      6E666967 
 4912      75726174 
 4912      696F6E00 
 4913              		.ident	"GCC: (GNU Tools for ARM Embedded Processors) 5.4.1 20160609 (release) [ARM/embedded-5-bran
