ARM GAS  C:\Users\CALEBC~1\AppData\Local\Temp\ccBuh6Ys.s 			page 1


   1              		.syntax unified
   2              		.cpu cortex-m3
   3              		.fpu softvfp
   4              		.eabi_attribute 20, 1
   5              		.eabi_attribute 21, 1
   6              		.eabi_attribute 23, 3
   7              		.eabi_attribute 24, 1
   8              		.eabi_attribute 25, 1
   9              		.eabi_attribute 26, 1
  10              		.eabi_attribute 30, 1
  11              		.eabi_attribute 34, 1
  12              		.eabi_attribute 18, 4
  13              		.thumb
  14              		.syntax unified
  15              		.file	"USBFS_std.c"
  16              		.text
  17              	.Ltext0:
  18              		.cfi_sections	.debug_frame
  19              		.section	.text.USBFS_ReadDieID,"ax",%progbits
  20              		.align	2
  21              		.global	USBFS_ReadDieID
  22              		.thumb
  23              		.thumb_func
  24              		.type	USBFS_ReadDieID, %function
  25              	USBFS_ReadDieID:
  26              	.LFB1:
  27              		.file 1 "Generated_Source\\PSoC5\\USBFS_std.c"
   1:Generated_Source\PSoC5/USBFS_std.c **** /***************************************************************************//**
   2:Generated_Source\PSoC5/USBFS_std.c **** * \file USBFS_std.c
   3:Generated_Source\PSoC5/USBFS_std.c **** * \version 3.10
   4:Generated_Source\PSoC5/USBFS_std.c **** *
   5:Generated_Source\PSoC5/USBFS_std.c **** * \brief
   6:Generated_Source\PSoC5/USBFS_std.c **** *  This file contains the USB Standard request handler.
   7:Generated_Source\PSoC5/USBFS_std.c **** *
   8:Generated_Source\PSoC5/USBFS_std.c **** ********************************************************************************
   9:Generated_Source\PSoC5/USBFS_std.c **** * \copyright
  10:Generated_Source\PSoC5/USBFS_std.c **** * Copyright 2008-2016, Cypress Semiconductor Corporation.  All rights reserved.
  11:Generated_Source\PSoC5/USBFS_std.c **** * You may use this file only in accordance with the license, terms, conditions,
  12:Generated_Source\PSoC5/USBFS_std.c **** * disclaimers, and limitations in the end user license agreement accompanying
  13:Generated_Source\PSoC5/USBFS_std.c **** * the software package with which this file was provided.
  14:Generated_Source\PSoC5/USBFS_std.c **** *******************************************************************************/
  15:Generated_Source\PSoC5/USBFS_std.c **** 
  16:Generated_Source\PSoC5/USBFS_std.c **** #include "USBFS_pvt.h"
  17:Generated_Source\PSoC5/USBFS_std.c **** 
  18:Generated_Source\PSoC5/USBFS_std.c **** /***************************************
  19:Generated_Source\PSoC5/USBFS_std.c **** *   Static data allocation
  20:Generated_Source\PSoC5/USBFS_std.c **** ***************************************/
  21:Generated_Source\PSoC5/USBFS_std.c **** 
  22:Generated_Source\PSoC5/USBFS_std.c **** #if defined(USBFS_ENABLE_FWSN_STRING)
  23:Generated_Source\PSoC5/USBFS_std.c ****     static volatile uint8* USBFS_fwSerialNumberStringDescriptor;
  24:Generated_Source\PSoC5/USBFS_std.c ****     static volatile uint8  USBFS_snStringConfirm = USBFS_FALSE;
  25:Generated_Source\PSoC5/USBFS_std.c **** #endif  /* (USBFS_ENABLE_FWSN_STRING) */
  26:Generated_Source\PSoC5/USBFS_std.c **** 
  27:Generated_Source\PSoC5/USBFS_std.c **** #if defined(USBFS_ENABLE_FWSN_STRING)
  28:Generated_Source\PSoC5/USBFS_std.c ****     /***************************************************************************
  29:Generated_Source\PSoC5/USBFS_std.c ****     * Function Name: USBFS_SerialNumString
  30:Generated_Source\PSoC5/USBFS_std.c ****     ************************************************************************//**
ARM GAS  C:\Users\CALEBC~1\AppData\Local\Temp\ccBuh6Ys.s 			page 2


  31:Generated_Source\PSoC5/USBFS_std.c ****     *
  32:Generated_Source\PSoC5/USBFS_std.c ****     *  This function is available only when the User Call Back option in the 
  33:Generated_Source\PSoC5/USBFS_std.c ****     *  Serial Number String descriptor properties is selected. Application 
  34:Generated_Source\PSoC5/USBFS_std.c ****     *  firmware can provide the source of the USB device serial number string 
  35:Generated_Source\PSoC5/USBFS_std.c ****     *  descriptor during run time. The default string is used if the application 
  36:Generated_Source\PSoC5/USBFS_std.c ****     *  firmware does not use this function or sets the wrong string descriptor.
  37:Generated_Source\PSoC5/USBFS_std.c ****     *
  38:Generated_Source\PSoC5/USBFS_std.c ****     *  \param snString:  Pointer to the user-defined string descriptor. The 
  39:Generated_Source\PSoC5/USBFS_std.c ****     *  string descriptor should meet the Universal Serial Bus Specification 
  40:Generated_Source\PSoC5/USBFS_std.c ****     *  revision 2.0 chapter 9.6.7
  41:Generated_Source\PSoC5/USBFS_std.c ****     *  Offset|Size|Value|Description
  42:Generated_Source\PSoC5/USBFS_std.c ****     *  ------|----|------|---------------------------------
  43:Generated_Source\PSoC5/USBFS_std.c ****     *  0     |1   |N     |Size of this descriptor in bytes
  44:Generated_Source\PSoC5/USBFS_std.c ****     *  1     |1   |0x03  |STRING Descriptor Type
  45:Generated_Source\PSoC5/USBFS_std.c ****     *  2     |N-2 |Number|UNICODE encoded string
  46:Generated_Source\PSoC5/USBFS_std.c ****     *  
  47:Generated_Source\PSoC5/USBFS_std.c ****     * *For example:* uint8 snString[16]={0x0E,0x03,'F',0,'W',0,'S',0,'N',0,'0',0,'1',0};
  48:Generated_Source\PSoC5/USBFS_std.c ****     *
  49:Generated_Source\PSoC5/USBFS_std.c ****     * \reentrant
  50:Generated_Source\PSoC5/USBFS_std.c ****     *  No.
  51:Generated_Source\PSoC5/USBFS_std.c ****     *
  52:Generated_Source\PSoC5/USBFS_std.c ****     ***************************************************************************/
  53:Generated_Source\PSoC5/USBFS_std.c ****     void  USBFS_SerialNumString(uint8 snString[]) 
  54:Generated_Source\PSoC5/USBFS_std.c ****     {
  55:Generated_Source\PSoC5/USBFS_std.c ****         USBFS_snStringConfirm = USBFS_FALSE;
  56:Generated_Source\PSoC5/USBFS_std.c ****         
  57:Generated_Source\PSoC5/USBFS_std.c ****         if (snString != NULL)
  58:Generated_Source\PSoC5/USBFS_std.c ****         {
  59:Generated_Source\PSoC5/USBFS_std.c ****             /* Check descriptor validation */
  60:Generated_Source\PSoC5/USBFS_std.c ****             if ((snString[0u] > 1u) && (snString[1u] == USBFS_DESCR_STRING))
  61:Generated_Source\PSoC5/USBFS_std.c ****             {
  62:Generated_Source\PSoC5/USBFS_std.c ****                 USBFS_fwSerialNumberStringDescriptor = snString;
  63:Generated_Source\PSoC5/USBFS_std.c ****                 USBFS_snStringConfirm = USBFS_TRUE;
  64:Generated_Source\PSoC5/USBFS_std.c ****             }
  65:Generated_Source\PSoC5/USBFS_std.c ****         }
  66:Generated_Source\PSoC5/USBFS_std.c ****     }
  67:Generated_Source\PSoC5/USBFS_std.c **** #endif  /* USBFS_ENABLE_FWSN_STRING */
  68:Generated_Source\PSoC5/USBFS_std.c **** 
  69:Generated_Source\PSoC5/USBFS_std.c **** 
  70:Generated_Source\PSoC5/USBFS_std.c **** /*******************************************************************************
  71:Generated_Source\PSoC5/USBFS_std.c **** * Function Name: USBFS_HandleStandardRqst
  72:Generated_Source\PSoC5/USBFS_std.c **** ****************************************************************************//**
  73:Generated_Source\PSoC5/USBFS_std.c **** *
  74:Generated_Source\PSoC5/USBFS_std.c **** *  This Routine dispatches standard requests
  75:Generated_Source\PSoC5/USBFS_std.c **** *
  76:Generated_Source\PSoC5/USBFS_std.c **** *
  77:Generated_Source\PSoC5/USBFS_std.c **** * \return
  78:Generated_Source\PSoC5/USBFS_std.c **** *  TRUE if request handled.
  79:Generated_Source\PSoC5/USBFS_std.c **** *
  80:Generated_Source\PSoC5/USBFS_std.c **** * \reentrant
  81:Generated_Source\PSoC5/USBFS_std.c **** *  No.
  82:Generated_Source\PSoC5/USBFS_std.c **** *
  83:Generated_Source\PSoC5/USBFS_std.c **** *******************************************************************************/
  84:Generated_Source\PSoC5/USBFS_std.c **** uint8 USBFS_HandleStandardRqst(void) 
  85:Generated_Source\PSoC5/USBFS_std.c **** {
  86:Generated_Source\PSoC5/USBFS_std.c ****     uint8 requestHandled = USBFS_FALSE;
  87:Generated_Source\PSoC5/USBFS_std.c ****     uint8 interfaceNumber;
ARM GAS  C:\Users\CALEBC~1\AppData\Local\Temp\ccBuh6Ys.s 			page 3


  88:Generated_Source\PSoC5/USBFS_std.c ****     uint8 configurationN;
  89:Generated_Source\PSoC5/USBFS_std.c ****     uint8 bmRequestType = USBFS_bmRequestTypeReg;
  90:Generated_Source\PSoC5/USBFS_std.c **** 
  91:Generated_Source\PSoC5/USBFS_std.c **** #if defined(USBFS_ENABLE_STRINGS)
  92:Generated_Source\PSoC5/USBFS_std.c ****     volatile uint8 *pStr = 0u;
  93:Generated_Source\PSoC5/USBFS_std.c ****     #if defined(USBFS_ENABLE_DESCRIPTOR_STRINGS)
  94:Generated_Source\PSoC5/USBFS_std.c ****         uint8 nStr;
  95:Generated_Source\PSoC5/USBFS_std.c ****         uint8 descrLength;
  96:Generated_Source\PSoC5/USBFS_std.c ****     #endif /* (USBFS_ENABLE_DESCRIPTOR_STRINGS) */
  97:Generated_Source\PSoC5/USBFS_std.c **** #endif /* (USBFS_ENABLE_STRINGS) */
  98:Generated_Source\PSoC5/USBFS_std.c ****     
  99:Generated_Source\PSoC5/USBFS_std.c ****     static volatile uint8 USBFS_tBuffer[USBFS_STATUS_LENGTH_MAX];
 100:Generated_Source\PSoC5/USBFS_std.c ****     const T_USBFS_LUT CYCODE *pTmp;
 101:Generated_Source\PSoC5/USBFS_std.c **** 
 102:Generated_Source\PSoC5/USBFS_std.c ****     USBFS_currentTD.count = 0u;
 103:Generated_Source\PSoC5/USBFS_std.c **** 
 104:Generated_Source\PSoC5/USBFS_std.c ****     if (USBFS_RQST_DIR_D2H == (bmRequestType & USBFS_RQST_DIR_MASK))
 105:Generated_Source\PSoC5/USBFS_std.c ****     {
 106:Generated_Source\PSoC5/USBFS_std.c ****         /* Control Read */
 107:Generated_Source\PSoC5/USBFS_std.c ****         switch (USBFS_bRequestReg)
 108:Generated_Source\PSoC5/USBFS_std.c ****         {
 109:Generated_Source\PSoC5/USBFS_std.c ****             case USBFS_GET_DESCRIPTOR:
 110:Generated_Source\PSoC5/USBFS_std.c ****                 if (USBFS_DESCR_DEVICE ==USBFS_wValueHiReg)
 111:Generated_Source\PSoC5/USBFS_std.c ****                 {
 112:Generated_Source\PSoC5/USBFS_std.c ****                     pTmp = USBFS_GetDeviceTablePtr();
 113:Generated_Source\PSoC5/USBFS_std.c ****                     USBFS_currentTD.pData = (volatile uint8 *)pTmp->p_list;
 114:Generated_Source\PSoC5/USBFS_std.c ****                     USBFS_currentTD.count = USBFS_DEVICE_DESCR_LENGTH;
 115:Generated_Source\PSoC5/USBFS_std.c ****                     
 116:Generated_Source\PSoC5/USBFS_std.c ****                     requestHandled  = USBFS_InitControlRead();
 117:Generated_Source\PSoC5/USBFS_std.c ****                 }
 118:Generated_Source\PSoC5/USBFS_std.c ****                 else if (USBFS_DESCR_CONFIG == USBFS_wValueHiReg)
 119:Generated_Source\PSoC5/USBFS_std.c ****                 {
 120:Generated_Source\PSoC5/USBFS_std.c ****                     pTmp = USBFS_GetConfigTablePtr((uint8) USBFS_wValueLoReg);
 121:Generated_Source\PSoC5/USBFS_std.c ****                     
 122:Generated_Source\PSoC5/USBFS_std.c ****                     /* Verify that requested descriptor exists */
 123:Generated_Source\PSoC5/USBFS_std.c ****                     if (pTmp != NULL)
 124:Generated_Source\PSoC5/USBFS_std.c ****                     {
 125:Generated_Source\PSoC5/USBFS_std.c ****                         USBFS_currentTD.pData = (volatile uint8 *)pTmp->p_list;
 126:Generated_Source\PSoC5/USBFS_std.c ****                         USBFS_currentTD.count = (uint16)((uint16)(USBFS_currentTD.pData)[USBFS_CONF
 127:Generated_Source\PSoC5/USBFS_std.c ****                                                                             (USBFS_currentTD.pData)
 128:Generated_Source\PSoC5/USBFS_std.c ****                         requestHandled  = USBFS_InitControlRead();
 129:Generated_Source\PSoC5/USBFS_std.c ****                     }
 130:Generated_Source\PSoC5/USBFS_std.c ****                 }
 131:Generated_Source\PSoC5/USBFS_std.c ****                 
 132:Generated_Source\PSoC5/USBFS_std.c ****             #if(USBFS_BOS_ENABLE)
 133:Generated_Source\PSoC5/USBFS_std.c ****                 else if (USBFS_DESCR_BOS == USBFS_wValueHiReg)
 134:Generated_Source\PSoC5/USBFS_std.c ****                 {
 135:Generated_Source\PSoC5/USBFS_std.c ****                     pTmp = USBFS_GetBOSPtr();
 136:Generated_Source\PSoC5/USBFS_std.c ****                     
 137:Generated_Source\PSoC5/USBFS_std.c ****                     /* Verify that requested descriptor exists */
 138:Generated_Source\PSoC5/USBFS_std.c ****                     if (pTmp != NULL)
 139:Generated_Source\PSoC5/USBFS_std.c ****                     {
 140:Generated_Source\PSoC5/USBFS_std.c ****                         USBFS_currentTD.pData = (volatile uint8 *)pTmp;
 141:Generated_Source\PSoC5/USBFS_std.c ****                         USBFS_currentTD.count = ((uint16)((uint16)(USBFS_currentTD.pData)[USBFS_BOS
 142:Generated_Source\PSoC5/USBFS_std.c ****                                                                              (USBFS_currentTD.pData
 143:Generated_Source\PSoC5/USBFS_std.c ****                         requestHandled  = USBFS_InitControlRead();
 144:Generated_Source\PSoC5/USBFS_std.c ****                     }
ARM GAS  C:\Users\CALEBC~1\AppData\Local\Temp\ccBuh6Ys.s 			page 4


 145:Generated_Source\PSoC5/USBFS_std.c ****                 }
 146:Generated_Source\PSoC5/USBFS_std.c ****             #endif /*(USBFS_BOS_ENABLE)*/
 147:Generated_Source\PSoC5/USBFS_std.c ****             
 148:Generated_Source\PSoC5/USBFS_std.c ****             #if defined(USBFS_ENABLE_STRINGS)
 149:Generated_Source\PSoC5/USBFS_std.c ****                 else if (USBFS_DESCR_STRING == USBFS_wValueHiReg)
 150:Generated_Source\PSoC5/USBFS_std.c ****                 {
 151:Generated_Source\PSoC5/USBFS_std.c ****                 /* Descriptor Strings */
 152:Generated_Source\PSoC5/USBFS_std.c ****                 #if defined(USBFS_ENABLE_DESCRIPTOR_STRINGS)
 153:Generated_Source\PSoC5/USBFS_std.c ****                     nStr = 0u;
 154:Generated_Source\PSoC5/USBFS_std.c ****                     pStr = (volatile uint8 *) &USBFS_STRING_DESCRIPTORS[0u];
 155:Generated_Source\PSoC5/USBFS_std.c ****                     
 156:Generated_Source\PSoC5/USBFS_std.c ****                     while ((USBFS_wValueLoReg > nStr) && (*pStr != 0u))
 157:Generated_Source\PSoC5/USBFS_std.c ****                     {
 158:Generated_Source\PSoC5/USBFS_std.c ****                         /* Read descriptor length from 1st byte */
 159:Generated_Source\PSoC5/USBFS_std.c ****                         descrLength = *pStr;
 160:Generated_Source\PSoC5/USBFS_std.c ****                         /* Move to next string descriptor */
 161:Generated_Source\PSoC5/USBFS_std.c ****                         pStr = &pStr[descrLength];
 162:Generated_Source\PSoC5/USBFS_std.c ****                         nStr++;
 163:Generated_Source\PSoC5/USBFS_std.c ****                     }
 164:Generated_Source\PSoC5/USBFS_std.c ****                 #endif /* (USBFS_ENABLE_DESCRIPTOR_STRINGS) */
 165:Generated_Source\PSoC5/USBFS_std.c ****                 
 166:Generated_Source\PSoC5/USBFS_std.c ****                 /* Microsoft OS String */
 167:Generated_Source\PSoC5/USBFS_std.c ****                 #if defined(USBFS_ENABLE_MSOS_STRING)
 168:Generated_Source\PSoC5/USBFS_std.c ****                     if (USBFS_STRING_MSOS == USBFS_wValueLoReg)
 169:Generated_Source\PSoC5/USBFS_std.c ****                     {
 170:Generated_Source\PSoC5/USBFS_std.c ****                         pStr = (volatile uint8 *)& USBFS_MSOS_DESCRIPTOR[0u];
 171:Generated_Source\PSoC5/USBFS_std.c ****                     }
 172:Generated_Source\PSoC5/USBFS_std.c ****                 #endif /* (USBFS_ENABLE_MSOS_STRING) */
 173:Generated_Source\PSoC5/USBFS_std.c ****                 
 174:Generated_Source\PSoC5/USBFS_std.c ****                 /* SN string */
 175:Generated_Source\PSoC5/USBFS_std.c ****                 #if defined(USBFS_ENABLE_SN_STRING)
 176:Generated_Source\PSoC5/USBFS_std.c ****                     if ((USBFS_wValueLoReg != 0u) && 
 177:Generated_Source\PSoC5/USBFS_std.c ****                         (USBFS_wValueLoReg == USBFS_DEVICE0_DESCR[USBFS_DEVICE_DESCR_SN_SHIFT]))
 178:Generated_Source\PSoC5/USBFS_std.c ****                     {
 179:Generated_Source\PSoC5/USBFS_std.c ****                     #if defined(USBFS_ENABLE_IDSN_STRING)
 180:Generated_Source\PSoC5/USBFS_std.c ****                         /* Read DIE ID and generate string descriptor in RAM */
 181:Generated_Source\PSoC5/USBFS_std.c ****                         USBFS_ReadDieID(USBFS_idSerialNumberStringDescriptor);
 182:Generated_Source\PSoC5/USBFS_std.c ****                         pStr = USBFS_idSerialNumberStringDescriptor;
 183:Generated_Source\PSoC5/USBFS_std.c ****                     #elif defined(USBFS_ENABLE_FWSN_STRING)
 184:Generated_Source\PSoC5/USBFS_std.c ****                         
 185:Generated_Source\PSoC5/USBFS_std.c ****                         if(USBFS_snStringConfirm != USBFS_FALSE)
 186:Generated_Source\PSoC5/USBFS_std.c ****                         {
 187:Generated_Source\PSoC5/USBFS_std.c ****                             pStr = USBFS_fwSerialNumberStringDescriptor;
 188:Generated_Source\PSoC5/USBFS_std.c ****                         }
 189:Generated_Source\PSoC5/USBFS_std.c ****                         else
 190:Generated_Source\PSoC5/USBFS_std.c ****                         {
 191:Generated_Source\PSoC5/USBFS_std.c ****                             pStr = (volatile uint8 *)&USBFS_SN_STRING_DESCRIPTOR[0u];
 192:Generated_Source\PSoC5/USBFS_std.c ****                         }
 193:Generated_Source\PSoC5/USBFS_std.c ****                     #else
 194:Generated_Source\PSoC5/USBFS_std.c ****                         pStr = (volatile uint8 *)&USBFS_SN_STRING_DESCRIPTOR[0u];
 195:Generated_Source\PSoC5/USBFS_std.c ****                     #endif  /* (USBFS_ENABLE_IDSN_STRING) */
 196:Generated_Source\PSoC5/USBFS_std.c ****                     }
 197:Generated_Source\PSoC5/USBFS_std.c ****                 #endif /* (USBFS_ENABLE_SN_STRING) */
 198:Generated_Source\PSoC5/USBFS_std.c ****                 
 199:Generated_Source\PSoC5/USBFS_std.c ****                     if (*pStr != 0u)
 200:Generated_Source\PSoC5/USBFS_std.c ****                     {
 201:Generated_Source\PSoC5/USBFS_std.c ****                         USBFS_currentTD.count = *pStr;
ARM GAS  C:\Users\CALEBC~1\AppData\Local\Temp\ccBuh6Ys.s 			page 5


 202:Generated_Source\PSoC5/USBFS_std.c ****                         USBFS_currentTD.pData = pStr;
 203:Generated_Source\PSoC5/USBFS_std.c ****                         requestHandled  = USBFS_InitControlRead();
 204:Generated_Source\PSoC5/USBFS_std.c ****                     }
 205:Generated_Source\PSoC5/USBFS_std.c ****                 }
 206:Generated_Source\PSoC5/USBFS_std.c ****             #endif /*  USBFS_ENABLE_STRINGS */
 207:Generated_Source\PSoC5/USBFS_std.c ****                 else
 208:Generated_Source\PSoC5/USBFS_std.c ****                 {
 209:Generated_Source\PSoC5/USBFS_std.c ****                     requestHandled = USBFS_DispatchClassRqst();
 210:Generated_Source\PSoC5/USBFS_std.c ****                 }
 211:Generated_Source\PSoC5/USBFS_std.c ****                 break;
 212:Generated_Source\PSoC5/USBFS_std.c ****                 
 213:Generated_Source\PSoC5/USBFS_std.c ****             case USBFS_GET_STATUS:
 214:Generated_Source\PSoC5/USBFS_std.c ****                 switch (bmRequestType & USBFS_RQST_RCPT_MASK)
 215:Generated_Source\PSoC5/USBFS_std.c ****                 {
 216:Generated_Source\PSoC5/USBFS_std.c ****                     case USBFS_RQST_RCPT_EP:
 217:Generated_Source\PSoC5/USBFS_std.c ****                         USBFS_currentTD.count = USBFS_EP_STATUS_LENGTH;
 218:Generated_Source\PSoC5/USBFS_std.c ****                         USBFS_tBuffer[0u]     = USBFS_EP[USBFS_wIndexLoReg & USBFS_DIR_UNUSED].hwEp
 219:Generated_Source\PSoC5/USBFS_std.c ****                         USBFS_tBuffer[1u]     = 0u;
 220:Generated_Source\PSoC5/USBFS_std.c ****                         USBFS_currentTD.pData = &USBFS_tBuffer[0u];
 221:Generated_Source\PSoC5/USBFS_std.c ****                         
 222:Generated_Source\PSoC5/USBFS_std.c ****                         requestHandled  = USBFS_InitControlRead();
 223:Generated_Source\PSoC5/USBFS_std.c ****                         break;
 224:Generated_Source\PSoC5/USBFS_std.c ****                     case USBFS_RQST_RCPT_DEV:
 225:Generated_Source\PSoC5/USBFS_std.c ****                         USBFS_currentTD.count = USBFS_DEVICE_STATUS_LENGTH;
 226:Generated_Source\PSoC5/USBFS_std.c ****                         USBFS_tBuffer[0u]     = USBFS_deviceStatus;
 227:Generated_Source\PSoC5/USBFS_std.c ****                         USBFS_tBuffer[1u]     = 0u;
 228:Generated_Source\PSoC5/USBFS_std.c ****                         USBFS_currentTD.pData = &USBFS_tBuffer[0u];
 229:Generated_Source\PSoC5/USBFS_std.c ****                         
 230:Generated_Source\PSoC5/USBFS_std.c ****                         requestHandled  = USBFS_InitControlRead();
 231:Generated_Source\PSoC5/USBFS_std.c ****                         break;
 232:Generated_Source\PSoC5/USBFS_std.c ****                     default:    /* requestHandled is initialized as FALSE by default */
 233:Generated_Source\PSoC5/USBFS_std.c ****                         break;
 234:Generated_Source\PSoC5/USBFS_std.c ****                 }
 235:Generated_Source\PSoC5/USBFS_std.c ****                 break;
 236:Generated_Source\PSoC5/USBFS_std.c ****                 
 237:Generated_Source\PSoC5/USBFS_std.c ****             case USBFS_GET_CONFIGURATION:
 238:Generated_Source\PSoC5/USBFS_std.c ****                 USBFS_currentTD.count = 1u;
 239:Generated_Source\PSoC5/USBFS_std.c ****                 USBFS_currentTD.pData = (volatile uint8 *) &USBFS_configuration;
 240:Generated_Source\PSoC5/USBFS_std.c ****                 requestHandled  = USBFS_InitControlRead();
 241:Generated_Source\PSoC5/USBFS_std.c ****                 break;
 242:Generated_Source\PSoC5/USBFS_std.c ****                 
 243:Generated_Source\PSoC5/USBFS_std.c ****             case USBFS_GET_INTERFACE:
 244:Generated_Source\PSoC5/USBFS_std.c ****                 USBFS_currentTD.count = 1u;
 245:Generated_Source\PSoC5/USBFS_std.c ****                 USBFS_currentTD.pData = (volatile uint8 *) &USBFS_interfaceSetting[USBFS_wIndexLoRe
 246:Generated_Source\PSoC5/USBFS_std.c ****                 requestHandled  = USBFS_InitControlRead();
 247:Generated_Source\PSoC5/USBFS_std.c ****                 break;
 248:Generated_Source\PSoC5/USBFS_std.c ****                 
 249:Generated_Source\PSoC5/USBFS_std.c ****             default: /* requestHandled is initialized as FALSE by default */
 250:Generated_Source\PSoC5/USBFS_std.c ****                 break;
 251:Generated_Source\PSoC5/USBFS_std.c ****         }
 252:Generated_Source\PSoC5/USBFS_std.c ****     }
 253:Generated_Source\PSoC5/USBFS_std.c ****     else
 254:Generated_Source\PSoC5/USBFS_std.c ****     {
 255:Generated_Source\PSoC5/USBFS_std.c ****         /* Control Write */
 256:Generated_Source\PSoC5/USBFS_std.c ****         switch (USBFS_bRequestReg)
 257:Generated_Source\PSoC5/USBFS_std.c ****         {
 258:Generated_Source\PSoC5/USBFS_std.c ****             case USBFS_SET_ADDRESS:
ARM GAS  C:\Users\CALEBC~1\AppData\Local\Temp\ccBuh6Ys.s 			page 6


 259:Generated_Source\PSoC5/USBFS_std.c ****                 /* Store address to be set in USBFS_NoDataControlStatusStage(). */
 260:Generated_Source\PSoC5/USBFS_std.c ****                 USBFS_deviceAddress = (uint8) USBFS_wValueLoReg;
 261:Generated_Source\PSoC5/USBFS_std.c ****                 requestHandled = USBFS_InitNoDataControlTransfer();
 262:Generated_Source\PSoC5/USBFS_std.c ****                 break;
 263:Generated_Source\PSoC5/USBFS_std.c ****                 
 264:Generated_Source\PSoC5/USBFS_std.c ****             case USBFS_SET_CONFIGURATION:
 265:Generated_Source\PSoC5/USBFS_std.c ****                 configurationN = USBFS_wValueLoReg;
 266:Generated_Source\PSoC5/USBFS_std.c ****                 
 267:Generated_Source\PSoC5/USBFS_std.c ****                 /* Verify that configuration descriptor exists */
 268:Generated_Source\PSoC5/USBFS_std.c ****                 if(configurationN > 0u)
 269:Generated_Source\PSoC5/USBFS_std.c ****                 {
 270:Generated_Source\PSoC5/USBFS_std.c ****                     pTmp = USBFS_GetConfigTablePtr((uint8) configurationN - 1u);
 271:Generated_Source\PSoC5/USBFS_std.c ****                 }
 272:Generated_Source\PSoC5/USBFS_std.c ****                 
 273:Generated_Source\PSoC5/USBFS_std.c ****                 /* Responds with a Request Error when configuration number is invalid */
 274:Generated_Source\PSoC5/USBFS_std.c ****                 if (((configurationN > 0u) && (pTmp != NULL)) || (configurationN == 0u))
 275:Generated_Source\PSoC5/USBFS_std.c ****                 {
 276:Generated_Source\PSoC5/USBFS_std.c ****                     /* Set new configuration if it has been changed */
 277:Generated_Source\PSoC5/USBFS_std.c ****                     if(configurationN != USBFS_configuration)
 278:Generated_Source\PSoC5/USBFS_std.c ****                     {
 279:Generated_Source\PSoC5/USBFS_std.c ****                         USBFS_configuration = (uint8) configurationN;
 280:Generated_Source\PSoC5/USBFS_std.c ****                         USBFS_configurationChanged = USBFS_TRUE;
 281:Generated_Source\PSoC5/USBFS_std.c ****                         USBFS_Config(USBFS_TRUE);
 282:Generated_Source\PSoC5/USBFS_std.c ****                     }
 283:Generated_Source\PSoC5/USBFS_std.c ****                     requestHandled = USBFS_InitNoDataControlTransfer();
 284:Generated_Source\PSoC5/USBFS_std.c ****                 }
 285:Generated_Source\PSoC5/USBFS_std.c ****                 break;
 286:Generated_Source\PSoC5/USBFS_std.c ****                 
 287:Generated_Source\PSoC5/USBFS_std.c ****             case USBFS_SET_INTERFACE:
 288:Generated_Source\PSoC5/USBFS_std.c ****                 if (0u != USBFS_ValidateAlternateSetting())
 289:Generated_Source\PSoC5/USBFS_std.c ****                 {
 290:Generated_Source\PSoC5/USBFS_std.c ****                     /* Get interface number from the request. */
 291:Generated_Source\PSoC5/USBFS_std.c ****                     interfaceNumber = USBFS_wIndexLoReg;
 292:Generated_Source\PSoC5/USBFS_std.c ****                     USBFS_interfaceNumber = (uint8) USBFS_wIndexLoReg;
 293:Generated_Source\PSoC5/USBFS_std.c ****                      
 294:Generated_Source\PSoC5/USBFS_std.c ****                     /* Check if alternate settings is changed for interface. */
 295:Generated_Source\PSoC5/USBFS_std.c ****                     if (USBFS_interfaceSettingLast[interfaceNumber] != USBFS_interfaceSetting[inter
 296:Generated_Source\PSoC5/USBFS_std.c ****                     {
 297:Generated_Source\PSoC5/USBFS_std.c ****                         USBFS_configurationChanged = USBFS_TRUE;
 298:Generated_Source\PSoC5/USBFS_std.c ****                     
 299:Generated_Source\PSoC5/USBFS_std.c ****                         /* Change alternate setting for the endpoints. */
 300:Generated_Source\PSoC5/USBFS_std.c ****                     #if (USBFS_EP_MANAGEMENT_MANUAL && USBFS_EP_ALLOC_DYNAMIC)
 301:Generated_Source\PSoC5/USBFS_std.c ****                         USBFS_Config(USBFS_FALSE);
 302:Generated_Source\PSoC5/USBFS_std.c ****                     #else
 303:Generated_Source\PSoC5/USBFS_std.c ****                         USBFS_ConfigAltChanged();
 304:Generated_Source\PSoC5/USBFS_std.c ****                     #endif /* (USBFS_EP_MANAGEMENT_MANUAL && USBFS_EP_ALLOC_DYNAMIC) */
 305:Generated_Source\PSoC5/USBFS_std.c ****                     }
 306:Generated_Source\PSoC5/USBFS_std.c ****                     
 307:Generated_Source\PSoC5/USBFS_std.c ****                     requestHandled = USBFS_InitNoDataControlTransfer();
 308:Generated_Source\PSoC5/USBFS_std.c ****                 }
 309:Generated_Source\PSoC5/USBFS_std.c ****                 break;
 310:Generated_Source\PSoC5/USBFS_std.c ****                 
 311:Generated_Source\PSoC5/USBFS_std.c ****             case USBFS_CLEAR_FEATURE:
 312:Generated_Source\PSoC5/USBFS_std.c ****                 switch (bmRequestType & USBFS_RQST_RCPT_MASK)
 313:Generated_Source\PSoC5/USBFS_std.c ****                 {
 314:Generated_Source\PSoC5/USBFS_std.c ****                     case USBFS_RQST_RCPT_EP:
 315:Generated_Source\PSoC5/USBFS_std.c ****                         if (USBFS_wValueLoReg == USBFS_ENDPOINT_HALT)
ARM GAS  C:\Users\CALEBC~1\AppData\Local\Temp\ccBuh6Ys.s 			page 7


 316:Generated_Source\PSoC5/USBFS_std.c ****                         {
 317:Generated_Source\PSoC5/USBFS_std.c ****                             requestHandled = USBFS_ClearEndpointHalt();
 318:Generated_Source\PSoC5/USBFS_std.c ****                         }
 319:Generated_Source\PSoC5/USBFS_std.c ****                         break;
 320:Generated_Source\PSoC5/USBFS_std.c ****                     case USBFS_RQST_RCPT_DEV:
 321:Generated_Source\PSoC5/USBFS_std.c ****                         /* Clear device REMOTE_WAKEUP */
 322:Generated_Source\PSoC5/USBFS_std.c ****                         if (USBFS_wValueLoReg == USBFS_DEVICE_REMOTE_WAKEUP)
 323:Generated_Source\PSoC5/USBFS_std.c ****                         {
 324:Generated_Source\PSoC5/USBFS_std.c ****                             USBFS_deviceStatus &= (uint8)~USBFS_DEVICE_STATUS_REMOTE_WAKEUP;
 325:Generated_Source\PSoC5/USBFS_std.c ****                             requestHandled = USBFS_InitNoDataControlTransfer();
 326:Generated_Source\PSoC5/USBFS_std.c ****                         }
 327:Generated_Source\PSoC5/USBFS_std.c ****                         break;
 328:Generated_Source\PSoC5/USBFS_std.c ****                     case USBFS_RQST_RCPT_IFC:
 329:Generated_Source\PSoC5/USBFS_std.c ****                         /* Validate interfaceNumber */
 330:Generated_Source\PSoC5/USBFS_std.c ****                         if (USBFS_wIndexLoReg < USBFS_MAX_INTERFACES_NUMBER)
 331:Generated_Source\PSoC5/USBFS_std.c ****                         {
 332:Generated_Source\PSoC5/USBFS_std.c ****                             USBFS_interfaceStatus[USBFS_wIndexLoReg] &= (uint8) ~USBFS_wValueLoReg;
 333:Generated_Source\PSoC5/USBFS_std.c ****                             requestHandled = USBFS_InitNoDataControlTransfer();
 334:Generated_Source\PSoC5/USBFS_std.c ****                         }
 335:Generated_Source\PSoC5/USBFS_std.c ****                         break;
 336:Generated_Source\PSoC5/USBFS_std.c ****                     default:    /* requestHandled is initialized as FALSE by default */
 337:Generated_Source\PSoC5/USBFS_std.c ****                         break;
 338:Generated_Source\PSoC5/USBFS_std.c ****                 }
 339:Generated_Source\PSoC5/USBFS_std.c ****                 break;
 340:Generated_Source\PSoC5/USBFS_std.c ****                 
 341:Generated_Source\PSoC5/USBFS_std.c ****             case USBFS_SET_FEATURE:
 342:Generated_Source\PSoC5/USBFS_std.c ****                 switch (bmRequestType & USBFS_RQST_RCPT_MASK)
 343:Generated_Source\PSoC5/USBFS_std.c ****                 {
 344:Generated_Source\PSoC5/USBFS_std.c ****                     case USBFS_RQST_RCPT_EP:
 345:Generated_Source\PSoC5/USBFS_std.c ****                         if (USBFS_wValueLoReg == USBFS_ENDPOINT_HALT)
 346:Generated_Source\PSoC5/USBFS_std.c ****                         {
 347:Generated_Source\PSoC5/USBFS_std.c ****                             requestHandled = USBFS_SetEndpointHalt();
 348:Generated_Source\PSoC5/USBFS_std.c ****                         }
 349:Generated_Source\PSoC5/USBFS_std.c ****                         break;
 350:Generated_Source\PSoC5/USBFS_std.c ****                         
 351:Generated_Source\PSoC5/USBFS_std.c ****                     case USBFS_RQST_RCPT_DEV:
 352:Generated_Source\PSoC5/USBFS_std.c ****                         /* Set device REMOTE_WAKEUP */
 353:Generated_Source\PSoC5/USBFS_std.c ****                         if (USBFS_wValueLoReg == USBFS_DEVICE_REMOTE_WAKEUP)
 354:Generated_Source\PSoC5/USBFS_std.c ****                         {
 355:Generated_Source\PSoC5/USBFS_std.c ****                             USBFS_deviceStatus |= USBFS_DEVICE_STATUS_REMOTE_WAKEUP;
 356:Generated_Source\PSoC5/USBFS_std.c ****                             requestHandled = USBFS_InitNoDataControlTransfer();
 357:Generated_Source\PSoC5/USBFS_std.c ****                         }
 358:Generated_Source\PSoC5/USBFS_std.c ****                         break;
 359:Generated_Source\PSoC5/USBFS_std.c ****                         
 360:Generated_Source\PSoC5/USBFS_std.c ****                     case USBFS_RQST_RCPT_IFC:
 361:Generated_Source\PSoC5/USBFS_std.c ****                         /* Validate interfaceNumber */
 362:Generated_Source\PSoC5/USBFS_std.c ****                         if (USBFS_wIndexLoReg < USBFS_MAX_INTERFACES_NUMBER)
 363:Generated_Source\PSoC5/USBFS_std.c ****                         {
 364:Generated_Source\PSoC5/USBFS_std.c ****                             USBFS_interfaceStatus[USBFS_wIndexLoReg] &= (uint8) ~USBFS_wValueLoReg;
 365:Generated_Source\PSoC5/USBFS_std.c ****                             requestHandled = USBFS_InitNoDataControlTransfer();
 366:Generated_Source\PSoC5/USBFS_std.c ****                         }
 367:Generated_Source\PSoC5/USBFS_std.c ****                         break;
 368:Generated_Source\PSoC5/USBFS_std.c ****                     
 369:Generated_Source\PSoC5/USBFS_std.c ****                     default:    /* requestHandled is initialized as FALSE by default */
 370:Generated_Source\PSoC5/USBFS_std.c ****                         break;
 371:Generated_Source\PSoC5/USBFS_std.c ****                 }
 372:Generated_Source\PSoC5/USBFS_std.c ****                 break;
ARM GAS  C:\Users\CALEBC~1\AppData\Local\Temp\ccBuh6Ys.s 			page 8


 373:Generated_Source\PSoC5/USBFS_std.c ****                 
 374:Generated_Source\PSoC5/USBFS_std.c ****             default:    /* requestHandled is initialized as FALSE by default */
 375:Generated_Source\PSoC5/USBFS_std.c ****                 break;
 376:Generated_Source\PSoC5/USBFS_std.c ****         }
 377:Generated_Source\PSoC5/USBFS_std.c ****     }
 378:Generated_Source\PSoC5/USBFS_std.c ****     
 379:Generated_Source\PSoC5/USBFS_std.c ****     return (requestHandled);
 380:Generated_Source\PSoC5/USBFS_std.c **** }
 381:Generated_Source\PSoC5/USBFS_std.c **** 
 382:Generated_Source\PSoC5/USBFS_std.c **** 
 383:Generated_Source\PSoC5/USBFS_std.c **** #if defined(USBFS_ENABLE_IDSN_STRING)
 384:Generated_Source\PSoC5/USBFS_std.c ****     /***************************************************************************
 385:Generated_Source\PSoC5/USBFS_std.c ****     * Function Name: USBFS_ReadDieID
 386:Generated_Source\PSoC5/USBFS_std.c ****     ************************************************************************//**
 387:Generated_Source\PSoC5/USBFS_std.c ****     *
 388:Generated_Source\PSoC5/USBFS_std.c ****     *  This routine read Die ID and generate Serial Number string descriptor.
 389:Generated_Source\PSoC5/USBFS_std.c ****     *
 390:Generated_Source\PSoC5/USBFS_std.c ****     *  \param descr:  pointer on string descriptor. This string size has to be equal or
 391:Generated_Source\PSoC5/USBFS_std.c ****     *          greater than USBFS_IDSN_DESCR_LENGTH.
 392:Generated_Source\PSoC5/USBFS_std.c ****     *
 393:Generated_Source\PSoC5/USBFS_std.c ****     *
 394:Generated_Source\PSoC5/USBFS_std.c ****     * \reentrant
 395:Generated_Source\PSoC5/USBFS_std.c ****     *  No.
 396:Generated_Source\PSoC5/USBFS_std.c ****     *
 397:Generated_Source\PSoC5/USBFS_std.c ****     ***************************************************************************/
 398:Generated_Source\PSoC5/USBFS_std.c ****     void USBFS_ReadDieID(uint8 descr[]) 
 399:Generated_Source\PSoC5/USBFS_std.c ****     {
  28              		.loc 1 399 0
  29              		.cfi_startproc
  30              		@ args = 0, pretend = 0, frame = 32
  31              		@ frame_needed = 0, uses_anonymous_args = 0
  32              	.LVL0:
  33 0000 70B5     		push	{r4, r5, r6, lr}
  34              		.cfi_def_cfa_offset 16
  35              		.cfi_offset 4, -16
  36              		.cfi_offset 5, -12
  37              		.cfi_offset 6, -8
  38              		.cfi_offset 14, -4
  39 0002 88B0     		sub	sp, sp, #32
  40              		.cfi_def_cfa_offset 48
  41 0004 0546     		mov	r5, r0
 400:Generated_Source\PSoC5/USBFS_std.c ****         const char8 CYCODE hex[] = "0123456789ABCDEF";
  42              		.loc 1 400 0
  43 0006 03AC     		add	r4, sp, #12
  44 0008 174E     		ldr	r6, .L6
  45 000a 0FCE     		ldmia	r6!, {r0, r1, r2, r3}
  46              	.LVL1:
  47 000c 0FC4     		stmia	r4!, {r0, r1, r2, r3}
  48 000e 3368     		ldr	r3, [r6]
  49 0010 2370     		strb	r3, [r4]
  50              	.LVL2:
 401:Generated_Source\PSoC5/USBFS_std.c ****         uint8 i;
 402:Generated_Source\PSoC5/USBFS_std.c ****         uint8 j = 0u;
 403:Generated_Source\PSoC5/USBFS_std.c ****         uint8 uniqueId[8u];
 404:Generated_Source\PSoC5/USBFS_std.c **** 
 405:Generated_Source\PSoC5/USBFS_std.c ****         if (NULL != descr)
  51              		.loc 1 405 0
ARM GAS  C:\Users\CALEBC~1\AppData\Local\Temp\ccBuh6Ys.s 			page 9


  52 0012 35B3     		cbz	r5, .L1
 406:Generated_Source\PSoC5/USBFS_std.c ****         {
 407:Generated_Source\PSoC5/USBFS_std.c ****             /* Initialize descriptor header. */
 408:Generated_Source\PSoC5/USBFS_std.c ****             descr[0u] = USBFS_IDSN_DESCR_LENGTH;
  53              		.loc 1 408 0
  54 0014 2223     		movs	r3, #34
  55 0016 2B70     		strb	r3, [r5]
 409:Generated_Source\PSoC5/USBFS_std.c ****             descr[1u] = USBFS_DESCR_STRING;
  56              		.loc 1 409 0
  57 0018 0323     		movs	r3, #3
  58 001a 6B70     		strb	r3, [r5, #1]
 410:Generated_Source\PSoC5/USBFS_std.c ****             
 411:Generated_Source\PSoC5/USBFS_std.c ****             /* Unique ID size is 8 bytes. */
 412:Generated_Source\PSoC5/USBFS_std.c ****             CyGetUniqueId((uint32 *) uniqueId);
  59              		.loc 1 412 0
  60 001c 01A8     		add	r0, sp, #4
  61 001e FFF7FEFF 		bl	CyGetUniqueId
  62              	.LVL3:
 402:Generated_Source\PSoC5/USBFS_std.c ****         uint8 uniqueId[8u];
  63              		.loc 1 402 0
  64 0022 0024     		movs	r4, #0
 413:Generated_Source\PSoC5/USBFS_std.c **** 
 414:Generated_Source\PSoC5/USBFS_std.c ****             /* Fill descriptor with unique device ID. */
 415:Generated_Source\PSoC5/USBFS_std.c ****             for (i = 2u; i < USBFS_IDSN_DESCR_LENGTH; i += 4u)
  65              		.loc 1 415 0
  66 0024 0223     		movs	r3, #2
  67 0026 1AE0     		b	.L3
  68              	.LVL4:
  69              	.L4:
 416:Generated_Source\PSoC5/USBFS_std.c ****             {
 417:Generated_Source\PSoC5/USBFS_std.c ****                 descr[i]      = (uint8) hex[(uniqueId[j] >> 4u)];
  70              		.loc 1 417 0 discriminator 3
  71 0028 08AA     		add	r2, sp, #32
  72 002a 2244     		add	r2, r2, r4
  73 002c 12F81C2C 		ldrb	r2, [r2, #-28]	@ zero_extendqisi2
  74 0030 08A9     		add	r1, sp, #32
  75 0032 01EB1211 		add	r1, r1, r2, lsr #4
  76 0036 11F8141C 		ldrb	r1, [r1, #-20]	@ zero_extendqisi2
  77 003a E954     		strb	r1, [r5, r3]
 418:Generated_Source\PSoC5/USBFS_std.c ****                 descr[i + 1u] = 0u;
  78              		.loc 1 418 0 discriminator 3
  79 003c 581C     		adds	r0, r3, #1
  80 003e 0021     		movs	r1, #0
  81 0040 2954     		strb	r1, [r5, r0]
 419:Generated_Source\PSoC5/USBFS_std.c ****                 descr[i + 2u] = (uint8) hex[(uniqueId[j] & 0x0Fu)];
  82              		.loc 1 419 0 discriminator 3
  83 0042 981C     		adds	r0, r3, #2
  84 0044 02F00F02 		and	r2, r2, #15
  85 0048 08AE     		add	r6, sp, #32
  86 004a 3244     		add	r2, r2, r6
  87 004c 12F8142C 		ldrb	r2, [r2, #-20]	@ zero_extendqisi2
  88 0050 2A54     		strb	r2, [r5, r0]
 420:Generated_Source\PSoC5/USBFS_std.c ****                 descr[i + 3u] = 0u;
  89              		.loc 1 420 0 discriminator 3
  90 0052 DA1C     		adds	r2, r3, #3
  91 0054 A954     		strb	r1, [r5, r2]
 421:Generated_Source\PSoC5/USBFS_std.c ****                 ++j;
ARM GAS  C:\Users\CALEBC~1\AppData\Local\Temp\ccBuh6Ys.s 			page 10


  92              		.loc 1 421 0 discriminator 3
  93 0056 0134     		adds	r4, r4, #1
  94              	.LVL5:
  95 0058 E4B2     		uxtb	r4, r4
  96              	.LVL6:
 415:Generated_Source\PSoC5/USBFS_std.c ****             {
  97              		.loc 1 415 0 discriminator 3
  98 005a 0433     		adds	r3, r3, #4
  99              	.LVL7:
 100 005c DBB2     		uxtb	r3, r3
 101              	.LVL8:
 102              	.L3:
 415:Generated_Source\PSoC5/USBFS_std.c ****             {
 103              		.loc 1 415 0 is_stmt 0 discriminator 1
 104 005e 212B     		cmp	r3, #33
 105 0060 E2D9     		bls	.L4
 106              	.LVL9:
 107              	.L1:
 422:Generated_Source\PSoC5/USBFS_std.c ****             }
 423:Generated_Source\PSoC5/USBFS_std.c ****         }
 424:Generated_Source\PSoC5/USBFS_std.c ****     }
 108              		.loc 1 424 0 is_stmt 1
 109 0062 08B0     		add	sp, sp, #32
 110              		.cfi_def_cfa_offset 16
 111              		@ sp needed
 112 0064 70BD     		pop	{r4, r5, r6, pc}
 113              	.LVL10:
 114              	.L7:
 115 0066 00BF     		.align	2
 116              	.L6:
 117 0068 00000000 		.word	.LC0
 118              		.cfi_endproc
 119              	.LFE1:
 120              		.size	USBFS_ReadDieID, .-USBFS_ReadDieID
 121              		.section	.text.USBFS_ConfigReg,"ax",%progbits
 122              		.align	2
 123              		.global	USBFS_ConfigReg
 124              		.thumb
 125              		.thumb_func
 126              		.type	USBFS_ConfigReg, %function
 127              	USBFS_ConfigReg:
 128              	.LFB2:
 425:Generated_Source\PSoC5/USBFS_std.c **** #endif /* (USBFS_ENABLE_IDSN_STRING) */
 426:Generated_Source\PSoC5/USBFS_std.c **** 
 427:Generated_Source\PSoC5/USBFS_std.c **** 
 428:Generated_Source\PSoC5/USBFS_std.c **** /*******************************************************************************
 429:Generated_Source\PSoC5/USBFS_std.c **** * Function Name: USBFS_ConfigReg
 430:Generated_Source\PSoC5/USBFS_std.c **** ****************************************************************************//**
 431:Generated_Source\PSoC5/USBFS_std.c **** *
 432:Generated_Source\PSoC5/USBFS_std.c **** *  This routine configures hardware registers from the variables.
 433:Generated_Source\PSoC5/USBFS_std.c **** *  It is called from USBFS_Config() function and from RestoreConfig
 434:Generated_Source\PSoC5/USBFS_std.c **** *  after Wakeup.
 435:Generated_Source\PSoC5/USBFS_std.c **** *
 436:Generated_Source\PSoC5/USBFS_std.c **** *******************************************************************************/
 437:Generated_Source\PSoC5/USBFS_std.c **** void USBFS_ConfigReg(void) 
 438:Generated_Source\PSoC5/USBFS_std.c **** {
 129              		.loc 1 438 0
ARM GAS  C:\Users\CALEBC~1\AppData\Local\Temp\ccBuh6Ys.s 			page 11


 130              		.cfi_startproc
 131              		@ args = 0, pretend = 0, frame = 0
 132              		@ frame_needed = 0, uses_anonymous_args = 0
 133              		@ link register save eliminated.
 134 0000 30B4     		push	{r4, r5}
 135              		.cfi_def_cfa_offset 8
 136              		.cfi_offset 4, -8
 137              		.cfi_offset 5, -4
 138              	.LVL11:
 439:Generated_Source\PSoC5/USBFS_std.c ****     uint8 ep;
 440:Generated_Source\PSoC5/USBFS_std.c **** 
 441:Generated_Source\PSoC5/USBFS_std.c **** #if (USBFS_EP_MANAGEMENT_DMA_AUTO)
 442:Generated_Source\PSoC5/USBFS_std.c ****     uint8 epType = 0u;
 443:Generated_Source\PSoC5/USBFS_std.c **** #endif /* (USBFS_EP_MANAGEMENT_DMA_AUTO) */
 444:Generated_Source\PSoC5/USBFS_std.c **** 
 445:Generated_Source\PSoC5/USBFS_std.c ****     /* Go thought all endpoints and set hardware configuration */
 446:Generated_Source\PSoC5/USBFS_std.c ****     for (ep = USBFS_EP1; ep < USBFS_MAX_EP; ++ep)
 139              		.loc 1 446 0
 140 0002 0123     		movs	r3, #1
 141 0004 41E0     		b	.L9
 142              	.LVL12:
 143              	.L13:
 447:Generated_Source\PSoC5/USBFS_std.c ****     {
 448:Generated_Source\PSoC5/USBFS_std.c ****         USBFS_ARB_EP_BASE.arbEp[ep].epCfg = USBFS_ARB_EPX_CFG_DEFAULT;
 144              		.loc 1 448 0
 145 0006 1946     		mov	r1, r3
 146 0008 2348     		ldr	r0, .L15
 147 000a 1A01     		lsls	r2, r3, #4
 148 000c 8418     		adds	r4, r0, r2
 149 000e 0C25     		movs	r5, #12
 150 0010 8554     		strb	r5, [r0, r2]
 449:Generated_Source\PSoC5/USBFS_std.c ****         
 450:Generated_Source\PSoC5/USBFS_std.c ****     #if (USBFS_EP_MANAGEMENT_DMA)
 451:Generated_Source\PSoC5/USBFS_std.c ****         /* Enable arbiter endpoint interrupt sources */
 452:Generated_Source\PSoC5/USBFS_std.c ****         USBFS_ARB_EP_BASE.arbEp[ep].epIntEn = USBFS_ARB_EPX_INT_MASK;
 151              		.loc 1 452 0
 152 0012 1F22     		movs	r2, #31
 153 0014 6270     		strb	r2, [r4, #1]
 453:Generated_Source\PSoC5/USBFS_std.c ****     #endif /* (USBFS_EP_MANAGEMENT_DMA) */
 454:Generated_Source\PSoC5/USBFS_std.c ****     
 455:Generated_Source\PSoC5/USBFS_std.c ****         if (USBFS_EP[ep].epMode != USBFS_MODE_DISABLE)
 154              		.loc 1 455 0
 155 0016 03EB4300 		add	r0, r3, r3, lsl #1
 156 001a 8200     		lsls	r2, r0, #2
 157 001c 1F48     		ldr	r0, .L15+4
 158 001e 0244     		add	r2, r2, r0
 159 0020 5279     		ldrb	r2, [r2, #5]	@ zero_extendqisi2
 160 0022 12F0FF0F 		tst	r2, #255
 161 0026 13D0     		beq	.L10
 456:Generated_Source\PSoC5/USBFS_std.c ****         {
 457:Generated_Source\PSoC5/USBFS_std.c ****             if (0u != (USBFS_EP[ep].addr & USBFS_DIR_IN))
 162              		.loc 1 457 0
 163 0028 03EB4300 		add	r0, r3, r3, lsl #1
 164 002c 8200     		lsls	r2, r0, #2
 165 002e 1B48     		ldr	r0, .L15+4
 166 0030 0244     		add	r2, r2, r0
 167 0032 1279     		ldrb	r2, [r2, #4]	@ zero_extendqisi2
ARM GAS  C:\Users\CALEBC~1\AppData\Local\Temp\ccBuh6Ys.s 			page 12


 168 0034 12F0800F 		tst	r2, #128
 169 0038 04D0     		beq	.L11
 458:Generated_Source\PSoC5/USBFS_std.c ****             {
 459:Generated_Source\PSoC5/USBFS_std.c ****                 USBFS_SIE_EP_BASE.sieEp[ep].epCr0 = USBFS_MODE_NAK_IN;
 170              		.loc 1 459 0
 171 003a 1801     		lsls	r0, r3, #4
 172 003c 184A     		ldr	r2, .L15+8
 173 003e 0244     		add	r2, r2, r0
 174 0040 9570     		strb	r5, [r2, #2]
 175 0042 0AE0     		b	.L12
 176              	.L11:
 460:Generated_Source\PSoC5/USBFS_std.c ****                 
 461:Generated_Source\PSoC5/USBFS_std.c ****             #if (USBFS_EP_MANAGEMENT_DMA_AUTO && CY_PSOC4)
 462:Generated_Source\PSoC5/USBFS_std.c ****                 /* Clear DMA_TERMIN for IN endpoint. */
 463:Generated_Source\PSoC5/USBFS_std.c ****                 USBFS_ARB_EP_BASE.arbEp[ep].epIntEn &= (uint32) ~USBFS_ARB_EPX_INT_DMA_TERMIN;
 464:Generated_Source\PSoC5/USBFS_std.c ****             #endif /* (USBFS_EP_MANAGEMENT_DMA_AUTO && CY_PSOC4) */
 465:Generated_Source\PSoC5/USBFS_std.c ****             }
 466:Generated_Source\PSoC5/USBFS_std.c ****             else
 467:Generated_Source\PSoC5/USBFS_std.c ****             {
 468:Generated_Source\PSoC5/USBFS_std.c ****                 USBFS_SIE_EP_BASE.sieEp[ep].epCr0 = USBFS_MODE_NAK_OUT;
 177              		.loc 1 468 0
 178 0044 1801     		lsls	r0, r3, #4
 179 0046 164A     		ldr	r2, .L15+8
 180 0048 0244     		add	r2, r2, r0
 181 004a 0820     		movs	r0, #8
 182 004c 9070     		strb	r0, [r2, #2]
 183 004e 04E0     		b	.L12
 184              	.L10:
 469:Generated_Source\PSoC5/USBFS_std.c **** 
 470:Generated_Source\PSoC5/USBFS_std.c ****             #if (USBFS_EP_MANAGEMENT_DMA_AUTO)
 471:Generated_Source\PSoC5/USBFS_std.c ****                 /* (CY_PSOC4): DMA_TERMIN for OUT endpoint is set above. */
 472:Generated_Source\PSoC5/USBFS_std.c ****                 
 473:Generated_Source\PSoC5/USBFS_std.c ****                 /* Prepare endpoint type mask. */
 474:Generated_Source\PSoC5/USBFS_std.c ****                 epType |= (uint8) (0x01u << (ep - USBFS_EP1));
 475:Generated_Source\PSoC5/USBFS_std.c ****             #endif /* (USBFS_EP_MANAGEMENT_DMA_AUTO) */
 476:Generated_Source\PSoC5/USBFS_std.c ****             }
 477:Generated_Source\PSoC5/USBFS_std.c ****         }
 478:Generated_Source\PSoC5/USBFS_std.c ****         else
 479:Generated_Source\PSoC5/USBFS_std.c ****         {
 480:Generated_Source\PSoC5/USBFS_std.c ****             USBFS_SIE_EP_BASE.sieEp[ep].epCr0 = USBFS_MODE_STALL_DATA_EP;
 185              		.loc 1 480 0
 186 0050 1801     		lsls	r0, r3, #4
 187 0052 134A     		ldr	r2, .L15+8
 188 0054 0244     		add	r2, r2, r0
 189 0056 8020     		movs	r0, #128
 190 0058 9070     		strb	r0, [r2, #2]
 191              	.L12:
 481:Generated_Source\PSoC5/USBFS_std.c ****         }
 482:Generated_Source\PSoC5/USBFS_std.c ****         
 483:Generated_Source\PSoC5/USBFS_std.c ****     #if (!USBFS_EP_MANAGEMENT_DMA_AUTO)
 484:Generated_Source\PSoC5/USBFS_std.c ****         #if (CY_PSOC4)
 485:Generated_Source\PSoC5/USBFS_std.c ****             USBFS_ARB_EP16_BASE.arbEp[ep].rwRa16  = (uint32) USBFS_EP[ep].buffOffset;
 486:Generated_Source\PSoC5/USBFS_std.c ****             USBFS_ARB_EP16_BASE.arbEp[ep].rwWa16  = (uint32) USBFS_EP[ep].buffOffset;
 487:Generated_Source\PSoC5/USBFS_std.c ****         #else
 488:Generated_Source\PSoC5/USBFS_std.c ****             USBFS_ARB_EP_BASE.arbEp[ep].rwRa    = LO8(USBFS_EP[ep].buffOffset);
 192              		.loc 1 488 0 discriminator 2
 193 005a 4800     		lsls	r0, r1, #1
ARM GAS  C:\Users\CALEBC~1\AppData\Local\Temp\ccBuh6Ys.s 			page 13


 194 005c 0844     		add	r0, r0, r1
 195 005e 8200     		lsls	r2, r0, #2
 196 0060 0E48     		ldr	r0, .L15+4
 197 0062 0244     		add	r2, r2, r0
 198 0064 D488     		ldrh	r4, [r2, #6]
 199 0066 E4B2     		uxtb	r4, r4
 200 0068 0801     		lsls	r0, r1, #4
 201 006a 0B49     		ldr	r1, .L15
 202 006c 0144     		add	r1, r1, r0
 203 006e 8C71     		strb	r4, [r1, #6]
 489:Generated_Source\PSoC5/USBFS_std.c ****             USBFS_ARB_EP_BASE.arbEp[ep].rwRaMsb = HI8(USBFS_EP[ep].buffOffset);
 204              		.loc 1 489 0 discriminator 2
 205 0070 D088     		ldrh	r0, [r2, #6]
 206 0072 C0F30720 		ubfx	r0, r0, #8, #8
 207 0076 C871     		strb	r0, [r1, #7]
 490:Generated_Source\PSoC5/USBFS_std.c ****             USBFS_ARB_EP_BASE.arbEp[ep].rwWa    = LO8(USBFS_EP[ep].buffOffset);
 208              		.loc 1 490 0 discriminator 2
 209 0078 D088     		ldrh	r0, [r2, #6]
 210 007a C0B2     		uxtb	r0, r0
 211 007c 0871     		strb	r0, [r1, #4]
 491:Generated_Source\PSoC5/USBFS_std.c ****             USBFS_ARB_EP_BASE.arbEp[ep].rwWaMsb = HI8(USBFS_EP[ep].buffOffset);
 212              		.loc 1 491 0 discriminator 2
 213 007e D288     		ldrh	r2, [r2, #6]
 214 0080 C2F30722 		ubfx	r2, r2, #8, #8
 215 0084 4A71     		strb	r2, [r1, #5]
 446:Generated_Source\PSoC5/USBFS_std.c ****     {
 216              		.loc 1 446 0 discriminator 2
 217 0086 0133     		adds	r3, r3, #1
 218              	.LVL13:
 219 0088 DBB2     		uxtb	r3, r3
 220              	.LVL14:
 221              	.L9:
 446:Generated_Source\PSoC5/USBFS_std.c ****     {
 222              		.loc 1 446 0 is_stmt 0 discriminator 1
 223 008a 082B     		cmp	r3, #8
 224 008c BBD9     		bls	.L13
 492:Generated_Source\PSoC5/USBFS_std.c ****         #endif /* (CY_PSOC4) */
 493:Generated_Source\PSoC5/USBFS_std.c ****     #endif /* (!USBFS_EP_MANAGEMENT_DMA_AUTO) */
 494:Generated_Source\PSoC5/USBFS_std.c ****     }
 495:Generated_Source\PSoC5/USBFS_std.c **** 
 496:Generated_Source\PSoC5/USBFS_std.c **** #if (USBFS_EP_MANAGEMENT_DMA_AUTO)
 497:Generated_Source\PSoC5/USBFS_std.c ****      /* BUF_SIZE depend on DMA_THRESS value:0x55-32 bytes  0x44-16 bytes 0x33-8 bytes 0x22-4 bytes 
 498:Generated_Source\PSoC5/USBFS_std.c ****     USBFS_BUF_SIZE_REG = USBFS_DMA_BUF_SIZE;
 499:Generated_Source\PSoC5/USBFS_std.c **** 
 500:Generated_Source\PSoC5/USBFS_std.c ****     /* Configure DMA burst threshold */
 501:Generated_Source\PSoC5/USBFS_std.c **** #if (CY_PSOC4)
 502:Generated_Source\PSoC5/USBFS_std.c ****     USBFS_DMA_THRES16_REG   = USBFS_DMA_BYTES_PER_BURST;
 503:Generated_Source\PSoC5/USBFS_std.c **** #else
 504:Generated_Source\PSoC5/USBFS_std.c ****     USBFS_DMA_THRES_REG     = USBFS_DMA_BYTES_PER_BURST;
 505:Generated_Source\PSoC5/USBFS_std.c ****     USBFS_DMA_THRES_MSB_REG = 0u;
 506:Generated_Source\PSoC5/USBFS_std.c **** #endif /* (CY_PSOC4) */
 507:Generated_Source\PSoC5/USBFS_std.c ****     USBFS_EP_ACTIVE_REG = USBFS_DEFAULT_ARB_INT_EN;
 508:Generated_Source\PSoC5/USBFS_std.c ****     USBFS_EP_TYPE_REG   = epType;
 509:Generated_Source\PSoC5/USBFS_std.c ****     
 510:Generated_Source\PSoC5/USBFS_std.c ****     /* Cfg_cmp bit set to 1 once configuration is complete. */
 511:Generated_Source\PSoC5/USBFS_std.c ****     /* Lock arbiter configtuation */
 512:Generated_Source\PSoC5/USBFS_std.c ****     USBFS_ARB_CFG_REG |= (uint8)  USBFS_ARB_CFG_CFG_CMP;
ARM GAS  C:\Users\CALEBC~1\AppData\Local\Temp\ccBuh6Ys.s 			page 14


 513:Generated_Source\PSoC5/USBFS_std.c ****     /* Cfg_cmp bit set to 0 during configuration of PFSUSB Registers. */
 514:Generated_Source\PSoC5/USBFS_std.c ****     USBFS_ARB_CFG_REG &= (uint8) ~USBFS_ARB_CFG_CFG_CMP;
 515:Generated_Source\PSoC5/USBFS_std.c **** 
 516:Generated_Source\PSoC5/USBFS_std.c **** #endif /* (USBFS_EP_MANAGEMENT_DMA_AUTO) */
 517:Generated_Source\PSoC5/USBFS_std.c **** 
 518:Generated_Source\PSoC5/USBFS_std.c ****     /* Enable interrupt SIE interurpt source from EP0-EP1 */
 519:Generated_Source\PSoC5/USBFS_std.c ****     USBFS_SIE_EP_INT_EN_REG = (uint8) USBFS_DEFAULT_SIE_EP_INT_EN;
 225              		.loc 1 519 0 is_stmt 1
 226 008e FF22     		movs	r2, #255
 227 0090 044B     		ldr	r3, .L15+12
 228              	.LVL15:
 229 0092 1A70     		strb	r2, [r3]
 520:Generated_Source\PSoC5/USBFS_std.c **** }
 230              		.loc 1 520 0
 231 0094 30BC     		pop	{r4, r5}
 232              		.cfi_restore 5
 233              		.cfi_restore 4
 234              		.cfi_def_cfa_offset 0
 235 0096 7047     		bx	lr
 236              	.L16:
 237              		.align	2
 238              	.L15:
 239 0098 70600040 		.word	1073766512
 240 009c 00000000 		.word	USBFS_EP
 241 00a0 FC5F0040 		.word	1073766396
 242 00a4 0A600040 		.word	1073766410
 243              		.cfi_endproc
 244              	.LFE2:
 245              		.size	USBFS_ConfigReg, .-USBFS_ConfigReg
 246              		.section	.text.USBFS_EpStateInit,"ax",%progbits
 247              		.align	2
 248              		.global	USBFS_EpStateInit
 249              		.thumb
 250              		.thumb_func
 251              		.type	USBFS_EpStateInit, %function
 252              	USBFS_EpStateInit:
 253              	.LFB3:
 521:Generated_Source\PSoC5/USBFS_std.c **** 
 522:Generated_Source\PSoC5/USBFS_std.c **** 
 523:Generated_Source\PSoC5/USBFS_std.c **** /*******************************************************************************
 524:Generated_Source\PSoC5/USBFS_std.c **** * Function Name: USBFS_EpStateInit
 525:Generated_Source\PSoC5/USBFS_std.c **** ****************************************************************************//**
 526:Generated_Source\PSoC5/USBFS_std.c **** *
 527:Generated_Source\PSoC5/USBFS_std.c **** *  This routine initialize state of Data end points based of its type: 
 528:Generated_Source\PSoC5/USBFS_std.c **** *   IN  - USBFS_IN_BUFFER_EMPTY (USBFS_EVENT_PENDING)
 529:Generated_Source\PSoC5/USBFS_std.c **** *   OUT - USBFS_OUT_BUFFER_EMPTY (USBFS_NO_EVENT_PENDING)
 530:Generated_Source\PSoC5/USBFS_std.c **** *
 531:Generated_Source\PSoC5/USBFS_std.c **** *******************************************************************************/
 532:Generated_Source\PSoC5/USBFS_std.c **** void USBFS_EpStateInit(void) 
 533:Generated_Source\PSoC5/USBFS_std.c **** {
 254              		.loc 1 533 0
 255              		.cfi_startproc
 256              		@ args = 0, pretend = 0, frame = 0
 257              		@ frame_needed = 0, uses_anonymous_args = 0
 258              		@ link register save eliminated.
 259              	.LVL16:
 534:Generated_Source\PSoC5/USBFS_std.c ****     uint8 i;
ARM GAS  C:\Users\CALEBC~1\AppData\Local\Temp\ccBuh6Ys.s 			page 15


 535:Generated_Source\PSoC5/USBFS_std.c **** 
 536:Generated_Source\PSoC5/USBFS_std.c ****     for (i = USBFS_EP1; i < USBFS_MAX_EP; i++)
 260              		.loc 1 536 0
 261 0000 0123     		movs	r3, #1
 262 0002 19E0     		b	.L18
 263              	.LVL17:
 264              	.L21:
 537:Generated_Source\PSoC5/USBFS_std.c ****     { 
 538:Generated_Source\PSoC5/USBFS_std.c ****         if (0u != (USBFS_EP[i].addr & USBFS_DIR_IN))
 265              		.loc 1 538 0
 266 0004 03EB4301 		add	r1, r3, r3, lsl #1
 267 0008 8A00     		lsls	r2, r1, #2
 268 000a 0D49     		ldr	r1, .L22
 269 000c 0A44     		add	r2, r2, r1
 270 000e 1279     		ldrb	r2, [r2, #4]	@ zero_extendqisi2
 271 0010 12F0800F 		tst	r2, #128
 272 0014 07D0     		beq	.L19
 539:Generated_Source\PSoC5/USBFS_std.c ****         {
 540:Generated_Source\PSoC5/USBFS_std.c ****             /* IN Endpoint */
 541:Generated_Source\PSoC5/USBFS_std.c ****             USBFS_EP[i].apiEpState = USBFS_EVENT_PENDING;
 273              		.loc 1 541 0
 274 0016 03EB4301 		add	r1, r3, r3, lsl #1
 275 001a 8A00     		lsls	r2, r1, #2
 276 001c 0849     		ldr	r1, .L22
 277 001e 0A44     		add	r2, r2, r1
 278 0020 0121     		movs	r1, #1
 279 0022 5170     		strb	r1, [r2, #1]
 280 0024 06E0     		b	.L20
 281              	.L19:
 542:Generated_Source\PSoC5/USBFS_std.c ****         }
 543:Generated_Source\PSoC5/USBFS_std.c ****         else
 544:Generated_Source\PSoC5/USBFS_std.c ****         {
 545:Generated_Source\PSoC5/USBFS_std.c ****             /* OUT Endpoint */
 546:Generated_Source\PSoC5/USBFS_std.c ****             USBFS_EP[i].apiEpState = USBFS_NO_EVENT_PENDING;
 282              		.loc 1 546 0
 283 0026 03EB4301 		add	r1, r3, r3, lsl #1
 284 002a 8A00     		lsls	r2, r1, #2
 285 002c 0449     		ldr	r1, .L22
 286 002e 0A44     		add	r2, r2, r1
 287 0030 0021     		movs	r1, #0
 288 0032 5170     		strb	r1, [r2, #1]
 289              	.L20:
 536:Generated_Source\PSoC5/USBFS_std.c ****     { 
 290              		.loc 1 536 0 discriminator 2
 291 0034 0133     		adds	r3, r3, #1
 292              	.LVL18:
 293 0036 DBB2     		uxtb	r3, r3
 294              	.LVL19:
 295              	.L18:
 536:Generated_Source\PSoC5/USBFS_std.c ****     { 
 296              		.loc 1 536 0 is_stmt 0 discriminator 1
 297 0038 082B     		cmp	r3, #8
 298 003a E3D9     		bls	.L21
 547:Generated_Source\PSoC5/USBFS_std.c ****         }
 548:Generated_Source\PSoC5/USBFS_std.c ****     }
 549:Generated_Source\PSoC5/USBFS_std.c ****                     
 550:Generated_Source\PSoC5/USBFS_std.c **** }
ARM GAS  C:\Users\CALEBC~1\AppData\Local\Temp\ccBuh6Ys.s 			page 16


 299              		.loc 1 550 0 is_stmt 1
 300 003c 7047     		bx	lr
 301              	.L23:
 302 003e 00BF     		.align	2
 303              	.L22:
 304 0040 00000000 		.word	USBFS_EP
 305              		.cfi_endproc
 306              	.LFE3:
 307              		.size	USBFS_EpStateInit, .-USBFS_EpStateInit
 308              		.section	.text.USBFS_GetConfigTablePtr,"ax",%progbits
 309              		.align	2
 310              		.global	USBFS_GetConfigTablePtr
 311              		.thumb
 312              		.thumb_func
 313              		.type	USBFS_GetConfigTablePtr, %function
 314              	USBFS_GetConfigTablePtr:
 315              	.LFB6:
 551:Generated_Source\PSoC5/USBFS_std.c **** 
 552:Generated_Source\PSoC5/USBFS_std.c **** 
 553:Generated_Source\PSoC5/USBFS_std.c **** /*******************************************************************************
 554:Generated_Source\PSoC5/USBFS_std.c **** * Function Name: USBFS_Config
 555:Generated_Source\PSoC5/USBFS_std.c **** ****************************************************************************//**
 556:Generated_Source\PSoC5/USBFS_std.c **** *
 557:Generated_Source\PSoC5/USBFS_std.c **** *  This routine configures endpoints for the entire configuration by scanning
 558:Generated_Source\PSoC5/USBFS_std.c **** *  the configuration descriptor.
 559:Generated_Source\PSoC5/USBFS_std.c **** *
 560:Generated_Source\PSoC5/USBFS_std.c **** *  \param clearAltSetting: It configures the bAlternateSetting 0 for each interface.
 561:Generated_Source\PSoC5/USBFS_std.c **** *
 562:Generated_Source\PSoC5/USBFS_std.c **** * USBFS_interfaceClass - Initialized class array for each interface.
 563:Generated_Source\PSoC5/USBFS_std.c **** *   It is used for handling Class specific requests depend on interface class.
 564:Generated_Source\PSoC5/USBFS_std.c **** *   Different classes in multiple Alternate settings does not supported.
 565:Generated_Source\PSoC5/USBFS_std.c **** *
 566:Generated_Source\PSoC5/USBFS_std.c **** * \reentrant
 567:Generated_Source\PSoC5/USBFS_std.c **** *  No.
 568:Generated_Source\PSoC5/USBFS_std.c **** *
 569:Generated_Source\PSoC5/USBFS_std.c **** *******************************************************************************/
 570:Generated_Source\PSoC5/USBFS_std.c **** void USBFS_Config(uint8 clearAltSetting) 
 571:Generated_Source\PSoC5/USBFS_std.c **** {
 572:Generated_Source\PSoC5/USBFS_std.c ****     uint8 ep;
 573:Generated_Source\PSoC5/USBFS_std.c ****     uint8 curEp;
 574:Generated_Source\PSoC5/USBFS_std.c ****     uint8 i;
 575:Generated_Source\PSoC5/USBFS_std.c ****     uint8 epType;
 576:Generated_Source\PSoC5/USBFS_std.c ****     const uint8 *pDescr;
 577:Generated_Source\PSoC5/USBFS_std.c ****     
 578:Generated_Source\PSoC5/USBFS_std.c ****     #if (!USBFS_EP_MANAGEMENT_DMA_AUTO)
 579:Generated_Source\PSoC5/USBFS_std.c ****         uint16 buffCount = 0u;
 580:Generated_Source\PSoC5/USBFS_std.c ****     #endif /* (!USBFS_EP_MANAGEMENT_DMA_AUTO) */
 581:Generated_Source\PSoC5/USBFS_std.c **** 
 582:Generated_Source\PSoC5/USBFS_std.c ****     const T_USBFS_LUT CYCODE *pTmp;
 583:Generated_Source\PSoC5/USBFS_std.c ****     const T_USBFS_EP_SETTINGS_BLOCK CYCODE *pEP;
 584:Generated_Source\PSoC5/USBFS_std.c **** 
 585:Generated_Source\PSoC5/USBFS_std.c ****     /* Clear endpoints settings */
 586:Generated_Source\PSoC5/USBFS_std.c ****     for (ep = 0u; ep < USBFS_MAX_EP; ++ep)
 587:Generated_Source\PSoC5/USBFS_std.c ****     {
 588:Generated_Source\PSoC5/USBFS_std.c ****         USBFS_EP[ep].attrib     = 0u;
 589:Generated_Source\PSoC5/USBFS_std.c ****         USBFS_EP[ep].hwEpState  = 0u;
 590:Generated_Source\PSoC5/USBFS_std.c ****         USBFS_EP[ep].epToggle   = 0u;
ARM GAS  C:\Users\CALEBC~1\AppData\Local\Temp\ccBuh6Ys.s 			page 17


 591:Generated_Source\PSoC5/USBFS_std.c ****         USBFS_EP[ep].bufferSize = 0u;
 592:Generated_Source\PSoC5/USBFS_std.c ****         USBFS_EP[ep].interface  = 0u;
 593:Generated_Source\PSoC5/USBFS_std.c ****         USBFS_EP[ep].apiEpState = USBFS_NO_EVENT_PENDING;
 594:Generated_Source\PSoC5/USBFS_std.c ****         USBFS_EP[ep].epMode     = USBFS_MODE_DISABLE;   
 595:Generated_Source\PSoC5/USBFS_std.c ****     }
 596:Generated_Source\PSoC5/USBFS_std.c **** 
 597:Generated_Source\PSoC5/USBFS_std.c ****     /* Clear Alternate settings for all interfaces. */
 598:Generated_Source\PSoC5/USBFS_std.c ****     if (0u != clearAltSetting)
 599:Generated_Source\PSoC5/USBFS_std.c ****     {
 600:Generated_Source\PSoC5/USBFS_std.c ****         for (i = 0u; i < USBFS_MAX_INTERFACES_NUMBER; ++i)
 601:Generated_Source\PSoC5/USBFS_std.c ****         {
 602:Generated_Source\PSoC5/USBFS_std.c ****             USBFS_interfaceSetting[i]     = 0u;
 603:Generated_Source\PSoC5/USBFS_std.c ****             USBFS_interfaceSettingLast[i] = 0u;
 604:Generated_Source\PSoC5/USBFS_std.c ****         }
 605:Generated_Source\PSoC5/USBFS_std.c ****     }
 606:Generated_Source\PSoC5/USBFS_std.c **** 
 607:Generated_Source\PSoC5/USBFS_std.c ****     /* Init Endpoints and Device Status if configured */
 608:Generated_Source\PSoC5/USBFS_std.c ****     if (USBFS_configuration > 0u)
 609:Generated_Source\PSoC5/USBFS_std.c ****     {
 610:Generated_Source\PSoC5/USBFS_std.c ****         #if defined(USBFS_ENABLE_CDC_CLASS)
 611:Generated_Source\PSoC5/USBFS_std.c ****             uint8 cdcComNums = 0u;
 612:Generated_Source\PSoC5/USBFS_std.c ****         #endif  /* (USBFS_ENABLE_CDC_CLASS) */  
 613:Generated_Source\PSoC5/USBFS_std.c **** 
 614:Generated_Source\PSoC5/USBFS_std.c ****         pTmp = USBFS_GetConfigTablePtr(USBFS_configuration - 1u);
 615:Generated_Source\PSoC5/USBFS_std.c ****         
 616:Generated_Source\PSoC5/USBFS_std.c ****         /* Set Power status for current configuration */
 617:Generated_Source\PSoC5/USBFS_std.c ****         pDescr = (const uint8 *)pTmp->p_list;
 618:Generated_Source\PSoC5/USBFS_std.c ****         if ((pDescr[USBFS_CONFIG_DESCR_ATTRIB] & USBFS_CONFIG_DESCR_ATTRIB_SELF_POWERED) != 0u)
 619:Generated_Source\PSoC5/USBFS_std.c ****         {
 620:Generated_Source\PSoC5/USBFS_std.c ****             USBFS_deviceStatus |= (uint8)  USBFS_DEVICE_STATUS_SELF_POWERED;
 621:Generated_Source\PSoC5/USBFS_std.c ****         }
 622:Generated_Source\PSoC5/USBFS_std.c ****         else
 623:Generated_Source\PSoC5/USBFS_std.c ****         {
 624:Generated_Source\PSoC5/USBFS_std.c ****             USBFS_deviceStatus &= (uint8) ~USBFS_DEVICE_STATUS_SELF_POWERED;
 625:Generated_Source\PSoC5/USBFS_std.c ****         }
 626:Generated_Source\PSoC5/USBFS_std.c ****         
 627:Generated_Source\PSoC5/USBFS_std.c ****         /* Move to next element */
 628:Generated_Source\PSoC5/USBFS_std.c ****         pTmp = &pTmp[1u];
 629:Generated_Source\PSoC5/USBFS_std.c ****         ep = pTmp->c;  /* For this table, c is the number of endpoints configurations  */
 630:Generated_Source\PSoC5/USBFS_std.c **** 
 631:Generated_Source\PSoC5/USBFS_std.c ****         #if (USBFS_EP_MANAGEMENT_MANUAL && USBFS_EP_ALLOC_DYNAMIC)
 632:Generated_Source\PSoC5/USBFS_std.c ****             /* Configure for dynamic EP memory allocation */
 633:Generated_Source\PSoC5/USBFS_std.c ****             /* p_list points the endpoint setting table. */
 634:Generated_Source\PSoC5/USBFS_std.c ****             pEP = (T_USBFS_EP_SETTINGS_BLOCK *) pTmp->p_list;
 635:Generated_Source\PSoC5/USBFS_std.c ****             
 636:Generated_Source\PSoC5/USBFS_std.c ****             for (i = 0u; i < ep; i++)
 637:Generated_Source\PSoC5/USBFS_std.c ****             {     
 638:Generated_Source\PSoC5/USBFS_std.c ****                 /* Compare current Alternate setting with EP Alt */
 639:Generated_Source\PSoC5/USBFS_std.c ****                 if (USBFS_interfaceSetting[pEP->interface] == pEP->altSetting)
 640:Generated_Source\PSoC5/USBFS_std.c ****                 {                                                          
 641:Generated_Source\PSoC5/USBFS_std.c ****                     curEp  = pEP->addr & USBFS_DIR_UNUSED;
 642:Generated_Source\PSoC5/USBFS_std.c ****                     epType = pEP->attributes & USBFS_EP_TYPE_MASK;
 643:Generated_Source\PSoC5/USBFS_std.c ****                     
 644:Generated_Source\PSoC5/USBFS_std.c ****                     USBFS_EP[curEp].addr       = pEP->addr;
 645:Generated_Source\PSoC5/USBFS_std.c ****                     USBFS_EP[curEp].attrib     = pEP->attributes;
 646:Generated_Source\PSoC5/USBFS_std.c ****                     USBFS_EP[curEp].bufferSize = pEP->bufferSize;
 647:Generated_Source\PSoC5/USBFS_std.c **** 
ARM GAS  C:\Users\CALEBC~1\AppData\Local\Temp\ccBuh6Ys.s 			page 18


 648:Generated_Source\PSoC5/USBFS_std.c ****                     if (0u != (pEP->addr & USBFS_DIR_IN))
 649:Generated_Source\PSoC5/USBFS_std.c ****                     {
 650:Generated_Source\PSoC5/USBFS_std.c ****                         /* IN Endpoint */
 651:Generated_Source\PSoC5/USBFS_std.c ****                         USBFS_EP[curEp].epMode     = USBFS_GET_ACTIVE_IN_EP_CR0_MODE(epType);
 652:Generated_Source\PSoC5/USBFS_std.c ****                         USBFS_EP[curEp].apiEpState = USBFS_EVENT_PENDING;
 653:Generated_Source\PSoC5/USBFS_std.c ****                     
 654:Generated_Source\PSoC5/USBFS_std.c ****                     #if (defined(USBFS_ENABLE_MIDI_STREAMING) && (USBFS_MIDI_IN_BUFF_SIZE > 0))
 655:Generated_Source\PSoC5/USBFS_std.c ****                         if ((pEP->bMisc == USBFS_CLASS_AUDIO) && (epType == USBFS_EP_TYPE_BULK))
 656:Generated_Source\PSoC5/USBFS_std.c ****                         {
 657:Generated_Source\PSoC5/USBFS_std.c ****                             USBFS_midi_in_ep = curEp;
 658:Generated_Source\PSoC5/USBFS_std.c ****                         }
 659:Generated_Source\PSoC5/USBFS_std.c ****                     #endif  /* (USBFS_ENABLE_MIDI_STREAMING) */
 660:Generated_Source\PSoC5/USBFS_std.c ****                     }
 661:Generated_Source\PSoC5/USBFS_std.c ****                     else
 662:Generated_Source\PSoC5/USBFS_std.c ****                     {
 663:Generated_Source\PSoC5/USBFS_std.c ****                         /* OUT Endpoint */
 664:Generated_Source\PSoC5/USBFS_std.c ****                         USBFS_EP[curEp].epMode     = USBFS_GET_ACTIVE_OUT_EP_CR0_MODE(epType);
 665:Generated_Source\PSoC5/USBFS_std.c ****                         USBFS_EP[curEp].apiEpState = USBFS_NO_EVENT_PENDING;
 666:Generated_Source\PSoC5/USBFS_std.c ****                         
 667:Generated_Source\PSoC5/USBFS_std.c ****                     #if (defined(USBFS_ENABLE_MIDI_STREAMING) && (USBFS_MIDI_OUT_BUFF_SIZE > 0))
 668:Generated_Source\PSoC5/USBFS_std.c ****                         if ((pEP->bMisc == USBFS_CLASS_AUDIO) && (epType == USBFS_EP_TYPE_BULK))
 669:Generated_Source\PSoC5/USBFS_std.c ****                         {
 670:Generated_Source\PSoC5/USBFS_std.c ****                             USBFS_midi_out_ep = curEp;
 671:Generated_Source\PSoC5/USBFS_std.c ****                         }
 672:Generated_Source\PSoC5/USBFS_std.c ****                     #endif  /* (USBFS_ENABLE_MIDI_STREAMING) */
 673:Generated_Source\PSoC5/USBFS_std.c ****                     }
 674:Generated_Source\PSoC5/USBFS_std.c **** 
 675:Generated_Source\PSoC5/USBFS_std.c ****                 #if(defined (USBFS_ENABLE_CDC_CLASS))
 676:Generated_Source\PSoC5/USBFS_std.c ****                     if((pEP->bMisc == USBFS_CLASS_CDC_DATA) ||(pEP->bMisc == USBFS_CLASS_CDC))
 677:Generated_Source\PSoC5/USBFS_std.c ****                     {
 678:Generated_Source\PSoC5/USBFS_std.c ****                         cdcComNums = USBFS_Cdc_EpInit(pEP, curEp, cdcComNums);
 679:Generated_Source\PSoC5/USBFS_std.c ****                     }
 680:Generated_Source\PSoC5/USBFS_std.c ****                 #endif  /* (USBFS_ENABLE_CDC_CLASS) */
 681:Generated_Source\PSoC5/USBFS_std.c ****                 }
 682:Generated_Source\PSoC5/USBFS_std.c ****                 
 683:Generated_Source\PSoC5/USBFS_std.c ****                 pEP = &pEP[1u];
 684:Generated_Source\PSoC5/USBFS_std.c ****             }
 685:Generated_Source\PSoC5/USBFS_std.c ****             
 686:Generated_Source\PSoC5/USBFS_std.c ****         #else
 687:Generated_Source\PSoC5/USBFS_std.c ****             for (i = USBFS_EP1; i < USBFS_MAX_EP; ++i)
 688:Generated_Source\PSoC5/USBFS_std.c ****             {
 689:Generated_Source\PSoC5/USBFS_std.c ****                 /* p_list points the endpoint setting table. */
 690:Generated_Source\PSoC5/USBFS_std.c ****                 pEP = (const T_USBFS_EP_SETTINGS_BLOCK CYCODE *) pTmp->p_list;
 691:Generated_Source\PSoC5/USBFS_std.c ****                 /* Find max length for each EP and select it (length could be different in differen
 692:Generated_Source\PSoC5/USBFS_std.c ****                 /* but other settings should be correct with regards to Interface alt Setting */
 693:Generated_Source\PSoC5/USBFS_std.c ****                 
 694:Generated_Source\PSoC5/USBFS_std.c ****                 for (curEp = 0u; curEp < ep; ++curEp)
 695:Generated_Source\PSoC5/USBFS_std.c ****                 {
 696:Generated_Source\PSoC5/USBFS_std.c ****                     if (i == (pEP->addr & USBFS_DIR_UNUSED))
 697:Generated_Source\PSoC5/USBFS_std.c ****                     {
 698:Generated_Source\PSoC5/USBFS_std.c ****                         /* Compare endpoint buffers size with current size to find greater. */
 699:Generated_Source\PSoC5/USBFS_std.c ****                         if (USBFS_EP[i].bufferSize < pEP->bufferSize)
 700:Generated_Source\PSoC5/USBFS_std.c ****                         {
 701:Generated_Source\PSoC5/USBFS_std.c ****                             USBFS_EP[i].bufferSize = pEP->bufferSize;
 702:Generated_Source\PSoC5/USBFS_std.c ****                         }
 703:Generated_Source\PSoC5/USBFS_std.c ****                         
 704:Generated_Source\PSoC5/USBFS_std.c ****                         /* Compare current Alternate setting with EP Alt */
ARM GAS  C:\Users\CALEBC~1\AppData\Local\Temp\ccBuh6Ys.s 			page 19


 705:Generated_Source\PSoC5/USBFS_std.c ****                         if (USBFS_interfaceSetting[pEP->interface] == pEP->altSetting)
 706:Generated_Source\PSoC5/USBFS_std.c ****                         {                            
 707:Generated_Source\PSoC5/USBFS_std.c ****                             USBFS_EP[i].addr = pEP->addr;
 708:Generated_Source\PSoC5/USBFS_std.c ****                             USBFS_EP[i].attrib = pEP->attributes;
 709:Generated_Source\PSoC5/USBFS_std.c ****                             
 710:Generated_Source\PSoC5/USBFS_std.c ****                             epType = pEP->attributes & USBFS_EP_TYPE_MASK;
 711:Generated_Source\PSoC5/USBFS_std.c ****                             
 712:Generated_Source\PSoC5/USBFS_std.c ****                             if (0u != (pEP->addr & USBFS_DIR_IN))
 713:Generated_Source\PSoC5/USBFS_std.c ****                             {
 714:Generated_Source\PSoC5/USBFS_std.c ****                                 /* IN Endpoint */
 715:Generated_Source\PSoC5/USBFS_std.c ****                                 USBFS_EP[i].epMode     = USBFS_GET_ACTIVE_IN_EP_CR0_MODE(epType);
 716:Generated_Source\PSoC5/USBFS_std.c ****                                 USBFS_EP[i].apiEpState = USBFS_EVENT_PENDING;
 717:Generated_Source\PSoC5/USBFS_std.c ****                                 
 718:Generated_Source\PSoC5/USBFS_std.c ****                             #if (defined(USBFS_ENABLE_MIDI_STREAMING) && (USBFS_MIDI_IN_BUFF_SIZE >
 719:Generated_Source\PSoC5/USBFS_std.c ****                                 if ((pEP->bMisc == USBFS_CLASS_AUDIO) && (epType == USBFS_EP_TYPE_B
 720:Generated_Source\PSoC5/USBFS_std.c ****                                 {
 721:Generated_Source\PSoC5/USBFS_std.c ****                                     USBFS_midi_in_ep = i;
 722:Generated_Source\PSoC5/USBFS_std.c ****                                 }
 723:Generated_Source\PSoC5/USBFS_std.c ****                             #endif  /* (USBFS_ENABLE_MIDI_STREAMING) */
 724:Generated_Source\PSoC5/USBFS_std.c ****                             }
 725:Generated_Source\PSoC5/USBFS_std.c ****                             else
 726:Generated_Source\PSoC5/USBFS_std.c ****                             {
 727:Generated_Source\PSoC5/USBFS_std.c ****                                 /* OUT Endpoint */
 728:Generated_Source\PSoC5/USBFS_std.c ****                                 USBFS_EP[i].epMode     = USBFS_GET_ACTIVE_OUT_EP_CR0_MODE(epType);
 729:Generated_Source\PSoC5/USBFS_std.c ****                                 USBFS_EP[i].apiEpState = USBFS_NO_EVENT_PENDING;
 730:Generated_Source\PSoC5/USBFS_std.c ****                                 
 731:Generated_Source\PSoC5/USBFS_std.c ****                             #if (defined(USBFS_ENABLE_MIDI_STREAMING) && (USBFS_MIDI_OUT_BUFF_SIZE 
 732:Generated_Source\PSoC5/USBFS_std.c ****                                 if ((pEP->bMisc == USBFS_CLASS_AUDIO) && (epType == USBFS_EP_TYPE_B
 733:Generated_Source\PSoC5/USBFS_std.c ****                                 {
 734:Generated_Source\PSoC5/USBFS_std.c ****                                     USBFS_midi_out_ep = i;
 735:Generated_Source\PSoC5/USBFS_std.c ****                                 }
 736:Generated_Source\PSoC5/USBFS_std.c ****                             #endif  /* (USBFS_ENABLE_MIDI_STREAMING) */
 737:Generated_Source\PSoC5/USBFS_std.c ****                             }
 738:Generated_Source\PSoC5/USBFS_std.c **** 
 739:Generated_Source\PSoC5/USBFS_std.c ****                         #if (defined(USBFS_ENABLE_CDC_CLASS))
 740:Generated_Source\PSoC5/USBFS_std.c ****                             if((pEP->bMisc == USBFS_CLASS_CDC_DATA) ||(pEP->bMisc == USBFS_CLASS_CD
 741:Generated_Source\PSoC5/USBFS_std.c ****                             {
 742:Generated_Source\PSoC5/USBFS_std.c ****                                 cdcComNums = USBFS_Cdc_EpInit(pEP, i, cdcComNums);
 743:Generated_Source\PSoC5/USBFS_std.c ****                             }
 744:Generated_Source\PSoC5/USBFS_std.c ****                         #endif  /* (USBFS_ENABLE_CDC_CLASS) */
 745:Generated_Source\PSoC5/USBFS_std.c **** 
 746:Generated_Source\PSoC5/USBFS_std.c ****                             #if (USBFS_EP_MANAGEMENT_DMA_AUTO)
 747:Generated_Source\PSoC5/USBFS_std.c ****                                 break;  /* Use first EP setting in Auto memory management */
 748:Generated_Source\PSoC5/USBFS_std.c ****                             #endif /* (USBFS_EP_MANAGEMENT_DMA_AUTO) */
 749:Generated_Source\PSoC5/USBFS_std.c ****                         }
 750:Generated_Source\PSoC5/USBFS_std.c ****                     }
 751:Generated_Source\PSoC5/USBFS_std.c ****                     
 752:Generated_Source\PSoC5/USBFS_std.c ****                     pEP = &pEP[1u];
 753:Generated_Source\PSoC5/USBFS_std.c ****                 }
 754:Generated_Source\PSoC5/USBFS_std.c ****             }
 755:Generated_Source\PSoC5/USBFS_std.c ****         #endif /*  (USBFS_EP_MANAGEMENT_MANUAL && USBFS_EP_ALLOC_DYNAMIC) */
 756:Generated_Source\PSoC5/USBFS_std.c **** 
 757:Generated_Source\PSoC5/USBFS_std.c ****         /* Init class array for each interface and interface number for each EP.
 758:Generated_Source\PSoC5/USBFS_std.c ****         *  It is used for handling Class specific requests directed to either an
 759:Generated_Source\PSoC5/USBFS_std.c ****         *  interface or the endpoint.
 760:Generated_Source\PSoC5/USBFS_std.c ****         */
 761:Generated_Source\PSoC5/USBFS_std.c ****         /* p_list points the endpoint setting table. */
ARM GAS  C:\Users\CALEBC~1\AppData\Local\Temp\ccBuh6Ys.s 			page 20


 762:Generated_Source\PSoC5/USBFS_std.c ****         pEP = (const T_USBFS_EP_SETTINGS_BLOCK CYCODE *) pTmp->p_list;
 763:Generated_Source\PSoC5/USBFS_std.c ****         for (i = 0u; i < ep; i++)
 764:Generated_Source\PSoC5/USBFS_std.c ****         {
 765:Generated_Source\PSoC5/USBFS_std.c ****             /* Configure interface number for each EP */
 766:Generated_Source\PSoC5/USBFS_std.c ****             USBFS_EP[pEP->addr & USBFS_DIR_UNUSED].interface = pEP->interface;
 767:Generated_Source\PSoC5/USBFS_std.c ****             pEP = &pEP[1u];
 768:Generated_Source\PSoC5/USBFS_std.c ****         }
 769:Generated_Source\PSoC5/USBFS_std.c ****         
 770:Generated_Source\PSoC5/USBFS_std.c ****         /* Init pointer on interface class table */
 771:Generated_Source\PSoC5/USBFS_std.c ****         USBFS_interfaceClass = USBFS_GetInterfaceClassTablePtr();
 772:Generated_Source\PSoC5/USBFS_std.c ****         
 773:Generated_Source\PSoC5/USBFS_std.c ****     /* Set the endpoint buffer addresses */
 774:Generated_Source\PSoC5/USBFS_std.c ****     #if (!USBFS_EP_MANAGEMENT_DMA_AUTO)
 775:Generated_Source\PSoC5/USBFS_std.c ****         buffCount = 0u;
 776:Generated_Source\PSoC5/USBFS_std.c ****         for (ep = USBFS_EP1; ep < USBFS_MAX_EP; ++ep)
 777:Generated_Source\PSoC5/USBFS_std.c ****         {
 778:Generated_Source\PSoC5/USBFS_std.c ****             USBFS_EP[ep].buffOffset = buffCount;        
 779:Generated_Source\PSoC5/USBFS_std.c ****             buffCount += USBFS_EP[ep].bufferSize;
 780:Generated_Source\PSoC5/USBFS_std.c ****             
 781:Generated_Source\PSoC5/USBFS_std.c ****         #if (USBFS_GEN_16BITS_EP_ACCESS)
 782:Generated_Source\PSoC5/USBFS_std.c ****             /* Align EP buffers to be event size to access 16-bits DR register. */
 783:Generated_Source\PSoC5/USBFS_std.c ****             buffCount += (0u != (buffCount & 0x01u)) ? 1u : 0u;
 784:Generated_Source\PSoC5/USBFS_std.c ****         #endif /* (USBFS_GEN_16BITS_EP_ACCESS) */            
 785:Generated_Source\PSoC5/USBFS_std.c ****         }
 786:Generated_Source\PSoC5/USBFS_std.c ****     #endif /* (!USBFS_EP_MANAGEMENT_DMA_AUTO) */
 787:Generated_Source\PSoC5/USBFS_std.c **** 
 788:Generated_Source\PSoC5/USBFS_std.c ****         /* Configure hardware registers */
 789:Generated_Source\PSoC5/USBFS_std.c ****         USBFS_ConfigReg();
 790:Generated_Source\PSoC5/USBFS_std.c ****     }
 791:Generated_Source\PSoC5/USBFS_std.c **** }
 792:Generated_Source\PSoC5/USBFS_std.c **** 
 793:Generated_Source\PSoC5/USBFS_std.c **** 
 794:Generated_Source\PSoC5/USBFS_std.c **** /*******************************************************************************
 795:Generated_Source\PSoC5/USBFS_std.c **** * Function Name: USBFS_ConfigAltChanged
 796:Generated_Source\PSoC5/USBFS_std.c **** ****************************************************************************//**
 797:Generated_Source\PSoC5/USBFS_std.c **** *
 798:Generated_Source\PSoC5/USBFS_std.c **** *  This routine update configuration for the required endpoints only.
 799:Generated_Source\PSoC5/USBFS_std.c **** *  It is called after SET_INTERFACE request when Static memory allocation used.
 800:Generated_Source\PSoC5/USBFS_std.c **** *
 801:Generated_Source\PSoC5/USBFS_std.c **** * \reentrant
 802:Generated_Source\PSoC5/USBFS_std.c **** *  No.
 803:Generated_Source\PSoC5/USBFS_std.c **** *
 804:Generated_Source\PSoC5/USBFS_std.c **** *******************************************************************************/
 805:Generated_Source\PSoC5/USBFS_std.c **** void USBFS_ConfigAltChanged(void) 
 806:Generated_Source\PSoC5/USBFS_std.c **** {
 807:Generated_Source\PSoC5/USBFS_std.c ****     uint8 ep;
 808:Generated_Source\PSoC5/USBFS_std.c ****     uint8 curEp;
 809:Generated_Source\PSoC5/USBFS_std.c ****     uint8 epType;
 810:Generated_Source\PSoC5/USBFS_std.c ****     uint8 i;
 811:Generated_Source\PSoC5/USBFS_std.c ****     uint8 interfaceNum;
 812:Generated_Source\PSoC5/USBFS_std.c **** 
 813:Generated_Source\PSoC5/USBFS_std.c ****     const T_USBFS_LUT CYCODE *pTmp;
 814:Generated_Source\PSoC5/USBFS_std.c ****     const T_USBFS_EP_SETTINGS_BLOCK CYCODE *pEP;
 815:Generated_Source\PSoC5/USBFS_std.c **** 
 816:Generated_Source\PSoC5/USBFS_std.c ****     /* Init Endpoints and Device Status if configured */
 817:Generated_Source\PSoC5/USBFS_std.c ****     if (USBFS_configuration > 0u)
 818:Generated_Source\PSoC5/USBFS_std.c ****     {
ARM GAS  C:\Users\CALEBC~1\AppData\Local\Temp\ccBuh6Ys.s 			page 21


 819:Generated_Source\PSoC5/USBFS_std.c ****         /* Get number of endpoints configurations (ep). */
 820:Generated_Source\PSoC5/USBFS_std.c ****         pTmp = USBFS_GetConfigTablePtr(USBFS_configuration - 1u);
 821:Generated_Source\PSoC5/USBFS_std.c ****         pTmp = &pTmp[1u];
 822:Generated_Source\PSoC5/USBFS_std.c ****         ep = pTmp->c;
 823:Generated_Source\PSoC5/USBFS_std.c **** 
 824:Generated_Source\PSoC5/USBFS_std.c ****         /* Get pointer to endpoints setting table (pEP). */
 825:Generated_Source\PSoC5/USBFS_std.c ****         pEP = (const T_USBFS_EP_SETTINGS_BLOCK CYCODE *) pTmp->p_list;
 826:Generated_Source\PSoC5/USBFS_std.c ****         
 827:Generated_Source\PSoC5/USBFS_std.c ****         /* Look through all possible endpoint configurations. Find endpoints 
 828:Generated_Source\PSoC5/USBFS_std.c ****         * which belong to current interface and alternate settings for 
 829:Generated_Source\PSoC5/USBFS_std.c ****         * re-configuration.
 830:Generated_Source\PSoC5/USBFS_std.c ****         */
 831:Generated_Source\PSoC5/USBFS_std.c ****         interfaceNum = USBFS_interfaceNumber;
 832:Generated_Source\PSoC5/USBFS_std.c ****         for (i = 0u; i < ep; i++)
 833:Generated_Source\PSoC5/USBFS_std.c ****         {
 834:Generated_Source\PSoC5/USBFS_std.c ****             /* Find endpoints which belong to current interface and alternate settings. */
 835:Generated_Source\PSoC5/USBFS_std.c ****             if ((interfaceNum == pEP->interface) && 
 836:Generated_Source\PSoC5/USBFS_std.c ****                 (USBFS_interfaceSetting[interfaceNum] == pEP->altSetting))
 837:Generated_Source\PSoC5/USBFS_std.c ****             {
 838:Generated_Source\PSoC5/USBFS_std.c ****                 curEp  = ((uint8) pEP->addr & USBFS_DIR_UNUSED);
 839:Generated_Source\PSoC5/USBFS_std.c ****                 epType = ((uint8) pEP->attributes & USBFS_EP_TYPE_MASK);
 840:Generated_Source\PSoC5/USBFS_std.c ****                 
 841:Generated_Source\PSoC5/USBFS_std.c ****                 /* Change the SIE mode for the selected EP to NAK ALL */
 842:Generated_Source\PSoC5/USBFS_std.c ****                 USBFS_EP[curEp].epToggle   = 0u;
 843:Generated_Source\PSoC5/USBFS_std.c ****                 USBFS_EP[curEp].addr       = pEP->addr;
 844:Generated_Source\PSoC5/USBFS_std.c ****                 USBFS_EP[curEp].attrib     = pEP->attributes;
 845:Generated_Source\PSoC5/USBFS_std.c ****                 USBFS_EP[curEp].bufferSize = pEP->bufferSize;
 846:Generated_Source\PSoC5/USBFS_std.c **** 
 847:Generated_Source\PSoC5/USBFS_std.c ****                 if (0u != (pEP->addr & USBFS_DIR_IN))
 848:Generated_Source\PSoC5/USBFS_std.c ****                 {
 849:Generated_Source\PSoC5/USBFS_std.c ****                     /* IN Endpoint */
 850:Generated_Source\PSoC5/USBFS_std.c ****                     USBFS_EP[curEp].epMode     = USBFS_GET_ACTIVE_IN_EP_CR0_MODE(epType);
 851:Generated_Source\PSoC5/USBFS_std.c ****                     USBFS_EP[curEp].apiEpState = USBFS_EVENT_PENDING;
 852:Generated_Source\PSoC5/USBFS_std.c ****                 }
 853:Generated_Source\PSoC5/USBFS_std.c ****                 else
 854:Generated_Source\PSoC5/USBFS_std.c ****                 {
 855:Generated_Source\PSoC5/USBFS_std.c ****                     /* OUT Endpoint */
 856:Generated_Source\PSoC5/USBFS_std.c ****                     USBFS_EP[curEp].epMode     = USBFS_GET_ACTIVE_OUT_EP_CR0_MODE(epType);
 857:Generated_Source\PSoC5/USBFS_std.c ****                     USBFS_EP[curEp].apiEpState = USBFS_NO_EVENT_PENDING;
 858:Generated_Source\PSoC5/USBFS_std.c ****                 }
 859:Generated_Source\PSoC5/USBFS_std.c ****                 
 860:Generated_Source\PSoC5/USBFS_std.c ****                 /* Make SIE to NAK any endpoint requests */
 861:Generated_Source\PSoC5/USBFS_std.c ****                 USBFS_SIE_EP_BASE.sieEp[curEp].epCr0 = USBFS_MODE_NAK_IN_OUT;
 862:Generated_Source\PSoC5/USBFS_std.c **** 
 863:Generated_Source\PSoC5/USBFS_std.c ****             #if (USBFS_EP_MANAGEMENT_DMA_AUTO)
 864:Generated_Source\PSoC5/USBFS_std.c ****                 /* Clear IN data ready. */
 865:Generated_Source\PSoC5/USBFS_std.c ****                 USBFS_ARB_EP_BASE.arbEp[curEp].epCfg &= (uint8) ~USBFS_ARB_EPX_CFG_IN_DATA_RDY;
 866:Generated_Source\PSoC5/USBFS_std.c **** 
 867:Generated_Source\PSoC5/USBFS_std.c ****                 /* Select endpoint number of reconfiguration */
 868:Generated_Source\PSoC5/USBFS_std.c ****                 USBFS_DYN_RECONFIG_REG = (uint8) ((curEp - 1u) << USBFS_DYN_RECONFIG_EP_SHIFT);
 869:Generated_Source\PSoC5/USBFS_std.c ****                 
 870:Generated_Source\PSoC5/USBFS_std.c ****                 /* Request for dynamic re-configuration of endpoint. */
 871:Generated_Source\PSoC5/USBFS_std.c ****                 USBFS_DYN_RECONFIG_REG |= USBFS_DYN_RECONFIG_ENABLE;
 872:Generated_Source\PSoC5/USBFS_std.c ****                 
 873:Generated_Source\PSoC5/USBFS_std.c ****                 /* Wait until block is ready for re-configuration */
 874:Generated_Source\PSoC5/USBFS_std.c ****                 while (0u == (USBFS_DYN_RECONFIG_REG & USBFS_DYN_RECONFIG_RDY_STS))
 875:Generated_Source\PSoC5/USBFS_std.c ****                 {
ARM GAS  C:\Users\CALEBC~1\AppData\Local\Temp\ccBuh6Ys.s 			page 22


 876:Generated_Source\PSoC5/USBFS_std.c ****                 }
 877:Generated_Source\PSoC5/USBFS_std.c ****                 
 878:Generated_Source\PSoC5/USBFS_std.c ****                 /* Once DYN_RECONFIG_RDY_STS bit is set, FW can change the EP configuration. */
 879:Generated_Source\PSoC5/USBFS_std.c ****                 /* Change EP Type with new direction */
 880:Generated_Source\PSoC5/USBFS_std.c ****                 if (0u != (pEP->addr & USBFS_DIR_IN))
 881:Generated_Source\PSoC5/USBFS_std.c ****                 {
 882:Generated_Source\PSoC5/USBFS_std.c ****                     /* Set endpoint type: 0 - IN and 1 - OUT. */
 883:Generated_Source\PSoC5/USBFS_std.c ****                     USBFS_EP_TYPE_REG &= (uint8) ~(uint8)((uint8) 0x01u << (curEp - 1u));
 884:Generated_Source\PSoC5/USBFS_std.c ****                     
 885:Generated_Source\PSoC5/USBFS_std.c ****                 #if (CY_PSOC4)
 886:Generated_Source\PSoC5/USBFS_std.c ****                     /* Clear DMA_TERMIN for IN endpoint */
 887:Generated_Source\PSoC5/USBFS_std.c ****                     USBFS_ARB_EP_BASE.arbEp[curEp].epIntEn &= (uint32) ~USBFS_ARB_EPX_INT_DMA_TERMI
 888:Generated_Source\PSoC5/USBFS_std.c ****                 #endif /* (CY_PSOC4) */
 889:Generated_Source\PSoC5/USBFS_std.c ****                 }
 890:Generated_Source\PSoC5/USBFS_std.c ****                 else
 891:Generated_Source\PSoC5/USBFS_std.c ****                 {
 892:Generated_Source\PSoC5/USBFS_std.c ****                     /* Set endpoint type: 0 - IN and 1- OUT. */
 893:Generated_Source\PSoC5/USBFS_std.c ****                     USBFS_EP_TYPE_REG |= (uint8) ((uint8) 0x01u << (curEp - 1u));
 894:Generated_Source\PSoC5/USBFS_std.c ****                     
 895:Generated_Source\PSoC5/USBFS_std.c ****                 #if (CY_PSOC4)
 896:Generated_Source\PSoC5/USBFS_std.c ****                     /* Set DMA_TERMIN for OUT endpoint */
 897:Generated_Source\PSoC5/USBFS_std.c ****                     USBFS_ARB_EP_BASE.arbEp[curEp].epIntEn |= (uint32) USBFS_ARB_EPX_INT_DMA_TERMIN
 898:Generated_Source\PSoC5/USBFS_std.c ****                 #endif /* (CY_PSOC4) */
 899:Generated_Source\PSoC5/USBFS_std.c ****                 }
 900:Generated_Source\PSoC5/USBFS_std.c ****                 
 901:Generated_Source\PSoC5/USBFS_std.c ****                 /* Complete dynamic re-configuration: all endpoint related status and signals 
 902:Generated_Source\PSoC5/USBFS_std.c ****                 * are set into the default state.
 903:Generated_Source\PSoC5/USBFS_std.c ****                 */
 904:Generated_Source\PSoC5/USBFS_std.c ****                 USBFS_DYN_RECONFIG_REG &= (uint8) ~USBFS_DYN_RECONFIG_ENABLE;
 905:Generated_Source\PSoC5/USBFS_std.c **** 
 906:Generated_Source\PSoC5/USBFS_std.c ****             #else
 907:Generated_Source\PSoC5/USBFS_std.c ****                 USBFS_SIE_EP_BASE.sieEp[curEp].epCnt0 = HI8(USBFS_EP[curEp].bufferSize);
 908:Generated_Source\PSoC5/USBFS_std.c ****                 USBFS_SIE_EP_BASE.sieEp[curEp].epCnt1 = LO8(USBFS_EP[curEp].bufferSize);
 909:Generated_Source\PSoC5/USBFS_std.c ****                 
 910:Generated_Source\PSoC5/USBFS_std.c ****                 #if (CY_PSOC4)
 911:Generated_Source\PSoC5/USBFS_std.c ****                     USBFS_ARB_EP16_BASE.arbEp[curEp].rwRa16  = (uint32) USBFS_EP[curEp].buffOffset;
 912:Generated_Source\PSoC5/USBFS_std.c ****                     USBFS_ARB_EP16_BASE.arbEp[curEp].rwWa16  = (uint32) USBFS_EP[curEp].buffOffset;
 913:Generated_Source\PSoC5/USBFS_std.c ****                 #else
 914:Generated_Source\PSoC5/USBFS_std.c ****                     USBFS_ARB_EP_BASE.arbEp[curEp].rwRa    = LO8(USBFS_EP[curEp].buffOffset);
 915:Generated_Source\PSoC5/USBFS_std.c ****                     USBFS_ARB_EP_BASE.arbEp[curEp].rwRaMsb = HI8(USBFS_EP[curEp].buffOffset);
 916:Generated_Source\PSoC5/USBFS_std.c ****                     USBFS_ARB_EP_BASE.arbEp[curEp].rwWa    = LO8(USBFS_EP[curEp].buffOffset);
 917:Generated_Source\PSoC5/USBFS_std.c ****                     USBFS_ARB_EP_BASE.arbEp[curEp].rwWaMsb = HI8(USBFS_EP[curEp].buffOffset);
 918:Generated_Source\PSoC5/USBFS_std.c ****                 #endif /* (CY_PSOC4) */                
 919:Generated_Source\PSoC5/USBFS_std.c ****             #endif /* (USBFS_EP_MANAGEMENT_DMA_AUTO) */
 920:Generated_Source\PSoC5/USBFS_std.c ****             }
 921:Generated_Source\PSoC5/USBFS_std.c ****             
 922:Generated_Source\PSoC5/USBFS_std.c ****             pEP = &pEP[1u]; /* Get next EP element */
 923:Generated_Source\PSoC5/USBFS_std.c ****         }
 924:Generated_Source\PSoC5/USBFS_std.c ****         
 925:Generated_Source\PSoC5/USBFS_std.c ****         /* The main loop has to re-enable DMA and OUT endpoint */
 926:Generated_Source\PSoC5/USBFS_std.c ****     }
 927:Generated_Source\PSoC5/USBFS_std.c **** }
 928:Generated_Source\PSoC5/USBFS_std.c **** 
 929:Generated_Source\PSoC5/USBFS_std.c **** 
 930:Generated_Source\PSoC5/USBFS_std.c **** /*******************************************************************************
 931:Generated_Source\PSoC5/USBFS_std.c **** * Function Name: USBFS_GetConfigTablePtr
 932:Generated_Source\PSoC5/USBFS_std.c **** ****************************************************************************//**
ARM GAS  C:\Users\CALEBC~1\AppData\Local\Temp\ccBuh6Ys.s 			page 23


 933:Generated_Source\PSoC5/USBFS_std.c **** *
 934:Generated_Source\PSoC5/USBFS_std.c **** *  This routine returns a pointer a configuration table entry
 935:Generated_Source\PSoC5/USBFS_std.c **** *
 936:Generated_Source\PSoC5/USBFS_std.c **** *  \param confIndex:  Configuration Index
 937:Generated_Source\PSoC5/USBFS_std.c **** *
 938:Generated_Source\PSoC5/USBFS_std.c **** * \return
 939:Generated_Source\PSoC5/USBFS_std.c **** *  Device Descriptor pointer or NULL when descriptor does not exist.
 940:Generated_Source\PSoC5/USBFS_std.c **** *
 941:Generated_Source\PSoC5/USBFS_std.c **** *******************************************************************************/
 942:Generated_Source\PSoC5/USBFS_std.c **** const T_USBFS_LUT CYCODE *USBFS_GetConfigTablePtr(uint8 confIndex)
 943:Generated_Source\PSoC5/USBFS_std.c ****                                                         
 944:Generated_Source\PSoC5/USBFS_std.c **** {
 316              		.loc 1 944 0
 317              		.cfi_startproc
 318              		@ args = 0, pretend = 0, frame = 0
 319              		@ frame_needed = 0, uses_anonymous_args = 0
 320              		@ link register save eliminated.
 321              	.LVL20:
 945:Generated_Source\PSoC5/USBFS_std.c ****     /* Device Table */
 946:Generated_Source\PSoC5/USBFS_std.c ****     const T_USBFS_LUT CYCODE *pTmp;
 947:Generated_Source\PSoC5/USBFS_std.c **** 
 948:Generated_Source\PSoC5/USBFS_std.c ****     pTmp = (const T_USBFS_LUT CYCODE *) USBFS_TABLE[USBFS_device].p_list;
 322              		.loc 1 948 0
 323 0000 074B     		ldr	r3, .L27
 324 0002 1A78     		ldrb	r2, [r3]	@ zero_extendqisi2
 325 0004 074B     		ldr	r3, .L27+4
 326 0006 03EBC203 		add	r3, r3, r2, lsl #3
 327 000a 5B68     		ldr	r3, [r3, #4]
 328              	.LVL21:
 949:Generated_Source\PSoC5/USBFS_std.c **** 
 950:Generated_Source\PSoC5/USBFS_std.c ****     /* The first entry points to the Device Descriptor,
 951:Generated_Source\PSoC5/USBFS_std.c ****     *  the second entry point to the BOS Descriptor
 952:Generated_Source\PSoC5/USBFS_std.c ****     *  the rest configuration entries.
 953:Generated_Source\PSoC5/USBFS_std.c ****     *  Set pointer to the first Configuration Descriptor
 954:Generated_Source\PSoC5/USBFS_std.c ****     */
 955:Generated_Source\PSoC5/USBFS_std.c ****     pTmp = &pTmp[2u];
 956:Generated_Source\PSoC5/USBFS_std.c ****     /* For this table, c is the number of configuration descriptors  */
 957:Generated_Source\PSoC5/USBFS_std.c ****     if(confIndex >= pTmp->c)   /* Verify that required configuration descriptor exists */
 329              		.loc 1 957 0
 330 000c 1A7C     		ldrb	r2, [r3, #16]	@ zero_extendqisi2
 331 000e 8242     		cmp	r2, r0
 332 0010 04D9     		bls	.L26
 958:Generated_Source\PSoC5/USBFS_std.c ****     {
 959:Generated_Source\PSoC5/USBFS_std.c ****         pTmp = (const T_USBFS_LUT CYCODE *) NULL;
 960:Generated_Source\PSoC5/USBFS_std.c ****     }
 961:Generated_Source\PSoC5/USBFS_std.c ****     else
 962:Generated_Source\PSoC5/USBFS_std.c ****     {
 963:Generated_Source\PSoC5/USBFS_std.c ****         pTmp = (const T_USBFS_LUT CYCODE *) pTmp[confIndex].p_list;
 333              		.loc 1 963 0
 334 0012 C000     		lsls	r0, r0, #3
 335              	.LVL22:
 336 0014 1030     		adds	r0, r0, #16
 337 0016 1844     		add	r0, r0, r3
 338 0018 4068     		ldr	r0, [r0, #4]
 339              	.LVL23:
 340 001a 7047     		bx	lr
 341              	.LVL24:
ARM GAS  C:\Users\CALEBC~1\AppData\Local\Temp\ccBuh6Ys.s 			page 24


 342              	.L26:
 959:Generated_Source\PSoC5/USBFS_std.c ****     }
 343              		.loc 1 959 0
 344 001c 0020     		movs	r0, #0
 345              	.LVL25:
 964:Generated_Source\PSoC5/USBFS_std.c ****     }
 965:Generated_Source\PSoC5/USBFS_std.c **** 
 966:Generated_Source\PSoC5/USBFS_std.c ****     return (pTmp);
 967:Generated_Source\PSoC5/USBFS_std.c **** }
 346              		.loc 1 967 0
 347 001e 7047     		bx	lr
 348              	.L28:
 349              		.align	2
 350              	.L27:
 351 0020 00000000 		.word	USBFS_device
 352 0024 00000000 		.word	USBFS_TABLE
 353              		.cfi_endproc
 354              	.LFE6:
 355              		.size	USBFS_GetConfigTablePtr, .-USBFS_GetConfigTablePtr
 356              		.section	.text.USBFS_ConfigAltChanged,"ax",%progbits
 357              		.align	2
 358              		.global	USBFS_ConfigAltChanged
 359              		.thumb
 360              		.thumb_func
 361              		.type	USBFS_ConfigAltChanged, %function
 362              	USBFS_ConfigAltChanged:
 363              	.LFB5:
 806:Generated_Source\PSoC5/USBFS_std.c ****     uint8 ep;
 364              		.loc 1 806 0
 365              		.cfi_startproc
 366              		@ args = 0, pretend = 0, frame = 0
 367              		@ frame_needed = 0, uses_anonymous_args = 0
 368 0000 F8B5     		push	{r3, r4, r5, r6, r7, lr}
 369              		.cfi_def_cfa_offset 24
 370              		.cfi_offset 3, -24
 371              		.cfi_offset 4, -20
 372              		.cfi_offset 5, -16
 373              		.cfi_offset 6, -12
 374              		.cfi_offset 7, -8
 375              		.cfi_offset 14, -4
 817:Generated_Source\PSoC5/USBFS_std.c ****     {
 376              		.loc 1 817 0
 377 0002 404B     		ldr	r3, .L41
 378 0004 1B78     		ldrb	r3, [r3]	@ zero_extendqisi2
 379 0006 13F0FF0F 		tst	r3, #255
 380 000a 79D0     		beq	.L29
 820:Generated_Source\PSoC5/USBFS_std.c ****         pTmp = &pTmp[1u];
 381              		.loc 1 820 0
 382 000c 3D4B     		ldr	r3, .L41
 383 000e 1878     		ldrb	r0, [r3]	@ zero_extendqisi2
 384 0010 0138     		subs	r0, r0, #1
 385 0012 C0B2     		uxtb	r0, r0
 386 0014 FFF7FEFF 		bl	USBFS_GetConfigTablePtr
 387              	.LVL26:
 822:Generated_Source\PSoC5/USBFS_std.c **** 
 388              		.loc 1 822 0
 389 0018 047A     		ldrb	r4, [r0, #8]	@ zero_extendqisi2
ARM GAS  C:\Users\CALEBC~1\AppData\Local\Temp\ccBuh6Ys.s 			page 25


 390              	.LVL27:
 825:Generated_Source\PSoC5/USBFS_std.c ****         
 391              		.loc 1 825 0
 392 001a C268     		ldr	r2, [r0, #12]
 393              	.LVL28:
 831:Generated_Source\PSoC5/USBFS_std.c ****         for (i = 0u; i < ep; i++)
 394              		.loc 1 831 0
 395 001c 3A4B     		ldr	r3, .L41+4
 396 001e 1878     		ldrb	r0, [r3]	@ zero_extendqisi2
 397              	.LVL29:
 398 0020 C0B2     		uxtb	r0, r0
 399              	.LVL30:
 832:Generated_Source\PSoC5/USBFS_std.c ****         {
 400              		.loc 1 832 0
 401 0022 0023     		movs	r3, #0
 402 0024 6AE0     		b	.L31
 403              	.LVL31:
 404              	.L37:
 835:Generated_Source\PSoC5/USBFS_std.c ****                 (USBFS_interfaceSetting[interfaceNum] == pEP->altSetting))
 405              		.loc 1 835 0
 406 0026 1178     		ldrb	r1, [r2]	@ zero_extendqisi2
 407 0028 8842     		cmp	r0, r1
 408 002a 64D1     		bne	.L32
 836:Generated_Source\PSoC5/USBFS_std.c ****             {
 409              		.loc 1 836 0 discriminator 1
 410 002c 3749     		ldr	r1, .L41+8
 411 002e 095C     		ldrb	r1, [r1, r0]	@ zero_extendqisi2
 412 0030 C9B2     		uxtb	r1, r1
 413 0032 5578     		ldrb	r5, [r2, #1]	@ zero_extendqisi2
 835:Generated_Source\PSoC5/USBFS_std.c ****                 (USBFS_interfaceSetting[interfaceNum] == pEP->altSetting))
 414              		.loc 1 835 0 discriminator 1
 415 0034 A942     		cmp	r1, r5
 416 0036 5ED1     		bne	.L32
 838:Generated_Source\PSoC5/USBFS_std.c ****                 epType = ((uint8) pEP->attributes & USBFS_EP_TYPE_MASK);
 417              		.loc 1 838 0
 418 0038 9178     		ldrb	r1, [r2, #2]	@ zero_extendqisi2
 419 003a 01F07F01 		and	r1, r1, #127
 420              	.LVL32:
 839:Generated_Source\PSoC5/USBFS_std.c ****                 
 421              		.loc 1 839 0
 422 003e D678     		ldrb	r6, [r2, #3]	@ zero_extendqisi2
 423 0040 06F00306 		and	r6, r6, #3
 424              	.LVL33:
 842:Generated_Source\PSoC5/USBFS_std.c ****                 USBFS_EP[curEp].addr       = pEP->addr;
 425              		.loc 1 842 0
 426 0044 DFF8C8E0 		ldr	lr, .L41+12
 427 0048 4D00     		lsls	r5, r1, #1
 428 004a 0D44     		add	r5, r5, r1
 429 004c AF00     		lsls	r7, r5, #2
 430 004e 0EEB0705 		add	r5, lr, r7
 431 0052 4FF0000C 		mov	ip, #0
 432 0056 85F803C0 		strb	ip, [r5, #3]
 843:Generated_Source\PSoC5/USBFS_std.c ****                 USBFS_EP[curEp].attrib     = pEP->attributes;
 433              		.loc 1 843 0
 434 005a 92F802C0 		ldrb	ip, [r2, #2]	@ zero_extendqisi2
 435 005e 85F804C0 		strb	ip, [r5, #4]
 844:Generated_Source\PSoC5/USBFS_std.c ****                 USBFS_EP[curEp].bufferSize = pEP->bufferSize;
ARM GAS  C:\Users\CALEBC~1\AppData\Local\Temp\ccBuh6Ys.s 			page 26


 436              		.loc 1 844 0
 437 0062 92F803C0 		ldrb	ip, [r2, #3]	@ zero_extendqisi2
 438 0066 0EF807C0 		strb	ip, [lr, r7]
 845:Generated_Source\PSoC5/USBFS_std.c **** 
 439              		.loc 1 845 0
 440 006a 9788     		ldrh	r7, [r2, #4]
 441 006c 2F81     		strh	r7, [r5, #8]	@ movhi
 847:Generated_Source\PSoC5/USBFS_std.c ****                 {
 442              		.loc 1 847 0
 443 006e 92F90250 		ldrsb	r5, [r2, #2]
 444 0072 002D     		cmp	r5, #0
 445 0074 0DDA     		bge	.L33
 850:Generated_Source\PSoC5/USBFS_std.c ****                     USBFS_EP[curEp].apiEpState = USBFS_EVENT_PENDING;
 446              		.loc 1 850 0
 447 0076 012E     		cmp	r6, #1
 448 0078 01D1     		bne	.L38
 449 007a 0727     		movs	r7, #7
 450 007c 00E0     		b	.L34
 451              	.L38:
 452 007e 0D27     		movs	r7, #13
 453              	.L34:
 850:Generated_Source\PSoC5/USBFS_std.c ****                     USBFS_EP[curEp].apiEpState = USBFS_EVENT_PENDING;
 454              		.loc 1 850 0 is_stmt 0 discriminator 4
 455 0080 4E00     		lsls	r6, r1, #1
 456              	.LVL34:
 457 0082 0E44     		add	r6, r6, r1
 458 0084 B500     		lsls	r5, r6, #2
 459 0086 224E     		ldr	r6, .L41+12
 460 0088 3544     		add	r5, r5, r6
 461 008a 6F71     		strb	r7, [r5, #5]
 851:Generated_Source\PSoC5/USBFS_std.c ****                 }
 462              		.loc 1 851 0 is_stmt 1 discriminator 4
 463 008c 0126     		movs	r6, #1
 464 008e 6E70     		strb	r6, [r5, #1]
 465 0090 0CE0     		b	.L35
 466              	.LVL35:
 467              	.L33:
 856:Generated_Source\PSoC5/USBFS_std.c ****                     USBFS_EP[curEp].apiEpState = USBFS_NO_EVENT_PENDING;
 468              		.loc 1 856 0
 469 0092 012E     		cmp	r6, #1
 470 0094 01D1     		bne	.L39
 471 0096 0527     		movs	r7, #5
 472 0098 00E0     		b	.L36
 473              	.L39:
 474 009a 0927     		movs	r7, #9
 475              	.L36:
 856:Generated_Source\PSoC5/USBFS_std.c ****                     USBFS_EP[curEp].apiEpState = USBFS_NO_EVENT_PENDING;
 476              		.loc 1 856 0 is_stmt 0 discriminator 4
 477 009c 4E00     		lsls	r6, r1, #1
 478              	.LVL36:
 479 009e 0E44     		add	r6, r6, r1
 480 00a0 B500     		lsls	r5, r6, #2
 481 00a2 1B4E     		ldr	r6, .L41+12
 482 00a4 3544     		add	r5, r5, r6
 483 00a6 6F71     		strb	r7, [r5, #5]
 857:Generated_Source\PSoC5/USBFS_std.c ****                 }
 484              		.loc 1 857 0 is_stmt 1 discriminator 4
ARM GAS  C:\Users\CALEBC~1\AppData\Local\Temp\ccBuh6Ys.s 			page 27


 485 00a8 0026     		movs	r6, #0
 486 00aa 6E70     		strb	r6, [r5, #1]
 487              	.L35:
 861:Generated_Source\PSoC5/USBFS_std.c **** 
 488              		.loc 1 861 0
 489 00ac DFF868E0 		ldr	lr, .L41+20
 490 00b0 0F01     		lsls	r7, r1, #4
 491 00b2 0EEB0706 		add	r6, lr, r7
 492 00b6 0125     		movs	r5, #1
 493 00b8 B570     		strb	r5, [r6, #2]
 907:Generated_Source\PSoC5/USBFS_std.c ****                 USBFS_SIE_EP_BASE.sieEp[curEp].epCnt1 = LO8(USBFS_EP[curEp].bufferSize);
 494              		.loc 1 907 0
 495 00ba 01FA05F5 		lsl	r5, r1, r5
 496 00be 2944     		add	r1, r1, r5
 497              	.LVL37:
 498 00c0 8D00     		lsls	r5, r1, #2
 499 00c2 1349     		ldr	r1, .L41+12
 500 00c4 2944     		add	r1, r1, r5
 501 00c6 0D89     		ldrh	r5, [r1, #8]
 502 00c8 C5F30725 		ubfx	r5, r5, #8, #8
 503 00cc 0EF80750 		strb	r5, [lr, r7]
 908:Generated_Source\PSoC5/USBFS_std.c ****                 
 504              		.loc 1 908 0
 505 00d0 0D89     		ldrh	r5, [r1, #8]
 506 00d2 EDB2     		uxtb	r5, r5
 507 00d4 7570     		strb	r5, [r6, #1]
 914:Generated_Source\PSoC5/USBFS_std.c ****                     USBFS_ARB_EP_BASE.arbEp[curEp].rwRaMsb = HI8(USBFS_EP[curEp].buffOffset);
 508              		.loc 1 914 0
 509 00d6 CE88     		ldrh	r6, [r1, #6]
 510 00d8 F6B2     		uxtb	r6, r6
 511 00da 0E4D     		ldr	r5, .L41+16
 512 00dc 3D44     		add	r5, r5, r7
 513 00de AE71     		strb	r6, [r5, #6]
 915:Generated_Source\PSoC5/USBFS_std.c ****                     USBFS_ARB_EP_BASE.arbEp[curEp].rwWa    = LO8(USBFS_EP[curEp].buffOffset);
 514              		.loc 1 915 0
 515 00e0 CE88     		ldrh	r6, [r1, #6]
 516 00e2 C6F30726 		ubfx	r6, r6, #8, #8
 517 00e6 EE71     		strb	r6, [r5, #7]
 916:Generated_Source\PSoC5/USBFS_std.c ****                     USBFS_ARB_EP_BASE.arbEp[curEp].rwWaMsb = HI8(USBFS_EP[curEp].buffOffset);
 518              		.loc 1 916 0
 519 00e8 CE88     		ldrh	r6, [r1, #6]
 520 00ea F6B2     		uxtb	r6, r6
 521 00ec 2E71     		strb	r6, [r5, #4]
 917:Generated_Source\PSoC5/USBFS_std.c ****                 #endif /* (CY_PSOC4) */                
 522              		.loc 1 917 0
 523 00ee C988     		ldrh	r1, [r1, #6]
 524 00f0 C1F30721 		ubfx	r1, r1, #8, #8
 525 00f4 6971     		strb	r1, [r5, #5]
 526              	.L32:
 922:Generated_Source\PSoC5/USBFS_std.c ****         }
 527              		.loc 1 922 0 discriminator 2
 528 00f6 0832     		adds	r2, r2, #8
 529              	.LVL38:
 832:Generated_Source\PSoC5/USBFS_std.c ****         {
 530              		.loc 1 832 0 discriminator 2
 531 00f8 0133     		adds	r3, r3, #1
 532              	.LVL39:
ARM GAS  C:\Users\CALEBC~1\AppData\Local\Temp\ccBuh6Ys.s 			page 28


 533 00fa DBB2     		uxtb	r3, r3
 534              	.LVL40:
 535              	.L31:
 832:Generated_Source\PSoC5/USBFS_std.c ****         {
 536              		.loc 1 832 0 is_stmt 0 discriminator 1
 537 00fc A342     		cmp	r3, r4
 538 00fe 92D3     		bcc	.L37
 539              	.LVL41:
 540              	.L29:
 541 0100 F8BD     		pop	{r3, r4, r5, r6, r7, pc}
 542              	.L42:
 543 0102 00BF     		.align	2
 544              	.L41:
 545 0104 00000000 		.word	USBFS_configuration
 546 0108 00000000 		.word	USBFS_interfaceNumber
 547 010c 00000000 		.word	USBFS_interfaceSetting
 548 0110 00000000 		.word	USBFS_EP
 549 0114 70600040 		.word	1073766512
 550 0118 FC5F0040 		.word	1073766396
 551              		.cfi_endproc
 552              	.LFE5:
 553              		.size	USBFS_ConfigAltChanged, .-USBFS_ConfigAltChanged
 554              		.section	.text.USBFS_GetDeviceTablePtr,"ax",%progbits
 555              		.align	2
 556              		.global	USBFS_GetDeviceTablePtr
 557              		.thumb
 558              		.thumb_func
 559              		.type	USBFS_GetDeviceTablePtr, %function
 560              	USBFS_GetDeviceTablePtr:
 561              	.LFB7:
 968:Generated_Source\PSoC5/USBFS_std.c **** 
 969:Generated_Source\PSoC5/USBFS_std.c **** 
 970:Generated_Source\PSoC5/USBFS_std.c **** #if (USBFS_BOS_ENABLE)
 971:Generated_Source\PSoC5/USBFS_std.c ****     /*******************************************************************************
 972:Generated_Source\PSoC5/USBFS_std.c ****     * Function Name: USBFS_GetBOSPtr
 973:Generated_Source\PSoC5/USBFS_std.c ****     ****************************************************************************//**
 974:Generated_Source\PSoC5/USBFS_std.c ****     *
 975:Generated_Source\PSoC5/USBFS_std.c ****     *  This routine returns a pointer a BOS table entry
 976:Generated_Source\PSoC5/USBFS_std.c ****     *
 977:Generated_Source\PSoC5/USBFS_std.c ****     *  
 978:Generated_Source\PSoC5/USBFS_std.c ****     *
 979:Generated_Source\PSoC5/USBFS_std.c ****     * \return
 980:Generated_Source\PSoC5/USBFS_std.c ****     *  BOS Descriptor pointer or NULL when descriptor does not exist.
 981:Generated_Source\PSoC5/USBFS_std.c ****     *
 982:Generated_Source\PSoC5/USBFS_std.c ****     *******************************************************************************/
 983:Generated_Source\PSoC5/USBFS_std.c ****     const T_USBFS_LUT CYCODE *USBFS_GetBOSPtr(void)
 984:Generated_Source\PSoC5/USBFS_std.c ****                                                             
 985:Generated_Source\PSoC5/USBFS_std.c ****     {
 986:Generated_Source\PSoC5/USBFS_std.c ****         /* Device Table */
 987:Generated_Source\PSoC5/USBFS_std.c ****         const T_USBFS_LUT CYCODE *pTmp;
 988:Generated_Source\PSoC5/USBFS_std.c **** 
 989:Generated_Source\PSoC5/USBFS_std.c ****         pTmp = (const T_USBFS_LUT CYCODE *) USBFS_TABLE[USBFS_device].p_list;
 990:Generated_Source\PSoC5/USBFS_std.c **** 
 991:Generated_Source\PSoC5/USBFS_std.c ****         /* The first entry points to the Device Descriptor,
 992:Generated_Source\PSoC5/USBFS_std.c ****         *  the second entry points to the BOS Descriptor
 993:Generated_Source\PSoC5/USBFS_std.c ****         */
 994:Generated_Source\PSoC5/USBFS_std.c ****         pTmp = &pTmp[1u];
ARM GAS  C:\Users\CALEBC~1\AppData\Local\Temp\ccBuh6Ys.s 			page 29


 995:Generated_Source\PSoC5/USBFS_std.c ****         pTmp = (const T_USBFS_LUT CYCODE *) pTmp->p_list;
 996:Generated_Source\PSoC5/USBFS_std.c ****         return (pTmp);
 997:Generated_Source\PSoC5/USBFS_std.c ****     }
 998:Generated_Source\PSoC5/USBFS_std.c **** #endif /* (USBFS_BOS_ENABLE) */
 999:Generated_Source\PSoC5/USBFS_std.c **** 
1000:Generated_Source\PSoC5/USBFS_std.c **** 
1001:Generated_Source\PSoC5/USBFS_std.c **** /*******************************************************************************
1002:Generated_Source\PSoC5/USBFS_std.c **** * Function Name: USBFS_GetDeviceTablePtr
1003:Generated_Source\PSoC5/USBFS_std.c **** ****************************************************************************//**
1004:Generated_Source\PSoC5/USBFS_std.c **** *
1005:Generated_Source\PSoC5/USBFS_std.c **** *  This routine returns a pointer to the Device table
1006:Generated_Source\PSoC5/USBFS_std.c **** *
1007:Generated_Source\PSoC5/USBFS_std.c **** * \return
1008:Generated_Source\PSoC5/USBFS_std.c **** *  Device Table pointer
1009:Generated_Source\PSoC5/USBFS_std.c **** *
1010:Generated_Source\PSoC5/USBFS_std.c **** *******************************************************************************/
1011:Generated_Source\PSoC5/USBFS_std.c **** const T_USBFS_LUT CYCODE *USBFS_GetDeviceTablePtr(void)
1012:Generated_Source\PSoC5/USBFS_std.c ****                                                             
1013:Generated_Source\PSoC5/USBFS_std.c **** {
 562              		.loc 1 1013 0 is_stmt 1
 563              		.cfi_startproc
 564              		@ args = 0, pretend = 0, frame = 0
 565              		@ frame_needed = 0, uses_anonymous_args = 0
 566              		@ link register save eliminated.
1014:Generated_Source\PSoC5/USBFS_std.c ****     /* Device Table */
1015:Generated_Source\PSoC5/USBFS_std.c ****     return( (const T_USBFS_LUT CYCODE *) USBFS_TABLE[USBFS_device].p_list );
 567              		.loc 1 1015 0
 568 0000 034B     		ldr	r3, .L44
 569 0002 1A78     		ldrb	r2, [r3]	@ zero_extendqisi2
 570 0004 034B     		ldr	r3, .L44+4
 571 0006 03EBC203 		add	r3, r3, r2, lsl #3
1016:Generated_Source\PSoC5/USBFS_std.c **** }
 572              		.loc 1 1016 0
 573 000a 5868     		ldr	r0, [r3, #4]
 574 000c 7047     		bx	lr
 575              	.L45:
 576 000e 00BF     		.align	2
 577              	.L44:
 578 0010 00000000 		.word	USBFS_device
 579 0014 00000000 		.word	USBFS_TABLE
 580              		.cfi_endproc
 581              	.LFE7:
 582              		.size	USBFS_GetDeviceTablePtr, .-USBFS_GetDeviceTablePtr
 583              		.section	.text.USBFS_GetInterfaceClassTablePtr,"ax",%progbits
 584              		.align	2
 585              		.global	USBFS_GetInterfaceClassTablePtr
 586              		.thumb
 587              		.thumb_func
 588              		.type	USBFS_GetInterfaceClassTablePtr, %function
 589              	USBFS_GetInterfaceClassTablePtr:
 590              	.LFB8:
1017:Generated_Source\PSoC5/USBFS_std.c **** 
1018:Generated_Source\PSoC5/USBFS_std.c **** 
1019:Generated_Source\PSoC5/USBFS_std.c **** /*******************************************************************************
1020:Generated_Source\PSoC5/USBFS_std.c **** * Function Name: USB_GetInterfaceClassTablePtr
1021:Generated_Source\PSoC5/USBFS_std.c **** ****************************************************************************//**
1022:Generated_Source\PSoC5/USBFS_std.c **** *
ARM GAS  C:\Users\CALEBC~1\AppData\Local\Temp\ccBuh6Ys.s 			page 30


1023:Generated_Source\PSoC5/USBFS_std.c **** *  This routine returns Interface Class table pointer, which contains
1024:Generated_Source\PSoC5/USBFS_std.c **** *  the relation between interface number and interface class.
1025:Generated_Source\PSoC5/USBFS_std.c **** *
1026:Generated_Source\PSoC5/USBFS_std.c **** * \return
1027:Generated_Source\PSoC5/USBFS_std.c **** *  Interface Class table pointer.
1028:Generated_Source\PSoC5/USBFS_std.c **** *
1029:Generated_Source\PSoC5/USBFS_std.c **** *******************************************************************************/
1030:Generated_Source\PSoC5/USBFS_std.c **** const uint8 CYCODE *USBFS_GetInterfaceClassTablePtr(void)
1031:Generated_Source\PSoC5/USBFS_std.c ****                                                         
1032:Generated_Source\PSoC5/USBFS_std.c **** {
 591              		.loc 1 1032 0
 592              		.cfi_startproc
 593              		@ args = 0, pretend = 0, frame = 0
 594              		@ frame_needed = 0, uses_anonymous_args = 0
 595 0000 08B5     		push	{r3, lr}
 596              		.cfi_def_cfa_offset 8
 597              		.cfi_offset 3, -8
 598              		.cfi_offset 14, -4
1033:Generated_Source\PSoC5/USBFS_std.c ****     const T_USBFS_LUT CYCODE *pTmp;
1034:Generated_Source\PSoC5/USBFS_std.c ****     const uint8 CYCODE *pInterfaceClass;
1035:Generated_Source\PSoC5/USBFS_std.c ****     uint8 currentInterfacesNum;
1036:Generated_Source\PSoC5/USBFS_std.c **** 
1037:Generated_Source\PSoC5/USBFS_std.c ****     pTmp = USBFS_GetConfigTablePtr(USBFS_configuration - 1u);
 599              		.loc 1 1037 0
 600 0002 084B     		ldr	r3, .L50
 601 0004 1878     		ldrb	r0, [r3]	@ zero_extendqisi2
 602 0006 0138     		subs	r0, r0, #1
 603 0008 C0B2     		uxtb	r0, r0
 604 000a FFF7FEFF 		bl	USBFS_GetConfigTablePtr
 605              	.LVL42:
1038:Generated_Source\PSoC5/USBFS_std.c ****     if (pTmp != NULL)
 606              		.loc 1 1038 0
 607 000e 30B1     		cbz	r0, .L48
1039:Generated_Source\PSoC5/USBFS_std.c ****     {
1040:Generated_Source\PSoC5/USBFS_std.c ****         currentInterfacesNum  = ((const uint8 *) pTmp->p_list)[USBFS_CONFIG_DESCR_NUM_INTERFACES];
 608              		.loc 1 1040 0
 609 0010 4268     		ldr	r2, [r0, #4]
 610 0012 1279     		ldrb	r2, [r2, #4]	@ zero_extendqisi2
 611              	.LVL43:
1041:Generated_Source\PSoC5/USBFS_std.c ****         /* Third entry in the LUT starts the Interface Table pointers */
1042:Generated_Source\PSoC5/USBFS_std.c ****         /* The INTERFACE_CLASS table is located after all interfaces */
1043:Generated_Source\PSoC5/USBFS_std.c ****         pTmp = &pTmp[currentInterfacesNum + 2u];
 612              		.loc 1 1043 0
 613 0014 0232     		adds	r2, r2, #2
 614              	.LVL44:
 615 0016 00EBC203 		add	r3, r0, r2, lsl #3
 616              	.LVL45:
1044:Generated_Source\PSoC5/USBFS_std.c ****         pInterfaceClass = (const uint8 CYCODE *) pTmp->p_list;
 617              		.loc 1 1044 0
 618 001a 5868     		ldr	r0, [r3, #4]
 619              	.LVL46:
 620 001c 08BD     		pop	{r3, pc}
 621              	.LVL47:
 622              	.L48:
1045:Generated_Source\PSoC5/USBFS_std.c ****     }
1046:Generated_Source\PSoC5/USBFS_std.c ****     else
1047:Generated_Source\PSoC5/USBFS_std.c ****     {
ARM GAS  C:\Users\CALEBC~1\AppData\Local\Temp\ccBuh6Ys.s 			page 31


1048:Generated_Source\PSoC5/USBFS_std.c ****         pInterfaceClass = (const uint8 CYCODE *) NULL;
 623              		.loc 1 1048 0
 624 001e 0020     		movs	r0, #0
 625              	.LVL48:
1049:Generated_Source\PSoC5/USBFS_std.c ****     }
1050:Generated_Source\PSoC5/USBFS_std.c **** 
1051:Generated_Source\PSoC5/USBFS_std.c ****     return (pInterfaceClass);
1052:Generated_Source\PSoC5/USBFS_std.c **** }
 626              		.loc 1 1052 0
 627 0020 08BD     		pop	{r3, pc}
 628              	.L51:
 629 0022 00BF     		.align	2
 630              	.L50:
 631 0024 00000000 		.word	USBFS_configuration
 632              		.cfi_endproc
 633              	.LFE8:
 634              		.size	USBFS_GetInterfaceClassTablePtr, .-USBFS_GetInterfaceClassTablePtr
 635              		.section	.text.USBFS_Config,"ax",%progbits
 636              		.align	2
 637              		.global	USBFS_Config
 638              		.thumb
 639              		.thumb_func
 640              		.type	USBFS_Config, %function
 641              	USBFS_Config:
 642              	.LFB4:
 571:Generated_Source\PSoC5/USBFS_std.c ****     uint8 ep;
 643              		.loc 1 571 0
 644              		.cfi_startproc
 645              		@ args = 0, pretend = 0, frame = 0
 646              		@ frame_needed = 0, uses_anonymous_args = 0
 647              	.LVL49:
 648 0000 2DE9F041 		push	{r4, r5, r6, r7, r8, lr}
 649              		.cfi_def_cfa_offset 24
 650              		.cfi_offset 4, -24
 651              		.cfi_offset 5, -20
 652              		.cfi_offset 6, -16
 653              		.cfi_offset 7, -12
 654              		.cfi_offset 8, -8
 655              		.cfi_offset 14, -4
 656              	.LVL50:
 586:Generated_Source\PSoC5/USBFS_std.c ****     {
 657              		.loc 1 586 0
 658 0004 0023     		movs	r3, #0
 659 0006 10E0     		b	.L53
 660              	.LVL51:
 661              	.L54:
 588:Generated_Source\PSoC5/USBFS_std.c ****         USBFS_EP[ep].hwEpState  = 0u;
 662              		.loc 1 588 0 discriminator 3
 663 0008 6A4D     		ldr	r5, .L78
 664 000a 5900     		lsls	r1, r3, #1
 665 000c CA18     		adds	r2, r1, r3
 666 000e 9600     		lsls	r6, r2, #2
 667 0010 AC19     		adds	r4, r5, r6
 668 0012 0022     		movs	r2, #0
 669 0014 AA55     		strb	r2, [r5, r6]
 589:Generated_Source\PSoC5/USBFS_std.c ****         USBFS_EP[ep].epToggle   = 0u;
 670              		.loc 1 589 0 discriminator 3
ARM GAS  C:\Users\CALEBC~1\AppData\Local\Temp\ccBuh6Ys.s 			page 32


 671 0016 A270     		strb	r2, [r4, #2]
 590:Generated_Source\PSoC5/USBFS_std.c ****         USBFS_EP[ep].bufferSize = 0u;
 672              		.loc 1 590 0 discriminator 3
 673 0018 E270     		strb	r2, [r4, #3]
 591:Generated_Source\PSoC5/USBFS_std.c ****         USBFS_EP[ep].interface  = 0u;
 674              		.loc 1 591 0 discriminator 3
 675 001a 2281     		strh	r2, [r4, #8]	@ movhi
 592:Generated_Source\PSoC5/USBFS_std.c ****         USBFS_EP[ep].apiEpState = USBFS_NO_EVENT_PENDING;
 676              		.loc 1 592 0 discriminator 3
 677 001c A272     		strb	r2, [r4, #10]
 593:Generated_Source\PSoC5/USBFS_std.c ****         USBFS_EP[ep].epMode     = USBFS_MODE_DISABLE;   
 678              		.loc 1 593 0 discriminator 3
 679 001e 6270     		strb	r2, [r4, #1]
 594:Generated_Source\PSoC5/USBFS_std.c ****     }
 680              		.loc 1 594 0 discriminator 3
 681 0020 3446     		mov	r4, r6
 682 0022 2C44     		add	r4, r4, r5
 683 0024 6271     		strb	r2, [r4, #5]
 586:Generated_Source\PSoC5/USBFS_std.c ****     {
 684              		.loc 1 586 0 discriminator 3
 685 0026 0133     		adds	r3, r3, #1
 686              	.LVL52:
 687 0028 DBB2     		uxtb	r3, r3
 688              	.LVL53:
 689              	.L53:
 586:Generated_Source\PSoC5/USBFS_std.c ****     {
 690              		.loc 1 586 0 is_stmt 0 discriminator 1
 691 002a 082B     		cmp	r3, #8
 692 002c ECD9     		bls	.L54
 598:Generated_Source\PSoC5/USBFS_std.c ****     {
 693              		.loc 1 598 0 is_stmt 1
 694 002e 40B9     		cbnz	r0, .L74
 695 0030 0AE0     		b	.L56
 696              	.LVL54:
 697              	.L57:
 602:Generated_Source\PSoC5/USBFS_std.c ****             USBFS_interfaceSettingLast[i] = 0u;
 698              		.loc 1 602 0 discriminator 3
 699 0032 0022     		movs	r2, #0
 700 0034 6049     		ldr	r1, .L78+4
 701 0036 CA54     		strb	r2, [r1, r3]
 603:Generated_Source\PSoC5/USBFS_std.c ****         }
 702              		.loc 1 603 0 discriminator 3
 703 0038 6049     		ldr	r1, .L78+8
 704 003a CA54     		strb	r2, [r1, r3]
 600:Generated_Source\PSoC5/USBFS_std.c ****         {
 705              		.loc 1 600 0 discriminator 3
 706 003c 0133     		adds	r3, r3, #1
 707              	.LVL55:
 708 003e DBB2     		uxtb	r3, r3
 709              	.LVL56:
 710 0040 00E0     		b	.L55
 711              	.LVL57:
 712              	.L74:
 713 0042 0023     		movs	r3, #0
 714              	.LVL58:
 715              	.L55:
 600:Generated_Source\PSoC5/USBFS_std.c ****         {
ARM GAS  C:\Users\CALEBC~1\AppData\Local\Temp\ccBuh6Ys.s 			page 33


 716              		.loc 1 600 0 is_stmt 0 discriminator 1
 717 0044 002B     		cmp	r3, #0
 718 0046 F4D0     		beq	.L57
 719              	.LVL59:
 720              	.L56:
 608:Generated_Source\PSoC5/USBFS_std.c ****     {
 721              		.loc 1 608 0 is_stmt 1
 722 0048 5D4B     		ldr	r3, .L78+12
 723 004a 1B78     		ldrb	r3, [r3]	@ zero_extendqisi2
 724 004c 13F0FF0F 		tst	r3, #255
 725 0050 00F0AD80 		beq	.L52
 614:Generated_Source\PSoC5/USBFS_std.c ****         
 726              		.loc 1 614 0
 727 0054 5A4B     		ldr	r3, .L78+12
 728 0056 1878     		ldrb	r0, [r3]	@ zero_extendqisi2
 729              	.LVL60:
 730 0058 0138     		subs	r0, r0, #1
 731 005a C0B2     		uxtb	r0, r0
 732 005c FFF7FEFF 		bl	USBFS_GetConfigTablePtr
 733              	.LVL61:
 617:Generated_Source\PSoC5/USBFS_std.c ****         if ((pDescr[USBFS_CONFIG_DESCR_ATTRIB] & USBFS_CONFIG_DESCR_ATTRIB_SELF_POWERED) != 0u)
 734              		.loc 1 617 0
 735 0060 4368     		ldr	r3, [r0, #4]
 736              	.LVL62:
 618:Generated_Source\PSoC5/USBFS_std.c ****         {
 737              		.loc 1 618 0
 738 0062 DB79     		ldrb	r3, [r3, #7]	@ zero_extendqisi2
 739              	.LVL63:
 740 0064 13F0400F 		tst	r3, #64
 741 0068 05D0     		beq	.L59
 620:Generated_Source\PSoC5/USBFS_std.c ****         }
 742              		.loc 1 620 0
 743 006a 564A     		ldr	r2, .L78+16
 744 006c 1378     		ldrb	r3, [r2]	@ zero_extendqisi2
 745 006e 43F00103 		orr	r3, r3, #1
 746 0072 1370     		strb	r3, [r2]
 747 0074 04E0     		b	.L60
 748              	.L59:
 624:Generated_Source\PSoC5/USBFS_std.c ****         }
 749              		.loc 1 624 0
 750 0076 534A     		ldr	r2, .L78+16
 751 0078 1378     		ldrb	r3, [r2]	@ zero_extendqisi2
 752 007a 03F0FE03 		and	r3, r3, #254
 753 007e 1370     		strb	r3, [r2]
 754              	.L60:
 755              	.LVL64:
 629:Generated_Source\PSoC5/USBFS_std.c **** 
 756              		.loc 1 629 0
 757 0080 057A     		ldrb	r5, [r0, #8]	@ zero_extendqisi2
 758              	.LVL65:
 687:Generated_Source\PSoC5/USBFS_std.c ****             {
 759              		.loc 1 687 0
 760 0082 0124     		movs	r4, #1
 761 0084 64E0     		b	.L61
 762              	.LVL66:
 763              	.L69:
 690:Generated_Source\PSoC5/USBFS_std.c ****                 /* Find max length for each EP and select it (length could be different in differen
ARM GAS  C:\Users\CALEBC~1\AppData\Local\Temp\ccBuh6Ys.s 			page 34


 764              		.loc 1 690 0
 765 0086 C168     		ldr	r1, [r0, #12]
 766              	.LVL67:
 694:Generated_Source\PSoC5/USBFS_std.c ****                 {
 767              		.loc 1 694 0
 768 0088 0023     		movs	r3, #0
 769 008a 5DE0     		b	.L62
 770              	.LVL68:
 771              	.L68:
 696:Generated_Source\PSoC5/USBFS_std.c ****                     {
 772              		.loc 1 696 0
 773 008c 8A78     		ldrb	r2, [r1, #2]	@ zero_extendqisi2
 774 008e 02F07F02 		and	r2, r2, #127
 775 0092 9442     		cmp	r4, r2
 776 0094 55D1     		bne	.L63
 699:Generated_Source\PSoC5/USBFS_std.c ****                         {
 777              		.loc 1 699 0
 778 0096 2646     		mov	r6, r4
 779 0098 04EB4407 		add	r7, r4, r4, lsl #1
 780 009c BA00     		lsls	r2, r7, #2
 781 009e 454F     		ldr	r7, .L78
 782 00a0 3A44     		add	r2, r2, r7
 783 00a2 1289     		ldrh	r2, [r2, #8]
 784 00a4 92B2     		uxth	r2, r2
 785 00a6 8F88     		ldrh	r7, [r1, #4]
 786 00a8 BA42     		cmp	r2, r7
 787 00aa 07D2     		bcs	.L64
 701:Generated_Source\PSoC5/USBFS_std.c ****                         }
 788              		.loc 1 701 0
 789 00ac 04EB440E 		add	lr, r4, r4, lsl #1
 790 00b0 4FEA8E02 		lsl	r2, lr, #2
 791 00b4 DFF8FCE0 		ldr	lr, .L78
 792 00b8 7244     		add	r2, r2, lr
 793 00ba 1781     		strh	r7, [r2, #8]	@ movhi
 794              	.L64:
 705:Generated_Source\PSoC5/USBFS_std.c ****                         {                            
 795              		.loc 1 705 0
 796 00bc 0A78     		ldrb	r2, [r1]	@ zero_extendqisi2
 797 00be 3E4F     		ldr	r7, .L78+4
 798 00c0 BA5C     		ldrb	r2, [r7, r2]	@ zero_extendqisi2
 799 00c2 D2B2     		uxtb	r2, r2
 800 00c4 4F78     		ldrb	r7, [r1, #1]	@ zero_extendqisi2
 801 00c6 BA42     		cmp	r2, r7
 802 00c8 3BD1     		bne	.L63
 707:Generated_Source\PSoC5/USBFS_std.c ****                             USBFS_EP[i].attrib = pEP->attributes;
 803              		.loc 1 707 0
 804 00ca 91F802C0 		ldrb	ip, [r1, #2]	@ zero_extendqisi2
 805 00ce DFF8E4E0 		ldr	lr, .L78
 806 00d2 7200     		lsls	r2, r6, #1
 807 00d4 3244     		add	r2, r2, r6
 808 00d6 9700     		lsls	r7, r2, #2
 809 00d8 0EEB0702 		add	r2, lr, r7
 810 00dc 82F804C0 		strb	ip, [r2, #4]
 708:Generated_Source\PSoC5/USBFS_std.c ****                             
 811              		.loc 1 708 0
 812 00e0 CA78     		ldrb	r2, [r1, #3]	@ zero_extendqisi2
 813 00e2 0EF80720 		strb	r2, [lr, r7]
ARM GAS  C:\Users\CALEBC~1\AppData\Local\Temp\ccBuh6Ys.s 			page 35


 710:Generated_Source\PSoC5/USBFS_std.c ****                             
 814              		.loc 1 710 0
 815 00e6 CA78     		ldrb	r2, [r1, #3]	@ zero_extendqisi2
 816 00e8 02F00302 		and	r2, r2, #3
 817              	.LVL69:
 712:Generated_Source\PSoC5/USBFS_std.c ****                             {
 818              		.loc 1 712 0
 819 00ec 91F90270 		ldrsb	r7, [r1, #2]
 820 00f0 002F     		cmp	r7, #0
 821 00f2 13DA     		bge	.L65
 715:Generated_Source\PSoC5/USBFS_std.c ****                                 USBFS_EP[i].apiEpState = USBFS_EVENT_PENDING;
 822              		.loc 1 715 0
 823 00f4 012A     		cmp	r2, #1
 824 00f6 02D1     		bne	.L75
 825 00f8 4FF00708 		mov	r8, #7
 826 00fc 01E0     		b	.L66
 827              	.L75:
 828 00fe 4FF00D08 		mov	r8, #13
 829              	.L66:
 715:Generated_Source\PSoC5/USBFS_std.c ****                                 USBFS_EP[i].apiEpState = USBFS_EVENT_PENDING;
 830              		.loc 1 715 0 is_stmt 0 discriminator 4
 831 0102 DFF8B0E0 		ldr	lr, .L78
 832 0106 7200     		lsls	r2, r6, #1
 833              	.LVL70:
 834 0108 02EB060C 		add	ip, r2, r6
 835 010c 4FEA8C07 		lsl	r7, ip, #2
 836 0110 7744     		add	r7, r7, lr
 837 0112 87F80580 		strb	r8, [r7, #5]
 838              	.LVL71:
 716:Generated_Source\PSoC5/USBFS_std.c ****                                 
 839              		.loc 1 716 0 is_stmt 1 discriminator 4
 840 0116 0126     		movs	r6, #1
 841 0118 7E70     		strb	r6, [r7, #1]
 842 011a 12E0     		b	.L63
 843              	.LVL72:
 844              	.L65:
 728:Generated_Source\PSoC5/USBFS_std.c ****                                 USBFS_EP[i].apiEpState = USBFS_NO_EVENT_PENDING;
 845              		.loc 1 728 0
 846 011c 012A     		cmp	r2, #1
 847 011e 02D1     		bne	.L76
 848 0120 4FF00508 		mov	r8, #5
 849 0124 01E0     		b	.L67
 850              	.L76:
 851 0126 4FF00908 		mov	r8, #9
 852              	.L67:
 728:Generated_Source\PSoC5/USBFS_std.c ****                                 USBFS_EP[i].apiEpState = USBFS_NO_EVENT_PENDING;
 853              		.loc 1 728 0 is_stmt 0 discriminator 4
 854 012a DFF888E0 		ldr	lr, .L78
 855 012e 7200     		lsls	r2, r6, #1
 856              	.LVL73:
 857 0130 02EB060C 		add	ip, r2, r6
 858 0134 4FEA8C07 		lsl	r7, ip, #2
 859 0138 7744     		add	r7, r7, lr
 860 013a 87F80580 		strb	r8, [r7, #5]
 861              	.LVL74:
 729:Generated_Source\PSoC5/USBFS_std.c ****                                 
 862              		.loc 1 729 0 is_stmt 1 discriminator 4
ARM GAS  C:\Users\CALEBC~1\AppData\Local\Temp\ccBuh6Ys.s 			page 36


 863 013e 0026     		movs	r6, #0
 864 0140 7E70     		strb	r6, [r7, #1]
 865              	.L63:
 752:Generated_Source\PSoC5/USBFS_std.c ****                 }
 866              		.loc 1 752 0 discriminator 2
 867 0142 0831     		adds	r1, r1, #8
 868              	.LVL75:
 694:Generated_Source\PSoC5/USBFS_std.c ****                 {
 869              		.loc 1 694 0 discriminator 2
 870 0144 0133     		adds	r3, r3, #1
 871              	.LVL76:
 872 0146 DBB2     		uxtb	r3, r3
 873              	.LVL77:
 874              	.L62:
 694:Generated_Source\PSoC5/USBFS_std.c ****                 {
 875              		.loc 1 694 0 is_stmt 0 discriminator 1
 876 0148 AB42     		cmp	r3, r5
 877 014a 9FD3     		bcc	.L68
 687:Generated_Source\PSoC5/USBFS_std.c ****             {
 878              		.loc 1 687 0 is_stmt 1 discriminator 2
 879 014c 0134     		adds	r4, r4, #1
 880              	.LVL78:
 881 014e E4B2     		uxtb	r4, r4
 882              	.LVL79:
 883              	.L61:
 687:Generated_Source\PSoC5/USBFS_std.c ****             {
 884              		.loc 1 687 0 is_stmt 0 discriminator 1
 885 0150 082C     		cmp	r4, #8
 886 0152 98D9     		bls	.L69
 762:Generated_Source\PSoC5/USBFS_std.c ****         for (i = 0u; i < ep; i++)
 887              		.loc 1 762 0 is_stmt 1
 888 0154 C068     		ldr	r0, [r0, #12]
 889              	.LVL80:
 763:Generated_Source\PSoC5/USBFS_std.c ****         {
 890              		.loc 1 763 0
 891 0156 0022     		movs	r2, #0
 892 0158 0CE0     		b	.L70
 893              	.LVL81:
 894              	.L71:
 766:Generated_Source\PSoC5/USBFS_std.c ****             pEP = &pEP[1u];
 895              		.loc 1 766 0 discriminator 3
 896 015a 8378     		ldrb	r3, [r0, #2]	@ zero_extendqisi2
 897 015c 03F07F03 		and	r3, r3, #127
 898 0160 10F8084B 		ldrb	r4, [r0], #8	@ zero_extendqisi2
 899              	.LVL82:
 900 0164 03EB4303 		add	r3, r3, r3, lsl #1
 901 0168 9900     		lsls	r1, r3, #2
 902 016a 124B     		ldr	r3, .L78
 903 016c 1944     		add	r1, r1, r3
 904 016e 8C72     		strb	r4, [r1, #10]
 905              	.LVL83:
 763:Generated_Source\PSoC5/USBFS_std.c ****         {
 906              		.loc 1 763 0 discriminator 3
 907 0170 0132     		adds	r2, r2, #1
 908              	.LVL84:
 909 0172 D2B2     		uxtb	r2, r2
 910              	.LVL85:
ARM GAS  C:\Users\CALEBC~1\AppData\Local\Temp\ccBuh6Ys.s 			page 37


 911              	.L70:
 763:Generated_Source\PSoC5/USBFS_std.c ****         {
 912              		.loc 1 763 0 is_stmt 0 discriminator 1
 913 0174 AA42     		cmp	r2, r5
 914 0176 F0D3     		bcc	.L71
 771:Generated_Source\PSoC5/USBFS_std.c ****         
 915              		.loc 1 771 0 is_stmt 1
 916 0178 FFF7FEFF 		bl	USBFS_GetInterfaceClassTablePtr
 917              	.LVL86:
 918 017c 124B     		ldr	r3, .L78+20
 919 017e 1860     		str	r0, [r3]
 920              	.LVL87:
 775:Generated_Source\PSoC5/USBFS_std.c ****         for (ep = USBFS_EP1; ep < USBFS_MAX_EP; ++ep)
 921              		.loc 1 775 0
 922 0180 0023     		movs	r3, #0
 776:Generated_Source\PSoC5/USBFS_std.c ****         {
 923              		.loc 1 776 0
 924 0182 0121     		movs	r1, #1
 925 0184 0FE0     		b	.L72
 926              	.LVL88:
 927              	.L73:
 778:Generated_Source\PSoC5/USBFS_std.c ****             buffCount += USBFS_EP[ep].bufferSize;
 928              		.loc 1 778 0 discriminator 3
 929 0186 0B4D     		ldr	r5, .L78
 930 0188 4A00     		lsls	r2, r1, #1
 931 018a 5018     		adds	r0, r2, r1
 932 018c 8400     		lsls	r4, r0, #2
 933 018e 2C44     		add	r4, r4, r5
 934 0190 E380     		strh	r3, [r4, #6]	@ movhi
 779:Generated_Source\PSoC5/USBFS_std.c ****             
 935              		.loc 1 779 0 discriminator 3
 936 0192 2289     		ldrh	r2, [r4, #8]
 937 0194 92B2     		uxth	r2, r2
 938 0196 1344     		add	r3, r3, r2
 939              	.LVL89:
 940 0198 9BB2     		uxth	r3, r3
 941              	.LVL90:
 783:Generated_Source\PSoC5/USBFS_std.c ****         #endif /* (USBFS_GEN_16BITS_EP_ACCESS) */            
 942              		.loc 1 783 0 discriminator 3
 943 019a 03F00102 		and	r2, r3, #1
 944 019e 1344     		add	r3, r3, r2
 945              	.LVL91:
 946 01a0 9BB2     		uxth	r3, r3
 947              	.LVL92:
 776:Generated_Source\PSoC5/USBFS_std.c ****         {
 948              		.loc 1 776 0 discriminator 3
 949 01a2 0131     		adds	r1, r1, #1
 950              	.LVL93:
 951 01a4 C9B2     		uxtb	r1, r1
 952              	.LVL94:
 953              	.L72:
 776:Generated_Source\PSoC5/USBFS_std.c ****         {
 954              		.loc 1 776 0 is_stmt 0 discriminator 1
 955 01a6 0829     		cmp	r1, #8
 956 01a8 EDD9     		bls	.L73
 789:Generated_Source\PSoC5/USBFS_std.c ****     }
 957              		.loc 1 789 0 is_stmt 1
ARM GAS  C:\Users\CALEBC~1\AppData\Local\Temp\ccBuh6Ys.s 			page 38


 958 01aa FFF7FEFF 		bl	USBFS_ConfigReg
 959              	.LVL95:
 960              	.L52:
 961 01ae BDE8F081 		pop	{r4, r5, r6, r7, r8, pc}
 962              	.L79:
 963 01b2 00BF     		.align	2
 964              	.L78:
 965 01b4 00000000 		.word	USBFS_EP
 966 01b8 00000000 		.word	USBFS_interfaceSetting
 967 01bc 00000000 		.word	USBFS_interfaceSettingLast
 968 01c0 00000000 		.word	USBFS_configuration
 969 01c4 00000000 		.word	USBFS_deviceStatus
 970 01c8 00000000 		.word	USBFS_interfaceClass
 971              		.cfi_endproc
 972              	.LFE4:
 973              		.size	USBFS_Config, .-USBFS_Config
 974              		.section	.text.USBFS_TerminateEP,"ax",%progbits
 975              		.align	2
 976              		.global	USBFS_TerminateEP
 977              		.thumb
 978              		.thumb_func
 979              		.type	USBFS_TerminateEP, %function
 980              	USBFS_TerminateEP:
 981              	.LFB9:
1053:Generated_Source\PSoC5/USBFS_std.c **** 
1054:Generated_Source\PSoC5/USBFS_std.c **** 
1055:Generated_Source\PSoC5/USBFS_std.c **** /*******************************************************************************
1056:Generated_Source\PSoC5/USBFS_std.c **** * Function Name: USBFS_TerminateEP
1057:Generated_Source\PSoC5/USBFS_std.c **** ****************************************************************************//**
1058:Generated_Source\PSoC5/USBFS_std.c **** *
1059:Generated_Source\PSoC5/USBFS_std.c **** *  This function terminates the specified USBFS endpoint.
1060:Generated_Source\PSoC5/USBFS_std.c **** *  This function should be used before endpoint reconfiguration.
1061:Generated_Source\PSoC5/USBFS_std.c **** *
1062:Generated_Source\PSoC5/USBFS_std.c **** *  \param ep Contains the data endpoint number.
1063:Generated_Source\PSoC5/USBFS_std.c **** *
1064:Generated_Source\PSoC5/USBFS_std.c **** *  \reentrant
1065:Generated_Source\PSoC5/USBFS_std.c **** *  No.
1066:Generated_Source\PSoC5/USBFS_std.c **** *
1067:Generated_Source\PSoC5/USBFS_std.c **** * \sideeffect
1068:Generated_Source\PSoC5/USBFS_std.c **** * 
1069:Generated_Source\PSoC5/USBFS_std.c **** * The device responds with a NAK for any transactions on the selected endpoint.
1070:Generated_Source\PSoC5/USBFS_std.c **** *   
1071:Generated_Source\PSoC5/USBFS_std.c **** *******************************************************************************/
1072:Generated_Source\PSoC5/USBFS_std.c **** void USBFS_TerminateEP(uint8 epNumber) 
1073:Generated_Source\PSoC5/USBFS_std.c **** {
 982              		.loc 1 1073 0
 983              		.cfi_startproc
 984              		@ args = 0, pretend = 0, frame = 0
 985              		@ frame_needed = 0, uses_anonymous_args = 0
 986              		@ link register save eliminated.
 987              	.LVL96:
1074:Generated_Source\PSoC5/USBFS_std.c ****     /* Get endpoint number */
1075:Generated_Source\PSoC5/USBFS_std.c ****     epNumber &= USBFS_DIR_UNUSED;
 988              		.loc 1 1075 0
 989 0000 00F07F00 		and	r0, r0, #127
 990              	.LVL97:
1076:Generated_Source\PSoC5/USBFS_std.c **** 
ARM GAS  C:\Users\CALEBC~1\AppData\Local\Temp\ccBuh6Ys.s 			page 39


1077:Generated_Source\PSoC5/USBFS_std.c ****     if ((epNumber > USBFS_EP0) && (epNumber < USBFS_MAX_EP))
 991              		.loc 1 1077 0
 992 0004 431E     		subs	r3, r0, #1
 993 0006 DBB2     		uxtb	r3, r3
 994 0008 072B     		cmp	r3, #7
 995 000a 19D8     		bhi	.L80
1078:Generated_Source\PSoC5/USBFS_std.c ****     {
1079:Generated_Source\PSoC5/USBFS_std.c ****         /* Set the endpoint Halt */
1080:Generated_Source\PSoC5/USBFS_std.c ****         USBFS_EP[epNumber].hwEpState |= USBFS_ENDPOINT_STATUS_HALT;
 996              		.loc 1 1080 0
 997 000c 4200     		lsls	r2, r0, #1
 998 000e 0244     		add	r2, r2, r0
 999 0010 9300     		lsls	r3, r2, #2
 1000 0012 0C4A     		ldr	r2, .L83
 1001 0014 1344     		add	r3, r3, r2
 1002 0016 9A78     		ldrb	r2, [r3, #2]	@ zero_extendqisi2
 1003 0018 42F00102 		orr	r2, r2, #1
 1004 001c 9A70     		strb	r2, [r3, #2]
1081:Generated_Source\PSoC5/USBFS_std.c **** 
1082:Generated_Source\PSoC5/USBFS_std.c ****         /* Clear the data toggle */
1083:Generated_Source\PSoC5/USBFS_std.c ****         USBFS_EP[epNumber].epToggle = 0u;
 1005              		.loc 1 1083 0
 1006 001e 0022     		movs	r2, #0
 1007 0020 DA70     		strb	r2, [r3, #3]
1084:Generated_Source\PSoC5/USBFS_std.c ****         USBFS_EP[epNumber].apiEpState = USBFS_NO_EVENT_ALLOWED;
 1008              		.loc 1 1084 0
 1009 0022 0222     		movs	r2, #2
 1010 0024 5A70     		strb	r2, [r3, #1]
1085:Generated_Source\PSoC5/USBFS_std.c **** 
1086:Generated_Source\PSoC5/USBFS_std.c ****         if ((USBFS_EP[epNumber].addr & USBFS_DIR_IN) != 0u)
 1011              		.loc 1 1086 0
 1012 0026 1B79     		ldrb	r3, [r3, #4]	@ zero_extendqisi2
 1013 0028 13F0800F 		tst	r3, #128
 1014 002c 04D0     		beq	.L82
1087:Generated_Source\PSoC5/USBFS_std.c ****         {   
1088:Generated_Source\PSoC5/USBFS_std.c ****             /* IN Endpoint */
1089:Generated_Source\PSoC5/USBFS_std.c ****             USBFS_SIE_EP_BASE.sieEp[epNumber].epCr0 = USBFS_MODE_NAK_IN;
 1015              		.loc 1 1089 0
 1016 002e 0001     		lsls	r0, r0, #4
 1017              	.LVL98:
 1018 0030 054B     		ldr	r3, .L83+4
 1019 0032 0C22     		movs	r2, #12
 1020 0034 1A54     		strb	r2, [r3, r0]
 1021 0036 7047     		bx	lr
 1022              	.LVL99:
 1023              	.L82:
1090:Generated_Source\PSoC5/USBFS_std.c ****         }
1091:Generated_Source\PSoC5/USBFS_std.c ****         else
1092:Generated_Source\PSoC5/USBFS_std.c ****         {
1093:Generated_Source\PSoC5/USBFS_std.c ****             /* OUT Endpoint */
1094:Generated_Source\PSoC5/USBFS_std.c ****             USBFS_SIE_EP_BASE.sieEp[epNumber].epCr0 = USBFS_MODE_NAK_OUT;
 1024              		.loc 1 1094 0
 1025 0038 0001     		lsls	r0, r0, #4
 1026              	.LVL100:
 1027 003a 034B     		ldr	r3, .L83+4
 1028 003c 0822     		movs	r2, #8
 1029 003e 1A54     		strb	r2, [r3, r0]
ARM GAS  C:\Users\CALEBC~1\AppData\Local\Temp\ccBuh6Ys.s 			page 40


 1030              	.L80:
 1031 0040 7047     		bx	lr
 1032              	.L84:
 1033 0042 00BF     		.align	2
 1034              	.L83:
 1035 0044 00000000 		.word	USBFS_EP
 1036 0048 FE5F0040 		.word	1073766398
 1037              		.cfi_endproc
 1038              	.LFE9:
 1039              		.size	USBFS_TerminateEP, .-USBFS_TerminateEP
 1040              		.section	.text.USBFS_SetEndpointHalt,"ax",%progbits
 1041              		.align	2
 1042              		.global	USBFS_SetEndpointHalt
 1043              		.thumb
 1044              		.thumb_func
 1045              		.type	USBFS_SetEndpointHalt, %function
 1046              	USBFS_SetEndpointHalt:
 1047              	.LFB10:
1095:Generated_Source\PSoC5/USBFS_std.c ****         }
1096:Generated_Source\PSoC5/USBFS_std.c ****     }
1097:Generated_Source\PSoC5/USBFS_std.c **** }
1098:Generated_Source\PSoC5/USBFS_std.c **** 
1099:Generated_Source\PSoC5/USBFS_std.c **** 
1100:Generated_Source\PSoC5/USBFS_std.c **** /*******************************************************************************
1101:Generated_Source\PSoC5/USBFS_std.c **** * Function Name: USBFS_SetEndpointHalt
1102:Generated_Source\PSoC5/USBFS_std.c **** ****************************************************************************//**
1103:Generated_Source\PSoC5/USBFS_std.c **** *
1104:Generated_Source\PSoC5/USBFS_std.c **** *  This routine handles set endpoint halt.
1105:Generated_Source\PSoC5/USBFS_std.c **** *
1106:Generated_Source\PSoC5/USBFS_std.c **** * \return
1107:Generated_Source\PSoC5/USBFS_std.c **** *  requestHandled.
1108:Generated_Source\PSoC5/USBFS_std.c **** *
1109:Generated_Source\PSoC5/USBFS_std.c **** * \reentrant
1110:Generated_Source\PSoC5/USBFS_std.c **** *  No.
1111:Generated_Source\PSoC5/USBFS_std.c **** *
1112:Generated_Source\PSoC5/USBFS_std.c **** *******************************************************************************/
1113:Generated_Source\PSoC5/USBFS_std.c **** uint8 USBFS_SetEndpointHalt(void) 
1114:Generated_Source\PSoC5/USBFS_std.c **** {
 1048              		.loc 1 1114 0
 1049              		.cfi_startproc
 1050              		@ args = 0, pretend = 0, frame = 0
 1051              		@ frame_needed = 0, uses_anonymous_args = 0
 1052 0000 08B5     		push	{r3, lr}
 1053              		.cfi_def_cfa_offset 8
 1054              		.cfi_offset 3, -8
 1055              		.cfi_offset 14, -4
 1056              	.LVL101:
1115:Generated_Source\PSoC5/USBFS_std.c ****     uint8 requestHandled = USBFS_FALSE;
1116:Generated_Source\PSoC5/USBFS_std.c ****     uint8 ep;
1117:Generated_Source\PSoC5/USBFS_std.c ****     
1118:Generated_Source\PSoC5/USBFS_std.c ****     /* Set endpoint halt */
1119:Generated_Source\PSoC5/USBFS_std.c ****     ep = USBFS_wIndexLoReg & USBFS_DIR_UNUSED;
 1057              		.loc 1 1119 0
 1058 0002 154B     		ldr	r3, .L91
 1059 0004 1B79     		ldrb	r3, [r3, #4]	@ zero_extendqisi2
 1060 0006 03F07F03 		and	r3, r3, #127
 1061              	.LVL102:
ARM GAS  C:\Users\CALEBC~1\AppData\Local\Temp\ccBuh6Ys.s 			page 41


1120:Generated_Source\PSoC5/USBFS_std.c **** 
1121:Generated_Source\PSoC5/USBFS_std.c ****     if ((ep > USBFS_EP0) && (ep < USBFS_MAX_EP))
 1062              		.loc 1 1121 0
 1063 000a 5A1E     		subs	r2, r3, #1
 1064 000c D2B2     		uxtb	r2, r2
 1065 000e 072A     		cmp	r2, #7
 1066 0010 20D8     		bhi	.L89
1122:Generated_Source\PSoC5/USBFS_std.c ****     {
1123:Generated_Source\PSoC5/USBFS_std.c ****         /* Set the endpoint Halt */
1124:Generated_Source\PSoC5/USBFS_std.c ****         USBFS_EP[ep].hwEpState |= (USBFS_ENDPOINT_STATUS_HALT);
 1067              		.loc 1 1124 0
 1068 0012 5900     		lsls	r1, r3, #1
 1069 0014 1944     		add	r1, r1, r3
 1070 0016 8A00     		lsls	r2, r1, #2
 1071 0018 1049     		ldr	r1, .L91+4
 1072 001a 0A44     		add	r2, r2, r1
 1073 001c 9178     		ldrb	r1, [r2, #2]	@ zero_extendqisi2
 1074 001e 41F00101 		orr	r1, r1, #1
 1075 0022 9170     		strb	r1, [r2, #2]
1125:Generated_Source\PSoC5/USBFS_std.c **** 
1126:Generated_Source\PSoC5/USBFS_std.c ****         /* Clear the data toggle */
1127:Generated_Source\PSoC5/USBFS_std.c ****         USBFS_EP[ep].epToggle = 0u;
 1076              		.loc 1 1127 0
 1077 0024 0021     		movs	r1, #0
 1078 0026 D170     		strb	r1, [r2, #3]
1128:Generated_Source\PSoC5/USBFS_std.c ****         USBFS_EP[ep].apiEpState |= USBFS_NO_EVENT_ALLOWED;
 1079              		.loc 1 1128 0
 1080 0028 5178     		ldrb	r1, [r2, #1]	@ zero_extendqisi2
 1081 002a 41F00201 		orr	r1, r1, #2
 1082 002e 5170     		strb	r1, [r2, #1]
1129:Generated_Source\PSoC5/USBFS_std.c **** 
1130:Generated_Source\PSoC5/USBFS_std.c ****         if ((USBFS_EP[ep].addr & USBFS_DIR_IN) != 0u)
 1083              		.loc 1 1130 0
 1084 0030 1279     		ldrb	r2, [r2, #4]	@ zero_extendqisi2
 1085 0032 12F0800F 		tst	r2, #128
 1086 0036 05D0     		beq	.L87
1131:Generated_Source\PSoC5/USBFS_std.c ****         {
1132:Generated_Source\PSoC5/USBFS_std.c ****             /* IN Endpoint */
1133:Generated_Source\PSoC5/USBFS_std.c ****             USBFS_SIE_EP_BASE.sieEp[ep].epCr0 = (USBFS_MODE_STALL_DATA_EP | 
 1087              		.loc 1 1133 0
 1088 0038 1B01     		lsls	r3, r3, #4
 1089              	.LVL103:
 1090 003a 094A     		ldr	r2, .L91+8
 1091 003c 1A44     		add	r2, r2, r3
 1092 003e 8D23     		movs	r3, #141
 1093 0040 9370     		strb	r3, [r2, #2]
 1094 0042 04E0     		b	.L88
 1095              	.LVL104:
 1096              	.L87:
1134:Generated_Source\PSoC5/USBFS_std.c ****                                                             USBFS_MODE_ACK_IN);
1135:Generated_Source\PSoC5/USBFS_std.c ****         }
1136:Generated_Source\PSoC5/USBFS_std.c ****         else
1137:Generated_Source\PSoC5/USBFS_std.c ****         {
1138:Generated_Source\PSoC5/USBFS_std.c ****             /* OUT Endpoint */
1139:Generated_Source\PSoC5/USBFS_std.c ****             USBFS_SIE_EP_BASE.sieEp[ep].epCr0 = (USBFS_MODE_STALL_DATA_EP | 
 1097              		.loc 1 1139 0
 1098 0044 1B01     		lsls	r3, r3, #4
ARM GAS  C:\Users\CALEBC~1\AppData\Local\Temp\ccBuh6Ys.s 			page 42


 1099              	.LVL105:
 1100 0046 064A     		ldr	r2, .L91+8
 1101 0048 1A44     		add	r2, r2, r3
 1102 004a 8923     		movs	r3, #137
 1103 004c 9370     		strb	r3, [r2, #2]
 1104              	.L88:
1140:Generated_Source\PSoC5/USBFS_std.c ****                                                             USBFS_MODE_ACK_OUT);
1141:Generated_Source\PSoC5/USBFS_std.c ****         }
1142:Generated_Source\PSoC5/USBFS_std.c ****         requestHandled = USBFS_InitNoDataControlTransfer();
 1105              		.loc 1 1142 0
 1106 004e FFF7FEFF 		bl	USBFS_InitNoDataControlTransfer
 1107              	.LVL106:
 1108 0052 08BD     		pop	{r3, pc}
 1109              	.LVL107:
 1110              	.L89:
1115:Generated_Source\PSoC5/USBFS_std.c ****     uint8 ep;
 1111              		.loc 1 1115 0
 1112 0054 0020     		movs	r0, #0
 1113              	.LVL108:
1143:Generated_Source\PSoC5/USBFS_std.c ****     }
1144:Generated_Source\PSoC5/USBFS_std.c **** 
1145:Generated_Source\PSoC5/USBFS_std.c ****     return (requestHandled);
1146:Generated_Source\PSoC5/USBFS_std.c **** }
 1114              		.loc 1 1146 0
 1115 0056 08BD     		pop	{r3, pc}
 1116              	.LVL109:
 1117              	.L92:
 1118              		.align	2
 1119              	.L91:
 1120 0058 00600040 		.word	1073766400
 1121 005c 00000000 		.word	USBFS_EP
 1122 0060 FC5F0040 		.word	1073766396
 1123              		.cfi_endproc
 1124              	.LFE10:
 1125              		.size	USBFS_SetEndpointHalt, .-USBFS_SetEndpointHalt
 1126              		.section	.text.USBFS_ClearEndpointHalt,"ax",%progbits
 1127              		.align	2
 1128              		.global	USBFS_ClearEndpointHalt
 1129              		.thumb
 1130              		.thumb_func
 1131              		.type	USBFS_ClearEndpointHalt, %function
 1132              	USBFS_ClearEndpointHalt:
 1133              	.LFB11:
1147:Generated_Source\PSoC5/USBFS_std.c **** 
1148:Generated_Source\PSoC5/USBFS_std.c **** 
1149:Generated_Source\PSoC5/USBFS_std.c **** /*******************************************************************************
1150:Generated_Source\PSoC5/USBFS_std.c **** * Function Name: USBFS_ClearEndpointHalt
1151:Generated_Source\PSoC5/USBFS_std.c **** ****************************************************************************//**
1152:Generated_Source\PSoC5/USBFS_std.c **** *
1153:Generated_Source\PSoC5/USBFS_std.c **** *  This routine handles clear endpoint halt.
1154:Generated_Source\PSoC5/USBFS_std.c **** *
1155:Generated_Source\PSoC5/USBFS_std.c **** * \return
1156:Generated_Source\PSoC5/USBFS_std.c **** *  requestHandled.
1157:Generated_Source\PSoC5/USBFS_std.c **** *
1158:Generated_Source\PSoC5/USBFS_std.c **** * \reentrant
1159:Generated_Source\PSoC5/USBFS_std.c **** *  No.
1160:Generated_Source\PSoC5/USBFS_std.c **** *
ARM GAS  C:\Users\CALEBC~1\AppData\Local\Temp\ccBuh6Ys.s 			page 43


1161:Generated_Source\PSoC5/USBFS_std.c **** *******************************************************************************/
1162:Generated_Source\PSoC5/USBFS_std.c **** uint8 USBFS_ClearEndpointHalt(void) 
1163:Generated_Source\PSoC5/USBFS_std.c **** {
 1134              		.loc 1 1163 0
 1135              		.cfi_startproc
 1136              		@ args = 0, pretend = 0, frame = 0
 1137              		@ frame_needed = 0, uses_anonymous_args = 0
 1138              	.LVL110:
1164:Generated_Source\PSoC5/USBFS_std.c ****     uint8 requestHandled = USBFS_FALSE;
1165:Generated_Source\PSoC5/USBFS_std.c ****     uint8 ep;
1166:Generated_Source\PSoC5/USBFS_std.c **** 
1167:Generated_Source\PSoC5/USBFS_std.c ****     /* Clear endpoint halt */
1168:Generated_Source\PSoC5/USBFS_std.c ****     ep = USBFS_wIndexLoReg & USBFS_DIR_UNUSED;
 1139              		.loc 1 1168 0
 1140 0000 264B     		ldr	r3, .L102
 1141 0002 1B79     		ldrb	r3, [r3, #4]	@ zero_extendqisi2
 1142 0004 03F07F03 		and	r3, r3, #127
 1143              	.LVL111:
1169:Generated_Source\PSoC5/USBFS_std.c **** 
1170:Generated_Source\PSoC5/USBFS_std.c ****     if ((ep > USBFS_EP0) && (ep < USBFS_MAX_EP))
 1144              		.loc 1 1170 0
 1145 0008 5A1E     		subs	r2, r3, #1
 1146 000a D2B2     		uxtb	r2, r2
 1147 000c 072A     		cmp	r2, #7
 1148 000e 43D8     		bhi	.L99
1163:Generated_Source\PSoC5/USBFS_std.c ****     uint8 requestHandled = USBFS_FALSE;
 1149              		.loc 1 1163 0
 1150 0010 10B5     		push	{r4, lr}
 1151              		.cfi_def_cfa_offset 8
 1152              		.cfi_offset 4, -8
 1153              		.cfi_offset 14, -4
1171:Generated_Source\PSoC5/USBFS_std.c ****     {
1172:Generated_Source\PSoC5/USBFS_std.c ****         /* Clear the endpoint Halt */
1173:Generated_Source\PSoC5/USBFS_std.c ****         USBFS_EP[ep].hwEpState &= (uint8) ~USBFS_ENDPOINT_STATUS_HALT;
 1154              		.loc 1 1173 0
 1155 0012 5900     		lsls	r1, r3, #1
 1156 0014 1944     		add	r1, r1, r3
 1157 0016 8A00     		lsls	r2, r1, #2
 1158 0018 2149     		ldr	r1, .L102+4
 1159 001a 0A44     		add	r2, r2, r1
 1160 001c 9178     		ldrb	r1, [r2, #2]	@ zero_extendqisi2
 1161 001e 01F0FE01 		and	r1, r1, #254
 1162 0022 9170     		strb	r1, [r2, #2]
1174:Generated_Source\PSoC5/USBFS_std.c **** 
1175:Generated_Source\PSoC5/USBFS_std.c ****         /* Clear the data toggle */
1176:Generated_Source\PSoC5/USBFS_std.c ****         USBFS_EP[ep].epToggle = 0u;
 1163              		.loc 1 1176 0
 1164 0024 0021     		movs	r1, #0
 1165 0026 D170     		strb	r1, [r2, #3]
1177:Generated_Source\PSoC5/USBFS_std.c ****         
1178:Generated_Source\PSoC5/USBFS_std.c ****         /* Clear toggle bit for already armed packet */
1179:Generated_Source\PSoC5/USBFS_std.c ****         USBFS_SIE_EP_BASE.sieEp[ep].epCnt0 = (uint8) ~(uint8)USBFS_EPX_CNT_DATA_TOGGLE;
 1166              		.loc 1 1179 0
 1167 0028 1901     		lsls	r1, r3, #4
 1168 002a 7F24     		movs	r4, #127
 1169 002c 1D48     		ldr	r0, .L102+8
 1170 002e 4454     		strb	r4, [r0, r1]
ARM GAS  C:\Users\CALEBC~1\AppData\Local\Temp\ccBuh6Ys.s 			page 44


1180:Generated_Source\PSoC5/USBFS_std.c ****         
1181:Generated_Source\PSoC5/USBFS_std.c ****         /* Return API State as it was defined before */
1182:Generated_Source\PSoC5/USBFS_std.c ****         USBFS_EP[ep].apiEpState &= (uint8) ~USBFS_NO_EVENT_ALLOWED;
 1171              		.loc 1 1182 0
 1172 0030 5178     		ldrb	r1, [r2, #1]	@ zero_extendqisi2
 1173 0032 01F0FD01 		and	r1, r1, #253
 1174 0036 5170     		strb	r1, [r2, #1]
1183:Generated_Source\PSoC5/USBFS_std.c **** 
1184:Generated_Source\PSoC5/USBFS_std.c ****         if ((USBFS_EP[ep].addr & USBFS_DIR_IN) != 0u)
 1175              		.loc 1 1184 0
 1176 0038 1279     		ldrb	r2, [r2, #4]	@ zero_extendqisi2
 1177 003a 12F0800F 		tst	r2, #128
 1178 003e 14D0     		beq	.L95
1185:Generated_Source\PSoC5/USBFS_std.c ****         {
1186:Generated_Source\PSoC5/USBFS_std.c ****             /* IN Endpoint */
1187:Generated_Source\PSoC5/USBFS_std.c ****             if(USBFS_EP[ep].apiEpState == USBFS_IN_BUFFER_EMPTY)
 1179              		.loc 1 1187 0
 1180 0040 03EB4301 		add	r1, r3, r3, lsl #1
 1181 0044 8A00     		lsls	r2, r1, #2
 1182 0046 1649     		ldr	r1, .L102+4
 1183 0048 0A44     		add	r2, r2, r1
 1184 004a 5278     		ldrb	r2, [r2, #1]	@ zero_extendqisi2
 1185 004c D2B2     		uxtb	r2, r2
 1186 004e 012A     		cmp	r2, #1
 1187 0050 05D1     		bne	.L96
1188:Generated_Source\PSoC5/USBFS_std.c ****             {       
1189:Generated_Source\PSoC5/USBFS_std.c ****                 /* Wait for next packet from application */
1190:Generated_Source\PSoC5/USBFS_std.c ****                 USBFS_SIE_EP_BASE.sieEp[ep].epCr0 = USBFS_MODE_NAK_IN;
 1188              		.loc 1 1190 0
 1189 0052 1B01     		lsls	r3, r3, #4
 1190              	.LVL112:
 1191 0054 0246     		mov	r2, r0
 1192 0056 1A44     		add	r2, r2, r3
 1193 0058 0C23     		movs	r3, #12
 1194 005a 9370     		strb	r3, [r2, #2]
 1195 005c 19E0     		b	.L97
 1196              	.LVL113:
 1197              	.L96:
1191:Generated_Source\PSoC5/USBFS_std.c ****             }
1192:Generated_Source\PSoC5/USBFS_std.c ****             else    /* Continue armed transfer */
1193:Generated_Source\PSoC5/USBFS_std.c ****             {
1194:Generated_Source\PSoC5/USBFS_std.c ****                 USBFS_SIE_EP_BASE.sieEp[ep].epCr0 = USBFS_MODE_ACK_IN;
 1198              		.loc 1 1194 0
 1199 005e 1B01     		lsls	r3, r3, #4
 1200              	.LVL114:
 1201 0060 104A     		ldr	r2, .L102+8
 1202 0062 1A44     		add	r2, r2, r3
 1203 0064 0D23     		movs	r3, #13
 1204 0066 9370     		strb	r3, [r2, #2]
 1205 0068 13E0     		b	.L97
 1206              	.LVL115:
 1207              	.L95:
1195:Generated_Source\PSoC5/USBFS_std.c ****             }
1196:Generated_Source\PSoC5/USBFS_std.c ****         }
1197:Generated_Source\PSoC5/USBFS_std.c ****         else
1198:Generated_Source\PSoC5/USBFS_std.c ****         {
1199:Generated_Source\PSoC5/USBFS_std.c ****             /* OUT Endpoint */
ARM GAS  C:\Users\CALEBC~1\AppData\Local\Temp\ccBuh6Ys.s 			page 45


1200:Generated_Source\PSoC5/USBFS_std.c ****             if (USBFS_EP[ep].apiEpState == USBFS_OUT_BUFFER_FULL)
 1208              		.loc 1 1200 0
 1209 006a 03EB4301 		add	r1, r3, r3, lsl #1
 1210 006e 8A00     		lsls	r2, r1, #2
 1211 0070 0B49     		ldr	r1, .L102+4
 1212 0072 0A44     		add	r2, r2, r1
 1213 0074 5278     		ldrb	r2, [r2, #1]	@ zero_extendqisi2
 1214 0076 D2B2     		uxtb	r2, r2
 1215 0078 012A     		cmp	r2, #1
 1216 007a 05D1     		bne	.L98
1201:Generated_Source\PSoC5/USBFS_std.c ****             {       
1202:Generated_Source\PSoC5/USBFS_std.c ****                 /* Allow application to read full buffer */
1203:Generated_Source\PSoC5/USBFS_std.c ****                 USBFS_SIE_EP_BASE.sieEp[ep].epCr0 = USBFS_MODE_NAK_OUT;
 1217              		.loc 1 1203 0
 1218 007c 1B01     		lsls	r3, r3, #4
 1219              	.LVL116:
 1220 007e 094A     		ldr	r2, .L102+8
 1221 0080 1A44     		add	r2, r2, r3
 1222 0082 0823     		movs	r3, #8
 1223 0084 9370     		strb	r3, [r2, #2]
 1224 0086 04E0     		b	.L97
 1225              	.LVL117:
 1226              	.L98:
1204:Generated_Source\PSoC5/USBFS_std.c ****             }
1205:Generated_Source\PSoC5/USBFS_std.c ****             else    /* Mark endpoint as empty, so it will be reloaded */
1206:Generated_Source\PSoC5/USBFS_std.c ****             {
1207:Generated_Source\PSoC5/USBFS_std.c ****                 USBFS_SIE_EP_BASE.sieEp[ep].epCr0 = USBFS_MODE_ACK_OUT;
 1227              		.loc 1 1207 0
 1228 0088 1B01     		lsls	r3, r3, #4
 1229              	.LVL118:
 1230 008a 064A     		ldr	r2, .L102+8
 1231 008c 1A44     		add	r2, r2, r3
 1232 008e 0923     		movs	r3, #9
 1233 0090 9370     		strb	r3, [r2, #2]
 1234              	.L97:
1208:Generated_Source\PSoC5/USBFS_std.c ****             }
1209:Generated_Source\PSoC5/USBFS_std.c ****         }
1210:Generated_Source\PSoC5/USBFS_std.c ****         
1211:Generated_Source\PSoC5/USBFS_std.c ****         requestHandled = USBFS_InitNoDataControlTransfer();
 1235              		.loc 1 1211 0
 1236 0092 FFF7FEFF 		bl	USBFS_InitNoDataControlTransfer
 1237              	.LVL119:
 1238 0096 10BD     		pop	{r4, pc}
 1239              	.LVL120:
 1240              	.L99:
 1241              		.cfi_def_cfa_offset 0
 1242              		.cfi_restore 4
 1243              		.cfi_restore 14
1164:Generated_Source\PSoC5/USBFS_std.c ****     uint8 ep;
 1244              		.loc 1 1164 0
 1245 0098 0020     		movs	r0, #0
 1246 009a 7047     		bx	lr
 1247              	.L103:
 1248              		.align	2
 1249              	.L102:
 1250 009c 00600040 		.word	1073766400
 1251 00a0 00000000 		.word	USBFS_EP
ARM GAS  C:\Users\CALEBC~1\AppData\Local\Temp\ccBuh6Ys.s 			page 46


 1252 00a4 FC5F0040 		.word	1073766396
 1253              		.cfi_endproc
 1254              	.LFE11:
 1255              		.size	USBFS_ClearEndpointHalt, .-USBFS_ClearEndpointHalt
 1256              		.section	.text.USBFS_ValidateAlternateSetting,"ax",%progbits
 1257              		.align	2
 1258              		.global	USBFS_ValidateAlternateSetting
 1259              		.thumb
 1260              		.thumb_func
 1261              		.type	USBFS_ValidateAlternateSetting, %function
 1262              	USBFS_ValidateAlternateSetting:
 1263              	.LFB12:
1212:Generated_Source\PSoC5/USBFS_std.c ****     }
1213:Generated_Source\PSoC5/USBFS_std.c **** 
1214:Generated_Source\PSoC5/USBFS_std.c ****     return(requestHandled);
1215:Generated_Source\PSoC5/USBFS_std.c **** }
1216:Generated_Source\PSoC5/USBFS_std.c **** 
1217:Generated_Source\PSoC5/USBFS_std.c **** 
1218:Generated_Source\PSoC5/USBFS_std.c **** /*******************************************************************************
1219:Generated_Source\PSoC5/USBFS_std.c **** * Function Name: USBFS_ValidateAlternateSetting
1220:Generated_Source\PSoC5/USBFS_std.c **** ****************************************************************************//**
1221:Generated_Source\PSoC5/USBFS_std.c **** *
1222:Generated_Source\PSoC5/USBFS_std.c **** *  Validates (and records) a SET INTERFACE request.
1223:Generated_Source\PSoC5/USBFS_std.c **** *
1224:Generated_Source\PSoC5/USBFS_std.c **** * \return
1225:Generated_Source\PSoC5/USBFS_std.c **** *  requestHandled.
1226:Generated_Source\PSoC5/USBFS_std.c **** *
1227:Generated_Source\PSoC5/USBFS_std.c **** * \reentrant
1228:Generated_Source\PSoC5/USBFS_std.c **** *  No.
1229:Generated_Source\PSoC5/USBFS_std.c **** *
1230:Generated_Source\PSoC5/USBFS_std.c **** *******************************************************************************/
1231:Generated_Source\PSoC5/USBFS_std.c **** uint8 USBFS_ValidateAlternateSetting(void) 
1232:Generated_Source\PSoC5/USBFS_std.c **** {
 1264              		.loc 1 1232 0
 1265              		.cfi_startproc
 1266              		@ args = 0, pretend = 0, frame = 0
 1267              		@ frame_needed = 0, uses_anonymous_args = 0
 1268 0000 10B5     		push	{r4, lr}
 1269              		.cfi_def_cfa_offset 8
 1270              		.cfi_offset 4, -8
 1271              		.cfi_offset 14, -4
 1272              	.LVL121:
1233:Generated_Source\PSoC5/USBFS_std.c ****     uint8 requestHandled = USBFS_FALSE;
1234:Generated_Source\PSoC5/USBFS_std.c ****     
1235:Generated_Source\PSoC5/USBFS_std.c ****     uint8 interfaceNum;
1236:Generated_Source\PSoC5/USBFS_std.c ****     uint8 curInterfacesNum;
1237:Generated_Source\PSoC5/USBFS_std.c ****     const T_USBFS_LUT CYCODE *pTmp;
1238:Generated_Source\PSoC5/USBFS_std.c ****     
1239:Generated_Source\PSoC5/USBFS_std.c ****     /* Get interface number from the request. */
1240:Generated_Source\PSoC5/USBFS_std.c ****     interfaceNum = (uint8) USBFS_wIndexLoReg;
 1273              		.loc 1 1240 0
 1274 0002 0E4B     		ldr	r3, .L109
 1275 0004 1C79     		ldrb	r4, [r3, #4]	@ zero_extendqisi2
 1276 0006 E4B2     		uxtb	r4, r4
 1277              	.LVL122:
1241:Generated_Source\PSoC5/USBFS_std.c ****     
1242:Generated_Source\PSoC5/USBFS_std.c ****     /* Get number of interfaces for current configuration. */
ARM GAS  C:\Users\CALEBC~1\AppData\Local\Temp\ccBuh6Ys.s 			page 47


1243:Generated_Source\PSoC5/USBFS_std.c ****     pTmp = USBFS_GetConfigTablePtr(USBFS_configuration - 1u);
 1278              		.loc 1 1243 0
 1279 0008 0D4B     		ldr	r3, .L109+4
 1280 000a 1878     		ldrb	r0, [r3]	@ zero_extendqisi2
 1281 000c 0138     		subs	r0, r0, #1
 1282 000e C0B2     		uxtb	r0, r0
 1283 0010 FFF7FEFF 		bl	USBFS_GetConfigTablePtr
 1284              	.LVL123:
1244:Generated_Source\PSoC5/USBFS_std.c ****     curInterfacesNum  = ((const uint8 *) pTmp->p_list)[USBFS_CONFIG_DESCR_NUM_INTERFACES];
 1285              		.loc 1 1244 0
 1286 0014 4368     		ldr	r3, [r0, #4]
 1287 0016 1B79     		ldrb	r3, [r3, #4]	@ zero_extendqisi2
 1288              	.LVL124:
1245:Generated_Source\PSoC5/USBFS_std.c **** 
1246:Generated_Source\PSoC5/USBFS_std.c ****     /* Validate that interface number is within range. */
1247:Generated_Source\PSoC5/USBFS_std.c ****     if ((interfaceNum <= curInterfacesNum) || (interfaceNum <= USBFS_MAX_INTERFACES_NUMBER))
 1289              		.loc 1 1247 0
 1290 0018 9C42     		cmp	r4, r3
 1291 001a 01D9     		bls	.L105
 1292              		.loc 1 1247 0 is_stmt 0 discriminator 1
 1293 001c 012C     		cmp	r4, #1
 1294 001e 0AD8     		bhi	.L107
 1295              	.L105:
1248:Generated_Source\PSoC5/USBFS_std.c ****     {
1249:Generated_Source\PSoC5/USBFS_std.c ****         /* Save current and new alternate settings (come with request) to make 
1250:Generated_Source\PSoC5/USBFS_std.c ****         * desicion about following endpoint re-configuration.
1251:Generated_Source\PSoC5/USBFS_std.c ****         */
1252:Generated_Source\PSoC5/USBFS_std.c ****         USBFS_interfaceSettingLast[interfaceNum] = USBFS_interfaceSetting[interfaceNum];
 1296              		.loc 1 1252 0 is_stmt 1
 1297 0020 084A     		ldr	r2, .L109+8
 1298 0022 135D     		ldrb	r3, [r2, r4]	@ zero_extendqisi2
 1299              	.LVL125:
 1300 0024 DBB2     		uxtb	r3, r3
 1301 0026 0849     		ldr	r1, .L109+12
 1302 0028 0B55     		strb	r3, [r1, r4]
1253:Generated_Source\PSoC5/USBFS_std.c ****         USBFS_interfaceSetting[interfaceNum]     = (uint8) USBFS_wValueLoReg;
 1303              		.loc 1 1253 0
 1304 002a 044B     		ldr	r3, .L109
 1305 002c 9B78     		ldrb	r3, [r3, #2]	@ zero_extendqisi2
 1306 002e DBB2     		uxtb	r3, r3
 1307 0030 1355     		strb	r3, [r2, r4]
 1308              	.LVL126:
1254:Generated_Source\PSoC5/USBFS_std.c ****         
1255:Generated_Source\PSoC5/USBFS_std.c ****         requestHandled = USBFS_TRUE;
 1309              		.loc 1 1255 0
 1310 0032 0120     		movs	r0, #1
 1311              	.LVL127:
 1312 0034 10BD     		pop	{r4, pc}
 1313              	.LVL128:
 1314              	.L107:
1233:Generated_Source\PSoC5/USBFS_std.c ****     
 1315              		.loc 1 1233 0
 1316 0036 0020     		movs	r0, #0
 1317              	.LVL129:
1256:Generated_Source\PSoC5/USBFS_std.c ****     }
1257:Generated_Source\PSoC5/USBFS_std.c **** 
1258:Generated_Source\PSoC5/USBFS_std.c ****     return (requestHandled);
ARM GAS  C:\Users\CALEBC~1\AppData\Local\Temp\ccBuh6Ys.s 			page 48


1259:Generated_Source\PSoC5/USBFS_std.c **** }
 1318              		.loc 1 1259 0
 1319 0038 10BD     		pop	{r4, pc}
 1320              	.LVL130:
 1321              	.L110:
 1322 003a 00BF     		.align	2
 1323              	.L109:
 1324 003c 00600040 		.word	1073766400
 1325 0040 00000000 		.word	USBFS_configuration
 1326 0044 00000000 		.word	USBFS_interfaceSetting
 1327 0048 00000000 		.word	USBFS_interfaceSettingLast
 1328              		.cfi_endproc
 1329              	.LFE12:
 1330              		.size	USBFS_ValidateAlternateSetting, .-USBFS_ValidateAlternateSetting
 1331              		.section	.text.USBFS_HandleStandardRqst,"ax",%progbits
 1332              		.align	2
 1333              		.global	USBFS_HandleStandardRqst
 1334              		.thumb
 1335              		.thumb_func
 1336              		.type	USBFS_HandleStandardRqst, %function
 1337              	USBFS_HandleStandardRqst:
 1338              	.LFB0:
  85:Generated_Source\PSoC5/USBFS_std.c ****     uint8 requestHandled = USBFS_FALSE;
 1339              		.loc 1 85 0
 1340              		.cfi_startproc
 1341              		@ args = 0, pretend = 0, frame = 0
 1342              		@ frame_needed = 0, uses_anonymous_args = 0
 1343 0000 10B5     		push	{r4, lr}
 1344              		.cfi_def_cfa_offset 8
 1345              		.cfi_offset 4, -8
 1346              		.cfi_offset 14, -4
 1347              	.LVL131:
  89:Generated_Source\PSoC5/USBFS_std.c **** 
 1348              		.loc 1 89 0
 1349 0002 964B     		ldr	r3, .L168
 1350 0004 1B78     		ldrb	r3, [r3]	@ zero_extendqisi2
 1351 0006 DBB2     		uxtb	r3, r3
 1352              	.LVL132:
 102:Generated_Source\PSoC5/USBFS_std.c **** 
 1353              		.loc 1 102 0
 1354 0008 0021     		movs	r1, #0
 1355 000a 954A     		ldr	r2, .L168+4
 1356 000c 1180     		strh	r1, [r2]	@ movhi
 104:Generated_Source\PSoC5/USBFS_std.c ****     {
 1357              		.loc 1 104 0
 1358 000e 13F0800F 		tst	r3, #128
 1359 0012 00F0B380 		beq	.L112
 107:Generated_Source\PSoC5/USBFS_std.c ****         {
 1360              		.loc 1 107 0
 1361 0016 914A     		ldr	r2, .L168
 1362 0018 5278     		ldrb	r2, [r2, #1]	@ zero_extendqisi2
 1363 001a D2B2     		uxtb	r2, r2
 1364 001c 0A2A     		cmp	r2, #10
 1365 001e 00F27981 		bhi	.L146
 1366 0022 DFE812F0 		tbh	[pc, r2, lsl #1]
 1367              	.L115:
 1368 0026 6F00     		.2byte	(.L114-.L115)/2
ARM GAS  C:\Users\CALEBC~1\AppData\Local\Temp\ccBuh6Ys.s 			page 49


 1369 0028 7701     		.2byte	(.L146-.L115)/2
 1370 002a 7701     		.2byte	(.L146-.L115)/2
 1371 002c 7701     		.2byte	(.L146-.L115)/2
 1372 002e 7701     		.2byte	(.L146-.L115)/2
 1373 0030 7701     		.2byte	(.L146-.L115)/2
 1374 0032 0B00     		.2byte	(.L116-.L115)/2
 1375 0034 7701     		.2byte	(.L146-.L115)/2
 1376 0036 9800     		.2byte	(.L117-.L115)/2
 1377 0038 7701     		.2byte	(.L146-.L115)/2
 1378 003a A000     		.2byte	(.L118-.L115)/2
 1379              		.p2align 1
 1380              	.L116:
 110:Generated_Source\PSoC5/USBFS_std.c ****                 {
 1381              		.loc 1 110 0
 1382 003c 874B     		ldr	r3, .L168
 1383              	.LVL133:
 1384 003e DB78     		ldrb	r3, [r3, #3]	@ zero_extendqisi2
 1385 0040 DBB2     		uxtb	r3, r3
 1386 0042 012B     		cmp	r3, #1
 1387 0044 09D1     		bne	.L119
 112:Generated_Source\PSoC5/USBFS_std.c ****                     USBFS_currentTD.pData = (volatile uint8 *)pTmp->p_list;
 1388              		.loc 1 112 0
 1389 0046 FFF7FEFF 		bl	USBFS_GetDeviceTablePtr
 1390              	.LVL134:
 113:Generated_Source\PSoC5/USBFS_std.c ****                     USBFS_currentTD.count = USBFS_DEVICE_DESCR_LENGTH;
 1391              		.loc 1 113 0
 1392 004a 4268     		ldr	r2, [r0, #4]
 1393 004c 844B     		ldr	r3, .L168+4
 1394 004e 5A60     		str	r2, [r3, #4]
 114:Generated_Source\PSoC5/USBFS_std.c ****                     
 1395              		.loc 1 114 0
 1396 0050 1222     		movs	r2, #18
 1397 0052 1A80     		strh	r2, [r3]	@ movhi
 116:Generated_Source\PSoC5/USBFS_std.c ****                 }
 1398              		.loc 1 116 0
 1399 0054 FFF7FEFF 		bl	USBFS_InitControlRead
 1400              	.LVL135:
 1401 0058 10BD     		pop	{r4, pc}
 1402              	.LVL136:
 1403              	.L119:
 118:Generated_Source\PSoC5/USBFS_std.c ****                 {
 1404              		.loc 1 118 0
 1405 005a 804B     		ldr	r3, .L168
 1406 005c DB78     		ldrb	r3, [r3, #3]	@ zero_extendqisi2
 1407 005e DBB2     		uxtb	r3, r3
 1408 0060 022B     		cmp	r3, #2
 1409 0062 13D1     		bne	.L120
 120:Generated_Source\PSoC5/USBFS_std.c ****                     
 1410              		.loc 1 120 0
 1411 0064 7D4B     		ldr	r3, .L168
 1412 0066 9878     		ldrb	r0, [r3, #2]	@ zero_extendqisi2
 1413 0068 FFF7FEFF 		bl	USBFS_GetConfigTablePtr
 1414              	.LVL137:
 123:Generated_Source\PSoC5/USBFS_std.c ****                     {
 1415              		.loc 1 123 0
 1416 006c 0028     		cmp	r0, #0
 1417 006e 00F05381 		beq	.L147
ARM GAS  C:\Users\CALEBC~1\AppData\Local\Temp\ccBuh6Ys.s 			page 50


 125:Generated_Source\PSoC5/USBFS_std.c ****                         USBFS_currentTD.count = (uint16)((uint16)(USBFS_currentTD.pData)[USBFS_CONF
 1418              		.loc 1 125 0
 1419 0072 4268     		ldr	r2, [r0, #4]
 1420 0074 7A4B     		ldr	r3, .L168+4
 1421 0076 5A60     		str	r2, [r3, #4]
 126:Generated_Source\PSoC5/USBFS_std.c ****                                                                             (USBFS_currentTD.pData)
 1422              		.loc 1 126 0
 1423 0078 5A68     		ldr	r2, [r3, #4]
 1424 007a D178     		ldrb	r1, [r2, #3]	@ zero_extendqisi2
 127:Generated_Source\PSoC5/USBFS_std.c ****                         requestHandled  = USBFS_InitControlRead();
 1425              		.loc 1 127 0
 1426 007c 5A68     		ldr	r2, [r3, #4]
 1427 007e 9278     		ldrb	r2, [r2, #2]	@ zero_extendqisi2
 126:Generated_Source\PSoC5/USBFS_std.c ****                                                                             (USBFS_currentTD.pData)
 1428              		.loc 1 126 0
 1429 0080 42EA0122 		orr	r2, r2, r1, lsl #8
 1430 0084 1A80     		strh	r2, [r3]	@ movhi
 128:Generated_Source\PSoC5/USBFS_std.c ****                     }
 1431              		.loc 1 128 0
 1432 0086 FFF7FEFF 		bl	USBFS_InitControlRead
 1433              	.LVL138:
 1434 008a 10BD     		pop	{r4, pc}
 1435              	.LVL139:
 1436              	.L120:
 149:Generated_Source\PSoC5/USBFS_std.c ****                 {
 1437              		.loc 1 149 0
 1438 008c 734B     		ldr	r3, .L168
 1439 008e DB78     		ldrb	r3, [r3, #3]	@ zero_extendqisi2
 1440 0090 DBB2     		uxtb	r3, r3
 1441 0092 032B     		cmp	r3, #3
 1442 0094 05D0     		beq	.L148
 1443 0096 32E0     		b	.L163
 1444              	.LVL140:
 1445              	.L124:
 159:Generated_Source\PSoC5/USBFS_std.c ****                         /* Move to next string descriptor */
 1446              		.loc 1 159 0
 1447 0098 0A78     		ldrb	r2, [r1]	@ zero_extendqisi2
 1448              	.LVL141:
 161:Generated_Source\PSoC5/USBFS_std.c ****                         nStr++;
 1449              		.loc 1 161 0
 1450 009a 1144     		add	r1, r1, r2
 1451              	.LVL142:
 162:Generated_Source\PSoC5/USBFS_std.c ****                     }
 1452              		.loc 1 162 0
 1453 009c 0133     		adds	r3, r3, #1
 1454              	.LVL143:
 1455 009e DBB2     		uxtb	r3, r3
 1456              	.LVL144:
 1457 00a0 01E0     		b	.L121
 1458              	.LVL145:
 1459              	.L148:
 1460 00a2 0023     		movs	r3, #0
 1461 00a4 6F49     		ldr	r1, .L168+8
 1462              	.LVL146:
 1463              	.L121:
 156:Generated_Source\PSoC5/USBFS_std.c ****                     {
 1464              		.loc 1 156 0
ARM GAS  C:\Users\CALEBC~1\AppData\Local\Temp\ccBuh6Ys.s 			page 51


 1465 00a6 6D4A     		ldr	r2, .L168
 1466 00a8 9278     		ldrb	r2, [r2, #2]	@ zero_extendqisi2
 1467 00aa D2B2     		uxtb	r2, r2
 1468 00ac 9342     		cmp	r3, r2
 1469 00ae 03D2     		bcs	.L123
 156:Generated_Source\PSoC5/USBFS_std.c ****                     {
 1470              		.loc 1 156 0 is_stmt 0 discriminator 1
 1471 00b0 0A78     		ldrb	r2, [r1]	@ zero_extendqisi2
 1472 00b2 12F0FF0F 		tst	r2, #255
 1473 00b6 EFD1     		bne	.L124
 1474              	.L123:
 168:Generated_Source\PSoC5/USBFS_std.c ****                     {
 1475              		.loc 1 168 0 is_stmt 1
 1476 00b8 684B     		ldr	r3, .L168
 1477              	.LVL147:
 1478 00ba 9B78     		ldrb	r3, [r3, #2]	@ zero_extendqisi2
 1479 00bc DBB2     		uxtb	r3, r3
 1480 00be EE2B     		cmp	r3, #238
 1481 00c0 00D1     		bne	.L125
 170:Generated_Source\PSoC5/USBFS_std.c ****                     }
 1482              		.loc 1 170 0
 1483 00c2 6949     		ldr	r1, .L168+12
 1484              	.LVL148:
 1485              	.L125:
 176:Generated_Source\PSoC5/USBFS_std.c ****                         (USBFS_wValueLoReg == USBFS_DEVICE0_DESCR[USBFS_DEVICE_DESCR_SN_SHIFT]))
 1486              		.loc 1 176 0
 1487 00c4 654B     		ldr	r3, .L168
 1488 00c6 9B78     		ldrb	r3, [r3, #2]	@ zero_extendqisi2
 1489 00c8 13F0FF0F 		tst	r3, #255
 1490 00cc 0BD0     		beq	.L126
 177:Generated_Source\PSoC5/USBFS_std.c ****                     {
 1491              		.loc 1 177 0 discriminator 1
 1492 00ce 634B     		ldr	r3, .L168
 1493 00d0 9B78     		ldrb	r3, [r3, #2]	@ zero_extendqisi2
 1494 00d2 DBB2     		uxtb	r3, r3
 1495 00d4 654A     		ldr	r2, .L168+16
 1496 00d6 127C     		ldrb	r2, [r2, #16]	@ zero_extendqisi2
 176:Generated_Source\PSoC5/USBFS_std.c ****                         (USBFS_wValueLoReg == USBFS_DEVICE0_DESCR[USBFS_DEVICE_DESCR_SN_SHIFT]))
 1497              		.loc 1 176 0 discriminator 1
 1498 00d8 9342     		cmp	r3, r2
 1499 00da 04D1     		bne	.L126
 181:Generated_Source\PSoC5/USBFS_std.c ****                         pStr = USBFS_idSerialNumberStringDescriptor;
 1500              		.loc 1 181 0
 1501 00dc 644C     		ldr	r4, .L168+20
 1502 00de 2046     		mov	r0, r4
 1503 00e0 FFF7FEFF 		bl	USBFS_ReadDieID
 1504              	.LVL149:
 182:Generated_Source\PSoC5/USBFS_std.c ****                     #elif defined(USBFS_ENABLE_FWSN_STRING)
 1505              		.loc 1 182 0
 1506 00e4 2146     		mov	r1, r4
 1507              	.LVL150:
 1508              	.L126:
 199:Generated_Source\PSoC5/USBFS_std.c ****                     {
 1509              		.loc 1 199 0
 1510 00e6 0B78     		ldrb	r3, [r1]	@ zero_extendqisi2
 1511 00e8 13F0FF0F 		tst	r3, #255
 1512 00ec 00F01681 		beq	.L150
ARM GAS  C:\Users\CALEBC~1\AppData\Local\Temp\ccBuh6Ys.s 			page 52


 201:Generated_Source\PSoC5/USBFS_std.c ****                         USBFS_currentTD.pData = pStr;
 1513              		.loc 1 201 0
 1514 00f0 0B78     		ldrb	r3, [r1]	@ zero_extendqisi2
 1515 00f2 5B4A     		ldr	r2, .L168+4
 1516 00f4 1380     		strh	r3, [r2]	@ movhi
 202:Generated_Source\PSoC5/USBFS_std.c ****                         requestHandled  = USBFS_InitControlRead();
 1517              		.loc 1 202 0
 1518 00f6 5160     		str	r1, [r2, #4]
 203:Generated_Source\PSoC5/USBFS_std.c ****                     }
 1519              		.loc 1 203 0
 1520 00f8 FFF7FEFF 		bl	USBFS_InitControlRead
 1521              	.LVL151:
 1522 00fc 10BD     		pop	{r4, pc}
 1523              	.LVL152:
 1524              	.L163:
 209:Generated_Source\PSoC5/USBFS_std.c ****                 }
 1525              		.loc 1 209 0
 1526 00fe FFF7FEFF 		bl	USBFS_DispatchClassRqst
 1527              	.LVL153:
 1528 0102 10BD     		pop	{r4, pc}
 1529              	.LVL154:
 1530              	.L114:
 214:Generated_Source\PSoC5/USBFS_std.c ****                 {
 1531              		.loc 1 214 0
 1532 0104 13F00303 		ands	r3, r3, #3
 1533              	.LVL155:
 1534 0108 17D0     		beq	.L127
 1535 010a 022B     		cmp	r3, #2
 1536 010c 40F00881 		bne	.L164
 217:Generated_Source\PSoC5/USBFS_std.c ****                         USBFS_tBuffer[0u]     = USBFS_EP[USBFS_wIndexLoReg & USBFS_DIR_UNUSED].hwEp
 1537              		.loc 1 217 0
 1538 0110 5349     		ldr	r1, .L168+4
 1539 0112 0B80     		strh	r3, [r1]	@ movhi
 218:Generated_Source\PSoC5/USBFS_std.c ****                         USBFS_tBuffer[1u]     = 0u;
 1540              		.loc 1 218 0
 1541 0114 514B     		ldr	r3, .L168
 1542 0116 1B79     		ldrb	r3, [r3, #4]	@ zero_extendqisi2
 1543 0118 03F07F03 		and	r3, r3, #127
 1544 011c 03EB4303 		add	r3, r3, r3, lsl #1
 1545 0120 9A00     		lsls	r2, r3, #2
 1546 0122 544B     		ldr	r3, .L168+24
 1547 0124 1A44     		add	r2, r2, r3
 1548 0126 9278     		ldrb	r2, [r2, #2]	@ zero_extendqisi2
 1549 0128 D2B2     		uxtb	r2, r2
 1550 012a 534B     		ldr	r3, .L168+28
 1551 012c 1A70     		strb	r2, [r3]
 219:Generated_Source\PSoC5/USBFS_std.c ****                         USBFS_currentTD.pData = &USBFS_tBuffer[0u];
 1552              		.loc 1 219 0
 1553 012e 0022     		movs	r2, #0
 1554 0130 5A70     		strb	r2, [r3, #1]
 220:Generated_Source\PSoC5/USBFS_std.c ****                         
 1555              		.loc 1 220 0
 1556 0132 4B60     		str	r3, [r1, #4]
 222:Generated_Source\PSoC5/USBFS_std.c ****                         break;
 1557              		.loc 1 222 0
 1558 0134 FFF7FEFF 		bl	USBFS_InitControlRead
 1559              	.LVL156:
ARM GAS  C:\Users\CALEBC~1\AppData\Local\Temp\ccBuh6Ys.s 			page 53


 223:Generated_Source\PSoC5/USBFS_std.c ****                     case USBFS_RQST_RCPT_DEV:
 1560              		.loc 1 223 0
 1561 0138 10BD     		pop	{r4, pc}
 1562              	.LVL157:
 1563              	.L127:
 225:Generated_Source\PSoC5/USBFS_std.c ****                         USBFS_tBuffer[0u]     = USBFS_deviceStatus;
 1564              		.loc 1 225 0
 1565 013a 4949     		ldr	r1, .L168+4
 1566 013c 0223     		movs	r3, #2
 1567 013e 0B80     		strh	r3, [r1]	@ movhi
 226:Generated_Source\PSoC5/USBFS_std.c ****                         USBFS_tBuffer[1u]     = 0u;
 1568              		.loc 1 226 0
 1569 0140 4E4B     		ldr	r3, .L168+32
 1570 0142 1A78     		ldrb	r2, [r3]	@ zero_extendqisi2
 1571 0144 D2B2     		uxtb	r2, r2
 1572 0146 4C4B     		ldr	r3, .L168+28
 1573 0148 1A70     		strb	r2, [r3]
 227:Generated_Source\PSoC5/USBFS_std.c ****                         USBFS_currentTD.pData = &USBFS_tBuffer[0u];
 1574              		.loc 1 227 0
 1575 014a 0022     		movs	r2, #0
 1576 014c 5A70     		strb	r2, [r3, #1]
 228:Generated_Source\PSoC5/USBFS_std.c ****                         
 1577              		.loc 1 228 0
 1578 014e 4B60     		str	r3, [r1, #4]
 230:Generated_Source\PSoC5/USBFS_std.c ****                         break;
 1579              		.loc 1 230 0
 1580 0150 FFF7FEFF 		bl	USBFS_InitControlRead
 1581              	.LVL158:
 231:Generated_Source\PSoC5/USBFS_std.c ****                     default:    /* requestHandled is initialized as FALSE by default */
 1582              		.loc 1 231 0
 1583 0154 10BD     		pop	{r4, pc}
 1584              	.LVL159:
 1585              	.L117:
 238:Generated_Source\PSoC5/USBFS_std.c ****                 USBFS_currentTD.pData = (volatile uint8 *) &USBFS_configuration;
 1586              		.loc 1 238 0
 1587 0156 424B     		ldr	r3, .L168+4
 1588              	.LVL160:
 1589 0158 0122     		movs	r2, #1
 1590 015a 1A80     		strh	r2, [r3]	@ movhi
 239:Generated_Source\PSoC5/USBFS_std.c ****                 requestHandled  = USBFS_InitControlRead();
 1591              		.loc 1 239 0
 1592 015c 484A     		ldr	r2, .L168+36
 1593 015e 5A60     		str	r2, [r3, #4]
 240:Generated_Source\PSoC5/USBFS_std.c ****                 break;
 1594              		.loc 1 240 0
 1595 0160 FFF7FEFF 		bl	USBFS_InitControlRead
 1596              	.LVL161:
 241:Generated_Source\PSoC5/USBFS_std.c ****                 
 1597              		.loc 1 241 0
 1598 0164 10BD     		pop	{r4, pc}
 1599              	.LVL162:
 1600              	.L118:
 244:Generated_Source\PSoC5/USBFS_std.c ****                 USBFS_currentTD.pData = (volatile uint8 *) &USBFS_interfaceSetting[USBFS_wIndexLoRe
 1601              		.loc 1 244 0
 1602 0166 3E4A     		ldr	r2, .L168+4
 1603 0168 0123     		movs	r3, #1
 1604              	.LVL163:
ARM GAS  C:\Users\CALEBC~1\AppData\Local\Temp\ccBuh6Ys.s 			page 54


 1605 016a 1380     		strh	r3, [r2]	@ movhi
 245:Generated_Source\PSoC5/USBFS_std.c ****                 requestHandled  = USBFS_InitControlRead();
 1606              		.loc 1 245 0
 1607 016c 3B4B     		ldr	r3, .L168
 1608 016e 1B79     		ldrb	r3, [r3, #4]	@ zero_extendqisi2
 1609 0170 4449     		ldr	r1, .L168+40
 1610 0172 0B44     		add	r3, r3, r1
 1611 0174 5360     		str	r3, [r2, #4]
 246:Generated_Source\PSoC5/USBFS_std.c ****                 break;
 1612              		.loc 1 246 0
 1613 0176 FFF7FEFF 		bl	USBFS_InitControlRead
 1614              	.LVL164:
 247:Generated_Source\PSoC5/USBFS_std.c ****                 
 1615              		.loc 1 247 0
 1616 017a 10BD     		pop	{r4, pc}
 1617              	.LVL165:
 1618              	.L112:
 256:Generated_Source\PSoC5/USBFS_std.c ****         {
 1619              		.loc 1 256 0
 1620 017c 374A     		ldr	r2, .L168
 1621 017e 5278     		ldrb	r2, [r2, #1]	@ zero_extendqisi2
 1622 0180 013A     		subs	r2, r2, #1
 1623 0182 0A2A     		cmp	r2, #10
 1624 0184 00F2CE80 		bhi	.L152
 1625 0188 DFE812F0 		tbh	[pc, r2, lsl #1]
 1626              	.L130:
 1627 018c 4C00     		.2byte	(.L129-.L130)/2
 1628 018e CC00     		.2byte	(.L152-.L130)/2
 1629 0190 9700     		.2byte	(.L131-.L130)/2
 1630 0192 CC00     		.2byte	(.L152-.L130)/2
 1631 0194 0B00     		.2byte	(.L132-.L130)/2
 1632 0196 CC00     		.2byte	(.L152-.L130)/2
 1633 0198 CC00     		.2byte	(.L152-.L130)/2
 1634 019a CC00     		.2byte	(.L152-.L130)/2
 1635 019c 1300     		.2byte	(.L133-.L130)/2
 1636 019e CC00     		.2byte	(.L152-.L130)/2
 1637 01a0 3000     		.2byte	(.L134-.L130)/2
 1638              		.p2align 1
 1639              	.L132:
 260:Generated_Source\PSoC5/USBFS_std.c ****                 requestHandled = USBFS_InitNoDataControlTransfer();
 1640              		.loc 1 260 0
 1641 01a2 2E4B     		ldr	r3, .L168
 1642              	.LVL166:
 1643 01a4 9B78     		ldrb	r3, [r3, #2]	@ zero_extendqisi2
 1644 01a6 DBB2     		uxtb	r3, r3
 1645 01a8 374A     		ldr	r2, .L168+44
 1646 01aa 1370     		strb	r3, [r2]
 261:Generated_Source\PSoC5/USBFS_std.c ****                 break;
 1647              		.loc 1 261 0
 1648 01ac FFF7FEFF 		bl	USBFS_InitNoDataControlTransfer
 1649              	.LVL167:
 262:Generated_Source\PSoC5/USBFS_std.c ****                 
 1650              		.loc 1 262 0
 1651 01b0 10BD     		pop	{r4, pc}
 1652              	.LVL168:
 1653              	.L133:
 265:Generated_Source\PSoC5/USBFS_std.c ****                 
ARM GAS  C:\Users\CALEBC~1\AppData\Local\Temp\ccBuh6Ys.s 			page 55


 1654              		.loc 1 265 0
 1655 01b2 2A4B     		ldr	r3, .L168
 1656              	.LVL169:
 1657 01b4 9B78     		ldrb	r3, [r3, #2]	@ zero_extendqisi2
 1658              	.LVL170:
 268:Generated_Source\PSoC5/USBFS_std.c ****                 {
 1659              		.loc 1 268 0
 1660 01b6 03F0FF04 		and	r4, r3, #255
 1661 01ba 1BB1     		cbz	r3, .L135
 270:Generated_Source\PSoC5/USBFS_std.c ****                 }
 1662              		.loc 1 270 0
 1663 01bc 601E     		subs	r0, r4, #1
 1664 01be C0B2     		uxtb	r0, r0
 1665 01c0 FFF7FEFF 		bl	USBFS_GetConfigTablePtr
 1666              	.LVL171:
 1667              	.L135:
 274:Generated_Source\PSoC5/USBFS_std.c ****                 {
 1668              		.loc 1 274 0
 1669 01c4 04B1     		cbz	r4, .L136
 274:Generated_Source\PSoC5/USBFS_std.c ****                 {
 1670              		.loc 1 274 0 is_stmt 0 discriminator 1
 1671 01c6 10B9     		cbnz	r0, .L137
 1672              	.L136:
 274:Generated_Source\PSoC5/USBFS_std.c ****                 {
 1673              		.loc 1 274 0 discriminator 3
 1674 01c8 002C     		cmp	r4, #0
 1675 01ca 40F0AD80 		bne	.L153
 1676              	.L137:
 277:Generated_Source\PSoC5/USBFS_std.c ****                     {
 1677              		.loc 1 277 0 is_stmt 1
 1678 01ce 2C4B     		ldr	r3, .L168+36
 1679 01d0 1B78     		ldrb	r3, [r3]	@ zero_extendqisi2
 1680 01d2 DBB2     		uxtb	r3, r3
 1681 01d4 9C42     		cmp	r4, r3
 1682 01d6 06D0     		beq	.L138
 279:Generated_Source\PSoC5/USBFS_std.c ****                         USBFS_configurationChanged = USBFS_TRUE;
 1683              		.loc 1 279 0
 1684 01d8 294B     		ldr	r3, .L168+36
 1685 01da 1C70     		strb	r4, [r3]
 280:Generated_Source\PSoC5/USBFS_std.c ****                         USBFS_Config(USBFS_TRUE);
 1686              		.loc 1 280 0
 1687 01dc 0120     		movs	r0, #1
 1688              	.LVL172:
 1689 01de 2B4B     		ldr	r3, .L168+48
 1690 01e0 1870     		strb	r0, [r3]
 281:Generated_Source\PSoC5/USBFS_std.c ****                     }
 1691              		.loc 1 281 0
 1692 01e2 FFF7FEFF 		bl	USBFS_Config
 1693              	.LVL173:
 1694              	.L138:
 283:Generated_Source\PSoC5/USBFS_std.c ****                 }
 1695              		.loc 1 283 0
 1696 01e6 FFF7FEFF 		bl	USBFS_InitNoDataControlTransfer
 1697              	.LVL174:
 1698 01ea 10BD     		pop	{r4, pc}
 1699              	.LVL175:
 1700              	.L134:
ARM GAS  C:\Users\CALEBC~1\AppData\Local\Temp\ccBuh6Ys.s 			page 56


 288:Generated_Source\PSoC5/USBFS_std.c ****                 {
 1701              		.loc 1 288 0
 1702 01ec FFF7FEFF 		bl	USBFS_ValidateAlternateSetting
 1703              	.LVL176:
 1704 01f0 0028     		cmp	r0, #0
 1705 01f2 00F09B80 		beq	.L154
 291:Generated_Source\PSoC5/USBFS_std.c ****                     USBFS_interfaceNumber = (uint8) USBFS_wIndexLoReg;
 1706              		.loc 1 291 0
 1707 01f6 194A     		ldr	r2, .L168
 1708 01f8 1379     		ldrb	r3, [r2, #4]	@ zero_extendqisi2
 1709 01fa DBB2     		uxtb	r3, r3
 1710              	.LVL177:
 292:Generated_Source\PSoC5/USBFS_std.c ****                      
 1711              		.loc 1 292 0
 1712 01fc 1279     		ldrb	r2, [r2, #4]	@ zero_extendqisi2
 1713 01fe D2B2     		uxtb	r2, r2
 1714 0200 2349     		ldr	r1, .L168+52
 1715 0202 0A70     		strb	r2, [r1]
 295:Generated_Source\PSoC5/USBFS_std.c ****                     {
 1716              		.loc 1 295 0
 1717 0204 234A     		ldr	r2, .L168+56
 1718 0206 D25C     		ldrb	r2, [r2, r3]	@ zero_extendqisi2
 1719 0208 D2B2     		uxtb	r2, r2
 1720 020a 1E49     		ldr	r1, .L168+40
 1721 020c CB5C     		ldrb	r3, [r1, r3]	@ zero_extendqisi2
 1722              	.LVL178:
 1723 020e DBB2     		uxtb	r3, r3
 1724 0210 9A42     		cmp	r2, r3
 1725 0212 04D0     		beq	.L139
 297:Generated_Source\PSoC5/USBFS_std.c ****                     
 1726              		.loc 1 297 0
 1727 0214 0122     		movs	r2, #1
 1728 0216 1D4B     		ldr	r3, .L168+48
 1729 0218 1A70     		strb	r2, [r3]
 303:Generated_Source\PSoC5/USBFS_std.c ****                     #endif /* (USBFS_EP_MANAGEMENT_MANUAL && USBFS_EP_ALLOC_DYNAMIC) */
 1730              		.loc 1 303 0
 1731 021a FFF7FEFF 		bl	USBFS_ConfigAltChanged
 1732              	.LVL179:
 1733              	.L139:
 307:Generated_Source\PSoC5/USBFS_std.c ****                 }
 1734              		.loc 1 307 0
 1735 021e FFF7FEFF 		bl	USBFS_InitNoDataControlTransfer
 1736              	.LVL180:
 1737 0222 10BD     		pop	{r4, pc}
 1738              	.LVL181:
 1739              	.L129:
 312:Generated_Source\PSoC5/USBFS_std.c ****                 {
 1740              		.loc 1 312 0
 1741 0224 03F00303 		and	r3, r3, #3
 1742              	.LVL182:
 1743 0228 012B     		cmp	r3, #1
 1744 022a 35D0     		beq	.L140
 1745 022c 4BB1     		cbz	r3, .L141
 1746 022e 022B     		cmp	r3, #2
 1747 0230 7ED1     		bne	.L165
 315:Generated_Source\PSoC5/USBFS_std.c ****                         {
 1748              		.loc 1 315 0
ARM GAS  C:\Users\CALEBC~1\AppData\Local\Temp\ccBuh6Ys.s 			page 57


 1749 0232 0A4B     		ldr	r3, .L168
 1750 0234 9B78     		ldrb	r3, [r3, #2]	@ zero_extendqisi2
 1751 0236 13F0FF0F 		tst	r3, #255
 1752 023a 7BD1     		bne	.L156
 317:Generated_Source\PSoC5/USBFS_std.c ****                         }
 1753              		.loc 1 317 0
 1754 023c FFF7FEFF 		bl	USBFS_ClearEndpointHalt
 1755              	.LVL183:
 1756 0240 10BD     		pop	{r4, pc}
 1757              	.LVL184:
 1758              	.L141:
 322:Generated_Source\PSoC5/USBFS_std.c ****                         {
 1759              		.loc 1 322 0
 1760 0242 064B     		ldr	r3, .L168
 1761 0244 9B78     		ldrb	r3, [r3, #2]	@ zero_extendqisi2
 1762 0246 DBB2     		uxtb	r3, r3
 1763 0248 012B     		cmp	r3, #1
 1764 024a 75D1     		bne	.L157
 324:Generated_Source\PSoC5/USBFS_std.c ****                             requestHandled = USBFS_InitNoDataControlTransfer();
 1765              		.loc 1 324 0
 1766 024c 0B4A     		ldr	r2, .L168+32
 1767 024e 1378     		ldrb	r3, [r2]	@ zero_extendqisi2
 1768 0250 03F0FD03 		and	r3, r3, #253
 1769 0254 1370     		strb	r3, [r2]
 325:Generated_Source\PSoC5/USBFS_std.c ****                         }
 1770              		.loc 1 325 0
 1771 0256 FFF7FEFF 		bl	USBFS_InitNoDataControlTransfer
 1772              	.LVL185:
 1773 025a 10BD     		pop	{r4, pc}
 1774              	.L169:
 1775              		.align	2
 1776              	.L168:
 1777 025c 00600040 		.word	1073766400
 1778 0260 00000000 		.word	USBFS_currentTD
 1779 0264 00000000 		.word	USBFS_STRING_DESCRIPTORS
 1780 0268 00000000 		.word	USBFS_MSOS_DESCRIPTOR
 1781 026c 00000000 		.word	USBFS_DEVICE0_DESCR
 1782 0270 00000000 		.word	USBFS_idSerialNumberStringDescriptor
 1783 0274 00000000 		.word	USBFS_EP
 1784 0278 00000000 		.word	.LANCHOR0
 1785 027c 00000000 		.word	USBFS_deviceStatus
 1786 0280 00000000 		.word	USBFS_configuration
 1787 0284 00000000 		.word	USBFS_interfaceSetting
 1788 0288 00000000 		.word	USBFS_deviceAddress
 1789 028c 00000000 		.word	USBFS_configurationChanged
 1790 0290 00000000 		.word	USBFS_interfaceNumber
 1791 0294 00000000 		.word	USBFS_interfaceSettingLast
 1792              	.LVL186:
 1793              	.L140:
 330:Generated_Source\PSoC5/USBFS_std.c ****                         {
 1794              		.loc 1 330 0
 1795 0298 2D4B     		ldr	r3, .L170
 1796 029a 1B79     		ldrb	r3, [r3, #4]	@ zero_extendqisi2
 1797 029c 13F0FF0F 		tst	r3, #255
 1798 02a0 4CD1     		bne	.L158
 332:Generated_Source\PSoC5/USBFS_std.c ****                             requestHandled = USBFS_InitNoDataControlTransfer();
 1799              		.loc 1 332 0
ARM GAS  C:\Users\CALEBC~1\AppData\Local\Temp\ccBuh6Ys.s 			page 58


 1800 02a2 2B4B     		ldr	r3, .L170
 1801 02a4 9878     		ldrb	r0, [r3, #2]	@ zero_extendqisi2
 1802 02a6 1B79     		ldrb	r3, [r3, #4]	@ zero_extendqisi2
 1803 02a8 DBB2     		uxtb	r3, r3
 1804 02aa 2A49     		ldr	r1, .L170+4
 1805 02ac CA5C     		ldrb	r2, [r1, r3]	@ zero_extendqisi2
 1806 02ae 22EA0002 		bic	r2, r2, r0
 1807 02b2 CA54     		strb	r2, [r1, r3]
 333:Generated_Source\PSoC5/USBFS_std.c ****                         }
 1808              		.loc 1 333 0
 1809 02b4 FFF7FEFF 		bl	USBFS_InitNoDataControlTransfer
 1810              	.LVL187:
 1811 02b8 10BD     		pop	{r4, pc}
 1812              	.LVL188:
 1813              	.L131:
 342:Generated_Source\PSoC5/USBFS_std.c ****                 {
 1814              		.loc 1 342 0
 1815 02ba 03F00303 		and	r3, r3, #3
 1816              	.LVL189:
 1817 02be 012B     		cmp	r3, #1
 1818 02c0 17D0     		beq	.L143
 1819 02c2 4BB1     		cbz	r3, .L144
 1820 02c4 022B     		cmp	r3, #2
 1821 02c6 3BD1     		bne	.L166
 345:Generated_Source\PSoC5/USBFS_std.c ****                         {
 1822              		.loc 1 345 0
 1823 02c8 214B     		ldr	r3, .L170
 1824 02ca 9B78     		ldrb	r3, [r3, #2]	@ zero_extendqisi2
 1825 02cc 13F0FF0F 		tst	r3, #255
 1826 02d0 38D1     		bne	.L160
 347:Generated_Source\PSoC5/USBFS_std.c ****                         }
 1827              		.loc 1 347 0
 1828 02d2 FFF7FEFF 		bl	USBFS_SetEndpointHalt
 1829              	.LVL190:
 1830 02d6 10BD     		pop	{r4, pc}
 1831              	.LVL191:
 1832              	.L144:
 353:Generated_Source\PSoC5/USBFS_std.c ****                         {
 1833              		.loc 1 353 0
 1834 02d8 1D4B     		ldr	r3, .L170
 1835 02da 9B78     		ldrb	r3, [r3, #2]	@ zero_extendqisi2
 1836 02dc DBB2     		uxtb	r3, r3
 1837 02de 012B     		cmp	r3, #1
 1838 02e0 32D1     		bne	.L161
 355:Generated_Source\PSoC5/USBFS_std.c ****                             requestHandled = USBFS_InitNoDataControlTransfer();
 1839              		.loc 1 355 0
 1840 02e2 1D4A     		ldr	r2, .L170+8
 1841 02e4 1378     		ldrb	r3, [r2]	@ zero_extendqisi2
 1842 02e6 43F00203 		orr	r3, r3, #2
 1843 02ea 1370     		strb	r3, [r2]
 356:Generated_Source\PSoC5/USBFS_std.c ****                         }
 1844              		.loc 1 356 0
 1845 02ec FFF7FEFF 		bl	USBFS_InitNoDataControlTransfer
 1846              	.LVL192:
 1847 02f0 10BD     		pop	{r4, pc}
 1848              	.LVL193:
 1849              	.L143:
ARM GAS  C:\Users\CALEBC~1\AppData\Local\Temp\ccBuh6Ys.s 			page 59


 362:Generated_Source\PSoC5/USBFS_std.c ****                         {
 1850              		.loc 1 362 0
 1851 02f2 174B     		ldr	r3, .L170
 1852 02f4 1B79     		ldrb	r3, [r3, #4]	@ zero_extendqisi2
 1853 02f6 13F0FF0F 		tst	r3, #255
 1854 02fa 27D1     		bne	.L162
 364:Generated_Source\PSoC5/USBFS_std.c ****                             requestHandled = USBFS_InitNoDataControlTransfer();
 1855              		.loc 1 364 0
 1856 02fc 144B     		ldr	r3, .L170
 1857 02fe 9878     		ldrb	r0, [r3, #2]	@ zero_extendqisi2
 1858 0300 1B79     		ldrb	r3, [r3, #4]	@ zero_extendqisi2
 1859 0302 DBB2     		uxtb	r3, r3
 1860 0304 1349     		ldr	r1, .L170+4
 1861 0306 CA5C     		ldrb	r2, [r1, r3]	@ zero_extendqisi2
 1862 0308 22EA0002 		bic	r2, r2, r0
 1863 030c CA54     		strb	r2, [r1, r3]
 365:Generated_Source\PSoC5/USBFS_std.c ****                         }
 1864              		.loc 1 365 0
 1865 030e FFF7FEFF 		bl	USBFS_InitNoDataControlTransfer
 1866              	.LVL194:
 1867 0312 10BD     		pop	{r4, pc}
 1868              	.LVL195:
 1869              	.L146:
  86:Generated_Source\PSoC5/USBFS_std.c ****     uint8 interfaceNumber;
 1870              		.loc 1 86 0
 1871 0314 0020     		movs	r0, #0
 1872 0316 10BD     		pop	{r4, pc}
 1873              	.LVL196:
 1874              	.L147:
 1875 0318 0020     		movs	r0, #0
 1876              	.LVL197:
 1877 031a 10BD     		pop	{r4, pc}
 1878              	.LVL198:
 1879              	.L150:
 1880 031c 0020     		movs	r0, #0
 1881 031e 10BD     		pop	{r4, pc}
 1882              	.LVL199:
 1883              	.L164:
 1884 0320 0020     		movs	r0, #0
 1885 0322 10BD     		pop	{r4, pc}
 1886              	.LVL200:
 1887              	.L152:
 1888 0324 0020     		movs	r0, #0
 1889 0326 10BD     		pop	{r4, pc}
 1890              	.LVL201:
 1891              	.L153:
 1892 0328 0020     		movs	r0, #0
 1893              	.LVL202:
 1894 032a 10BD     		pop	{r4, pc}
 1895              	.L154:
 1896 032c 0020     		movs	r0, #0
 1897 032e 10BD     		pop	{r4, pc}
 1898              	.L165:
 1899 0330 0020     		movs	r0, #0
 1900 0332 10BD     		pop	{r4, pc}
 1901              	.L156:
 1902 0334 0020     		movs	r0, #0
ARM GAS  C:\Users\CALEBC~1\AppData\Local\Temp\ccBuh6Ys.s 			page 60


 1903 0336 10BD     		pop	{r4, pc}
 1904              	.L157:
 1905 0338 0020     		movs	r0, #0
 1906 033a 10BD     		pop	{r4, pc}
 1907              	.L158:
 1908 033c 0020     		movs	r0, #0
 1909 033e 10BD     		pop	{r4, pc}
 1910              	.L166:
 1911 0340 0020     		movs	r0, #0
 1912 0342 10BD     		pop	{r4, pc}
 1913              	.L160:
 1914 0344 0020     		movs	r0, #0
 1915 0346 10BD     		pop	{r4, pc}
 1916              	.L161:
 1917 0348 0020     		movs	r0, #0
 1918 034a 10BD     		pop	{r4, pc}
 1919              	.L162:
 1920 034c 0020     		movs	r0, #0
 1921              	.LVL203:
 380:Generated_Source\PSoC5/USBFS_std.c **** 
 1922              		.loc 1 380 0
 1923 034e 10BD     		pop	{r4, pc}
 1924              	.L171:
 1925              		.align	2
 1926              	.L170:
 1927 0350 00600040 		.word	1073766400
 1928 0354 00000000 		.word	USBFS_interfaceStatus
 1929 0358 00000000 		.word	USBFS_deviceStatus
 1930              		.cfi_endproc
 1931              	.LFE0:
 1932              		.size	USBFS_HandleStandardRqst, .-USBFS_HandleStandardRqst
 1933              		.section	.rodata.str1.4,"aMS",%progbits,1
 1934              		.align	2
 1935              	.LC0:
 1936 0000 30313233 		.ascii	"0123456789ABCDEF\000"
 1936      34353637 
 1936      38394142 
 1936      43444546 
 1936      00
 1937              		.bss
 1938              		.align	2
 1939              		.set	.LANCHOR0,. + 0
 1940              		.type	USBFS_tBuffer.5288, %object
 1941              		.size	USBFS_tBuffer.5288, 2
 1942              	USBFS_tBuffer.5288:
 1943 0000 0000     		.space	2
 1944              		.text
 1945              	.Letext0:
 1946              		.file 2 "Generated_Source\\PSoC5\\cytypes.h"
 1947              		.file 3 "Generated_Source\\PSoC5\\USBFS.h"
 1948              		.file 4 "Generated_Source\\PSoC5\\USBFS_pvt.h"
 1949              		.file 5 "Generated_Source\\PSoC5\\CyLib.h"